# Path: libSocketUDT-macosx-x86-64.so
# Arch: x86_64
# UUID:  0  0  0  0  0  0  0  0  0  0  0  0  0  0  0  0 
# Object files:
[  0] linker synthesized
[  1] channel.o
[  2] core.o
[  3] common.o
[  4] packet.o
[  5] com_barchart_udt_SocketUDT.o
[  6] api.o
[  7] ccc.o
[  8] buffer.o
[  9] epoll.o
[ 10] window.o
[ 11] md5.o
[ 12] list.o
[ 13] cache.o
[ 14] queue.o
# Sections:
# Address	Size    	Segment	Section
0x000013B0	0x00025400	__TEXT	__text
0x000267B0	0x0000099C	__TEXT	__symbol_stub1
0x00027150	0x00001282	__TEXT	__cstring
0x000283E0	0x000001D0	__TEXT	__const
0x000285B0	0x00000E34	__TEXT	__stub_helper
0x000293E4	0x00004656	__TEXT	__gcc_except_tab
0x0002DA40	0x00000AB8	__TEXT	__unwind_info
0x0002E4F8	0x00007AF8	__TEXT	__eh_frame
0x00036000	0x00000010	__DATA	__mod_init_func
0x00036010	0x000000C8	__DATA	__nl_symbol_ptr
0x000360D8	0x00000CD0	__DATA	__la_symbol_ptr
0x00036DC0	0x000001F0	__DATA	__const
0x00036FC0	0x00000070	__DATA	__data
0x00037040	0x00000320	__DATA	__common
0x00037360	0x00000238	__DATA	__bss
# Symbols:
# Address	Size    	File  Name
0x000013B0	0x00000040	[  2] __Z41__static_initialization_and_destruction_0ii
0x000013F0	0x00000014	[  2] __GLOBAL__I__ZN4CUDT11s_UDTUnitedE
0x00001410	0x000001E0	[  2] __ZNSt8_Rb_treeIiiSt9_IdentityIiESt4lessIiESaIiEE8_M_eraseEPSt13_Rb_tree_nodeIiE
0x000015F0	0x00000010	[  3] __ZN6CGuard12releaseMutexER23_opaque_pthread_mutex_t
0x00001600	0x00000010	[  3] __ZN6CGuard11createMutexER23_opaque_pthread_mutex_t
0x00001610	0x00000030	[  3] __ZN6CTimer7getTimeEv
0x00001640	0x00000030	[  3] __Z41__static_initialization_and_destruction_0ii
0x00001670	0x00000014	[  3] __GLOBAL__I__ZN6CTimer17s_ullCPUFrequencyE
0x00001690	0x00000330	[  6] __ZN10CUDTUnitedC2Ev
0x000019C0	0x00000010	[  6] __ZN10CUDTUnitedC1Ev
0x000019D0	0x000001E0	[  6] __ZNSt8_Rb_treeIiSt4pairIKi12CMultiplexerESt10_Select1stIS3_ESt4lessIiESaIS3_EE8_M_eraseEPSt13_Rb_tree_nodeIS3_E
0x00001BB0	0x000001E0	[  6] __ZNSt8_Rb_treeIiSt4pairIKiP10CUDTSocketESt10_Select1stIS4_ESt4lessIiESaIS4_EE8_M_eraseEPSt13_Rb_tree_nodeIS4_E
0x00001D90	0x000003D0	[  6] __ZNSt8_Rb_treeIxSt4pairIKxSt3setIiSt4lessIiESaIiEEESt10_Select1stIS7_ES3_IxESaIS7_EE8_M_eraseEPSt13_Rb_tree_nodeIS7_E
0x00002160	0x00000070	[  9] __ZN6CEPollC1Ev
0x000021D0	0x00000060	[  9] __ZN6CEPollD1Ev
0x00002230	0x00000CE4	[  9] __ZNSt8_Rb_treeIiSt4pairIKi10CEPollDescESt10_Select1stIS3_ESt4lessIiESaIS3_EE8_M_eraseEPSt13_Rb_tree_nodeIS3_E
0x00002F20	0x000000B0	[ 13] __ZN6CCacheC2Ev
0x00002FD0	0x00000010	[ 13] __ZN6CCacheC1Ev
0x00002FE0	0x000001E0	[ 13] __ZNSt8_Rb_treeIP10CInfoBlockS1_St9_IdentityIS1_E7CIPCompSaIS1_EE8_M_eraseEPSt13_Rb_tree_nodeIS1_E
0x000031C0	0x000001E0	[ 13] __ZNSt8_Rb_treeIP10CInfoBlockS1_St9_IdentityIS1_E7CTSCompSaIS1_EE8_M_eraseEPSt13_Rb_tree_nodeIS1_E
0x000033A0	0x00000000	[  0] minimal text
0x000033A0	0x00000030	[  1] __ZN8CChannelC2Ev
0x000033D0	0x00000030	[  1] __ZN8CChannelC1Ev
0x00003400	0x00000020	[  1] __ZN8CChannelC2ERKi
0x00003420	0x00000020	[  1] __ZN8CChannelC1ERKi
0x00003440	0x00000010	[  1] __ZN8CChannelD2Ev
0x00003450	0x00000010	[  1] __ZN8CChannelD1Ev
0x00003460	0x00000010	[  1] __ZN8CChannel13setSndBufSizeERKi
0x00003470	0x00000010	[  1] __ZN8CChannel13setRcvBufSizeERKi
0x00003480	0x00000030	[  1] __ZNK8CChannel11getPeerAddrEP8sockaddr
0x000034B0	0x00000030	[  1] __ZNK8CChannel11getSockAddrEP8sockaddr
0x000034E0	0x00000040	[  1] __ZN8CChannel13getRcvBufSizeEv
0x00003520	0x00000040	[  1] __ZN8CChannel13getSndBufSizeEv
0x00003560	0x00000010	[  1] __ZNK8CChannel5closeEv
0x00003570	0x00000110	[  1] __ZN8CChannel13setUDPSockOptEv
0x00003680	0x00000010	[  1] __ZN8CChannel4openEi
0x00003690	0x000001B0	[  1] __ZN8CChannel4openEPK8sockaddr
0x00003840	0x00000120	[  1] __ZNK8CChannel8recvfromEP8sockaddrR7CPacket
0x00003960	0x0000016F	[  1] __ZNK8CChannel6sendtoEPK8sockaddrR7CPacket
0x00003AD0	0x00000110	[  2] __ZN4CUDT8addEPollEi
0x00003BE0	0x00000300	[  2] __ZN4CUDT6listenEP8sockaddrR7CPacket
0x00003EE0	0x00000090	[  2] __ZN4CUDT12releaseSynchEv
0x00003F70	0x00000660	[  2] __ZN4CUDT8sendCtrlERKiPvS2_S1_
0x000045D0	0x00000080	[  2] __ZN4CUDT12destroySynchEv
0x00004650	0x00000090	[  2] __ZN4CUDT9initSynchEv
0x000046E0	0x000002C0	[  2] __ZN4CUDT6getOptE6UDTOptPvRi
0x000049A0	0x000006D0	[  2] __ZN4CUDT6setOptE6UDTOptPKvRKi
0x00005070	0x000003D0	[  2] __ZN4CUDT7recvmsgEPcRKi
0x00005440	0x000004C0	[  2] __ZN4CUDT7sendmsgEPKcRKiS3_RKb
0x00005900	0x000004A0	[  2] __ZN4CUDT4sendEPKcRKi
0x00005DA0	0x000003E0	[  2] __ZN4CUDT4recvEPcRKi
0x00006180	0x00000230	[  2] __ZN4CUDT5closeEv
0x000063B0	0x00000530	[  2] __ZN4CUDT7connectEPK8sockaddrP10CHandShake
0x000068E0	0x00000170	[  2] __ZN4CUDT6listenEv
0x00006A50	0x00000320	[  2] __ZN4CUDT4openEv
0x00006D70	0x000004A0	[  2] __ZN4CUDT6sampleEP8CPerfMonb
0x00007210	0x00000430	[  2] __ZN4CUDT11checkTimersEv
0x00007640	0x000004B0	[  2] __ZN4CUDT8recvfileERSt13basic_fstreamIcSt11char_traitsIcEERxRKxRKi
0x00007AF0	0x00000340	[  2] __ZN4CUDT11processDataEP5CUnit
0x00007E30	0x00000C90	[  2] __ZN4CUDT11processCtrlER7CPacket
0x00008AC0	0x00000440	[  2] __ZN4CUDT8packDataER7CPacketRy
0x00008F00	0x00000510	[  2] __ZN4CUDT8sendfileERSt13basic_fstreamIcSt11char_traitsIcEERxRKxRKi
0x00009410	0x00000170	[  2] __ZN4CUDTD2Ev
0x00009580	0x00000010	[  2] __ZN4CUDTD1Ev
0x00009590	0x000001C0	[  2] __ZN4CUDTC2ERKS_
0x00009750	0x00000010	[  2] __ZN4CUDTC1ERKS_
0x00009760	0x000001F0	[  2] __ZN4CUDTC2Ev
0x00009950	0x00000010	[  2] __ZN4CUDTC1Ev
0x00009960	0x00000050	[  2] __ZN4CUDT11removeEPollEi
0x000099B0	0x00000E3A	[  2] __ZN4CUDT7connectEPK8sockaddr
0x0000A7F0	0x00000020	[  2] __ZN10CCCFactoryI6CUDTCCED0Ev
0x0000A810	0x00000020	[  2] __ZN10CCCFactoryI6CUDTCCED1Ev
0x0000A830	0x00000020	[  2] __ZN17CCCVirtualFactoryD0Ev
0x0000A850	0x00000020	[  2] __ZN17CCCVirtualFactoryD1Ev
0x0000A870	0x00000020	[  2] __ZN10CCCFactoryI6CUDTCCE5cloneEv
0x0000A890	0x000000A0	[  2] __ZNSt8_Rb_treeIiiSt9_IdentityIiESt4lessIiESaIiEE9_M_insertEPSt18_Rb_tree_node_baseS7_RKi
0x0000A930	0x000000D0	[  2] __ZNSt8_Rb_treeIiiSt9_IdentityIiESt4lessIiESaIiEE16_M_insert_uniqueERKi
0x0000AA00	0x00000050	[  2] __ZN10CCCFactoryI6CUDTCCE6createEv
0x0000AA50	0x00000158	[  2] __ZNSt8_Rb_treeIiiSt9_IdentityIiESt4lessIiESaIiEE5eraseERKi
0x0000ABB0	0x00000010	[  3] __ZN6CTimer16readCPUFrequencyEv
0x0000ABC0	0x00000010	[  3] __ZN6CTimer15getCPUFrequencyEv
0x0000ABD0	0x00000040	[  3] __ZN13CUDTExceptionC2ERKS_
0x0000AC10	0x00000010	[  3] __ZN13CUDTExceptionC1ERKS_
0x0000AC20	0x00000010	[  3] __ZNK13CUDTException12getErrorCodeEv
0x0000AC30	0x00000020	[  3] __ZN13CUDTException5clearEv
0x0000AC50	0x000000F0	[  3] __ZN10CIPAddress5ipcmpEPK8sockaddrS2_RKi
0x0000AD40	0x000000B0	[  3] __ZN10CIPAddress4ntopEPK8sockaddrPjRKi
0x0000ADF0	0x00000090	[  3] __ZN10CIPAddress4ptonEP8sockaddrPKjRKi
0x0000AE80	0x00000080	[  3] __ZN4CMD57computeEPKcPh
0x0000AF00	0x00000010	[  3] __ZN6CGuard11releaseCondER22_opaque_pthread_cond_t
0x0000AF10	0x00000010	[  3] __ZN6CGuard10createCondER22_opaque_pthread_cond_t
0x0000AF20	0x00000030	[  3] __ZN6CTimerD1Ev
0x0000AF50	0x00000030	[  3] __ZN6CTimerD2Ev
0x0000AF80	0x00000050	[  3] __ZN6CTimerC1Ev
0x0000AFD0	0x00000050	[  3] __ZN6CTimerC2Ev
0x0000B020	0x00000010	[  3] __ZN6CGuard7leaveCSER23_opaque_pthread_mutex_t
0x0000B030	0x00000020	[  3] __ZN6CGuardD1Ev
0x0000B050	0x00000020	[  3] __ZN6CGuardD2Ev
0x0000B070	0x00000010	[  3] __ZN6CGuard7enterCSER23_opaque_pthread_mutex_t
0x0000B080	0x00000030	[  3] __ZN6CGuardC1ER23_opaque_pthread_mutex_t
0x0000B0B0	0x00000030	[  3] __ZN6CGuardC2ER23_opaque_pthread_mutex_t
0x0000B0E0	0x00000010	[  3] __ZN6CTimer5sleepEv
0x0000B0F0	0x00000030	[  3] __ZN6CTimer5rdtscERy
0x0000B120	0x00000090	[  3] __ZN6CTimer12waitForEventEv
0x0000B1B0	0x00000020	[  3] __ZN6CTimer12triggerEventEv
0x0000B1D0	0x00000010	[  3] __ZN6CTimer4tickEv
0x0000B1E0	0x00000100	[  3] __ZN6CTimer7sleeptoERKy
0x0000B2E0	0x00000050	[  3] __ZN6CTimer5sleepERKy
0x0000B330	0x00000040	[  3] __ZN6CTimer9interruptEv
0x0000B370	0x000000C0	[  3] __ZN13CUDTExceptionD0Ev
0x0000B430	0x000000B0	[  3] __ZN13CUDTExceptionD1Ev
0x0000B4E0	0x000000B0	[  3] __ZN13CUDTExceptionD2Ev
0x0000B590	0x00000100	[  3] __ZN13CUDTExceptionC2Eiii
0x0000B690	0x00000010	[  3] __ZN13CUDTExceptionC1Eiii
0x0000B6A0	0x00000616	[  3] __ZN13CUDTException15getErrorMessageEv
0x0000BCC0	0x00000070	[  4] __ZN7CPacketC2Ev
0x0000BD30	0x00000070	[  4] __ZN7CPacketC1Ev
0x0000BDA0	0x00000010	[  4] __ZN7CPacketD2Ev
0x0000BDB0	0x00000010	[  4] __ZN7CPacketD1Ev
0x0000BDC0	0x00000010	[  4] __ZNK7CPacket9getLengthEv
0x0000BDD0	0x00000010	[  4] __ZN7CPacket9setLengthERKi
0x0000BDE0	0x00000110	[  4] __ZN7CPacket4packERKiPvS2_S1_
0x0000BEF0	0x00000010	[  4] __ZN7CPacket15getPacketVectorEv
0x0000BF00	0x00000010	[  4] __ZNK7CPacket7getFlagEv
0x0000BF10	0x00000010	[  4] __ZNK7CPacket7getTypeEv
0x0000BF20	0x00000010	[  4] __ZNK7CPacket15getExtendedTypeEv
0x0000BF30	0x00000010	[  4] __ZNK7CPacket11getAckSeqNoEv
0x0000BF40	0x00000010	[  4] __ZNK7CPacket14getMsgBoundaryEv
0x0000BF50	0x00000010	[  4] __ZNK7CPacket15getMsgOrderFlagEv
0x0000BF60	0x00000010	[  4] __ZNK7CPacket9getMsgSeqEv
0x0000BF70	0x00000060	[  4] __ZN10CHandShakeC2Ev
0x0000BFD0	0x00000060	[  4] __ZN10CHandShakeC1Ev
0x0000C030	0x00000060	[  4] __ZN10CHandShake9serializeEPcRKi
0x0000C090	0x00000060	[  4] __ZN10CHandShake11deserializeEPKcRKi
0x0000C0F0	0x000000C7	[  4] __ZNK7CPacket5cloneEv
0x0000C1C0	0x00000020	[  5] _UDT_GetSocketID
0x0000C1E0	0x00000020	[  5] _UDT_SetSocketID
0x0000C200	0x00000470	[  5] _UDT_InitFieldMonitor
0x0000C670	0x00000200	[  5] _UDT_InitFieldRefAll
0x0000C870	0x00000010	[  5] _Java_com_barchart_udt_SocketUDT_getSignatureJNI0
0x0000C880	0x00000010	[  5] _Java_com_barchart_udt_SocketUDT_testEmptyCall0
0x0000C890	0x00000020	[  5] _Java_com_barchart_udt_SocketUDT_testMakeArray0
0x0000C8B0	0x00000300	[  5] _UDT_InitMethodRefAll
0x0000CBB0	0x00000070	[  5] _X_InitMethodRef
0x0000CC20	0x00000060	[  5] _XXX_ThrowSocketExceptionMessage
0x0000CC80	0x000000B0	[  5] _X_InitClassReference
0x0000CD30	0x00000160	[  5] _UDT_InitClassRefAll
0x0000CE90	0x00000020	[  5] _Java_com_barchart_udt_SocketUDT_testCrashJVM0
0x0000CEB0	0x00000020	[  5] _Java_com_barchart_udt_SocketUDT_clearError0
0x0000CED0	0x00000020	[  5] _Java_com_barchart_udt_SocketUDT_getErrorCode0
0x0000CEF0	0x00000060	[  5] _Java_com_barchart_udt_SocketUDT_testIterateSet0
0x0000CF50	0x000000C0	[  5] _UDT_NewExceptionUDT
0x0000D010	0x00000060	[  5] _UDT_NewLingerUDT
0x0000D070	0x000000C0	[  5] _X_NewInetAddress
0x0000D130	0x00000050	[  5] _X_NewLong
0x0000D180	0x00000050	[  5] _X_NewInteger
0x0000D1D0	0x00000050	[  5] _X_NewBoolean
0x0000D220	0x00000050	[  5] _UDT_CopySetToArray
0x0000D270	0x000000B0	[  5] _UDT_CopyArrayToSet
0x0000D320	0x00000110	[  5] _X_IsSockaddrEqualsInetSocketAddress
0x0000D430	0x000000C0	[  5] _X_NewInetSocketAddress
0x0000D4F0	0x000000F0	[  5] _X_ConvertInetSocketAddressToSockaddr
0x0000D5E0	0x00000050	[  5] _X_InitSockAddr
0x0000D630	0x000000E0	[  5] _X_ConvertSockaddrToInetSocketAddress
0x0000D710	0x00000070	[  5] _Java_com_barchart_udt_SocketUDT_testFillArray0
0x0000D780	0x00000080	[  5] _Java_com_barchart_udt_SocketUDT_testGetSetArray0
0x0000D800	0x00000050	[  5] _Java_com_barchart_udt_SocketUDT_getErrorMessage0
0x0000D850	0x00000060	[  5] _Java_com_barchart_udt_SocketUDT_testIterateArray0
0x0000D8B0	0x00000060	[  5] _Java_com_barchart_udt_SocketUDT_testFillBuffer0
0x0000D910	0x00000070	[  5] _Java_com_barchart_udt_SocketUDT_testDirectIntBufferAccess0
0x0000D980	0x00000070	[  5] _Java_com_barchart_udt_SocketUDT_testDirectByteBufferAccess0
0x0000D9F0	0x000000F0	[  5] _Java_com_barchart_udt_SocketUDT_hasLoadedLocalSocketAddress
0x0000DAE0	0x000000F0	[  5] _Java_com_barchart_udt_SocketUDT_hasLoadedRemoteSocketAddress
0x0000DBD0	0x00000030	[  5] _Java_com_barchart_udt_SocketUDT_testSocketStatus0
0x0000DC00	0x00000050	[  5] _UDT_IsSocketOpen
0x0000DC50	0x00000050	[  5] _Java_com_barchart_udt_SocketUDT_isOpen0
0x0000DCA0	0x00000130	[  5] _UDT_ThrowExceptionUDT_ErrorInfo
0x0000DDD0	0x00000090	[  5] _Java_com_barchart_udt_SocketUDT_testInvalidClose0
0x0000DE60	0x00000560	[  5] _Java_com_barchart_udt_SocketUDT_select1
0x0000E3C0	0x00000490	[  5] _Java_com_barchart_udt_SocketUDT_updateMonitor0
0x0000E850	0x00000090	[  5] _UDT_ReturnSendError
0x0000E8E0	0x00000090	[  5] _UDT_ReturnReceiveError
0x0000E970	0x000000B0	[  5] _Java_com_barchart_udt_SocketUDT_listen0
0x0000EA20	0x000001A0	[  5] _Java_com_barchart_udt_SocketUDT_accept0
0x0000EBC0	0x00000090	[  5] _Java_com_barchart_udt_SocketUDT_initInstance1
0x0000EC50	0x000000C0	[  5] _Java_com_barchart_udt_SocketUDT_initInstance0
0x0000ED10	0x00000080	[  5] _Java_com_barchart_udt_SocketUDT_stopClass0
0x0000ED90	0x000000A0	[  5] _Java_com_barchart_udt_SocketUDT_initClass0
0x0000EE30	0x000000D0	[  5] _UDT_ThrowExceptionUDT_Message
0x0000EF00	0x00000720	[  5] _Java_com_barchart_udt_SocketUDT_select0
0x0000F620	0x00000120	[  5] _Java_com_barchart_udt_SocketUDT_send0
0x0000F740	0x00000140	[  5] _Java_com_barchart_udt_SocketUDT_receive0
0x0000F880	0x00000060	[  5] _X_IsValidRange
0x0000F8E0	0x000002B0	[  5] _Java_com_barchart_udt_SocketUDT_setOption0
0x0000FB90	0x00000220	[  5] _Java_com_barchart_udt_SocketUDT_getOption0
0x0000FDB0	0x00000140	[  5] _Java_com_barchart_udt_SocketUDT_connect0
0x0000FEF0	0x00000110	[  5] _Java_com_barchart_udt_SocketUDT_close0
0x00010000	0x00000120	[  5] _Java_com_barchart_udt_SocketUDT_bind0
0x00010120	0x00000180	[  5] _Java_com_barchart_udt_SocketUDT_send2
0x000102A0	0x000001E0	[  5] _Java_com_barchart_udt_SocketUDT_send1
0x00010480	0x00000170	[  5] _Java_com_barchart_udt_SocketUDT_receive2
0x000105F0	0x00000200	[  5] _Java_com_barchart_udt_SocketUDT_receive1
0x000107F0	0x00000260	[  5] _Java_com_barchart_udt_SocketUDT_selectEx1
0x00010A50	0x00000601	[  5] _Java_com_barchart_udt_SocketUDT_selectEx0
0x00011060	0x000000A0	[  5] __ZN7JNIEnv_14CallLongMethodEP8_jobjectP10_jmethodIDz
0x00011100	0x000000A0	[  5] __ZN7JNIEnv_13CallIntMethodEP8_jobjectP10_jmethodIDz
0x000111A0	0x000000A0	[  5] __ZN7JNIEnv_17CallBooleanMethodEP8_jobjectP10_jmethodIDz
0x00011240	0x000000A0	[  5] __ZN7JNIEnv_16CallObjectMethodEP8_jobjectP10_jmethodIDz
0x000112E0	0x000000A0	[  5] __ZN7JNIEnv_9NewObjectEP7_jclassP10_jmethodIDz
0x00011380	0x00000180	[  5] __ZNSt6vectorIiSaIiEE13_M_insert_auxEN9__gnu_cxx17__normal_iteratorIPiS1_EERKi
0x00011500	0x000000D0	[  6] __ZN10CUDTUnited9updateMuxEP10CUDTSocketPKS0_
0x000115D0	0x00000090	[  6] __ZN10CUDTUnited8getErrorEv
0x00011660	0x00000020	[  6] __ZN4CUDT12getlasterrorEv
0x00011680	0x00000050	[  6] __ZN10CUDTUnited8setErrorEP13CUDTException
0x000116D0	0x00000020	[  6] __ZN10CUDTUnited13epoll_releaseEi
0x000116F0	0x00000020	[  6] __ZN10CUDTUnited10epoll_waitEiPSt3setIiSt4lessIiESaIiEES5_xS5_S5_
0x00011710	0x00000020	[  6] __ZN10CUDTUnited18epoll_remove_ssockEiiPKi
0x00011730	0x000000F0	[  6] __ZN10CUDTUnited6lookupEi
0x00011820	0x00000030	[  6] __ZN4CUDT12getUDTHandleEi
0x00011850	0x00000020	[  6] __ZN10CUDTUnited15epoll_add_ssockEiiPKi
0x00011870	0x00000020	[  6] __ZN10CUDTUnited12epoll_createEv
0x00011890	0x000000D0	[  6] __ZN10CUDTUnited7cleanupEv
0x00011960	0x00000020	[  6] __ZN4CUDT7cleanupEv
0x00011980	0x000000C0	[  6] __ZN10CUDTSocketC1Ev
0x00011A40	0x000000C0	[  6] __ZN10CUDTSocketC2Ev
0x00011B00	0x000000E0	[  6] __ZN10CUDTUnited7startupEv
0x00011BE0	0x00000020	[  6] __ZN4CUDT7startupEv
0x00011C00	0x000004A0	[  6] __ZN10CUDTUnited9updateMuxEP10CUDTSocketPK8sockaddrPKi
0x000120A0	0x00000020	[  6] __ZN3UDT7startupEv
0x000120C0	0x00000020	[  6] __ZN3UDT7cleanupEv
0x000120E0	0x00000020	[  6] __ZN3UDT12getlasterrorEv
0x00012100	0x00000150	[  6] __ZN10CUDTUnited6locateEiPK8sockaddrRKiS4_
0x00012250	0x000000A0	[  6] __ZN10CUDTUnited6locateEi
0x000122F0	0x000000B0	[  6] __ZN10CUDTUnited18epoll_remove_usockEiiPKi
0x000123A0	0x000000B0	[  6] __ZN10CUDTUnited15epoll_add_usockEiiPKi
0x00012450	0x00000110	[  6] __ZN10CUDTUnited11getsocknameEiP8sockaddrPi
0x00012560	0x00000230	[  6] __ZN10CUDTUnited7connectEiPK8sockaddrRKi
0x00012790	0x000001A0	[  6] __ZN10CUDTUnited4bindEii
0x00012930	0x00000160	[  6] __ZN10CUDTUnited4bindEiPK8sockaddrRKi
0x00012A90	0x000000A0	[  6] __ZN10CUDTUnited9getStatusEi
0x00012B30	0x00000160	[  6] __ZN10CUDTUnited11getpeernameEiP8sockaddrPi
0x00012C90	0x000001C0	[  6] __ZN10CUDTUnited5closeEi
0x00012E50	0x00000250	[  6] __ZN10CUDTUnited8selectExERKSt6vectorIiSaIiEEPS2_S5_S5_x
0x000130A0	0x00000220	[  6] __ZN10CUDTUnited6listenEiRKi
0x000132C0	0x000000B0	[  6] __ZN10CUDTSocketD2Ev
0x00013370	0x00000010	[  6] __ZN10CUDTSocketD1Ev
0x00013380	0x00000190	[  6] __ZN10CUDTUnitedD2Ev
0x00013510	0x00000010	[  6] __ZN10CUDTUnitedD1Ev
0x00013520	0x00000380	[  6] __ZN10CUDTUnited9newSocketERKiS1_
0x000138A0	0x000006A0	[  6] __ZN10CUDTUnited12removeSocketEi
0x00013F40	0x00000470	[  6] __ZN10CUDTUnited18checkBrokenSocketsEv
0x000143B0	0x00000360	[  6] __ZN10CUDTUnited14garbageCollectEPv
0x00014710	0x00000AE0	[  6] __ZN10CUDTUnited6selectEPSt3setIiSt4lessIiESaIiEES5_S5_PK7timeval
0x000151F0	0x00000700	[  6] __ZN10CUDTUnited13newConnectionEiPK8sockaddrP10CHandShake
0x000158F0	0x00000370	[  6] __ZN10CUDTUnited6acceptEiP8sockaddrPi
0x00015C60	0x00000180	[  6] __ZN4CUDT6listenEii
0x00015DE0	0x00000010	[  6] __ZN3UDT6listenEii
0x00015DF0	0x00000180	[  6] __ZN4CUDT4bindEii
0x00015F70	0x00000010	[  6] __ZN3UDT4bindEii
0x00015F80	0x00000180	[  6] __ZN4CUDT7perfmonEiP8CPerfMonb
0x00016100	0x00000010	[  6] __ZN3UDT7perfmonEiP8CPerfMonb
0x00016110	0x00000180	[  6] __ZN4CUDT13epoll_releaseEi
0x00016290	0x00000010	[  6] __ZN3UDT13epoll_releaseEi
0x000162A0	0x00000190	[  6] __ZN4CUDT4bindEiPK8sockaddri
0x00016430	0x00000010	[  6] __ZN3UDT4bindEiPK8sockaddri
0x00016440	0x000001A0	[  6] __ZN4CUDT6socketEiii
0x000165E0	0x00000010	[  6] __ZN3UDT6socketEiii
0x000165F0	0x00000190	[  6] __ZN4CUDT10epoll_waitEiPSt3setIiSt4lessIiESaIiEES5_xS5_S5_
0x00016780	0x00000010	[  6] __ZN3UDT10epoll_waitEiPSt3setIiSt4lessIiESaIiEES5_xS5_S5_
0x00016790	0x00000180	[  6] __ZN4CUDT18epoll_remove_ssockEiiPKi
0x00016910	0x00000180	[  6] __ZN4CUDT18epoll_remove_usockEiiPKi
0x00016A90	0x00000010	[  6] __ZN3UDT18epoll_remove_ssockEiiPKi
0x00016AA0	0x00000010	[  6] __ZN3UDT18epoll_remove_usockEiiPKi
0x00016AB0	0x00000180	[  6] __ZN4CUDT15epoll_add_ssockEiiPKi
0x00016C30	0x00000010	[  6] __ZN3UDT15epoll_add_ssockEiiPKi
0x00016C40	0x00000180	[  6] __ZN4CUDT15epoll_add_usockEiiPKi
0x00016DC0	0x00000010	[  6] __ZN3UDT15epoll_add_usockEiiPKi
0x00016DD0	0x00000170	[  6] __ZN4CUDT12epoll_createEv
0x00016F40	0x00000010	[  6] __ZN3UDT12epoll_createEv
0x00016F50	0x00000270	[  6] __ZN4CUDT8selectExERKSt6vectorIiSaIiEEPS2_S5_S5_x
0x000171C0	0x00000010	[  6] __ZN3UDT8selectExERKSt6vectorIiSaIiEEPS2_S5_S5_x
0x000171D0	0x00000260	[  6] __ZN4CUDT6selectEiPSt3setIiSt4lessIiESaIiEES5_S5_PK7timeval
0x00017430	0x00000010	[  6] __ZN3UDT6selectEiPSt3setIiSt4lessIiESaIiEES5_S5_PK7timeval
0x00017440	0x000001A0	[  6] __ZN4CUDT8recvfileEiRSt13basic_fstreamIcSt11char_traitsIcEERxRKxRKi
0x000175E0	0x00000020	[  6] __ZN3UDT8recvfileEiRSt13basic_fstreamIcSt11char_traitsIcEERxxi
0x00017600	0x00000210	[  6] __ZN4CUDT8sendfileEiRSt13basic_fstreamIcSt11char_traitsIcEERxRKxRKi
0x00017810	0x00000020	[  6] __ZN3UDT8sendfileEiRSt13basic_fstreamIcSt11char_traitsIcEERxxi
0x00017830	0x00000190	[  6] __ZN4CUDT7recvmsgEiPci
0x000179C0	0x00000010	[  6] __ZN3UDT7recvmsgEiPci
0x000179D0	0x00000210	[  6] __ZN4CUDT7sendmsgEiPKciib
0x00017BE0	0x00000010	[  6] __ZN3UDT7sendmsgEiPKciib
0x00017BF0	0x00000190	[  6] __ZN4CUDT4recvEiPcii
0x00017D80	0x00000010	[  6] __ZN3UDT4recvEiPcii
0x00017D90	0x00000200	[  6] __ZN4CUDT4sendEiPKcii
0x00017F90	0x00000010	[  6] __ZN3UDT4sendEiPKcii
0x00017FA0	0x00000190	[  6] __ZN4CUDT10setsockoptEii6UDTOptPKvi
0x00018130	0x00000010	[  6] __ZN3UDT10setsockoptEii6UDTOptPKvi
0x00018140	0x00000190	[  6] __ZN4CUDT10getsockoptEii6UDTOptPvPi
0x000182D0	0x00000010	[  6] __ZN3UDT10getsockoptEii6UDTOptPvPi
0x000182E0	0x00000180	[  6] __ZN4CUDT11getsocknameEiP8sockaddrPi
0x00018460	0x00000010	[  6] __ZN3UDT11getsocknameEiP8sockaddrPi
0x00018470	0x00000180	[  6] __ZN4CUDT11getpeernameEiP8sockaddrPi
0x000185F0	0x00000010	[  6] __ZN3UDT11getpeernameEiP8sockaddrPi
0x00018600	0x00000170	[  6] __ZN4CUDT5closeEi
0x00018770	0x00000010	[  6] __ZN3UDT5closeEi
0x00018780	0x000001E0	[  6] __ZN4CUDT7connectEiPK8sockaddri
0x00018960	0x00000010	[  6] __ZN3UDT7connectEiPK8sockaddri
0x00018970	0x00000120	[  6] __ZN4CUDT6acceptEiP8sockaddrPi
0x00018A90	0x0000000A	[  6] __ZN3UDT6acceptEiP8sockaddrPi
0x00018AA0	0x00000030	[  6] __ZN10CUDTUnited10TLSDestroyEPv
0x00018AD0	0x000000F0	[  6] __ZNSt8_Rb_treeIiSt4pairIKi12CMultiplexerESt10_Select1stIS3_ESt4lessIiESaIS3_EE9_M_insertEPSt18_Rb_tree_node_baseSB_RKS3_
0x00018BC0	0x000000B0	[  6] __ZNSt8_Rb_treeIiSt4pairIKiP10CUDTSocketESt10_Select1stIS4_ESt4lessIiESaIS4_EE9_M_insertEPSt18_Rb_tree_node_baseSC_RKS4_
0x00018C70	0x000000D0	[  6] __ZNSt8_Rb_treeIiSt4pairIKiP10CUDTSocketESt10_Select1stIS4_ESt4lessIiESaIS4_EE16_M_insert_uniqueERKS4_
0x00018D40	0x000000D0	[  6] __ZNSt8_Rb_treeIiSt4pairIKi12CMultiplexerESt10_Select1stIS3_ESt4lessIiESaIS3_EE16_M_insert_uniqueERKS3_
0x00018E10	0x00000180	[  6] __ZNSt6vectorIP10CUDTSocketSaIS1_EE13_M_insert_auxEN9__gnu_cxx17__normal_iteratorIPS1_S3_EERKS1_
0x00018F90	0x00000190	[  6] __ZNSt8_Rb_treeIiSt4pairIKi12CMultiplexerESt10_Select1stIS3_ESt4lessIiESaIS3_EE16_M_insert_uniqueESt17_Rb_tree_iteratorIS3_ERKS3_
0x00019120	0x00000190	[  6] __ZNSt8_Rb_treeIiSt4pairIKiP10CUDTSocketESt10_Select1stIS4_ESt4lessIiESaIS4_EE16_M_insert_uniqueESt17_Rb_tree_iteratorIS4_ERKS4_
0x000192B0	0x00000140	[  6] __ZNSt8_Rb_treeIiSt4pairIKiP10CUDTSocketESt10_Select1stIS4_ESt4lessIiESaIS4_EE5eraseERS1_
0x000193F0	0x00000140	[  6] __ZNSt8_Rb_treeIiiSt9_IdentityIiESt4lessIiESaIiEE7_M_copyEPKSt13_Rb_tree_nodeIiEPS7_
0x00019530	0x00000140	[  6] __ZNSt8_Rb_treeIxSt4pairIKxSt3setIiSt4lessIiESaIiEEESt10_Select1stIS7_ES3_IxESaIS7_EE9_M_insertEPSt18_Rb_tree_node_baseSE_RKS7_
0x00019670	0x000000D0	[  6] __ZNSt8_Rb_treeIxSt4pairIKxSt3setIiSt4lessIiESaIiEEESt10_Select1stIS7_ES3_IxESaIS7_EE16_M_insert_uniqueERKS7_
0x00019740	0x000001A0	[  6] __ZNSt8_Rb_treeIxSt4pairIKxSt3setIiSt4lessIiESaIiEEESt10_Select1stIS7_ES3_IxESaIS7_EE16_M_insert_uniqueESt17_Rb_tree_iteratorIS7_ERKS7_
0x000198E0	0x000002F9	[  6] __ZNSt8_Rb_treeIiiSt9_IdentityIiESt4lessIiESaIiEE16_M_insert_uniqueESt23_Rb_tree_const_iteratorIiERKi
0x00019BE0	0x000000B0	[  7] __ZN3CCCC2Ev
0x00019C90	0x000000B0	[  7] __ZN3CCCC1Ev
0x00019D40	0x00000020	[  7] __ZN3CCC11setACKTimerERKi
0x00019D60	0x00000010	[  7] __ZN3CCC14setACKIntervalERKi
0x00019D70	0x00000010	[  7] __ZN3CCC6setRTOERKi
0x00019D80	0x00000010	[  7] __ZN3CCC6setMSSERKi
0x00019D90	0x00000010	[  7] __ZN3CCC12setBandwidthERKi
0x00019DA0	0x00000010	[  7] __ZN3CCC15setSndCurrSeqNoERKi
0x00019DB0	0x00000010	[  7] __ZN3CCC10setRcvRateERKi
0x00019DC0	0x00000010	[  7] __ZN3CCC14setMaxCWndSizeERKi
0x00019DD0	0x00000010	[  7] __ZN3CCC6setRTTERKi
0x00019DE0	0x00000060	[  7] __ZN6CUDTCC9onTimeoutEv
0x00019E40	0x000001D0	[  7] __ZN6CUDTCC6onLossEPKiRS0_
0x0001A010	0x00000290	[  7] __ZN6CUDTCC5onACKERKi
0x0001A2A0	0x00000040	[  7] __ZN3CCCD0Ev
0x0001A2E0	0x00000030	[  7] __ZN3CCCD1Ev
0x0001A310	0x00000030	[  7] __ZN3CCCD2Ev
0x0001A340	0x00000060	[  7] __ZN3CCC12setUserParamEPKcRKi
0x0001A3A0	0x00000040	[  7] __ZN3CCC11getPerfInfoEv
0x0001A3E0	0x00000060	[  7] __ZNK3CCC13sendCustomMsgER7CPacket
0x0001A440	0x000000C0	[  7] __ZN6CUDTCC4initEv
0x0001A500	0x00000120	[  7] __ZN6CUDTCCC1Ev
0x0001A620	0x00000119	[  7] __ZN6CUDTCCC2Ev
0x0001A740	0x00000010	[  7] __ZN3CCC4initEv
0x0001A750	0x00000010	[  7] __ZN3CCC5closeEv
0x0001A760	0x00000010	[  7] __ZN3CCC5onACKERKi
0x0001A770	0x00000010	[  7] __ZN3CCC6onLossEPKiRS0_
0x0001A780	0x00000010	[  7] __ZN3CCC9onTimeoutEv
0x0001A790	0x00000010	[  7] __ZN3CCC9onPktSentEPK7CPacket
0x0001A7A0	0x00000010	[  7] __ZN3CCC13onPktReceivedEPK7CPacket
0x0001A7B0	0x00000010	[  7] __ZN3CCC16processCustomMsgEPK7CPacket
0x0001A7C0	0x00000040	[  7] __ZN6CUDTCCD0Ev
0x0001A800	0x00000022	[  7] __ZN6CUDTCCD1Ev
0x0001A830	0x00000040	[  8] __ZN10CSndBuffer8readDataEPPcRi
0x0001A870	0x00000010	[  8] __ZNK10CSndBuffer14getCurrBufSizeEv
0x0001A880	0x00000060	[  8] __ZN10CRcvBuffer7addDataEP5CUniti
0x0001A8E0	0x00000020	[  8] __ZNK10CRcvBuffer14getRcvDataSizeEv
0x0001A900	0x00000060	[  8] __ZN10CRcvBuffer7dropMsgERKi
0x0001A960	0x00000270	[  8] __ZN10CRcvBuffer7scanMsgERiS0_Rb
0x0001ABD0	0x00000020	[  8] __ZN10CRcvBuffer12getRcvMsgNumEv
0x0001ABF0	0x00000130	[  8] __ZN10CRcvBuffer7readMsgEPcRKi
0x0001AD20	0x000001A0	[  8] __ZN10CRcvBuffer10readBufferEPcRKi
0x0001AEC0	0x00000030	[  8] __ZN10CRcvBuffer7ackDataERKi
0x0001AEF0	0x00000060	[  8] __ZN10CRcvBufferD1Ev
0x0001AF50	0x00000060	[  8] __ZN10CRcvBufferD2Ev
0x0001AFB0	0x00000070	[  8] __ZN10CRcvBufferC1ERKiP10CUnitQueue
0x0001B020	0x00000080	[  8] __ZN10CRcvBufferC2ERKiP10CUnitQueue
0x0001B0A0	0x00000050	[  8] __ZN10CRcvBufferC1EP10CUnitQueue
0x0001B0F0	0x00000050	[  8] __ZN10CRcvBufferC2EP10CUnitQueue
0x0001B140	0x000001E0	[  8] __ZN10CSndBuffer8increaseEv
0x0001B320	0x00000070	[  8] __ZN10CSndBuffer7ackDataERKi
0x0001B390	0x00000140	[  8] __ZN10CSndBuffer8readDataEPPciRiS2_
0x0001B4D0	0x00000130	[  8] __ZN10CSndBuffer17addBufferFromFileERSt13basic_fstreamIcSt11char_traitsIcEERKi
0x0001B600	0x00000160	[  8] __ZN10CSndBuffer9addBufferEPKcRKiS3_RKb
0x0001B760	0x00000080	[  8] __ZN10CSndBufferD2Ev
0x0001B7E0	0x00000010	[  8] __ZN10CSndBufferD1Ev
0x0001B7F0	0x00000160	[  8] __ZN10CSndBufferC2ERKiS1_
0x0001B950	0x00000010	[  8] __ZN10CSndBufferC1ERKiS1_
0x0001B960	0x00000150	[  8] __ZN10CRcvBuffer16readBufferToFileERSt13basic_fstreamIcSt11char_traitsIcEERKi
0x0001BAB0	0x0000001B	[  8] __ZNK10CRcvBuffer15getAvailBufSizeEv
0x0001BAD0	0x00000110	[  9] __ZN6CEPoll12remove_ssockEiRKiPS0_
0x0001BBE0	0x00000110	[  9] __ZN6CEPoll12remove_usockEiRKiPS0_
0x0001BCF0	0x00000120	[  9] __ZN6CEPoll9add_ssockEiRKiPS0_
0x0001BE10	0x00000120	[  9] __ZN6CEPoll9add_usockEiRKiPS0_
0x0001BF30	0x000006E0	[  9] __ZN6CEPoll4waitEiPSt3setIiSt4lessIiESaIiEES5_xS5_S5_
0x0001C610	0x000001B0	[  9] __ZN6CEPoll11enable_readERKiRSt3setIiSt4lessIiESaIiEE
0x0001C7C0	0x000001C0	[  9] __ZN6CEPoll12enable_writeERKiRSt3setIiSt4lessIiESaIiEE
0x0001C980	0x00000170	[  9] __ZN6CEPoll12disable_readERKiRSt3setIiSt4lessIiESaIiEE
0x0001CAF0	0x00000170	[  9] __ZN6CEPoll13disable_writeERKiRSt3setIiSt4lessIiESaIiEE
0x0001CC60	0x00000070	[  9] __ZN6CEPollC2Ev
0x0001CCD0	0x00000110	[  9] __ZN6CEPollD2Ev
0x0001CDE0	0x00000AE0	[  9] __ZN6CEPoll6createEv
0x0001D8C0	0x0000017D	[  9] __ZN6CEPoll7releaseEi
0x0001DA40	0x00000390	[  9] __ZNSt8_Rb_treeIiSt4pairIKi10CEPollDescESt10_Select1stIS3_ESt4lessIiESaIS3_EE9_M_insertEPSt18_Rb_tree_node_baseSB_RKS3_
0x0001DDD0	0x000000D0	[  9] __ZNSt8_Rb_treeIiSt4pairIKi10CEPollDescESt10_Select1stIS3_ESt4lessIiESaIS3_EE16_M_insert_uniqueERKS3_
0x0001DEA0	0x00000190	[  9] __ZNSt8_Rb_treeIiSt4pairIKi10CEPollDescESt10_Select1stIS3_ESt4lessIiESaIS3_EE16_M_insert_uniqueESt17_Rb_tree_iteratorIS3_ERKS3_
0x0001E030	0x00000010	[ 10] __ZNK14CPktTimeWindow15getMinPktSndIntEv
0x0001E040	0x00000020	[ 10] __ZN14CPktTimeWindow9onPktSentERKi
0x0001E060	0x00000040	[ 10] __ZN14CPktTimeWindow13probe2ArrivalEv
0x0001E0A0	0x00000020	[ 10] __ZN14CPktTimeWindow13probe1ArrivalEv
0x0001E0C0	0x00000050	[ 10] __ZN14CPktTimeWindow12onPktArrivalEv
0x0001E110	0x00000170	[ 10] __ZN10CACKWindow11acknowledgeERKiRi
0x0001E280	0x00000070	[ 10] __ZN10CACKWindow5storeERKiS1_
0x0001E2F0	0x000000F0	[ 10] __ZNK14CPktTimeWindow12getBandwidthEv
0x0001E3E0	0x000000E0	[ 10] __ZNK14CPktTimeWindow14getPktRcvSpeedEv
0x0001E4C0	0x00000040	[ 10] __ZN14CPktTimeWindowD1Ev
0x0001E500	0x00000040	[ 10] __ZN14CPktTimeWindowD2Ev
0x0001E540	0x00000050	[ 10] __ZN10CACKWindowD1Ev
0x0001E590	0x00000050	[ 10] __ZN10CACKWindowD2Ev
0x0001E5E0	0x000000D0	[ 10] __ZN14CPktTimeWindowC1ERKiS1_
0x0001E6B0	0x000000D0	[ 10] __ZN14CPktTimeWindowC2ERKiS1_
0x0001E780	0x000000E0	[ 10] __ZN14CPktTimeWindowC1Ev
0x0001E860	0x000000F0	[ 10] __ZN14CPktTimeWindowC2Ev
0x0001E950	0x00000080	[ 10] __ZN10CACKWindowC1ERKi
0x0001E9D0	0x00000080	[ 10] __ZN10CACKWindowC2ERKi
0x0001EA50	0x00000080	[ 10] __ZN10CACKWindowC1Ev
0x0001EAD0	0x00000077	[ 10] __ZN10CACKWindowC2Ev
0x0001EB50	0x00000030	[ 11] _md5_init
0x0001EB80	0x00000A90	[ 11] __ZL11md5_processP11md5_state_sPKh
0x0001F610	0x00000120	[ 11] _md5_append
0x0001F730	0x00000132	[ 11] _md5_finish
0x0001F870	0x00000010	[ 12] __ZNK12CRcvLossList13getLossLengthEv
0x0001F880	0x00000020	[ 12] __ZNK12CRcvLossList15getFirstLostSeqEv
0x0001F8A0	0x000000D0	[ 12] __ZN12CRcvLossList12getLossArrayEPiRiRKiS3_
0x0001F970	0x00000400	[ 12] __ZN12CRcvLossList6removeERKi
0x0001FD70	0x000000D0	[ 12] __ZN12CRcvLossList6removeERKiS1_
0x0001FE40	0x00000060	[ 12] __ZN12CRcvLossListD1Ev
0x0001FEA0	0x00000060	[ 12] __ZN12CRcvLossListD2Ev
0x0001FF00	0x000000D0	[ 12] __ZN12CRcvLossListC2ERKi
0x0001FFD0	0x00000010	[ 12] __ZN12CRcvLossListC1ERKi
0x0001FFE0	0x00000040	[ 12] __ZN12CSndLossList13getLossLengthEv
0x00020020	0x00000050	[ 12] __ZN12CSndLossListD1Ev
0x00020070	0x00000050	[ 12] __ZN12CSndLossListD2Ev
0x000200C0	0x000000E0	[ 12] __ZN12CSndLossListC2ERKi
0x000201A0	0x00000010	[ 12] __ZN12CSndLossListC1ERKi
0x000201B0	0x00000120	[ 12] __ZNK12CRcvLossList4findERKiS1_
0x000202D0	0x00000420	[ 12] __ZN12CSndLossList6removeERKi
0x000206F0	0x00000150	[ 12] __ZN12CSndLossList10getLostSeqEv
0x00020840	0x00000660	[ 12] __ZN12CSndLossList6insertERKiS1_
0x00020EA0	0x000001EB	[ 12] __ZN12CRcvLossList6insertERKiS1_
0x00021090	0x00000070	[ 13] __ZNK7CIPCompclEPK10CInfoBlockS2_
0x00021100	0x00000020	[ 13] __ZNK7CTSCompclEPK10CInfoBlockS2_
0x00021120	0x00000040	[ 13] __ZN6CCache7convertEPK8sockaddrRKiPj
0x00021160	0x000001D0	[ 13] __ZN6CCache6lookupEPK8sockaddrRKiP10CInfoBlock
0x00021330	0x000000F0	[ 13] __ZN6CCacheC2ERKj
0x00021420	0x00000010	[ 13] __ZN6CCacheC1ERKj
0x00021430	0x000000E0	[ 13] __ZN6CCacheD2Ev
0x00021510	0x00000010	[ 13] __ZN6CCacheD1Ev
0x00021520	0x000002D0	[ 13] __ZN6CCache6updateEPK8sockaddrRKiP10CInfoBlock
0x000217F0	0x00000100	[ 13] __ZNSt8_Rb_treeIP10CInfoBlockS1_St9_IdentityIS1_E7CIPCompSaIS1_EE9_M_insertEPSt18_Rb_tree_node_baseS8_RKS1_
0x000218F0	0x000001B0	[ 13] __ZNSt8_Rb_treeIP10CInfoBlockS1_St9_IdentityIS1_E7CIPCompSaIS1_EE16_M_insert_uniqueERKS1_
0x00021AA0	0x000000B0	[ 13] __ZNSt8_Rb_treeIP10CInfoBlockS1_St9_IdentityIS1_E7CTSCompSaIS1_EE9_M_insertEPSt18_Rb_tree_node_baseS8_RKS1_
0x00021B50	0x000000E0	[ 13] __ZNSt8_Rb_treeIP10CInfoBlockS1_St9_IdentityIS1_E7CTSCompSaIS1_EE16_M_insert_uniqueERKS1_
0x00021C30	0x00000240	[ 13] __ZNSt8_Rb_treeIP10CInfoBlockS1_St9_IdentityIS1_E7CIPCompSaIS1_EE5eraseERKS1_
0x00021E70	0x00000163	[ 13] __ZNSt8_Rb_treeIP10CInfoBlockS1_St9_IdentityIS1_E7CTSCompSaIS1_EE5eraseERKS1_
0x00021FE0	0x00000040	[ 14] __ZN10CUnitQueueC2Ev
0x00022020	0x00000040	[ 14] __ZN10CUnitQueueC1Ev
0x00022060	0x00000010	[ 14] __ZN10CUnitQueue6shrinkEv
0x00022070	0x00000120	[ 14] __ZN9CSndUList7remove_EPK4CUDT
0x00022190	0x00000020	[ 14] __ZN9CRcvUListC2Ev
0x000221B0	0x00000020	[ 14] __ZN9CRcvUListC1Ev
0x000221D0	0x00000010	[ 14] __ZN9CRcvUListD2Ev
0x000221E0	0x00000010	[ 14] __ZN9CRcvUListD1Ev
0x000221F0	0x00000080	[ 14] __ZN9CRcvUList6removeEPK4CUDT
0x00022270	0x00000020	[ 14] __ZN5CHashC2Ev
0x00022290	0x00000020	[ 14] __ZN5CHashC1Ev
0x000222B0	0x00000050	[ 14] __ZN5CHash6lookupERKi
0x00022300	0x00000020	[ 14] __ZN9CRcvQueue10ifNewEntryEv
0x00022320	0x00000060	[ 14] __ZN9CRcvQueue14removeListenerEPK4CUDT
0x00022380	0x00000070	[ 14] __ZN9CRcvQueue11setListenerEPK4CUDT
0x000223F0	0x00000060	[ 14] __ZN9CSndUList15getNextProcTimeEv
0x00022450	0x00000080	[ 14] __ZN5CHash6insertERKiPK4CUDT
0x000224D0	0x00000060	[ 14] __ZN5CHash6removeERKi
0x00022530	0x00000100	[ 14] __ZN16CRendezvousQueue6insertERKiS1_PK8sockaddr
0x00022630	0x00000080	[ 14] __ZN5CHashD1Ev
0x000226B0	0x00000080	[ 14] __ZN5CHashD2Ev
0x00022730	0x000000B0	[ 14] __ZN10CUnitQueueD1Ev
0x000227E0	0x000000B0	[ 14] __ZN10CUnitQueueD2Ev
0x00022890	0x00000060	[ 14] __ZN5CHash4initERKi
0x000228F0	0x00000240	[ 14] __ZN10CUnitQueue8increaseEv
0x00022B30	0x000000C0	[ 14] __ZN10CUnitQueue16getNextAvailUnitEv
0x00022BF0	0x00000210	[ 14] __ZN10CUnitQueue4initERKiS1_S1_
0x00022E00	0x000000B0	[ 14] __ZN16CRendezvousQueue8retrieveEPK8sockaddrRi
0x00022EB0	0x00000090	[ 14] __ZN9CRcvUList6updateEPK4CUDT
0x00022F40	0x00000080	[ 14] __ZN9CRcvUList6insertEPK4CUDT
0x00022FC0	0x00000030	[ 14] __ZN9CSndUListD1Ev
0x00022FF0	0x00000030	[ 14] __ZN9CSndUListD2Ev
0x00023020	0x00000070	[ 14] __ZN9CSndUListC1Ev
0x00023090	0x00000070	[ 14] __ZN9CSndUListC2Ev
0x00023100	0x00000080	[ 14] __ZN9CSndQueueC1Ev
0x00023180	0x00000080	[ 14] __ZN9CSndQueueC2Ev
0x00023200	0x00000030	[ 14] __ZN9CSndQueue6sendtoEPK8sockaddrR7CPacket
0x00023230	0x000000F0	[ 14] __ZN9CSndUList7insert_ERKxPK4CUDT
0x00023320	0x000000D0	[ 14] __ZN9CSndUList6insertERKxPK4CUDT
0x000233F0	0x000000D0	[ 14] __ZN16CRendezvousQueue6removeERKi
0x000234C0	0x00000080	[ 14] __ZN9CRcvQueue11getNewEntryEv
0x00023540	0x00000090	[ 14] __ZN9CRcvQueue11setNewEntryEP4CUDT
0x000235D0	0x000000B0	[ 14] __ZN9CSndQueueD2Ev
0x00023680	0x00000010	[ 14] __ZN9CSndQueueD1Ev
0x00023690	0x00000140	[ 14] __ZN9CSndQueue4initEPK8CChannelPK6CTimer
0x000237D0	0x00000070	[ 14] __ZN16CRendezvousQueueC1Ev
0x00023840	0x00000080	[ 14] __ZN16CRendezvousQueueD2Ev
0x000238C0	0x00000010	[ 14] __ZN16CRendezvousQueueD1Ev
0x000238D0	0x00000070	[ 14] __ZN16CRendezvousQueueC2Ev
0x00023940	0x00000150	[ 14] __ZN9CRcvQueue4initERKiS1_S1_S1_PK8CChannelPK6CTimer
0x00023A90	0x00000150	[ 14] __ZN9CSndUList6removeEPK4CUDT
0x00023BE0	0x00000210	[ 14] __ZN9CSndUList3popERP8sockaddrR7CPacket
0x00023DF0	0x000001A0	[ 14] __ZN9CSndQueue6workerEPv
0x00023F90	0x000001A0	[ 14] __ZN9CSndUList6updateEPK4CUDTRKb
0x00024130	0x00000330	[ 14] __ZN9CRcvQueueD2Ev
0x00024460	0x00000010	[ 14] __ZN9CRcvQueueD1Ev
0x00024470	0x000002A0	[ 14] __ZN9CRcvQueueC2Ev
0x00024710	0x00000010	[ 14] __ZN9CRcvQueueC1Ev
0x00024720	0x00000720	[ 14] __ZN9CRcvQueue8storePktERKiP7CPacket
0x00024E40	0x00000680	[ 14] __ZN9CRcvQueue6workerEPv
0x000254C0	0x00000309	[ 14] __ZN9CRcvQueue8recvfromERKiR7CPacket
0x000257D0	0x000001D0	[ 14] __ZNSt6vectorIN16CRendezvousQueue3CRLESaIS1_EE13_M_insert_auxEN9__gnu_cxx17__normal_iteratorIPS1_S3_EERKS1_
0x000259A0	0x000001A0	[ 14] __ZNSt5dequeIP7CPacketSaIS1_EE17_M_reallocate_mapEmb
0x00025B40	0x000000A0	[ 14] __ZNSt5dequeIP7CPacketSaIS1_EE16_M_push_back_auxERKS1_
0x00025BE0	0x00000180	[ 14] __ZNSt6vectorIP4CUDTSaIS1_EE13_M_insert_auxEN9__gnu_cxx17__normal_iteratorIPS1_S3_EERKS1_
0x00025D60	0x00000080	[ 14] __ZNSt11_Deque_baseIP7CPacketSaIS1_EE15_M_create_nodesEPPS1_S5_
0x00025DE0	0x00000140	[ 14] __ZNSt11_Deque_baseIP7CPacketSaIS1_EE17_M_initialize_mapEm
0x00025F20	0x00000200	[ 14] __ZNSt8_Rb_treeIiSt4pairIKiSt5queueIP7CPacketSt5dequeIS4_SaIS4_EEEESt10_Select1stIS9_ESt4lessIiESaIS9_EE9_M_insertEPSt18_Rb_tree_node_baseSH_RKS9_
0x00026120	0x000000D0	[ 14] __ZNSt8_Rb_treeIiSt4pairIKiSt5queueIP7CPacketSt5dequeIS4_SaIS4_EEEESt10_Select1stIS9_ESt4lessIiESaIS9_EE16_M_insert_uniqueERKS9_
0x000261F0	0x00000190	[ 14] __ZNSt8_Rb_treeIiSt4pairIKiSt5queueIP7CPacketSt5dequeIS4_SaIS4_EEEESt10_Select1stIS9_ESt4lessIiESaIS9_EE16_M_insert_uniqueESt17_Rb_tree_iteratorIS9_ERKS9_
0x00026380	0x0000040D	[ 14] __ZNSt8_Rb_treeIiSt4pairIKiSt5queueIP7CPacketSt5dequeIS4_SaIS4_EEEESt10_Select1stIS9_ESt4lessIiESaIS9_EE8_M_eraseEPSt13_Rb_tree_nodeIS9_E
0x00026790	0x00000020	[  2] ___tcf_0
0x000267B0	0x00000006	[  0] _UDT_InitClassRefAll$stub
0x000267B6	0x00000006	[  0] _UDT_InitFieldMonitor$stub
0x000267BC	0x00000006	[  0] _UDT_InitFieldRefAll$stub
0x000267C2	0x00000006	[  0] _UDT_InitMethodRefAll$stub
0x000267C8	0x00000006	[  0] _UDT_ReturnReceiveError$stub
0x000267CE	0x00000006	[  0] _UDT_ReturnSendError$stub
0x000267D4	0x00000006	[  0] _UDT_ThrowExceptionUDT_ErrorInfo$stub
0x000267DA	0x00000006	[  0] _UDT_ThrowExceptionUDT_Message$stub
0x000267E0	0x00000006	[  0] _X_ConvertInetSocketAddressToSockaddr$stub
0x000267E6	0x00000006	[  0] _X_InitClassReference$stub
0x000267EC	0x00000006	[  0] _X_IsSockaddrEqualsInetSocketAddress$stub
0x000267F2	0x00000006	[  0] _X_NewInetAddress$stub
0x000267F8	0x00000006	[  0] _X_NewInetSocketAddress$stub
0x000267FE	0x00000006	[  0] __Unwind_Resume$stub
0x00026804	0x00000006	[  0] __ZN10CACKWindow11acknowledgeERKiRi$stub
0x0002680A	0x00000006	[  0] __ZN10CACKWindow5storeERKiS1_$stub
0x00026810	0x00000006	[  0] __ZN10CACKWindowC1ERKi$stub
0x00026816	0x00000006	[  0] __ZN10CACKWindowD1Ev$stub
0x0002681C	0x00000006	[  0] __ZN10CHandShake11deserializeEPKcRKi$stub
0x00026822	0x00000006	[  0] __ZN10CHandShake9serializeEPcRKi$stub
0x00026828	0x00000006	[  0] __ZN10CHandShakeC1Ev$stub
0x0002682E	0x00000006	[  0] __ZN10CIPAddress4ntopEPK8sockaddrPjRKi$stub
0x00026834	0x00000006	[  0] __ZN10CIPAddress4ptonEP8sockaddrPKjRKi$stub
0x0002683A	0x00000006	[  0] __ZN10CIPAddress5ipcmpEPK8sockaddrS2_RKi$stub
0x00026840	0x00000006	[  0] __ZN10CRcvBuffer10readBufferEPcRKi$stub
0x00026846	0x00000006	[  0] __ZN10CRcvBuffer12getRcvMsgNumEv$stub
0x0002684C	0x00000006	[  0] __ZN10CRcvBuffer16readBufferToFileERSt13basic_fstreamIcSt11char_traitsIcEERKi$stub
0x00026852	0x00000006	[  0] __ZN10CRcvBuffer7ackDataERKi$stub
0x00026858	0x00000006	[  0] __ZN10CRcvBuffer7addDataEP5CUniti$stub
0x0002685E	0x00000006	[  0] __ZN10CRcvBuffer7dropMsgERKi$stub
0x00026864	0x00000006	[  0] __ZN10CRcvBuffer7readMsgEPcRKi$stub
0x0002686A	0x00000006	[  0] __ZN10CRcvBuffer7scanMsgERiS0_Rb$stub
0x00026870	0x00000006	[  0] __ZN10CRcvBufferC1ERKiP10CUnitQueue$stub
0x00026876	0x00000006	[  0] __ZN10CRcvBufferD1Ev$stub
0x0002687C	0x00000006	[  0] __ZN10CSndBuffer17addBufferFromFileERSt13basic_fstreamIcSt11char_traitsIcEERKi$stub
0x00026882	0x00000006	[  0] __ZN10CSndBuffer7ackDataERKi$stub
0x00026888	0x00000006	[  0] __ZN10CSndBuffer8increaseEv$stub
0x0002688E	0x00000006	[  0] __ZN10CSndBuffer8readDataEPPcRi$stub
0x00026894	0x00000006	[  0] __ZN10CSndBuffer8readDataEPPciRiS2_$stub
0x0002689A	0x00000006	[  0] __ZN10CSndBuffer9addBufferEPKcRKiS3_RKb$stub
0x000268A0	0x00000006	[  0] __ZN10CSndBufferC1ERKiS1_$stub
0x000268A6	0x00000006	[  0] __ZN10CSndBufferC2ERKiS1_$stub
0x000268AC	0x00000006	[  0] __ZN10CSndBufferD1Ev$stub
0x000268B2	0x00000006	[  0] __ZN10CSndBufferD2Ev$stub
0x000268B8	0x00000006	[  0] __ZN10CUDTSocketD2Ev$stub
0x000268BE	0x00000006	[  0] __ZN10CUDTUnited11getpeernameEiP8sockaddrPi$stub
0x000268C4	0x00000006	[  0] __ZN10CUDTUnited11getsocknameEiP8sockaddrPi$stub
0x000268CA	0x00000006	[  0] __ZN10CUDTUnited12removeSocketEi$stub
0x000268D0	0x00000006	[  0] __ZN10CUDTUnited13newConnectionEiPK8sockaddrP10CHandShake$stub
0x000268D6	0x00000006	[  0] __ZN10CUDTUnited15epoll_add_usockEiiPKi$stub
0x000268DC	0x00000006	[  0] __ZN10CUDTUnited18checkBrokenSocketsEv$stub
0x000268E2	0x00000006	[  0] __ZN10CUDTUnited18epoll_remove_usockEiiPKi$stub
0x000268E8	0x00000006	[  0] __ZN10CUDTUnited4bindEiPK8sockaddrRKi$stub
0x000268EE	0x00000006	[  0] __ZN10CUDTUnited4bindEii$stub
0x000268F4	0x00000006	[  0] __ZN10CUDTUnited5closeEi$stub
0x000268FA	0x00000006	[  0] __ZN10CUDTUnited6acceptEiP8sockaddrPi$stub
0x00026900	0x00000006	[  0] __ZN10CUDTUnited6listenEiRKi$stub
0x00026906	0x00000006	[  0] __ZN10CUDTUnited6locateEi$stub
0x0002690C	0x00000006	[  0] __ZN10CUDTUnited6locateEiPK8sockaddrRKiS4_$stub
0x00026912	0x00000006	[  0] __ZN10CUDTUnited6lookupEi$stub
0x00026918	0x00000006	[  0] __ZN10CUDTUnited6selectEPSt3setIiSt4lessIiESaIiEES5_S5_PK7timeval$stub
0x0002691E	0x00000006	[  0] __ZN10CUDTUnited7cleanupEv$stub
0x00026924	0x00000006	[  0] __ZN10CUDTUnited7connectEiPK8sockaddrRKi$stub
0x0002692A	0x00000006	[  0] __ZN10CUDTUnited7startupEv$stub
0x00026930	0x00000006	[  0] __ZN10CUDTUnited8getErrorEv$stub
0x00026936	0x00000006	[  0] __ZN10CUDTUnited8selectExERKSt6vectorIiSaIiEEPS2_S5_S5_x$stub
0x0002693C	0x00000006	[  0] __ZN10CUDTUnited9getStatusEi$stub
0x00026942	0x00000006	[  0] __ZN10CUDTUnited9newSocketERKiS1_$stub
0x00026948	0x00000006	[  0] __ZN10CUDTUnited9updateMuxEP10CUDTSocketPK8sockaddrPKi$stub
0x0002694E	0x00000006	[  0] __ZN10CUDTUnited9updateMuxEP10CUDTSocketPKS0_$stub
0x00026954	0x00000006	[  0] __ZN10CUDTUnitedC1Ev$stub
0x0002695A	0x00000006	[  0] __ZN10CUDTUnitedC2Ev$stub
0x00026960	0x00000006	[  0] __ZN10CUDTUnitedD1Ev$stub
0x00026966	0x00000006	[  0] __ZN10CUDTUnitedD2Ev$stub
0x0002696C	0x00000006	[  0] __ZN10CUnitQueue4initERKiS1_S1_$stub
0x00026972	0x00000006	[  0] __ZN10CUnitQueue8increaseEv$stub
0x00026978	0x00000006	[  0] __ZN12CRcvLossList12getLossArrayEPiRiRKiS3_$stub
0x0002697E	0x00000006	[  0] __ZN12CRcvLossList6insertERKiS1_$stub
0x00026984	0x00000006	[  0] __ZN12CRcvLossList6removeERKi$stub
0x0002698A	0x00000006	[  0] __ZN12CRcvLossList6removeERKiS1_$stub
0x00026990	0x00000006	[  0] __ZN12CRcvLossListC1ERKi$stub
0x00026996	0x00000006	[  0] __ZN12CRcvLossListC2ERKi$stub
0x0002699C	0x00000006	[  0] __ZN12CRcvLossListD1Ev$stub
0x000269A2	0x00000006	[  0] __ZN12CSndLossList10getLostSeqEv$stub
0x000269A8	0x00000006	[  0] __ZN12CSndLossList6insertERKiS1_$stub
0x000269AE	0x00000006	[  0] __ZN12CSndLossList6removeERKi$stub
0x000269B4	0x00000006	[  0] __ZN12CSndLossListC1ERKi$stub
0x000269BA	0x00000006	[  0] __ZN12CSndLossListC2ERKi$stub
0x000269C0	0x00000006	[  0] __ZN12CSndLossListD1Ev$stub
0x000269C6	0x00000006	[  0] __ZN13CUDTExceptionC1ERKS_$stub
0x000269CC	0x00000006	[  0] __ZN13CUDTExceptionC1Eiii$stub
0x000269D2	0x00000006	[  0] __ZN13CUDTExceptionC2ERKS_$stub
0x000269D8	0x00000006	[  0] __ZN13CUDTExceptionC2Eiii$stub
0x000269DE	0x00000006	[  0] __ZN13CUDTExceptionD1Ev$stub
0x000269E4	0x00000006	[  0] __ZN14CPktTimeWindow12onPktArrivalEv$stub
0x000269EA	0x00000006	[  0] __ZN14CPktTimeWindow13probe1ArrivalEv$stub
0x000269F0	0x00000006	[  0] __ZN14CPktTimeWindow13probe2ArrivalEv$stub
0x000269F6	0x00000006	[  0] __ZN14CPktTimeWindowC1ERKiS1_$stub
0x000269FC	0x00000006	[  0] __ZN14CPktTimeWindowC1Ev$stub
0x00026A02	0x00000006	[  0] __ZN14CPktTimeWindowD1Ev$stub
0x00026A08	0x00000006	[  0] __ZN16CRendezvousQueue6insertERKiS1_PK8sockaddr$stub
0x00026A0E	0x00000006	[  0] __ZN16CRendezvousQueue6removeERKi$stub
0x00026A14	0x00000006	[  0] __ZN16CRendezvousQueue8retrieveEPK8sockaddrRi$stub
0x00026A1A	0x00000006	[  0] __ZN16CRendezvousQueueC2Ev$stub
0x00026A20	0x00000006	[  0] __ZN16CRendezvousQueueD2Ev$stub
0x00026A26	0x00000006	[  0] __ZN3CCC10setRcvRateERKi$stub
0x00026A2C	0x00000006	[  0] __ZN3CCC12setBandwidthERKi$stub
0x00026A32	0x00000006	[  0] __ZN3CCC12setUserParamEPKcRKi$stub
0x00026A38	0x00000006	[  0] __ZN3CCC14setMaxCWndSizeERKi$stub
0x00026A3E	0x00000006	[  0] __ZN3CCC15setSndCurrSeqNoERKi$stub
0x00026A44	0x00000006	[  0] __ZN3CCC6setMSSERKi$stub
0x00026A4A	0x00000006	[  0] __ZN3CCC6setRTTERKi$stub
0x00026A50	0x00000006	[  0] __ZN3UDT10getsockoptEii6UDTOptPvPi$stub
0x00026A56	0x00000006	[  0] __ZN3UDT10setsockoptEii6UDTOptPKvi$stub
0x00026A5C	0x00000006	[  0] __ZN3UDT11getpeernameEiP8sockaddrPi$stub
0x00026A62	0x00000006	[  0] __ZN3UDT11getsocknameEiP8sockaddrPi$stub
0x00026A68	0x00000006	[  0] __ZN3UDT12getlasterrorEv$stub
0x00026A6E	0x00000006	[  0] __ZN3UDT4bindEiPK8sockaddri$stub
0x00026A74	0x00000006	[  0] __ZN3UDT4recvEiPcii$stub
0x00026A7A	0x00000006	[  0] __ZN3UDT4sendEiPKcii$stub
0x00026A80	0x00000006	[  0] __ZN3UDT5closeEi$stub
0x00026A86	0x00000006	[  0] __ZN3UDT6acceptEiP8sockaddrPi$stub
0x00026A8C	0x00000006	[  0] __ZN3UDT6listenEii$stub
0x00026A92	0x00000006	[  0] __ZN3UDT6selectEiPSt3setIiSt4lessIiESaIiEES5_S5_PK7timeval$stub
0x00026A98	0x00000006	[  0] __ZN3UDT6socketEiii$stub
0x00026A9E	0x00000006	[  0] __ZN3UDT7cleanupEv$stub
0x00026AA4	0x00000006	[  0] __ZN3UDT7connectEiPK8sockaddri$stub
0x00026AAA	0x00000006	[  0] __ZN3UDT7perfmonEiP8CPerfMonb$stub
0x00026AB0	0x00000006	[  0] __ZN3UDT7recvmsgEiPci$stub
0x00026AB6	0x00000006	[  0] __ZN3UDT7sendmsgEiPKciib$stub
0x00026ABC	0x00000006	[  0] __ZN3UDT7startupEv$stub
0x00026AC2	0x00000006	[  0] __ZN3UDT8selectExERKSt6vectorIiSaIiEEPS2_S5_S5_x$stub
0x00026AC8	0x00000006	[  0] __ZN4CMD57computeEPKcPh$stub
0x00026ACE	0x00000006	[  0] __ZN4CUDT10epoll_waitEiPSt3setIiSt4lessIiESaIiEES5_xS5_S5_$stub
0x00026AD4	0x00000006	[  0] __ZN4CUDT10getsockoptEii6UDTOptPvPi$stub
0x00026ADA	0x00000006	[  0] __ZN4CUDT10setsockoptEii6UDTOptPKvi$stub
0x00026AE0	0x00000006	[  0] __ZN4CUDT11checkTimersEv$stub
0x00026AE6	0x00000006	[  0] __ZN4CUDT11getpeernameEiP8sockaddrPi$stub
0x00026AEC	0x00000006	[  0] __ZN4CUDT11getsocknameEiP8sockaddrPi$stub
0x00026AF2	0x00000006	[  0] __ZN4CUDT11processCtrlER7CPacket$stub
0x00026AF8	0x00000006	[  0] __ZN4CUDT11processDataEP5CUnit$stub
0x00026AFE	0x00000006	[  0] __ZN4CUDT11removeEPollEi$stub
0x00026B04	0x00000006	[  0] __ZN4CUDT12destroySynchEv$stub
0x00026B0A	0x00000006	[  0] __ZN4CUDT12epoll_createEv$stub
0x00026B10	0x00000006	[  0] __ZN4CUDT12getUDTHandleEi$stub
0x00026B16	0x00000006	[  0] __ZN4CUDT12releaseSynchEv$stub
0x00026B1C	0x00000006	[  0] __ZN4CUDT13epoll_releaseEi$stub
0x00026B22	0x00000006	[  0] __ZN4CUDT15epoll_add_ssockEiiPKi$stub
0x00026B28	0x00000006	[  0] __ZN4CUDT15epoll_add_usockEiiPKi$stub
0x00026B2E	0x00000006	[  0] __ZN4CUDT18epoll_remove_usockEiiPKi$stub
0x00026B34	0x00000006	[  0] __ZN4CUDT4bindEiPK8sockaddri$stub
0x00026B3A	0x00000006	[  0] __ZN4CUDT4bindEii$stub
0x00026B40	0x00000006	[  0] __ZN4CUDT4openEv$stub
0x00026B46	0x00000006	[  0] __ZN4CUDT4recvEPcRKi$stub
0x00026B4C	0x00000006	[  0] __ZN4CUDT4recvEiPcii$stub
0x00026B52	0x00000006	[  0] __ZN4CUDT4sendEPKcRKi$stub
0x00026B58	0x00000006	[  0] __ZN4CUDT4sendEiPKcii$stub
0x00026B5E	0x00000006	[  0] __ZN4CUDT5closeEi$stub
0x00026B64	0x00000006	[  0] __ZN4CUDT5closeEv$stub
0x00026B6A	0x00000006	[  0] __ZN4CUDT6acceptEiP8sockaddrPi$stub
0x00026B70	0x00000006	[  0] __ZN4CUDT6getOptE6UDTOptPvRi$stub
0x00026B76	0x00000006	[  0] __ZN4CUDT6listenEP8sockaddrR7CPacket$stub
0x00026B7C	0x00000006	[  0] __ZN4CUDT6listenEii$stub
0x00026B82	0x00000006	[  0] __ZN4CUDT6listenEv$stub
0x00026B88	0x00000006	[  0] __ZN4CUDT6sampleEP8CPerfMonb$stub
0x00026B8E	0x00000006	[  0] __ZN4CUDT6selectEiPSt3setIiSt4lessIiESaIiEES5_S5_PK7timeval$stub
0x00026B94	0x00000006	[  0] __ZN4CUDT6setOptE6UDTOptPKvRKi$stub
0x00026B9A	0x00000006	[  0] __ZN4CUDT6socketEiii$stub
0x00026BA0	0x00000006	[  0] __ZN4CUDT7connectEPK8sockaddr$stub
0x00026BA6	0x00000006	[  0] __ZN4CUDT7connectEPK8sockaddrP10CHandShake$stub
0x00026BAC	0x00000006	[  0] __ZN4CUDT7connectEiPK8sockaddri$stub
0x00026BB2	0x00000006	[  0] __ZN4CUDT7perfmonEiP8CPerfMonb$stub
0x00026BB8	0x00000006	[  0] __ZN4CUDT7recvmsgEPcRKi$stub
0x00026BBE	0x00000006	[  0] __ZN4CUDT7recvmsgEiPci$stub
0x00026BC4	0x00000006	[  0] __ZN4CUDT7sendmsgEPKcRKiS3_RKb$stub
0x00026BCA	0x00000006	[  0] __ZN4CUDT7sendmsgEiPKciib$stub
0x00026BD0	0x00000006	[  0] __ZN4CUDT8addEPollEi$stub
0x00026BD6	0x00000006	[  0] __ZN4CUDT8packDataER7CPacketRy$stub
0x00026BDC	0x00000006	[  0] __ZN4CUDT8recvfileERSt13basic_fstreamIcSt11char_traitsIcEERxRKxRKi$stub
0x00026BE2	0x00000006	[  0] __ZN4CUDT8recvfileEiRSt13basic_fstreamIcSt11char_traitsIcEERxRKxRKi$stub
0x00026BE8	0x00000006	[  0] __ZN4CUDT8selectExERKSt6vectorIiSaIiEEPS2_S5_S5_x$stub
0x00026BEE	0x00000006	[  0] __ZN4CUDT8sendCtrlERKiPvS2_S1_$stub
0x00026BF4	0x00000006	[  0] __ZN4CUDT8sendfileERSt13basic_fstreamIcSt11char_traitsIcEERxRKxRKi$stub
0x00026BFA	0x00000006	[  0] __ZN4CUDT8sendfileEiRSt13basic_fstreamIcSt11char_traitsIcEERxRKxRKi$stub
0x00026C00	0x00000006	[  0] __ZN4CUDT9initSynchEv$stub
0x00026C06	0x00000006	[  0] __ZN4CUDTC1ERKS_$stub
0x00026C0C	0x00000006	[  0] __ZN4CUDTC1Ev$stub
0x00026C12	0x00000006	[  0] __ZN4CUDTC2ERKS_$stub
0x00026C18	0x00000006	[  0] __ZN4CUDTC2Ev$stub
0x00026C1E	0x00000006	[  0] __ZN4CUDTD1Ev$stub
0x00026C24	0x00000006	[  0] __ZN4CUDTD2Ev$stub
0x00026C2A	0x00000006	[  0] __ZN6CCache6lookupEPK8sockaddrRKiP10CInfoBlock$stub
0x00026C30	0x00000006	[  0] __ZN6CCache6updateEPK8sockaddrRKiP10CInfoBlock$stub
0x00026C36	0x00000006	[  0] __ZN6CCacheC1Ev$stub
0x00026C3C	0x00000006	[  0] __ZN6CCacheC2ERKj$stub
0x00026C42	0x00000006	[  0] __ZN6CCacheC2Ev$stub
0x00026C48	0x00000006	[  0] __ZN6CCacheD1Ev$stub
0x00026C4E	0x00000006	[  0] __ZN6CCacheD2Ev$stub
0x00026C54	0x00000006	[  0] __ZN6CEPoll11enable_readERKiRSt3setIiSt4lessIiESaIiEE$stub
0x00026C5A	0x00000006	[  0] __ZN6CEPoll12disable_readERKiRSt3setIiSt4lessIiESaIiEE$stub
0x00026C60	0x00000006	[  0] __ZN6CEPoll12enable_writeERKiRSt3setIiSt4lessIiESaIiEE$stub
0x00026C66	0x00000006	[  0] __ZN6CEPoll12remove_ssockEiRKiPS0_$stub
0x00026C6C	0x00000006	[  0] __ZN6CEPoll12remove_usockEiRKiPS0_$stub
0x00026C72	0x00000006	[  0] __ZN6CEPoll13disable_writeERKiRSt3setIiSt4lessIiESaIiEE$stub
0x00026C78	0x00000006	[  0] __ZN6CEPoll4waitEiPSt3setIiSt4lessIiESaIiEES5_xS5_S5_$stub
0x00026C7E	0x00000006	[  0] __ZN6CEPoll6createEv$stub
0x00026C84	0x00000006	[  0] __ZN6CEPoll7releaseEi$stub
0x00026C8A	0x00000006	[  0] __ZN6CEPoll9add_ssockEiRKiPS0_$stub
0x00026C90	0x00000006	[  0] __ZN6CEPoll9add_usockEiRKiPS0_$stub
0x00026C96	0x00000006	[  0] __ZN6CEPollC1Ev$stub
0x00026C9C	0x00000006	[  0] __ZN6CEPollD1Ev$stub
0x00026CA2	0x00000006	[  0] __ZN6CGuard11createMutexER23_opaque_pthread_mutex_t$stub
0x00026CA8	0x00000006	[  0] __ZN6CGuard12releaseMutexER23_opaque_pthread_mutex_t$stub
0x00026CAE	0x00000006	[  0] __ZN6CGuard7enterCSER23_opaque_pthread_mutex_t$stub
0x00026CB4	0x00000006	[  0] __ZN6CGuard7leaveCSER23_opaque_pthread_mutex_t$stub
0x00026CBA	0x00000006	[  0] __ZN6CGuardC1ER23_opaque_pthread_mutex_t$stub
0x00026CC0	0x00000006	[  0] __ZN6CGuardD1Ev$stub
0x00026CC6	0x00000006	[  0] __ZN6CTimer12triggerEventEv$stub
0x00026CCC	0x00000006	[  0] __ZN6CTimer12waitForEventEv$stub
0x00026CD2	0x00000006	[  0] __ZN6CTimer15getCPUFrequencyEv$stub
0x00026CD8	0x00000006	[  0] __ZN6CTimer4tickEv$stub
0x00026CDE	0x00000006	[  0] __ZN6CTimer5rdtscERy$stub
0x00026CE4	0x00000006	[  0] __ZN6CTimer5sleepEv$stub
0x00026CEA	0x00000006	[  0] __ZN6CTimer7getTimeEv$stub
0x00026CF0	0x00000006	[  0] __ZN6CTimer7sleeptoERKy$stub
0x00026CF6	0x00000006	[  0] __ZN6CTimer9interruptEv$stub
0x00026CFC	0x00000006	[  0] __ZN6CTimerC1Ev$stub
0x00026D02	0x00000006	[  0] __ZN6CTimerD1Ev$stub
0x00026D08	0x00000006	[  0] __ZN6CUDTCCC1Ev$stub
0x00026D0E	0x00000006	[  0] __ZN7CPacket4packERKiPvS2_S1_$stub
0x00026D14	0x00000006	[  0] __ZN7CPacket9setLengthERKi$stub
0x00026D1A	0x00000006	[  0] __ZN7CPacketC1Ev$stub
0x00026D20	0x00000006	[  0] __ZN7CPacketD1Ev$stub
0x00026D26	0x00000006	[  0] __ZN7JNIEnv_13CallIntMethodEP8_jobjectP10_jmethodIDz$stub
0x00026D2C	0x00000006	[  0] __ZN7JNIEnv_14CallLongMethodEP8_jobjectP10_jmethodIDz$stub
0x00026D32	0x00000006	[  0] __ZN7JNIEnv_16CallObjectMethodEP8_jobjectP10_jmethodIDz$stub
0x00026D38	0x00000006	[  0] __ZN7JNIEnv_17CallBooleanMethodEP8_jobjectP10_jmethodIDz$stub
0x00026D3E	0x00000006	[  0] __ZN7JNIEnv_9NewObjectEP7_jclassP10_jmethodIDz$stub
0x00026D44	0x00000006	[  0] __ZN8CChannel13setRcvBufSizeERKi$stub
0x00026D4A	0x00000006	[  0] __ZN8CChannel13setSndBufSizeERKi$stub
0x00026D50	0x00000006	[  0] __ZN8CChannel13setUDPSockOptEv$stub
0x00026D56	0x00000006	[  0] __ZN8CChannel4openEPK8sockaddr$stub
0x00026D5C	0x00000006	[  0] __ZN8CChannel4openEi$stub
0x00026D62	0x00000006	[  0] __ZN8CChannelC1ERKi$stub
0x00026D68	0x00000006	[  0] __ZN8CChannelD1Ev$stub
0x00026D6E	0x00000006	[  0] __ZN9CRcvQueue11getNewEntryEv$stub
0x00026D74	0x00000006	[  0] __ZN9CRcvQueue11setListenerEPK4CUDT$stub
0x00026D7A	0x00000006	[  0] __ZN9CRcvQueue11setNewEntryEP4CUDT$stub
0x00026D80	0x00000006	[  0] __ZN9CRcvQueue14removeListenerEPK4CUDT$stub
0x00026D86	0x00000006	[  0] __ZN9CRcvQueue4initERKiS1_S1_S1_PK8CChannelPK6CTimer$stub
0x00026D8C	0x00000006	[  0] __ZN9CRcvQueue8recvfromERKiR7CPacket$stub
0x00026D92	0x00000006	[  0] __ZN9CRcvQueue8storePktERKiP7CPacket$stub
0x00026D98	0x00000006	[  0] __ZN9CRcvQueueC1Ev$stub
0x00026D9E	0x00000006	[  0] __ZN9CRcvQueueC2Ev$stub
0x00026DA4	0x00000006	[  0] __ZN9CRcvQueueD1Ev$stub
0x00026DAA	0x00000006	[  0] __ZN9CRcvQueueD2Ev$stub
0x00026DB0	0x00000006	[  0] __ZN9CSndQueue4initEPK8CChannelPK6CTimer$stub
0x00026DB6	0x00000006	[  0] __ZN9CSndQueue6sendtoEPK8sockaddrR7CPacket$stub
0x00026DBC	0x00000006	[  0] __ZN9CSndQueueC1Ev$stub
0x00026DC2	0x00000006	[  0] __ZN9CSndQueueD1Ev$stub
0x00026DC8	0x00000006	[  0] __ZN9CSndQueueD2Ev$stub
0x00026DCE	0x00000006	[  0] __ZN9CSndUList3popERP8sockaddrR7CPacket$stub
0x00026DD4	0x00000006	[  0] __ZN9CSndUList6removeEPK4CUDT$stub
0x00026DDA	0x00000006	[  0] __ZN9CSndUList6updateEPK4CUDTRKb$stub
0x00026DE0	0x00000006	[  0] __ZN9CSndUList7insert_ERKxPK4CUDT$stub
0x00026DE6	0x00000006	[  0] __ZNK10CRcvBuffer14getRcvDataSizeEv$stub
0x00026DEC	0x00000006	[  0] __ZNK10CRcvBuffer15getAvailBufSizeEv$stub
0x00026DF2	0x00000006	[  0] __ZNK10CSndBuffer14getCurrBufSizeEv$stub
0x00026DF8	0x00000006	[  0] __ZNK12CRcvLossList13getLossLengthEv$stub
0x00026DFE	0x00000006	[  0] __ZNK12CRcvLossList15getFirstLostSeqEv$stub
0x00026E04	0x00000006	[  0] __ZNK13CUDTException12getErrorCodeEv$stub
0x00026E0A	0x00000006	[  0] __ZNK14CPktTimeWindow12getBandwidthEv$stub
0x00026E10	0x00000006	[  0] __ZNK14CPktTimeWindow14getPktRcvSpeedEv$stub
0x00026E16	0x00000006	[  0] __ZNK7CPacket11getAckSeqNoEv$stub
0x00026E1C	0x00000006	[  0] __ZNK7CPacket14getMsgBoundaryEv$stub
0x00026E22	0x00000006	[  0] __ZNK7CPacket15getMsgOrderFlagEv$stub
0x00026E28	0x00000006	[  0] __ZNK7CPacket5cloneEv$stub
0x00026E2E	0x00000006	[  0] __ZNK7CPacket7getFlagEv$stub
0x00026E34	0x00000006	[  0] __ZNK7CPacket7getTypeEv$stub
0x00026E3A	0x00000006	[  0] __ZNK7CPacket9getLengthEv$stub
0x00026E40	0x00000006	[  0] __ZNK7CPacket9getMsgSeqEv$stub
0x00026E46	0x00000006	[  0] __ZNK8CChannel11getSockAddrEP8sockaddr$stub
0x00026E4C	0x00000006	[  0] __ZNK8CChannel5closeEv$stub
0x00026E52	0x00000006	[  0] __ZNK8CChannel6sendtoEPK8sockaddrR7CPacket$stub
0x00026E58	0x00000006	[  0] __ZNK8CChannel8recvfromEP8sockaddrR7CPacket$stub
0x00026E5E	0x00000006	[  0] __ZNSi4readEPcl$stub
0x00026E64	0x00000006	[  0] __ZNSi5seekgESt4fposI11__mbstate_tE$stub
0x00026E6A	0x00000006	[  0] __ZNSo5seekpESt4fposI11__mbstate_tE$stub
0x00026E70	0x00000006	[  0] __ZNSo5writeEPKcl$stub
0x00026E76	0x00000006	[  0] __ZNSs4_Rep10_M_destroyERKSaIcE$stub
0x00026E7C	0x00000006	[  0] __ZNSs6appendEPKcm$stub
0x00026E82	0x00000006	[  0] __ZNSs6assignEPKcm$stub
0x00026E88	0x00000006	[  0] __ZNSs6assignERKSs$stub
0x00026E8E	0x00000006	[  0] __ZNSt11_Deque_baseIP7CPacketSaIS1_EE15_M_create_nodesEPPS1_S5_$stub
0x00026E94	0x00000006	[  0] __ZNSt11_Deque_baseIP7CPacketSaIS1_EE17_M_initialize_mapEm$stub
0x00026E9A	0x00000006	[  0] __ZNSt5dequeIP7CPacketSaIS1_EE16_M_push_back_auxERKS1_$stub
0x00026EA0	0x00000006	[  0] __ZNSt5dequeIP7CPacketSaIS1_EE17_M_reallocate_mapEmb$stub
0x00026EA6	0x00000006	[  0] __ZNSt6vectorIN16CRendezvousQueue3CRLESaIS1_EE13_M_insert_auxEN9__gnu_cxx17__normal_iteratorIPS1_S3_EERKS1_$stub
0x00026EAC	0x00000006	[  0] __ZNSt6vectorIP10CUDTSocketSaIS1_EE13_M_insert_auxEN9__gnu_cxx17__normal_iteratorIPS1_S3_EERKS1_$stub
0x00026EB2	0x00000006	[  0] __ZNSt6vectorIP4CUDTSaIS1_EE13_M_insert_auxEN9__gnu_cxx17__normal_iteratorIPS1_S3_EERKS1_$stub
0x00026EB8	0x00000006	[  0] __ZNSt6vectorIiSaIiEE13_M_insert_auxEN9__gnu_cxx17__normal_iteratorIPiS1_EERKi$stub
0x00026EBE	0x00000006	[  0] __ZNSt8_Rb_treeIP10CInfoBlockS1_St9_IdentityIS1_E7CIPCompSaIS1_EE16_M_insert_uniqueERKS1_$stub
0x00026EC4	0x00000006	[  0] __ZNSt8_Rb_treeIP10CInfoBlockS1_St9_IdentityIS1_E7CIPCompSaIS1_EE5eraseERKS1_$stub
0x00026ECA	0x00000006	[  0] __ZNSt8_Rb_treeIP10CInfoBlockS1_St9_IdentityIS1_E7CIPCompSaIS1_EE8_M_eraseEPSt13_Rb_tree_nodeIS1_E$stub
0x00026ED0	0x00000006	[  0] __ZNSt8_Rb_treeIP10CInfoBlockS1_St9_IdentityIS1_E7CIPCompSaIS1_EE9_M_insertEPSt18_Rb_tree_node_baseS8_RKS1_$stub
0x00026ED6	0x00000006	[  0] __ZNSt8_Rb_treeIP10CInfoBlockS1_St9_IdentityIS1_E7CTSCompSaIS1_EE16_M_insert_uniqueERKS1_$stub
0x00026EDC	0x00000006	[  0] __ZNSt8_Rb_treeIP10CInfoBlockS1_St9_IdentityIS1_E7CTSCompSaIS1_EE5eraseERKS1_$stub
0x00026EE2	0x00000006	[  0] __ZNSt8_Rb_treeIP10CInfoBlockS1_St9_IdentityIS1_E7CTSCompSaIS1_EE8_M_eraseEPSt13_Rb_tree_nodeIS1_E$stub
0x00026EE8	0x00000006	[  0] __ZNSt8_Rb_treeIP10CInfoBlockS1_St9_IdentityIS1_E7CTSCompSaIS1_EE9_M_insertEPSt18_Rb_tree_node_baseS8_RKS1_$stub
0x00026EEE	0x00000006	[  0] __ZNSt8_Rb_treeIiSt4pairIKi10CEPollDescESt10_Select1stIS3_ESt4lessIiESaIS3_EE16_M_insert_uniqueERKS3_$stub
0x00026EF4	0x00000006	[  0] __ZNSt8_Rb_treeIiSt4pairIKi10CEPollDescESt10_Select1stIS3_ESt4lessIiESaIS3_EE16_M_insert_uniqueESt17_Rb_tree_iteratorIS3_ERKS3_$stub
0x00026EFA	0x00000006	[  0] __ZNSt8_Rb_treeIiSt4pairIKi10CEPollDescESt10_Select1stIS3_ESt4lessIiESaIS3_EE8_M_eraseEPSt13_Rb_tree_nodeIS3_E$stub
0x00026F00	0x00000006	[  0] __ZNSt8_Rb_treeIiSt4pairIKi10CEPollDescESt10_Select1stIS3_ESt4lessIiESaIS3_EE9_M_insertEPSt18_Rb_tree_node_baseSB_RKS3_$stub
0x00026F06	0x00000006	[  0] __ZNSt8_Rb_treeIiSt4pairIKi12CMultiplexerESt10_Select1stIS3_ESt4lessIiESaIS3_EE16_M_insert_uniqueERKS3_$stub
0x00026F0C	0x00000006	[  0] __ZNSt8_Rb_treeIiSt4pairIKi12CMultiplexerESt10_Select1stIS3_ESt4lessIiESaIS3_EE16_M_insert_uniqueESt17_Rb_tree_iteratorIS3_ERKS3_$stub
0x00026F12	0x00000006	[  0] __ZNSt8_Rb_treeIiSt4pairIKi12CMultiplexerESt10_Select1stIS3_ESt4lessIiESaIS3_EE8_M_eraseEPSt13_Rb_tree_nodeIS3_E$stub
0x00026F18	0x00000006	[  0] __ZNSt8_Rb_treeIiSt4pairIKi12CMultiplexerESt10_Select1stIS3_ESt4lessIiESaIS3_EE9_M_insertEPSt18_Rb_tree_node_baseSB_RKS3_$stub
0x00026F1E	0x00000006	[  0] __ZNSt8_Rb_treeIiSt4pairIKiP10CUDTSocketESt10_Select1stIS4_ESt4lessIiESaIS4_EE16_M_insert_uniqueERKS4_$stub
0x00026F24	0x00000006	[  0] __ZNSt8_Rb_treeIiSt4pairIKiP10CUDTSocketESt10_Select1stIS4_ESt4lessIiESaIS4_EE16_M_insert_uniqueESt17_Rb_tree_iteratorIS4_ERKS4_$stub
0x00026F2A	0x00000006	[  0] __ZNSt8_Rb_treeIiSt4pairIKiP10CUDTSocketESt10_Select1stIS4_ESt4lessIiESaIS4_EE5eraseERS1_$stub
0x00026F30	0x00000006	[  0] __ZNSt8_Rb_treeIiSt4pairIKiP10CUDTSocketESt10_Select1stIS4_ESt4lessIiESaIS4_EE8_M_eraseEPSt13_Rb_tree_nodeIS4_E$stub
0x00026F36	0x00000006	[  0] __ZNSt8_Rb_treeIiSt4pairIKiP10CUDTSocketESt10_Select1stIS4_ESt4lessIiESaIS4_EE9_M_insertEPSt18_Rb_tree_node_baseSC_RKS4_$stub
0x00026F3C	0x00000006	[  0] __ZNSt8_Rb_treeIiSt4pairIKiSt5queueIP7CPacketSt5dequeIS4_SaIS4_EEEESt10_Select1stIS9_ESt4lessIiESaIS9_EE16_M_insert_uniqueERKS9_$stub
0x00026F42	0x00000006	[  0] __ZNSt8_Rb_treeIiSt4pairIKiSt5queueIP7CPacketSt5dequeIS4_SaIS4_EEEESt10_Select1stIS9_ESt4lessIiESaIS9_EE16_M_insert_uniqueESt17_Rb_tree_iteratorIS9_ERKS9_$stub
0x00026F48	0x00000006	[  0] __ZNSt8_Rb_treeIiSt4pairIKiSt5queueIP7CPacketSt5dequeIS4_SaIS4_EEEESt10_Select1stIS9_ESt4lessIiESaIS9_EE8_M_eraseEPSt13_Rb_tree_nodeIS9_E$stub
0x00026F4E	0x00000006	[  0] __ZNSt8_Rb_treeIiSt4pairIKiSt5queueIP7CPacketSt5dequeIS4_SaIS4_EEEESt10_Select1stIS9_ESt4lessIiESaIS9_EE9_M_insertEPSt18_Rb_tree_node_baseSH_RKS9_$stub
0x00026F54	0x00000006	[  0] __ZNSt8_Rb_treeIiiSt9_IdentityIiESt4lessIiESaIiEE16_M_insert_uniqueERKi$stub
0x00026F5A	0x00000006	[  0] __ZNSt8_Rb_treeIiiSt9_IdentityIiESt4lessIiESaIiEE16_M_insert_uniqueESt23_Rb_tree_const_iteratorIiERKi$stub
0x00026F60	0x00000006	[  0] __ZNSt8_Rb_treeIiiSt9_IdentityIiESt4lessIiESaIiEE5eraseERKi$stub
0x00026F66	0x00000006	[  0] __ZNSt8_Rb_treeIiiSt9_IdentityIiESt4lessIiESaIiEE7_M_copyEPKSt13_Rb_tree_nodeIiEPS7_$stub
0x00026F6C	0x00000006	[  0] __ZNSt8_Rb_treeIiiSt9_IdentityIiESt4lessIiESaIiEE8_M_eraseEPSt13_Rb_tree_nodeIiE$stub
0x00026F72	0x00000006	[  0] __ZNSt8_Rb_treeIiiSt9_IdentityIiESt4lessIiESaIiEE9_M_insertEPSt18_Rb_tree_node_baseS7_RKi$stub
0x00026F78	0x00000006	[  0] __ZNSt8_Rb_treeIxSt4pairIKxSt3setIiSt4lessIiESaIiEEESt10_Select1stIS7_ES3_IxESaIS7_EE16_M_insert_uniqueERKS7_$stub
0x00026F7E	0x00000006	[  0] __ZNSt8_Rb_treeIxSt4pairIKxSt3setIiSt4lessIiESaIiEEESt10_Select1stIS7_ES3_IxESaIS7_EE16_M_insert_uniqueESt17_Rb_tree_iteratorIS7_ERKS7_$stub
0x00026F84	0x00000006	[  0] __ZNSt8_Rb_treeIxSt4pairIKxSt3setIiSt4lessIiESaIiEEESt10_Select1stIS7_ES3_IxESaIS7_EE8_M_eraseEPSt13_Rb_tree_nodeIS7_E$stub
0x00026F8A	0x00000006	[  0] __ZNSt8_Rb_treeIxSt4pairIKxSt3setIiSt4lessIiESaIiEEESt10_Select1stIS7_ES3_IxESaIS7_EE9_M_insertEPSt18_Rb_tree_node_baseSE_RKS7_$stub
0x00026F90	0x00000006	[  0] __ZSt17__throw_bad_allocv$stub
0x00026F96	0x00000006	[  0] __ZSt18_Rb_tree_decrementPKSt18_Rb_tree_node_base$stub
0x00026F9C	0x00000006	[  0] __ZSt18_Rb_tree_decrementPSt18_Rb_tree_node_base$stub
0x00026FA2	0x00000006	[  0] __ZSt18_Rb_tree_incrementPKSt18_Rb_tree_node_base$stub
0x00026FA8	0x00000006	[  0] __ZSt18_Rb_tree_incrementPSt18_Rb_tree_node_base$stub
0x00026FAE	0x00000006	[  0] __ZSt20__throw_length_errorPKc$stub
0x00026FB4	0x00000006	[  0] __ZSt28_Rb_tree_rebalance_for_erasePSt18_Rb_tree_node_baseRS_$stub
0x00026FBA	0x00000006	[  0] __ZSt29_Rb_tree_insert_and_rebalancebPSt18_Rb_tree_node_baseS0_RS_$stub
0x00026FC0	0x00000006	[  0] __ZSt9terminatev$stub
0x00026FC6	0x00000006	[  0] __ZdaPv$stub
0x00026FCC	0x00000006	[  0] __ZdlPv$stub
0x00026FD2	0x00000006	[  0] __Znam$stub
0x00026FD8	0x00000006	[  0] __Znwm$stub
0x00026FDE	0x00000006	[  0] ___cxa_allocate_exception$stub
0x00026FE4	0x00000006	[  0] ___cxa_atexit$stub
0x00026FEA	0x00000006	[  0] ___cxa_begin_catch$stub
0x00026FF0	0x00000006	[  0] ___cxa_end_catch$stub
0x00026FF6	0x00000006	[  0] ___cxa_free_exception$stub
0x00026FFC	0x00000006	[  0] ___cxa_get_exception_ptr$stub
0x00027002	0x00000006	[  0] ___cxa_rethrow$stub
0x00027008	0x00000006	[  0] ___cxa_throw$stub
0x0002700E	0x00000006	[  0] ___error$stub
0x00027014	0x00000006	[  0] ___stack_chk_fail$stub
0x0002701A	0x00000006	[  0] _bind$stub
0x00027020	0x00000006	[  0] _ceil$stub
0x00027026	0x00000006	[  0] _close$stub
0x0002702C	0x00000006	[  0] _free$stub
0x00027032	0x00000006	[  0] _freeaddrinfo$stub
0x00027038	0x00000006	[  0] _getaddrinfo$stub
0x0002703E	0x00000006	[  0] _getnameinfo$stub
0x00027044	0x00000006	[  0] _getpeername$stub
0x0002704A	0x00000006	[  0] _getsockname$stub
0x00027050	0x00000006	[  0] _getsockopt$stub
0x00027056	0x00000006	[  0] _gettimeofday$stub
0x0002705C	0x00000006	[  0] _log10$stub
0x00027062	0x00000006	[  0] _malloc$stub
0x00027068	0x00000006	[  0] _md5_append$stub
0x0002706E	0x00000006	[  0] _md5_finish$stub
0x00027074	0x00000006	[  0] _md5_init$stub
0x0002707A	0x00000006	[  0] _memcpy$stub
0x00027080	0x00000006	[  0] _memmove$stub
0x00027086	0x00000006	[  0] _memset$stub
0x0002708C	0x00000006	[  0] _nanosleep$stub
0x00027092	0x00000006	[  0] _pow$stub
0x00027098	0x00000006	[  0] _printf$stub
0x0002709E	0x00000006	[  0] _pthread_cond_broadcast$stub
0x000270A4	0x00000006	[  0] _pthread_cond_destroy$stub
0x000270AA	0x00000006	[  0] _pthread_cond_init$stub
0x000270B0	0x00000006	[  0] _pthread_cond_signal$stub
0x000270B6	0x00000006	[  0] _pthread_cond_timedwait$stub
0x000270BC	0x00000006	[  0] _pthread_cond_wait$stub
0x000270C2	0x00000006	[  0] _pthread_create$stub
0x000270C8	0x00000006	[  0] _pthread_getspecific$stub
0x000270CE	0x00000006	[  0] _pthread_join$stub
0x000270D4	0x00000006	[  0] _pthread_key_create$stub
0x000270DA	0x00000006	[  0] _pthread_key_delete$stub
0x000270E0	0x00000006	[  0] _pthread_mutex_destroy$stub
0x000270E6	0x00000006	[  0] _pthread_mutex_init$stub
0x000270EC	0x00000006	[  0] _pthread_mutex_lock$stub
0x000270F2	0x00000006	[  0] _pthread_mutex_trylock$stub
0x000270F8	0x00000006	[  0] _pthread_mutex_unlock$stub
0x000270FE	0x00000006	[  0] _pthread_setspecific$stub
0x00027104	0x00000006	[  0] _puts$stub
0x0002710A	0x00000006	[  0] _rand$stub
0x00027110	0x00000006	[  0] _recvmsg$stub
0x00027116	0x00000006	[  0] _select$1050$stub
0x0002711C	0x00000006	[  0] _sendmsg$stub
0x00027122	0x00000006	[  0] _setsockopt$stub
0x00027128	0x00000006	[  0] _socket$stub
0x0002712E	0x00000006	[  0] _sprintf$stub
0x00027134	0x00000006	[  0] _srand$stub
0x0002713A	0x00000006	[  0] _strerror_r$stub
0x00027140	0x00000006	[  0] _strlen$stub
0x00027146	0x00000006	[  0] _usleep$stub
0x00027150	0x00000002	[  1] "0"
0x00027152	0x0000000B	[  2] "%s:%s:%lld"
0x00027160	0x00000008	[  3] "Success"
0x00027168	0x00000019	[  3] "Connection setup failure"
0x00027181	0x00000016	[  3] ": connection time out"
0x00027197	0x00000016	[  3] ": connection rejected"
0x000271B0	0x00000028	[  3] ": unable to create/configure UDP socket"
0x000271D8	0x0000001D	[  3] ": abort for security reasons"
0x000271F5	0x00000016	[  3] "Connection was broken"
0x0002720B	0x0000001A	[  3] "Connection does not exist"
0x00027225	0x00000018	[  3] "System resource failure"
0x00027240	0x0000001F	[  3] ": unable to create new threads"
0x0002725F	0x0000001D	[  3] ": unable to allocate buffers"
0x0002727C	0x00000014	[  3] "File system failure"
0x00027290	0x0000001C	[  3] ": cannot seek read position"
0x000272AC	0x00000012	[  3] ": failure in read"
0x000272BE	0x0000001D	[  3] ": cannot seek write position"
0x000272DB	0x00000013	[  3] ": failure in write"
0x000272EE	0x00000018	[  3] "Operation not supported"
0x00027308	0x0000002D	[  3] ": Cannot do this operation on a BOUND socket"
0x00027338	0x00000031	[  3] ": Cannot do this operation on a CONNECTED socket"
0x00027369	0x00000011	[  3] ": Bad parameters"
0x0002737A	0x00000014	[  3] ": Invalid socket ID"
0x00027390	0x00000030	[  3] ": Cannot do this operation on an UNBOUND socket"
0x000273C0	0x00000023	[  3] ": Socket is not in listening state"
0x000273E4	0x00000001	[  3] ""
0x000273E8	0x0000003F	[  3] ": Listen/accept is not supported in rendezous connection setup"
0x00027428	0x00000047	[  3] ": Cannot call connect on UNBOUND socket in rendezvous connection setup"
0x00027470	0x00000036	[  3] ": This operation is not supported in SOCK_STREAM mode"
0x000274A8	0x00000035	[  3] ": This operation is not supported in SOCK_DGRAM mode"
0x000274E0	0x00000037	[  3] ": Another socket is already listening on the same port"
0x00027518	0x0000004F	[  3] ": Message is too large to send (it must be less than the UDT send buffer size)"
0x00027567	0x00000013	[  3] ": Invalid epoll ID"
0x0002757A	0x0000001A	[  3] "Non-blocking call failure"
0x00027598	0x00000022	[  3] ": no buffer available for sending"
0x000275C0	0x00000020	[  3] ": no data available for reading"
0x000275E0	0x00000025	[  3] "The peer side has signalled an error"
0x00027605	0x0000000E	[  3] "Unknown error"
0x00027613	0x00000003	[  3] ": "
0x00027616	0x00000002	[  3] "."
0x00027618	0x00000010	[  3] __ZTS13CUDTException
0x00027628	0x00000002	[  5] "J"
0x0002762A	0x0000000C	[  5] "msTimeStamp"
0x00027636	0x0000000D	[  5] "pktSentTotal"
0x00027643	0x0000000D	[  5] "pktRecvTotal"
0x00027650	0x00000002	[  5] "I"
0x00027652	0x00000010	[  5] "pktSndLossTotal"
0x00027662	0x00000010	[  5] "pktRcvLossTotal"
0x00027672	0x00000010	[  5] "pktRetransTotal"
0x00027682	0x00000010	[  5] "pktSentACKTotal"
0x00027692	0x00000010	[  5] "pktRecvACKTotal"
0x000276A2	0x00000010	[  5] "pktSentNAKTotal"
0x000276B2	0x00000010	[  5] "pktRecvNAKTotal"
0x000276C2	0x00000013	[  5] "usSndDurationTotal"
0x000276D5	0x00000008	[  5] "pktSent"
0x000276DD	0x00000008	[  5] "pktRecv"
0x000276E5	0x0000000B	[  5] "pktSndLoss"
0x000276F0	0x0000000B	[  5] "pktRcvLoss"
0x000276FB	0x0000000B	[  5] "pktRetrans"
0x00027706	0x0000000B	[  5] "pktSentACK"
0x00027711	0x0000000B	[  5] "pktRecvACK"
0x0002771C	0x0000000B	[  5] "pktSentNAK"
0x00027727	0x0000000B	[  5] "pktRecvNAK"
0x00027732	0x00000002	[  5] "D"
0x00027734	0x0000000D	[  5] "mbpsSendRate"
0x00027741	0x0000000D	[  5] "mbpsRecvRate"
0x0002774E	0x0000000E	[  5] "usSndDuration"
0x0002775C	0x0000000F	[  5] "usPktSndPeriod"
0x0002776B	0x0000000E	[  5] "pktFlowWindow"
0x00027779	0x00000014	[  5] "pktCongestionWindow"
0x0002778D	0x0000000E	[  5] "pktFlightSize"
0x0002779B	0x00000006	[  5] "msRTT"
0x000277A1	0x0000000E	[  5] "mbpsBandwidth"
0x000277AF	0x00000010	[  5] "byteAvailSndBuf"
0x000277BF	0x00000010	[  5] "byteAvailRcvBuf"
0x000277CF	0x00000008	[  5] "address"
0x000277D7	0x00000017	[  5] "Ljava/net/InetAddress;"
0x000277EE	0x00000005	[  5] "addr"
0x000277F3	0x00000005	[  5] "port"
0x000277F8	0x00000009	[  5] "socketID"
0x00027801	0x0000001D	[  5] "Ljava/net/InetSocketAddress;"
0x0002781E	0x00000014	[  5] "remoteSocketAddress"
0x00027832	0x00000013	[  5] "localSocketAddress"
0x00027845	0x0000001B	[  5] "Lcom/barchart/udt/TypeUDT;"
0x00027860	0x00000005	[  5] "type"
0x00027865	0x0000001E	[  5] "Lcom/barchart/udt/MonitorUDT;"
0x00027883	0x00000008	[  5] "monitor"
0x0002788B	0x00000002	[  5] "Z"
0x0002788D	0x0000000F	[  5] "isSelectedRead"
0x0002789C	0x00000010	[  5] "isSelectedWrite"
0x000278AC	0x00000014	[  5] "isSelectedException"
0x000278C0	0x00000005	[  5] "code"
0x000278C5	0x00000005	[  5] "(Z)V"
0x000278CA	0x00000007	[  5] "<init>"
0x000278D1	0x00000016	[  5] "jdk_clsBoolean_initID"
0x000278E7	0x00000011	[  5] "CHK_NUL_RET_RET;"
0x000278F8	0x0000001C	[  5] "%s function: %s comment: %s"
0x00027914	0x00000005	[  5] "(I)V"
0x00027919	0x00000016	[  5] "jdk_clsInteger_initID"
0x0002792F	0x00000005	[  5] "(J)V"
0x00027934	0x00000013	[  5] "jdk_clsLong_initID"
0x00027947	0x00000004	[  5] "()V"
0x0002794B	0x0000001B	[  5] "jdk_clsInet4Address_initID"
0x00027966	0x0000001B	[  5] "(Ljava/net/InetAddress;I)V"
0x00027988	0x00000020	[  5] "jdk_clsInetSocketAddress_initID"
0x000279A8	0x00000017	[  5] "()Ljava/util/Iterator;"
0x000279BF	0x00000009	[  5] "iterator"
0x000279C8	0x00000016	[  5] "jdk_clsSet_iteratorID"
0x000279DE	0x00000016	[  5] "(Ljava/lang/Object;)Z"
0x000279F4	0x00000004	[  5] "add"
0x000279F8	0x00000011	[  5] "jdk_clsSet_addID"
0x00027A09	0x00000009	[  5] "contains"
0x00027A12	0x00000016	[  5] "jdk_clsSet_containsID"
0x00027A28	0x00000004	[  5] "()Z"
0x00027A2C	0x00000008	[  5] "hasNext"
0x00027A34	0x0000001A	[  5] "jdk_clsIterator_hasNextID"
0x00027A4E	0x00000015	[  5] "()Ljava/lang/Object;"
0x00027A63	0x00000005	[  5] "next"
0x00027A68	0x00000017	[  5] "jdk_clsIterator_nextID"
0x00027A80	0x0000001F	[  5] "(Lcom/barchart/udt/TypeUDT;I)V"
0x00027A9F	0x00000019	[  5] "udt_clsSocketUDT_initID1"
0x00027AB8	0x00000018	[  5] "(IILjava/lang/String;)V"
0x00027AD0	0x0000001C	[  5] "udt_clsExceptionUDT_initID0"
0x00027AEC	0x00000018	[  5] "udt_clsLingerUDT_initID"
0x00027B04	0x00000004	[  5] "env"
0x00027B08	0x00000008	[  5] "message"
0x00027B10	0x00000017	[  5] "jdk_clsSocketException"
0x00027B27	0x0000000A	[  5] "className"
0x00027B31	0x0000000F	[  5] "classReference"
0x00027B40	0x00000005	[  5] "klaz"
0x00027B45	0x00000012	[  5] "java/lang/Boolean"
0x00027B57	0x00000012	[  5] "java/lang/Integer"
0x00027B69	0x0000000F	[  5] "java/lang/Long"
0x00027B78	0x00000016	[  5] "java/net/Inet4Address"
0x00027B8E	0x00000016	[  5] "java/net/Inet6Address"
0x00027BA4	0x0000001B	[  5] "java/net/InetSocketAddress"
0x00027BBF	0x00000019	[  5] "java/net/SocketException"
0x00027BD8	0x0000000E	[  5] "java/util/Set"
0x00027BE6	0x00000013	[  5] "java/util/Iterator"
0x00027BF9	0x0000001B	[  5] "com/barchart/udt/SocketUDT"
0x00027C14	0x00000019	[  5] "com/barchart/udt/TypeUDT"
0x00027C2D	0x0000001C	[  5] "com/barchart/udt/FactoryUDT"
0x00027C49	0x0000001C	[  5] "com/barchart/udt/MonitorUDT"
0x00027C65	0x0000001E	[  5] "com/barchart/udt/ExceptionUDT"
0x00027C83	0x0000001B	[  5] "com/barchart/udt/LingerUDT"
0x00027C9E	0x00000018	[  5] "native: test crash jvm "
0x00027CB6	0x00000011	[  5] "CHK_NUL_RET_NUL;"
0x00027CC7	0x0000000E	[  5] "messageString"
0x00027CD5	0x0000000C	[  5] "lingerValue"
0x00027CE1	0x00000014	[  5] "jdk_clsInet4Address"
0x00027CF5	0x0000000F	[  5] "objInetAddress"
0x00027D04	0x00000011	[  5] "CHK_NUL_RET_FLS;"
0x00027D15	0x00000009	[  5] "sockAddr"
0x00027D1E	0x0000000E	[  5] "socketAddress"
0x00027D2C	0x00000015	[  5] "objInetSocketAddress"
0x00027D41	0x00000011	[  5] "CHK_NUL_RET_ERR;"
0x00027D52	0x00000007	[  5] "<NONE>"
0x00027D60	0x00000020	[  5] "native: intBuffer capacity=%d \n"
0x00027D80	0x00000021	[  5] "native: byteBuffer capacity=%d \n"
0x00027DA1	0x00000016	[  5] "vector::_M_insert_aux"
0x00027DB8	0x00000024	[  5] "native: test socket status; id=%d \n"
0x00027DDC	0x00000008	[  5] "comment"
0x00027DE4	0x0000000A	[  5] "errorInfo"
0x00027DEE	0x0000000A	[  5] "exception"
0x00027DF8	0x00000021	[  5] "testInvalidClose0 - close failed"
0x00027E19	0x00000008	[  5] "select1"
0x00027E21	0x0000000F	[  5] "updateMonitor0"
0x00027E30	0x0000000B	[  5] "objMonitor"
0x00027E3B	0x0000000D	[  5] "send/sendmsg"
0x00027E48	0x0000000D	[  5] "recv/recvmsg"
0x00027E55	0x00000008	[  5] "listen0"
0x00027E5D	0x00000014	[  5] "accept:INVALID_SOCK"
0x00027E71	0x0000000B	[  5] "objTypeUDT"
0x00027E7C	0x0000000D	[  5] "objSocketUDT"
0x00027E89	0x0000001B	[  5] "initInstance1:INVALID_SOCK"
0x00027EA4	0x0000001B	[  5] "initInstance0:INVALID_SOCK"
0x00027EBF	0x00000015	[  5] "stopClass0:cleanup()"
0x00027ED4	0x00000015	[  5] "initClass0:startup()"
0x00027EF0	0x00000025	[  5] "select0 : can not allocate sizeArray"
0x00027F18	0x00000025	[  5] "select0 : can not allocate readArray"
0x00027F40	0x00000026	[  5] "select0 : can not allocate writeArray"
0x00027F66	0x00000008	[  5] "select0"
0x00027F70	0x00000027	[  5] "select0 : can not allocate exceptArray"
0x00027F98	0x00000025	[  5] "send/sendmsg : unexpected socketType"
0x00027FC0	0x00000025	[  5] "recv/recvmsg : unexpected socketType"
0x00027FE5	0x00000011	[  5] "position > limit"
0x00027FF6	0x00000019	[  5] "position is out of range"
0x0002800F	0x00000016	[  5] "limit is out of range"
0x00028025	0x0000000D	[  5] "booleanValue"
0x00028032	0x00000004	[  5] "()I"
0x00028036	0x00000009	[  5] "intValue"
0x0002803F	0x00000004	[  5] "()J"
0x00028043	0x0000000A	[  5] "longValue"
0x00028050	0x00000020	[  5] "not yet implemented: FactoryUDT"
0x00028070	0x00000026	[  5] "unsupported option class in OptionUDT"
0x00028096	0x0000000B	[  5] "setOption0"
0x000280A1	0x0000000B	[  5] "getsockopt"
0x000280B0	0x0000001F	[  5] "objRemoteSocketAddress == NULL"
0x000280D0	0x0000002D	[  5] "can not X_ConvertInetSocketAddressToSockaddr"
0x000280FD	0x00000008	[  5] "connect"
0x00028105	0x00000012	[  5] "close0 - not open"
0x00028117	0x00000016	[  5] "close0 - close failed"
0x0002812D	0x00000005	[  5] "bind"
0x00028138	0x0000002B	[  5] "send/sendmsg : can not allocate data array"
0x00028168	0x0000002B	[  5] "recv/recvmsg : can not allocate data array"
0x00028198	0x00000025	[  5] "com/barchart/udt/nio/SelectionKeyUDT"
0x000281BD	0x0000000A	[  5] "selectEx1"
0x000281C7	0x0000000A	[  5] "selectEx0"
0x000281D8	0x0000002F	[  5] __ZZ46Java_com_barchart_udt_SocketUDT_updateMonitor0E8__func__
0x00028208	0x00000028	[  5] __ZZ39Java_com_barchart_udt_SocketUDT_accept0E8__func__
0x00028230	0x00000015	[  5] __ZZ20UDT_InitMethodRefAllE8__func__
0x00028245	0x00000010	[  5] __ZZ15X_InitMethodRefE8__func__
0x00028258	0x00000020	[  5] __ZZ31UDT_ThrowExceptionUDT_ErrorInfoE8__func__
0x00028278	0x0000001E	[  5] __ZZ29UDT_ThrowExceptionUDT_MessageE8__func__
0x00028296	0x00000014	[  5] __ZZ19UDT_NewExceptionUDTE8__func__
0x000282AA	0x00000011	[  5] __ZZ16UDT_NewLingerUDTE8__func__
0x000282C0	0x00000020	[  5] __ZZ31XXX_ThrowSocketExceptionMessageE8__func__
0x000282E0	0x00000024	[  5] __ZZ35X_IsSockaddrEqualsInetSocketAddressE8__func__
0x00028304	0x00000017	[  5] __ZZ22X_NewInetSocketAddressE8__func__
0x0002831B	0x00000011	[  5] __ZZ16X_NewInetAddressE8__func__
0x00028330	0x00000025	[  5] __ZZ36X_ConvertSockaddrToInetSocketAddressE8__func__
0x00028358	0x00000025	[  5] __ZZ36X_ConvertInetSocketAddressToSockaddrE8__func__
0x0002837D	0x0000000F	[  5] __ZZ14X_InitSockAddrE8__func__
0x0002838C	0x0000000A	[  5] __ZZ9X_NewLongE8__func__
0x00028396	0x0000000D	[  5] __ZZ12X_NewIntegerE8__func__
0x000283A3	0x0000000D	[  5] __ZZ12X_NewBooleanE8__func__
0x000283B0	0x00000015	[  5] __ZZ20X_InitClassReferenceE8__func__
0x000283C5	0x00000008	[  7] __ZTS6CUDTCC
0x000283CD	0x00000005	[  7] __ZTS3CCC
0x000283E0	0x00000004	[  2] __ZN4CUDT12INVALID_SOCKE
0x000283E4	0x00000004	[  2] __ZN4CUDT5ERRORE
0x000283E8	0x00000004	[  2] __ZN3UDT12INVALID_SOCKE
0x000283EC	0x00000004	[  2] __ZN3UDT5ERRORE
0x000283F0	0x00000004	[  2] __ZN6CSeqNo10m_iSeqNoTHE
0x000283F4	0x00000004	[  2] __ZN6CSeqNo11m_iMaxSeqNoE
0x000283F8	0x00000004	[  2] __ZN6CAckNo14m_iMaxAckSeqNoE
0x000283FC	0x00000004	[  2] __ZN6CMsgNo10m_iMsgNoTHE
0x00028400	0x00000004	[  2] __ZN6CMsgNo11m_iMaxMsgNoE
0x00028404	0x00000004	[  2] __ZN4CUDT10m_iVersionE
0x00028408	0x00000004	[  2] __ZN4CUDT14m_iSYNIntervalE
0x0002840C	0x00000004	[  2] __ZN4CUDT20m_iSelfClockIntervalE
0x00028410	0x00000016	[  2] __ZTS10CCCFactoryI6CUDTCCE
0x00028426	0x00000014	[  2] __ZTS17CCCVirtualFactory
0x00028440	0x00000008	[  2] 8-byte-literal=0x43E0000000000000
0x00028448	0x00000008	[  2] 8-byte-literal=0x408F400000000000
0x00028450	0x00000008	[  2] 8-byte-literal=0x4020000000000000
0x00028458	0x00000008	[  2] 8-byte-literal=0x412E848000000000
0x00028460	0x00000008	[  2] 8-byte-literal=0x3FF2000000000000
0x00028468	0x00000008	[  2] 8-byte-literal=0x41DFFFFFFFC00000
0x00028470	0x00000004	[  3] __ZN13CUDTException7SUCCESSE
0x00028474	0x00000004	[  3] __ZN13CUDTException10ECONNSETUPE
0x00028478	0x00000004	[  3] __ZN13CUDTException9ENOSERVERE
0x0002847C	0x00000004	[  3] __ZN13CUDTException8ECONNREJE
0x00028480	0x00000004	[  3] __ZN13CUDTException9ESOCKFAILE
0x00028484	0x00000004	[  3] __ZN13CUDTException8ESECFAILE
0x00028488	0x00000004	[  3] __ZN13CUDTException9ECONNFAILE
0x0002848C	0x00000004	[  3] __ZN13CUDTException9ECONNLOSTE
0x00028490	0x00000004	[  3] __ZN13CUDTException7ENOCONNE
0x00028494	0x00000004	[  3] __ZN13CUDTException9ERESOURCEE
0x00028498	0x00000004	[  3] __ZN13CUDTException7ETHREADE
0x0002849C	0x00000004	[  3] __ZN13CUDTException6ENOBUFE
0x000284A0	0x00000004	[  3] __ZN13CUDTException5EFILEE
0x000284A4	0x00000004	[  3] __ZN13CUDTException9EINVRDOFFE
0x000284A8	0x00000004	[  3] __ZN13CUDTException7ERDPERME
0x000284AC	0x00000004	[  3] __ZN13CUDTException9EINVWROFFE
0x000284B0	0x00000004	[  3] __ZN13CUDTException7EWRPERME
0x000284B4	0x00000004	[  3] __ZN13CUDTException6EINVOPE
0x000284B8	0x00000004	[  3] __ZN13CUDTException10EBOUNDSOCKE
0x000284BC	0x00000004	[  3] __ZN13CUDTException9ECONNSOCKE
0x000284C0	0x00000004	[  3] __ZN13CUDTException9EINVPARAME
0x000284C4	0x00000004	[  3] __ZN13CUDTException8EINVSOCKE
0x000284C8	0x00000004	[  3] __ZN13CUDTException12EUNBOUNDSOCKE
0x000284CC	0x00000004	[  3] __ZN13CUDTException9ENOLISTENE
0x000284D0	0x00000004	[  3] __ZN13CUDTException10ERDVNOSERVE
0x000284D4	0x00000004	[  3] __ZN13CUDTException11ERDVUNBOUNDE
0x000284D8	0x00000004	[  3] __ZN13CUDTException10ESTREAMILLE
0x000284DC	0x00000004	[  3] __ZN13CUDTException9EDGRAMILLE
0x000284E0	0x00000004	[  3] __ZN13CUDTException10EDUPLISTENE
0x000284E4	0x00000004	[  3] __ZN13CUDTException9ELARGEMSGE
0x000284E8	0x00000004	[  3] __ZN13CUDTException10EINVPOLLIDE
0x000284EC	0x00000004	[  3] __ZN13CUDTException10EASYNCFAILE
0x000284F0	0x00000004	[  3] __ZN13CUDTException9EASYNCSNDE
0x000284F4	0x00000004	[  3] __ZN13CUDTException9EASYNCRCVE
0x000284F8	0x00000004	[  3] __ZN13CUDTException8EPEERERRE
0x000284FC	0x00000004	[  3] __ZN13CUDTException8EUNKNOWNE
0x00028500	0x00000004	[  4] __ZN7CPacket13m_iPktHdrSizeE
0x00028504	0x00000004	[  4] __ZN10CHandShake14m_iContentSizeE
0x00028508	0x00000008	[  6] 8-byte-literal=0x41D0000000000000
0x00028510	0x00000008	[  7] 8-byte-literal=0x3FF0000000000000
0x00028518	0x00000008	[  7] 8-byte-literal=0x4030000000000000
0x00028520	0x00000008	[  7] 8-byte-literal=0x3FEC000000000000
0x00028528	0x00000008	[  7] 8-byte-literal=0x3FC0000000000000
0x00028530	0x00000008	[  7] 8-byte-literal=0xC12E848000000000
0x00028538	0x00000008	[  7] 8-byte-literal=0x4024000000000000
0x00028540	0x00000008	[  7] 8-byte-literal=0x3EB92A737110E454
0x00028560	0x00000040	[ 11] __ZZ10md5_finishE3pad
0x000285A0	0x00000004	[ 11] __ZZL11md5_processP11md5_state_sPKhE1w
0x000285A8	0x00000008	[ 14] 8-byte-literal=0x3FECCCCCCCCCCCCD
0x000285B0	0x00000010	[  0]  stub helpers
0x000285C0	0x0000000A	[  0] __ZN4CUDT6acceptEiP8sockaddrPi$stubHelper
0x000285CA	0x0000000A	[  0] __ZN4CUDTD1Ev$stubHelper
0x000285D4	0x0000000A	[  0] __ZN4CUDT6getOptE6UDTOptPvRi$stubHelper
0x000285DE	0x0000000A	[  0] __ZN4CUDT6listenEP8sockaddrR7CPacket$stubHelper
0x000285E8	0x0000000A	[  0] __ZN4CUDT6listenEii$stubHelper
0x000285F2	0x0000000A	[  0] __ZN4CUDT6listenEv$stubHelper
0x000285FC	0x0000000A	[  0] __ZN4CUDT6sampleEP8CPerfMonb$stubHelper
0x00028606	0x0000000A	[  0] __ZN4CUDT6selectEiPSt3setIiSt4lessIiESaIiEES5_S5_PK7timeval$stubHelper
0x00028610	0x0000000A	[  0] __ZN4CUDT6setOptE6UDTOptPKvRKi$stubHelper
0x0002861A	0x0000000A	[  0] __ZN4CUDT6socketEiii$stubHelper
0x00028624	0x0000000A	[  0] __ZN4CUDT7connectEPK8sockaddr$stubHelper
0x0002862E	0x0000000A	[  0] __ZN4CUDT8sendfileERSt13basic_fstreamIcSt11char_traitsIcEERxRKxRKi$stubHelper
0x00028638	0x0000000A	[  0] __ZN4CUDT8sendCtrlERKiPvS2_S1_$stubHelper
0x00028642	0x0000000A	[  0] __ZN4CUDT8selectExERKSt6vectorIiSaIiEEPS2_S5_S5_x$stubHelper
0x0002864C	0x0000000A	[  0] __ZN4CUDT8recvfileEiRSt13basic_fstreamIcSt11char_traitsIcEERxRKxRKi$stubHelper
0x00028656	0x0000000A	[  0] __ZN4CUDT8recvfileERSt13basic_fstreamIcSt11char_traitsIcEERxRKxRKi$stubHelper
0x00028660	0x0000000A	[  0] __ZN4CUDT8sendfileEiRSt13basic_fstreamIcSt11char_traitsIcEERxRKxRKi$stubHelper
0x0002866A	0x0000000A	[  0] __ZN4CUDT9initSynchEv$stubHelper
0x00028674	0x0000000A	[  0] __ZN4CUDTC1ERKS_$stubHelper
0x0002867E	0x0000000A	[  0] __ZN4CUDTC1Ev$stubHelper
0x00028688	0x0000000A	[  0] __ZN4CUDTC2ERKS_$stubHelper
0x00028692	0x0000000A	[  0] __ZN4CUDTC2Ev$stubHelper
0x0002869C	0x0000000A	[  0] __ZN4CUDT8packDataER7CPacketRy$stubHelper
0x000286A6	0x0000000A	[  0] __ZN4CUDT8addEPollEi$stubHelper
0x000286B0	0x0000000A	[  0] __ZN4CUDT7sendmsgEiPKciib$stubHelper
0x000286BA	0x0000000A	[  0] __ZN4CUDT7sendmsgEPKcRKiS3_RKb$stubHelper
0x000286C4	0x0000000A	[  0] __ZN4CUDT7recvmsgEiPci$stubHelper
0x000286CE	0x0000000A	[  0] __ZN4CUDT7recvmsgEPcRKi$stubHelper
0x000286D8	0x0000000A	[  0] __ZN4CUDT7perfmonEiP8CPerfMonb$stubHelper
0x000286E2	0x0000000A	[  0] __ZN4CUDT7connectEiPK8sockaddri$stubHelper
0x000286EC	0x0000000A	[  0] __ZN4CUDT7connectEPK8sockaddrP10CHandShake$stubHelper
0x000286F6	0x0000000A	[  0] __ZN3UDT7cleanupEv$stubHelper
0x00028700	0x0000000A	[  0] __ZN3UDT6socketEiii$stubHelper
0x0002870A	0x0000000A	[  0] __ZN3UDT6selectEiPSt3setIiSt4lessIiESaIiEES5_S5_PK7timeval$stubHelper
0x00028714	0x0000000A	[  0] __ZN3UDT6listenEii$stubHelper
0x0002871E	0x0000000A	[  0] __ZN3UDT6acceptEiP8sockaddrPi$stubHelper
0x00028728	0x0000000A	[  0] __ZN3UDT5closeEi$stubHelper
0x00028732	0x0000000A	[  0] __ZN3UDT4sendEiPKcii$stubHelper
0x0002873C	0x0000000A	[  0] __ZN3UDT4recvEiPcii$stubHelper
0x00028746	0x0000000A	[  0] __ZN3UDT4bindEiPK8sockaddri$stubHelper
0x00028750	0x0000000A	[  0] __ZN3UDT12getlasterrorEv$stubHelper
0x0002875A	0x0000000A	[  0] __ZN3UDT11getsocknameEiP8sockaddrPi$stubHelper
0x00028764	0x0000000A	[  0] __ZN3UDT11getpeernameEiP8sockaddrPi$stubHelper
0x0002876E	0x0000000A	[  0] __ZN3UDT10setsockoptEii6UDTOptPKvi$stubHelper
0x00028778	0x0000000A	[  0] __ZN3UDT10getsockoptEii6UDTOptPvPi$stubHelper
0x00028782	0x0000000A	[  0] __ZN3CCC6setRTTERKi$stubHelper
0x0002878C	0x0000000A	[  0] __ZN3CCC6setMSSERKi$stubHelper
0x00028796	0x0000000A	[  0] __ZN3CCC15setSndCurrSeqNoERKi$stubHelper
0x000287A0	0x0000000A	[  0] __ZN3CCC14setMaxCWndSizeERKi$stubHelper
0x000287AA	0x0000000A	[  0] __ZN3CCC12setUserParamEPKcRKi$stubHelper
0x000287B4	0x0000000A	[  0] __ZN3CCC12setBandwidthERKi$stubHelper
0x000287BE	0x0000000A	[  0] __ZSt20__throw_length_errorPKc$stubHelper
0x000287C8	0x0000000A	[  0] __ZSt28_Rb_tree_rebalance_for_erasePSt18_Rb_tree_node_baseRS_$stubHelper
0x000287D2	0x0000000A	[  0] __ZSt29_Rb_tree_insert_and_rebalancebPSt18_Rb_tree_node_baseS0_RS_$stubHelper
0x000287DC	0x0000000A	[  0] __ZN3CCC10setRcvRateERKi$stubHelper
0x000287E6	0x0000000A	[  0] __ZN16CRendezvousQueueD2Ev$stubHelper
0x000287F0	0x0000000A	[  0] __ZN16CRendezvousQueueC2Ev$stubHelper
0x000287FA	0x0000000A	[  0] _usleep$stubHelper
0x00028804	0x0000000A	[  0] _strlen$stubHelper
0x0002880E	0x0000000A	[  0] _strerror_r$stubHelper
0x00028818	0x0000000A	[  0] _srand$stubHelper
0x00028822	0x0000000A	[  0] _sprintf$stubHelper
0x0002882C	0x0000000A	[  0] _socket$stubHelper
0x00028836	0x0000000A	[  0] __ZN4CUDT5closeEv$stubHelper
0x00028840	0x0000000A	[  0] __ZN4CUDT5closeEi$stubHelper
0x0002884A	0x0000000A	[  0] __ZN4CUDT4sendEiPKcii$stubHelper
0x00028854	0x0000000A	[  0] __ZN4CUDT4sendEPKcRKi$stubHelper
0x0002885E	0x0000000A	[  0] __ZN4CUDT4recvEiPcii$stubHelper
0x00028868	0x0000000A	[  0] __ZN4CUDT4recvEPcRKi$stubHelper
0x00028872	0x0000000A	[  0] __ZN4CUDT4openEv$stubHelper
0x0002887C	0x0000000A	[  0] __ZN4CUDT4bindEii$stubHelper
0x00028886	0x0000000A	[  0] __ZN4CUDT4bindEiPK8sockaddri$stubHelper
0x00028890	0x0000000A	[  0] __ZN4CUDT18epoll_remove_usockEiiPKi$stubHelper
0x0002889A	0x0000000A	[  0] __ZN4CUDT15epoll_add_usockEiiPKi$stubHelper
0x000288A4	0x0000000A	[  0] __ZN4CUDT15epoll_add_ssockEiiPKi$stubHelper
0x000288AE	0x0000000A	[  0] __ZN4CUDT13epoll_releaseEi$stubHelper
0x000288B8	0x0000000A	[  0] __ZN4CUDT12releaseSynchEv$stubHelper
0x000288C2	0x0000000A	[  0] __ZN4CUDT12getUDTHandleEi$stubHelper
0x000288CC	0x0000000A	[  0] __ZN4CUDT12epoll_createEv$stubHelper
0x000288D6	0x0000000A	[  0] __ZN3UDT7connectEiPK8sockaddri$stubHelper
0x000288E0	0x0000000A	[  0] __ZN3UDT7perfmonEiP8CPerfMonb$stubHelper
0x000288EA	0x0000000A	[  0] __ZN3UDT7recvmsgEiPci$stubHelper
0x000288F4	0x0000000A	[  0] __ZN3UDT7sendmsgEiPKciib$stubHelper
0x000288FE	0x0000000A	[  0] __ZN3UDT7startupEv$stubHelper
0x00028908	0x0000000A	[  0] __ZN3UDT8selectExERKSt6vectorIiSaIiEEPS2_S5_S5_x$stubHelper
0x00028912	0x0000000A	[  0] __ZN4CMD57computeEPKcPh$stubHelper
0x0002891C	0x0000000A	[  0] __ZN4CUDT10epoll_waitEiPSt3setIiSt4lessIiESaIiEES5_xS5_S5_$stubHelper
0x00028926	0x0000000A	[  0] __ZN4CUDT10getsockoptEii6UDTOptPvPi$stubHelper
0x00028930	0x0000000A	[  0] __ZN4CUDT10setsockoptEii6UDTOptPKvi$stubHelper
0x0002893A	0x0000000A	[  0] __ZN4CUDT11checkTimersEv$stubHelper
0x00028944	0x0000000A	[  0] __ZN4CUDT11getpeernameEiP8sockaddrPi$stubHelper
0x0002894E	0x0000000A	[  0] __ZN4CUDT11getsocknameEiP8sockaddrPi$stubHelper
0x00028958	0x0000000A	[  0] __ZN4CUDT11processCtrlER7CPacket$stubHelper
0x00028962	0x0000000A	[  0] __ZN4CUDT11processDataEP5CUnit$stubHelper
0x0002896C	0x0000000A	[  0] __ZN4CUDT11removeEPollEi$stubHelper
0x00028976	0x0000000A	[  0] __ZN4CUDT12destroySynchEv$stubHelper
0x00028980	0x0000000A	[  0] __ZN7CPacket9setLengthERKi$stubHelper
0x0002898A	0x0000000A	[  0] __ZN7CPacketC1Ev$stubHelper
0x00028994	0x0000000A	[  0] __ZN7CPacketD1Ev$stubHelper
0x0002899E	0x0000000A	[  0] __ZN8CChannel13setRcvBufSizeERKi$stubHelper
0x000289A8	0x0000000A	[  0] __ZN8CChannel13setSndBufSizeERKi$stubHelper
0x000289B2	0x0000000A	[  0] __ZN8CChannel13setUDPSockOptEv$stubHelper
0x000289BC	0x0000000A	[  0] __ZN8CChannel4openEPK8sockaddr$stubHelper
0x000289C6	0x0000000A	[  0] __ZN8CChannel4openEi$stubHelper
0x000289D0	0x0000000A	[  0] __ZN8CChannelC1ERKi$stubHelper
0x000289DA	0x0000000A	[  0] __ZN8CChannelD1Ev$stubHelper
0x000289E4	0x0000000A	[  0] __ZN9CRcvQueue11getNewEntryEv$stubHelper
0x000289EE	0x0000000A	[  0] __ZN9CRcvQueue11setListenerEPK4CUDT$stubHelper
0x000289F8	0x0000000A	[  0] __ZN9CRcvQueue11setNewEntryEP4CUDT$stubHelper
0x00028A02	0x0000000A	[  0] __ZN9CRcvQueue14removeListenerEPK4CUDT$stubHelper
0x00028A0C	0x0000000A	[  0] __ZN9CRcvQueue4initERKiS1_S1_S1_PK8CChannelPK6CTimer$stubHelper
0x00028A16	0x0000000A	[  0] __ZN9CRcvQueue8recvfromERKiR7CPacket$stubHelper
0x00028A20	0x0000000A	[  0] __ZN9CRcvQueue8storePktERKiP7CPacket$stubHelper
0x00028A2A	0x0000000A	[  0] __ZN9CRcvQueueC1Ev$stubHelper
0x00028A34	0x0000000A	[  0] __ZN9CRcvQueueC2Ev$stubHelper
0x00028A3E	0x0000000A	[  0] __ZN9CRcvQueueD1Ev$stubHelper
0x00028A48	0x0000000A	[  0] __ZN9CRcvQueueD2Ev$stubHelper
0x00028A52	0x0000000A	[  0] __ZN9CSndQueue4initEPK8CChannelPK6CTimer$stubHelper
0x00028A5C	0x0000000A	[  0] __ZN9CSndQueue6sendtoEPK8sockaddrR7CPacket$stubHelper
0x00028A66	0x0000000A	[  0] __ZN9CSndQueueC1Ev$stubHelper
0x00028A70	0x0000000A	[  0] __ZN9CSndQueueD1Ev$stubHelper
0x00028A7A	0x0000000A	[  0] __ZN6CEPoll4waitEiPSt3setIiSt4lessIiESaIiEES5_xS5_S5_$stubHelper
0x00028A84	0x0000000A	[  0] __ZN6CEPoll6createEv$stubHelper
0x00028A8E	0x0000000A	[  0] __ZN6CEPoll7releaseEi$stubHelper
0x00028A98	0x0000000A	[  0] __ZN6CEPoll9add_ssockEiRKiPS0_$stubHelper
0x00028AA2	0x0000000A	[  0] __ZN6CEPoll9add_usockEiRKiPS0_$stubHelper
0x00028AAC	0x0000000A	[  0] __ZN6CEPollC1Ev$stubHelper
0x00028AB6	0x0000000A	[  0] __ZN6CEPollD1Ev$stubHelper
0x00028AC0	0x0000000A	[  0] __ZN6CGuard11createMutexER23_opaque_pthread_mutex_t$stubHelper
0x00028ACA	0x0000000A	[  0] __ZN6CGuard12releaseMutexER23_opaque_pthread_mutex_t$stubHelper
0x00028AD4	0x0000000A	[  0] __ZN6CGuard7enterCSER23_opaque_pthread_mutex_t$stubHelper
0x00028ADE	0x0000000A	[  0] __ZN6CGuard7leaveCSER23_opaque_pthread_mutex_t$stubHelper
0x00028AE8	0x0000000A	[  0] __ZN6CGuardC1ER23_opaque_pthread_mutex_t$stubHelper
0x00028AF2	0x0000000A	[  0] __ZN6CGuardD1Ev$stubHelper
0x00028AFC	0x0000000A	[  0] __ZN6CTimer12triggerEventEv$stubHelper
0x00028B06	0x0000000A	[  0] __ZN6CTimer12waitForEventEv$stubHelper
0x00028B10	0x0000000A	[  0] __ZN6CTimer15getCPUFrequencyEv$stubHelper
0x00028B1A	0x0000000A	[  0] __ZN6CTimer4tickEv$stubHelper
0x00028B24	0x0000000A	[  0] __ZN6CTimer5rdtscERy$stubHelper
0x00028B2E	0x0000000A	[  0] __ZN6CTimer5sleepEv$stubHelper
0x00028B38	0x0000000A	[  0] __ZN6CTimer7getTimeEv$stubHelper
0x00028B42	0x0000000A	[  0] __ZN6CTimer7sleeptoERKy$stubHelper
0x00028B4C	0x0000000A	[  0] __ZN6CTimer9interruptEv$stubHelper
0x00028B56	0x0000000A	[  0] __ZN6CTimerC1Ev$stubHelper
0x00028B60	0x0000000A	[  0] __ZN6CTimerD1Ev$stubHelper
0x00028B6A	0x0000000A	[  0] __ZN6CUDTCCC1Ev$stubHelper
0x00028B74	0x0000000A	[  0] __ZN7CPacket4packERKiPvS2_S1_$stubHelper
0x00028B7E	0x0000000A	[  0] __ZNSi5seekgESt4fposI11__mbstate_tE$stubHelper
0x00028B88	0x0000000A	[  0] __ZNSo5seekpESt4fposI11__mbstate_tE$stubHelper
0x00028B92	0x0000000A	[  0] __ZNSo5writeEPKcl$stubHelper
0x00028B9C	0x0000000A	[  0] __ZNSs4_Rep10_M_destroyERKSaIcE$stubHelper
0x00028BA6	0x0000000A	[  0] __ZNSs6appendEPKcm$stubHelper
0x00028BB0	0x0000000A	[  0] __ZNSs6assignEPKcm$stubHelper
0x00028BBA	0x0000000A	[  0] __ZNSs6assignERKSs$stubHelper
0x00028BC4	0x0000000A	[  0] __ZSt17__throw_bad_allocv$stubHelper
0x00028BCE	0x0000000A	[  0] __ZSt18_Rb_tree_decrementPKSt18_Rb_tree_node_base$stubHelper
0x00028BD8	0x0000000A	[  0] __ZSt18_Rb_tree_decrementPSt18_Rb_tree_node_base$stubHelper
0x00028BE2	0x0000000A	[  0] __ZSt18_Rb_tree_incrementPKSt18_Rb_tree_node_base$stubHelper
0x00028BEC	0x0000000A	[  0] __ZSt18_Rb_tree_incrementPSt18_Rb_tree_node_base$stubHelper
0x00028BF6	0x0000000A	[  0] __ZN6CEPoll13disable_writeERKiRSt3setIiSt4lessIiESaIiEE$stubHelper
0x00028C00	0x0000000A	[  0] __ZN6CEPoll12remove_usockEiRKiPS0_$stubHelper
0x00028C0A	0x0000000A	[  0] __ZN6CEPoll12remove_ssockEiRKiPS0_$stubHelper
0x00028C14	0x0000000A	[  0] __ZN6CEPoll12enable_writeERKiRSt3setIiSt4lessIiESaIiEE$stubHelper
0x00028C1E	0x0000000A	[  0] __ZN6CEPoll12disable_readERKiRSt3setIiSt4lessIiESaIiEE$stubHelper
0x00028C28	0x0000000A	[  0] __ZN6CEPoll11enable_readERKiRSt3setIiSt4lessIiESaIiEE$stubHelper
0x00028C32	0x0000000A	[  0] __ZN6CCacheD2Ev$stubHelper
0x00028C3C	0x0000000A	[  0] __ZN6CCacheD1Ev$stubHelper
0x00028C46	0x0000000A	[  0] __ZN6CCacheC2Ev$stubHelper
0x00028C50	0x0000000A	[  0] __ZN6CCacheC2ERKj$stubHelper
0x00028C5A	0x0000000A	[  0] __ZN6CCacheC1Ev$stubHelper
0x00028C64	0x0000000A	[  0] __ZN6CCache6updateEPK8sockaddrRKiP10CInfoBlock$stubHelper
0x00028C6E	0x0000000A	[  0] __ZN6CCache6lookupEPK8sockaddrRKiP10CInfoBlock$stubHelper
0x00028C78	0x0000000A	[  0] __ZN4CUDTD2Ev$stubHelper
0x00028C82	0x0000000A	[  0] __ZN9CSndQueueD2Ev$stubHelper
0x00028C8C	0x0000000A	[  0] __ZN9CSndUList3popERP8sockaddrR7CPacket$stubHelper
0x00028C96	0x0000000A	[  0] __ZN9CSndUList6removeEPK4CUDT$stubHelper
0x00028CA0	0x0000000A	[  0] __ZN9CSndUList6updateEPK4CUDTRKb$stubHelper
0x00028CAA	0x0000000A	[  0] __ZN9CSndUList7insert_ERKxPK4CUDT$stubHelper
0x00028CB4	0x0000000A	[  0] __ZNK10CRcvBuffer14getRcvDataSizeEv$stubHelper
0x00028CBE	0x0000000A	[  0] __ZNK10CRcvBuffer15getAvailBufSizeEv$stubHelper
0x00028CC8	0x0000000A	[  0] __ZNK10CSndBuffer14getCurrBufSizeEv$stubHelper
0x00028CD2	0x0000000A	[  0] __ZNK12CRcvLossList13getLossLengthEv$stubHelper
0x00028CDC	0x0000000A	[  0] __ZNK12CRcvLossList15getFirstLostSeqEv$stubHelper
0x00028CE6	0x0000000A	[  0] __ZNK13CUDTException12getErrorCodeEv$stubHelper
0x00028CF0	0x0000000A	[  0] __ZNK14CPktTimeWindow12getBandwidthEv$stubHelper
0x00028CFA	0x0000000A	[  0] __ZNK14CPktTimeWindow14getPktRcvSpeedEv$stubHelper
0x00028D04	0x0000000A	[  0] __ZNK7CPacket11getAckSeqNoEv$stubHelper
0x00028D0E	0x0000000A	[  0] __ZNK7CPacket14getMsgBoundaryEv$stubHelper
0x00028D18	0x0000000A	[  0] __ZNK7CPacket15getMsgOrderFlagEv$stubHelper
0x00028D22	0x0000000A	[  0] __ZNK7CPacket5cloneEv$stubHelper
0x00028D2C	0x0000000A	[  0] __ZNK7CPacket7getFlagEv$stubHelper
0x00028D36	0x0000000A	[  0] __ZNK7CPacket7getTypeEv$stubHelper
0x00028D40	0x0000000A	[  0] __ZNK7CPacket9getLengthEv$stubHelper
0x00028D4A	0x0000000A	[  0] __ZNK7CPacket9getMsgSeqEv$stubHelper
0x00028D54	0x0000000A	[  0] __ZNK8CChannel11getSockAddrEP8sockaddr$stubHelper
0x00028D5E	0x0000000A	[  0] __ZNK8CChannel5closeEv$stubHelper
0x00028D68	0x0000000A	[  0] __ZNK8CChannel6sendtoEPK8sockaddrR7CPacket$stubHelper
0x00028D72	0x0000000A	[  0] __ZNK8CChannel8recvfromEP8sockaddrR7CPacket$stubHelper
0x00028D7C	0x0000000A	[  0] __ZNSi4readEPcl$stubHelper
0x00028D86	0x0000000A	[  0] __ZN10CACKWindowC1ERKi$stubHelper
0x00028D90	0x0000000A	[  0] __ZN10CACKWindowD1Ev$stubHelper
0x00028D9A	0x0000000A	[  0] __ZN10CHandShake11deserializeEPKcRKi$stubHelper
0x00028DA4	0x0000000A	[  0] __ZN10CHandShake9serializeEPcRKi$stubHelper
0x00028DAE	0x0000000A	[  0] __ZN10CHandShakeC1Ev$stubHelper
0x00028DB8	0x0000000A	[  0] __ZN10CIPAddress4ntopEPK8sockaddrPjRKi$stubHelper
0x00028DC2	0x0000000A	[  0] __ZN10CIPAddress4ptonEP8sockaddrPKjRKi$stubHelper
0x00028DCC	0x0000000A	[  0] __ZN10CIPAddress5ipcmpEPK8sockaddrS2_RKi$stubHelper
0x00028DD6	0x0000000A	[  0] __ZN10CRcvBuffer10readBufferEPcRKi$stubHelper
0x00028DE0	0x0000000A	[  0] __ZN10CRcvBuffer12getRcvMsgNumEv$stubHelper
0x00028DEA	0x0000000A	[  0] __ZN10CRcvBuffer16readBufferToFileERSt13basic_fstreamIcSt11char_traitsIcEERKi$stubHelper
0x00028DF4	0x0000000A	[  0] __ZN10CRcvBuffer7ackDataERKi$stubHelper
0x00028DFE	0x0000000A	[  0] __ZN10CRcvBuffer7addDataEP5CUniti$stubHelper
0x00028E08	0x0000000A	[  0] __ZN10CRcvBuffer7dropMsgERKi$stubHelper
0x00028E12	0x0000000A	[  0] __ZN10CRcvBuffer7readMsgEPcRKi$stubHelper
0x00028E1C	0x0000000A	[  0] __ZN10CRcvBuffer7scanMsgERiS0_Rb$stubHelper
0x00028E26	0x0000000A	[  0] __ZN10CRcvBufferC1ERKiP10CUnitQueue$stubHelper
0x00028E30	0x0000000A	[  0] __ZN10CRcvBufferD1Ev$stubHelper
0x00028E3A	0x0000000A	[  0] __ZN10CSndBuffer17addBufferFromFileERSt13basic_fstreamIcSt11char_traitsIcEERKi$stubHelper
0x00028E44	0x0000000A	[  0] __ZN10CSndBuffer7ackDataERKi$stubHelper
0x00028E4E	0x0000000A	[  0] __ZN10CSndBuffer8increaseEv$stubHelper
0x00028E58	0x0000000A	[  0] __ZN10CSndBuffer8readDataEPPcRi$stubHelper
0x00028E62	0x0000000A	[  0] __ZN10CSndBuffer8readDataEPPciRiS2_$stubHelper
0x00028E6C	0x0000000A	[  0] __ZN10CSndBuffer9addBufferEPKcRKiS3_RKb$stubHelper
0x00028E76	0x0000000A	[  0] __ZN10CSndBufferC1ERKiS1_$stubHelper
0x00028E80	0x0000000A	[  0] __ZN10CSndBufferC2ERKiS1_$stubHelper
0x00028E8A	0x0000000A	[  0] __ZN10CSndBufferD1Ev$stubHelper
0x00028E94	0x0000000A	[  0] __ZN10CSndBufferD2Ev$stubHelper
0x00028E9E	0x0000000A	[  0] __ZN10CUDTSocketD2Ev$stubHelper
0x00028EA8	0x0000000A	[  0] _freeaddrinfo$stubHelper
0x00028EB2	0x0000000A	[  0] ___cxa_atexit$stubHelper
0x00028EBC	0x0000000A	[  0] ___cxa_begin_catch$stubHelper
0x00028EC6	0x0000000A	[  0] ___cxa_end_catch$stubHelper
0x00028ED0	0x0000000A	[  0] ___cxa_free_exception$stubHelper
0x00028EDA	0x0000000A	[  0] _free$stubHelper
0x00028EE4	0x0000000A	[  0] _close$stubHelper
0x00028EEE	0x0000000A	[  0] _ceil$stubHelper
0x00028EF8	0x0000000A	[  0] ___cxa_get_exception_ptr$stubHelper
0x00028F02	0x0000000A	[  0] ___cxa_rethrow$stubHelper
0x00028F0C	0x0000000A	[  0] ___cxa_throw$stubHelper
0x00028F16	0x0000000A	[  0] ___error$stubHelper
0x00028F20	0x0000000A	[  0] ___stack_chk_fail$stubHelper
0x00028F2A	0x0000000A	[  0] _UDT_InitClassRefAll$stubHelper
0x00028F34	0x0000000A	[  0] _UDT_InitFieldMonitor$stubHelper
0x00028F3E	0x0000000A	[  0] _UDT_InitFieldRefAll$stubHelper
0x00028F48	0x0000000A	[  0] _UDT_InitMethodRefAll$stubHelper
0x00028F52	0x0000000A	[  0] _UDT_ReturnReceiveError$stubHelper
0x00028F5C	0x0000000A	[  0] _UDT_ReturnSendError$stubHelper
0x00028F66	0x0000000A	[  0] _UDT_ThrowExceptionUDT_ErrorInfo$stubHelper
0x00028F70	0x0000000A	[  0] _UDT_ThrowExceptionUDT_Message$stubHelper
0x00028F7A	0x0000000A	[  0] _X_ConvertInetSocketAddressToSockaddr$stubHelper
0x00028F84	0x0000000A	[  0] _X_InitClassReference$stubHelper
0x00028F8E	0x0000000A	[  0] _X_IsSockaddrEqualsInetSocketAddress$stubHelper
0x00028F98	0x0000000A	[  0] _X_NewInetAddress$stubHelper
0x00028FA2	0x0000000A	[  0] _X_NewInetSocketAddress$stubHelper
0x00028FAC	0x0000000A	[  0] __Unwind_Resume$stubHelper
0x00028FB6	0x0000000A	[  0] __ZN10CACKWindow11acknowledgeERKiRi$stubHelper
0x00028FC0	0x0000000A	[  0] __ZN10CACKWindow5storeERKiS1_$stubHelper
0x00028FCA	0x0000000A	[  0] __ZN10CUnitQueue8increaseEv$stubHelper
0x00028FD4	0x0000000A	[  0] __ZN12CRcvLossList12getLossArrayEPiRiRKiS3_$stubHelper
0x00028FDE	0x0000000A	[  0] __ZN12CRcvLossList6insertERKiS1_$stubHelper
0x00028FE8	0x0000000A	[  0] __ZN12CRcvLossList6removeERKi$stubHelper
0x00028FF2	0x0000000A	[  0] __ZN12CRcvLossList6removeERKiS1_$stubHelper
0x00028FFC	0x0000000A	[  0] __ZN12CRcvLossListC1ERKi$stubHelper
0x00029006	0x0000000A	[  0] __ZN12CRcvLossListC2ERKi$stubHelper
0x00029010	0x0000000A	[  0] __ZN12CRcvLossListD1Ev$stubHelper
0x0002901A	0x0000000A	[  0] __ZN12CSndLossList10getLostSeqEv$stubHelper
0x00029024	0x0000000A	[  0] __ZN12CSndLossList6insertERKiS1_$stubHelper
0x0002902E	0x0000000A	[  0] __ZN12CSndLossList6removeERKi$stubHelper
0x00029038	0x0000000A	[  0] __ZN12CSndLossListC1ERKi$stubHelper
0x00029042	0x0000000A	[  0] __ZN12CSndLossListC2ERKi$stubHelper
0x0002904C	0x0000000A	[  0] __ZN12CSndLossListD1Ev$stubHelper
0x00029056	0x0000000A	[  0] __ZN13CUDTExceptionC1ERKS_$stubHelper
0x00029060	0x0000000A	[  0] __ZN13CUDTExceptionC1Eiii$stubHelper
0x0002906A	0x0000000A	[  0] __ZN13CUDTExceptionC2ERKS_$stubHelper
0x00029074	0x0000000A	[  0] __ZN13CUDTExceptionC2Eiii$stubHelper
0x0002907E	0x0000000A	[  0] __ZN13CUDTExceptionD1Ev$stubHelper
0x00029088	0x0000000A	[  0] __ZN14CPktTimeWindow12onPktArrivalEv$stubHelper
0x00029092	0x0000000A	[  0] __ZN14CPktTimeWindow13probe1ArrivalEv$stubHelper
0x0002909C	0x0000000A	[  0] __ZN14CPktTimeWindow13probe2ArrivalEv$stubHelper
0x000290A6	0x0000000A	[  0] __ZN14CPktTimeWindowC1ERKiS1_$stubHelper
0x000290B0	0x0000000A	[  0] __ZN14CPktTimeWindowC1Ev$stubHelper
0x000290BA	0x0000000A	[  0] __ZN14CPktTimeWindowD1Ev$stubHelper
0x000290C4	0x0000000A	[  0] __ZN16CRendezvousQueue6insertERKiS1_PK8sockaddr$stubHelper
0x000290CE	0x0000000A	[  0] __ZN16CRendezvousQueue6removeERKi$stubHelper
0x000290D8	0x0000000A	[  0] __ZN16CRendezvousQueue8retrieveEPK8sockaddrRi$stubHelper
0x000290E2	0x0000000A	[  0] _bind$stubHelper
0x000290EC	0x0000000A	[  0] __ZN10CUDTUnited11getpeernameEiP8sockaddrPi$stubHelper
0x000290F6	0x0000000A	[  0] __ZN10CUDTUnited11getsocknameEiP8sockaddrPi$stubHelper
0x00029100	0x0000000A	[  0] __ZN10CUDTUnited12removeSocketEi$stubHelper
0x0002910A	0x0000000A	[  0] __ZN10CUDTUnited13newConnectionEiPK8sockaddrP10CHandShake$stubHelper
0x00029114	0x0000000A	[  0] __ZN10CUDTUnited15epoll_add_usockEiiPKi$stubHelper
0x0002911E	0x0000000A	[  0] __ZN10CUDTUnited18checkBrokenSocketsEv$stubHelper
0x00029128	0x0000000A	[  0] __ZN10CUDTUnited18epoll_remove_usockEiiPKi$stubHelper
0x00029132	0x0000000A	[  0] __ZN10CUDTUnited4bindEiPK8sockaddrRKi$stubHelper
0x0002913C	0x0000000A	[  0] __ZN10CUDTUnited4bindEii$stubHelper
0x00029146	0x0000000A	[  0] __ZN10CUDTUnited5closeEi$stubHelper
0x00029150	0x0000000A	[  0] __ZN10CUDTUnited6acceptEiP8sockaddrPi$stubHelper
0x0002915A	0x0000000A	[  0] __ZN10CUDTUnited6listenEiRKi$stubHelper
0x00029164	0x0000000A	[  0] __ZN10CUDTUnited6locateEi$stubHelper
0x0002916E	0x0000000A	[  0] __ZN10CUDTUnited6locateEiPK8sockaddrRKiS4_$stubHelper
0x00029178	0x0000000A	[  0] __ZN10CUDTUnited6lookupEi$stubHelper
0x00029182	0x0000000A	[  0] __ZN10CUDTUnited6selectEPSt3setIiSt4lessIiESaIiEES5_S5_PK7timeval$stubHelper
0x0002918C	0x0000000A	[  0] __ZN10CUDTUnited7cleanupEv$stubHelper
0x00029196	0x0000000A	[  0] __ZN10CUDTUnited7connectEiPK8sockaddrRKi$stubHelper
0x000291A0	0x0000000A	[  0] __ZN10CUDTUnited7startupEv$stubHelper
0x000291AA	0x0000000A	[  0] __ZN10CUDTUnited8getErrorEv$stubHelper
0x000291B4	0x0000000A	[  0] __ZN10CUDTUnited8selectExERKSt6vectorIiSaIiEEPS2_S5_S5_x$stubHelper
0x000291BE	0x0000000A	[  0] __ZN10CUDTUnited9getStatusEi$stubHelper
0x000291C8	0x0000000A	[  0] __ZN10CUDTUnited9newSocketERKiS1_$stubHelper
0x000291D2	0x0000000A	[  0] __ZN10CUDTUnited9updateMuxEP10CUDTSocketPK8sockaddrPKi$stubHelper
0x000291DC	0x0000000A	[  0] __ZN10CUDTUnited9updateMuxEP10CUDTSocketPKS0_$stubHelper
0x000291E6	0x0000000A	[  0] __ZN10CUDTUnitedC1Ev$stubHelper
0x000291F0	0x0000000A	[  0] __ZN10CUDTUnitedC2Ev$stubHelper
0x000291FA	0x0000000A	[  0] __ZN10CUDTUnitedD1Ev$stubHelper
0x00029204	0x0000000A	[  0] __ZN10CUDTUnitedD2Ev$stubHelper
0x0002920E	0x0000000A	[  0] __ZN10CUnitQueue4initERKiS1_S1_$stubHelper
0x00029218	0x0000000A	[  0] _pthread_cond_init$stubHelper
0x00029222	0x0000000A	[  0] _pthread_cond_signal$stubHelper
0x0002922C	0x0000000A	[  0] _pthread_cond_timedwait$stubHelper
0x00029236	0x0000000A	[  0] _pthread_cond_wait$stubHelper
0x00029240	0x0000000A	[  0] _pthread_create$stubHelper
0x0002924A	0x0000000A	[  0] _pthread_getspecific$stubHelper
0x00029254	0x0000000A	[  0] _pthread_join$stubHelper
0x0002925E	0x0000000A	[  0] _pthread_key_create$stubHelper
0x00029268	0x0000000A	[  0] _pthread_key_delete$stubHelper
0x00029272	0x0000000A	[  0] _pthread_mutex_destroy$stubHelper
0x0002927C	0x0000000A	[  0] ___cxa_allocate_exception$stubHelper
0x00029286	0x0000000A	[  0] __Znwm$stubHelper
0x00029290	0x0000000A	[  0] __Znam$stubHelper
0x0002929A	0x0000000A	[  0] __ZdlPv$stubHelper
0x000292A4	0x0000000A	[  0] __ZdaPv$stubHelper
0x000292AE	0x0000000A	[  0] __ZSt9terminatev$stubHelper
0x000292B8	0x0000000A	[  0] _pthread_mutex_init$stubHelper
0x000292C2	0x0000000A	[  0] _pthread_mutex_lock$stubHelper
0x000292CC	0x0000000A	[  0] _pthread_mutex_trylock$stubHelper
0x000292D6	0x0000000A	[  0] _pthread_mutex_unlock$stubHelper
0x000292E0	0x0000000A	[  0] _pthread_setspecific$stubHelper
0x000292EA	0x0000000A	[  0] _puts$stubHelper
0x000292F4	0x0000000A	[  0] _rand$stubHelper
0x000292FE	0x0000000A	[  0] _recvmsg$stubHelper
0x00029308	0x0000000A	[  0] _select$1050$stubHelper
0x00029312	0x0000000A	[  0] _sendmsg$stubHelper
0x0002931C	0x0000000A	[  0] _setsockopt$stubHelper
0x00029326	0x0000000A	[  0] _log10$stubHelper
0x00029330	0x0000000A	[  0] _gettimeofday$stubHelper
0x0002933A	0x0000000A	[  0] _getsockopt$stubHelper
0x00029344	0x0000000A	[  0] _getsockname$stubHelper
0x0002934E	0x0000000A	[  0] _getpeername$stubHelper
0x00029358	0x0000000A	[  0] _getnameinfo$stubHelper
0x00029362	0x0000000A	[  0] _malloc$stubHelper
0x0002936C	0x0000000A	[  0] _md5_append$stubHelper
0x00029376	0x0000000A	[  0] _md5_finish$stubHelper
0x00029380	0x0000000A	[  0] _pthread_cond_destroy$stubHelper
0x0002938A	0x0000000A	[  0] _pthread_cond_broadcast$stubHelper
0x00029394	0x0000000A	[  0] _printf$stubHelper
0x0002939E	0x0000000A	[  0] _pow$stubHelper
0x000293A8	0x0000000A	[  0] _nanosleep$stubHelper
0x000293B2	0x0000000A	[  0] _getaddrinfo$stubHelper
0x000293BC	0x0000000A	[  0] _memset$stubHelper
0x000293C6	0x0000000A	[  0] _memmove$stubHelper
0x000293D0	0x0000000A	[  0] _memcpy$stubHelper
0x000293DA	0x0000000A	[  0] _md5_init$stubHelper
0x000293E4	0x00000045	[  1] __ZN8CChannel13setUDPSockOptEv.lsda
0x00029429	0x00000079	[  1] __ZN8CChannel4openEPK8sockaddr.lsda
0x000294A4	0x00000045	[  2] __ZN4CUDT8sendCtrlERKiPvS2_S1_.lsda
0x000294E9	0x00000079	[  2] __ZN4CUDT6getOptE6UDTOptPvRi.lsda
0x00029562	0x00000200	[  2] __ZN4CUDT6setOptE6UDTOptPKvRKi.lsda
0x00029762	0x000000E2	[  2] __ZN4CUDT7recvmsgEPcRKi.lsda
0x00029844	0x000000C8	[  2] __ZN4CUDT7sendmsgEPKcRKiS3_RKb.lsda
0x0002990C	0x000000D5	[  2] __ZN4CUDT4sendEPKcRKi.lsda
0x000299E1	0x000000BB	[  2] __ZN4CUDT4recvEPcRKi.lsda
0x00029A9C	0x00000060	[  2] __ZN4CUDT5closeEv.lsda
0x00029AFC	0x00000148	[  2] __ZN4CUDT7connectEPK8sockaddrP10CHandShake.lsda
0x00029C44	0x00000094	[  2] __ZN4CUDT6listenEv.lsda
0x00029CD8	0x00000045	[  2] __ZN4CUDT4openEv.lsda
0x00029D1D	0x0000002B	[  2] __ZN10CCCFactoryI6CUDTCCE6createEv.lsda
0x00029D48	0x00000038	[  2] __ZN4CUDT6sampleEP8CPerfMonb.lsda
0x00029D80	0x00000104	[  2] __ZN4CUDT8recvfileERSt13basic_fstreamIcSt11char_traitsIcEERxRKxRKi.lsda
0x00029E84	0x00000054	[  2] __ZN4CUDT8packDataER7CPacketRy.lsda
0x00029ED8	0x00000104	[  2] __ZN4CUDT8sendfileERSt13basic_fstreamIcSt11char_traitsIcEERxRKxRKi.lsda
0x00029FDC	0x00000038	[  2] __ZN4CUDTD2Ev.lsda
0x0002A014	0x0000002B	[  2] __ZN4CUDTC2ERKS_.lsda
0x0002A03F	0x0000002D	[  2] __ZN4CUDTC2Ev.lsda
0x0002A06C	0x00000241	[  2] __ZN4CUDT7connectEPK8sockaddr.lsda
0x0002A2AD	0x0000001E	[  3] __ZN13CUDTExceptionC2Eiii.lsda
0x0002A2CB	0x00000038	[  5] _Java_com_barchart_udt_SocketUDT_testInvalidClose0.lsda
0x0002A303	0x000000A1	[  5] _Java_com_barchart_udt_SocketUDT_select1.lsda
0x0002A3A4	0x00000038	[  5] _Java_com_barchart_udt_SocketUDT_updateMonitor0.lsda
0x0002A3DC	0x00000038	[  5] _UDT_ReturnSendError.lsda
0x0002A414	0x00000038	[  5] _UDT_ReturnReceiveError.lsda
0x0002A44C	0x00000038	[  5] _Java_com_barchart_udt_SocketUDT_listen0.lsda
0x0002A484	0x00000038	[  5] _Java_com_barchart_udt_SocketUDT_accept0.lsda
0x0002A4BC	0x00000038	[  5] _Java_com_barchart_udt_SocketUDT_initInstance1.lsda
0x0002A4F4	0x00000038	[  5] _Java_com_barchart_udt_SocketUDT_initInstance0.lsda
0x0002A52C	0x00000038	[  5] _Java_com_barchart_udt_SocketUDT_stopClass0.lsda
0x0002A564	0x00000038	[  5] _Java_com_barchart_udt_SocketUDT_initClass0.lsda
0x0002A59C	0x000000A1	[  5] _Java_com_barchart_udt_SocketUDT_select0.lsda
0x0002A63D	0x00000038	[  5] _Java_com_barchart_udt_SocketUDT_setOption0.lsda
0x0002A675	0x00000038	[  5] _Java_com_barchart_udt_SocketUDT_getOption0.lsda
0x0002A6AD	0x00000038	[  5] _Java_com_barchart_udt_SocketUDT_connect0.lsda
0x0002A6E5	0x00000038	[  5] _Java_com_barchart_udt_SocketUDT_close0.lsda
0x0002A71D	0x00000038	[  5] _Java_com_barchart_udt_SocketUDT_bind0.lsda
0x0002A755	0x00000052	[  5] _Java_com_barchart_udt_SocketUDT_selectEx1.lsda
0x0002A7A7	0x00000045	[  5] _Java_com_barchart_udt_SocketUDT_selectEx0.lsda
0x0002A7EC	0x00000038	[  6] __ZN10CUDTUnited9updateMuxEP10CUDTSocketPKS0_.lsda
0x0002A824	0x0000002B	[  6] __ZN10CUDTUnited8getErrorEv.lsda
0x0002A84F	0x00000039	[  6] __ZN10CUDTUnited6lookupEi.lsda
0x0002A888	0x00000028	[  6] __ZN4CUDT12getUDTHandleEi.lsda
0x0002A8B0	0x0000002B	[  6] __ZN10CUDTUnited7cleanupEv.lsda
0x0002A8DB	0x0000002D	[  6] __ZN10CUDTUnited7startupEv.lsda
0x0002A908	0x00000125	[  6] __ZN10CUDTUnited9updateMuxEP10CUDTSocketPK8sockaddrPKi.lsda
0x0002AA2D	0x0000002B	[  6] __ZN10CUDTUnited6locateEiPK8sockaddrRKiS4_.lsda
0x0002AA58	0x0000002B	[  6] __ZN10CUDTUnited18epoll_remove_usockEiiPKi.lsda
0x0002AA83	0x0000002B	[  6] __ZN10CUDTUnited15epoll_add_usockEiiPKi.lsda
0x0002AAAE	0x00000052	[  6] __ZN10CUDTUnited11getsocknameEiP8sockaddrPi.lsda
0x0002AB00	0x00000087	[  6] __ZN10CUDTUnited7connectEiPK8sockaddrRKi.lsda
0x0002AB87	0x00000052	[  6] __ZN10CUDTUnited4bindEii.lsda
0x0002ABD9	0x0000006C	[  6] __ZN10CUDTUnited4bindEiPK8sockaddrRKi.lsda
0x0002AC45	0x00000052	[  6] __ZN10CUDTUnited11getpeernameEiP8sockaddrPi.lsda
0x0002AC97	0x00000055	[  6] __ZN10CUDTUnited5closeEi.lsda
0x0002ACEC	0x000000B8	[  6] __ZN10CUDTUnited6listenEiRKi.lsda
0x0002ADA4	0x00000038	[  6] __ZN10CUDTSocketD2Ev.lsda
0x0002ADDC	0x00000094	[  6] __ZNSt8_Rb_treeIxSt4pairIKxSt3setIiSt4lessIiESaIiEEESt10_Select1stIS7_ES3_IxESaIS7_EE8_M_eraseEPSt13_Rb_tree_nodeIS7_E.lsda
0x0002AE70	0x00000094	[  6] __ZN10CUDTUnitedD2Ev.lsda
0x0002AF04	0x0000007C	[  6] __ZN10CUDTUnitedC2Ev.lsda
0x0002AF80	0x00000108	[  6] __ZN10CUDTUnited9newSocketERKiS1_.lsda
0x0002B088	0x0000004C	[  6] __ZNSt8_Rb_treeIiiSt9_IdentityIiESt4lessIiESaIiEE7_M_copyEPKSt13_Rb_tree_nodeIiEPS7_.lsda
0x0002B0D4	0x00000050	[  6] __ZNSt8_Rb_treeIxSt4pairIKxSt3setIiSt4lessIiESaIiEEESt10_Select1stIS7_ES3_IxESaIS7_EE9_M_insertEPSt18_Rb_tree_node_baseSE_RKS7_.lsda
0x0002B124	0x0000002B	[  6] __ZN10CUDTUnited12removeSocketEi.lsda
0x0002B14F	0x00000038	[  6] __ZN10CUDTUnited18checkBrokenSocketsEv.lsda
0x0002B187	0x00000038	[  6] __ZN10CUDTUnited14garbageCollectEPv.lsda
0x0002B1BF	0x000000C9	[  6] __ZN10CUDTUnited6selectEPSt3setIiSt4lessIiESaIiEES5_S5_PK7timeval.lsda
0x0002B288	0x00000154	[  6] __ZN10CUDTUnited13newConnectionEiPK8sockaddrP10CHandShake.lsda
0x0002B3DC	0x00000088	[  6] __ZN10CUDTUnited6acceptEiP8sockaddrPi.lsda
0x0002B464	0x000000B8	[  6] __ZN4CUDT6listenEii.lsda
0x0002B51C	0x000000B8	[  6] __ZN4CUDT4bindEii.lsda
0x0002B5D4	0x000000AC	[  6] __ZN4CUDT7perfmonEiP8CPerfMonb.lsda
0x0002B680	0x000000AC	[  6] __ZN4CUDT13epoll_releaseEi.lsda
0x0002B72C	0x000000B8	[  6] __ZN4CUDT4bindEiPK8sockaddri.lsda
0x0002B7E4	0x000000C4	[  6] __ZN4CUDT6socketEiii.lsda
0x0002B8A8	0x000000AC	[  6] __ZN4CUDT10epoll_waitEiPSt3setIiSt4lessIiESaIiEES5_xS5_S5_.lsda
0x0002B954	0x000000AC	[  6] __ZN4CUDT18epoll_remove_ssockEiiPKi.lsda
0x0002BA00	0x000000AC	[  6] __ZN4CUDT18epoll_remove_usockEiiPKi.lsda
0x0002BAAC	0x000000AC	[  6] __ZN4CUDT15epoll_add_ssockEiiPKi.lsda
0x0002BB58	0x000000AC	[  6] __ZN4CUDT15epoll_add_usockEiiPKi.lsda
0x0002BC04	0x000000AC	[  6] __ZN4CUDT12epoll_createEv.lsda
0x0002BCB0	0x00000100	[  6] __ZN4CUDT8selectExERKSt6vectorIiSaIiEEPS2_S5_S5_x.lsda
0x0002BDB0	0x00000100	[  6] __ZN4CUDT6selectEiPSt3setIiSt4lessIiESaIiEES5_S5_PK7timeval.lsda
0x0002BEB0	0x000000AC	[  6] __ZN4CUDT8recvfileEiRSt13basic_fstreamIcSt11char_traitsIcEERxRKxRKi.lsda
0x0002BF5C	0x000000D8	[  6] __ZN4CUDT8sendfileEiRSt13basic_fstreamIcSt11char_traitsIcEERxRKxRKi.lsda
0x0002C034	0x000000AC	[  6] __ZN4CUDT7recvmsgEiPci.lsda
0x0002C0E0	0x000000D8	[  6] __ZN4CUDT7sendmsgEiPKciib.lsda
0x0002C1B8	0x000000AC	[  6] __ZN4CUDT4recvEiPcii.lsda
0x0002C264	0x000000D8	[  6] __ZN4CUDT4sendEiPKcii.lsda
0x0002C33C	0x000000AC	[  6] __ZN4CUDT10setsockoptEii6UDTOptPKvi.lsda
0x0002C3E8	0x000000AC	[  6] __ZN4CUDT10getsockoptEii6UDTOptPvPi.lsda
0x0002C494	0x000000AC	[  6] __ZN4CUDT11getsocknameEiP8sockaddrPi.lsda
0x0002C540	0x000000AC	[  6] __ZN4CUDT11getpeernameEiP8sockaddrPi.lsda
0x0002C5EC	0x000000AC	[  6] __ZN4CUDT5closeEi.lsda
0x0002C698	0x000000D8	[  6] __ZN4CUDT7connectEiPK8sockaddri.lsda
0x0002C770	0x00000088	[  6] __ZN4CUDT6acceptEiP8sockaddrPi.lsda
0x0002C7F8	0x00000074	[  8] __ZN10CSndBuffer8increaseEv.lsda
0x0002C86C	0x00000038	[  8] __ZN10CSndBuffer7ackDataERKi.lsda
0x0002C8A4	0x00000038	[  8] __ZN10CSndBuffer8readDataEPPciRiS2_.lsda
0x0002C8DC	0x00000045	[  9] __ZN6CEPoll12remove_ssockEiRKiPS0_.lsda
0x0002C921	0x00000045	[  9] __ZN6CEPoll12remove_usockEiRKiPS0_.lsda
0x0002C966	0x00000045	[  9] __ZN6CEPoll9add_ssockEiRKiPS0_.lsda
0x0002C9AB	0x00000045	[  9] __ZN6CEPoll9add_usockEiRKiPS0_.lsda
0x0002C9F0	0x0000002C	[  9] __ZN6CEPoll4waitEiPSt3setIiSt4lessIiESaIiEES5_xS5_S5_.lsda
0x0002CA1C	0x000000A0	[  9] __ZNSt8_Rb_treeIiSt4pairIKi10CEPollDescESt10_Select1stIS3_ESt4lessIiESaIS3_EE9_M_insertEPSt18_Rb_tree_node_baseSB_RKS3_.lsda
0x0002CABC	0x00000045	[  9] __ZN6CEPoll11enable_readERKiRSt3setIiSt4lessIiESaIiEE.lsda
0x0002CB01	0x00000045	[  9] __ZN6CEPoll12enable_writeERKiRSt3setIiSt4lessIiESaIiEE.lsda
0x0002CB46	0x00000045	[  9] __ZN6CEPoll12disable_readERKiRSt3setIiSt4lessIiESaIiEE.lsda
0x0002CB8B	0x00000045	[  9] __ZN6CEPoll13disable_writeERKiRSt3setIiSt4lessIiESaIiEE.lsda
0x0002CBD0	0x00000352	[  9] __ZNSt8_Rb_treeIiSt4pairIKi10CEPollDescESt10_Select1stIS3_ESt4lessIiESaIS3_EE8_M_eraseEPSt13_Rb_tree_nodeIS3_E.lsda
0x0002CF22	0x0000002B	[  9] __ZN6CEPollC2Ev.lsda
0x0002CF4D	0x0000002B	[  9] __ZN6CEPollC1Ev.lsda
0x0002CF78	0x00000038	[  9] __ZN6CEPollD1Ev.lsda
0x0002CFB0	0x00000094	[  9] __ZN6CEPollD2Ev.lsda
0x0002D044	0x0000029C	[  9] __ZN6CEPoll6createEv.lsda
0x0002D2E0	0x000000A1	[  9] __ZN6CEPoll7releaseEi.lsda
0x0002D381	0x00000038	[ 13] __ZN6CCacheC2Ev.lsda
0x0002D3B9	0x00000038	[ 13] __ZN6CCacheC2ERKj.lsda
0x0002D3F1	0x00000052	[ 13] __ZN6CCacheD2Ev.lsda
0x0002D443	0x00000038	[ 13] __ZN6CCache6updateEPK8sockaddrRKiP10CInfoBlock.lsda
0x0002D47C	0x00000048	[ 14] __ZN16CRendezvousQueue6insertERKiS1_PK8sockaddr.lsda
0x0002D4C4	0x0000005C	[ 14] __ZN10CUnitQueue8increaseEv.lsda
0x0002D520	0x0000005C	[ 14] __ZN10CUnitQueue4initERKiS1_S1_.lsda
0x0002D57C	0x00000038	[ 14] __ZN16CRendezvousQueue8retrieveEPK8sockaddrRi.lsda
0x0002D5B4	0x0000005C	[ 14] __ZN9CSndUList6insertERKxPK4CUDT.lsda
0x0002D610	0x0000001E	[ 14] __ZNSt5dequeIP7CPacketSaIS1_EE17_M_reallocate_mapEmb.lsda
0x0002D62E	0x0000003A	[ 14] __ZN9CRcvQueue11setNewEntryEP4CUDT.lsda
0x0002D668	0x00000034	[ 14] __ZNSt11_Deque_baseIP7CPacketSaIS1_EE15_M_create_nodesEPPS1_S5_.lsda
0x0002D69C	0x0000005C	[ 14] __ZNSt11_Deque_baseIP7CPacketSaIS1_EE17_M_initialize_mapEm.lsda
0x0002D6F8	0x00000045	[ 14] __ZN9CSndQueue4initEPK8CChannelPK6CTimer.lsda
0x0002D73D	0x0000001E	[ 14] __ZN16CRendezvousQueueC1Ev.lsda
0x0002D75B	0x0000001E	[ 14] __ZN16CRendezvousQueueD2Ev.lsda
0x0002D779	0x0000001E	[ 14] __ZN16CRendezvousQueueC2Ev.lsda
0x0002D797	0x00000045	[ 14] __ZN9CRcvQueue4initERKiS1_S1_S1_PK8CChannelPK6CTimer.lsda
0x0002D7DC	0x0000002B	[ 14] __ZN9CSndUList3popERP8sockaddrR7CPacket.lsda
0x0002D807	0x00000038	[ 14] __ZN9CSndQueue6workerEPv.lsda
0x0002D83F	0x00000045	[ 14] __ZN9CSndUList6updateEPK4CUDTRKb.lsda
0x0002D884	0x00000050	[ 14] __ZNSt8_Rb_treeIiSt4pairIKiSt5queueIP7CPacketSt5dequeIS4_SaIS4_EEEESt10_Select1stIS9_ESt4lessIiESaIS9_EE9_M_insertEPSt18_Rb_tree_node_baseSH_RKS9_.lsda
0x0002D8D4	0x00000045	[ 14] __ZN9CRcvQueueD2Ev.lsda
0x0002D919	0x0000002B	[ 14] __ZN9CRcvQueueC2Ev.lsda
0x0002D944	0x00000079	[ 14] __ZN9CRcvQueue8storePktERKiP7CPacket.lsda
0x0002D9BD	0x00000038	[ 14] __ZN9CRcvQueue6workerEPv.lsda
0x0002D9F5	0x00000045	[ 14] __ZN9CRcvQueue8recvfromERKiR7CPacket.lsda
0x0002DA40	0x00000AB8	[  0] unwind info
0x0002E4F8	0x00000020	[  1] CIE
0x0002E518	0x00000038	[  1] __ZN8CChannelC2Ev.eh
0x0002E550	0x00000038	[  1] __ZN8CChannelC1Ev.eh
0x0002E588	0x00000038	[  1] __ZN8CChannelC2ERKi.eh
0x0002E5C0	0x00000038	[  1] __ZN8CChannelC1ERKi.eh
0x0002E5F8	0x00000038	[  1] __ZN8CChannelD2Ev.eh
0x0002E630	0x00000038	[  1] __ZN8CChannelD1Ev.eh
0x0002E668	0x00000038	[  1] __ZN8CChannel13setSndBufSizeERKi.eh
0x0002E6A0	0x00000038	[  1] __ZN8CChannel13setRcvBufSizeERKi.eh
0x0002E6D8	0x00000038	[  1] __ZNK8CChannel11getPeerAddrEP8sockaddr.eh
0x0002E710	0x00000038	[  1] __ZNK8CChannel11getSockAddrEP8sockaddr.eh
0x0002E748	0x00000038	[  1] __ZN8CChannel13getRcvBufSizeEv.eh
0x0002E780	0x00000038	[  1] __ZN8CChannel13getSndBufSizeEv.eh
0x0002E7B8	0x00000038	[  1] __ZNK8CChannel5closeEv.eh
0x0002E7F0	0x00000040	[  1] __ZN8CChannel13setUDPSockOptEv.eh
0x0002E830	0x00000038	[  1] __ZN8CChannel4openEi.eh
0x0002E868	0x00000040	[  1] __ZN8CChannel4openEPK8sockaddr.eh
0x0002E8A8	0x00000038	[  1] __ZNK8CChannel8recvfromEP8sockaddrR7CPacket.eh
0x0002E8E0	0x00000040	[  1] __ZNK8CChannel6sendtoEPK8sockaddrR7CPacket.eh
0x0002E920	0x00000020	[  2] CIE
0x0002E940	0x00000038	[  2] __Z41__static_initialization_and_destruction_0ii.eh
0x0002E978	0x00000038	[  2] __GLOBAL__I__ZN4CUDT11s_UDTUnitedE.eh
0x0002E9B0	0x00000038	[  2] ___tcf_0.eh
0x0002E9E8	0x00000038	[  2] __ZN10CCCFactoryI6CUDTCCED0Ev.eh
0x0002EA20	0x00000038	[  2] __ZN10CCCFactoryI6CUDTCCED1Ev.eh
0x0002EA58	0x00000038	[  2] __ZN17CCCVirtualFactoryD0Ev.eh
0x0002EA90	0x00000038	[  2] __ZN17CCCVirtualFactoryD1Ev.eh
0x0002EAC8	0x00000038	[  2] __ZN10CCCFactoryI6CUDTCCE5cloneEv.eh
0x0002EB00	0x00000040	[  2] __ZNSt8_Rb_treeIiiSt9_IdentityIiESt4lessIiESaIiEE9_M_insertEPSt18_Rb_tree_node_baseS7_RKi.eh
0x0002EB40	0x00000040	[  2] __ZNSt8_Rb_treeIiiSt9_IdentityIiESt4lessIiESaIiEE16_M_insert_uniqueERKi.eh
0x0002EB80	0x00000040	[  2] __ZN4CUDT8addEPollEi.eh
0x0002EBC0	0x00000040	[  2] __ZN4CUDT6listenEP8sockaddrR7CPacket.eh
0x0002EC00	0x00000040	[  2] __ZN4CUDT12releaseSynchEv.eh
0x0002EC40	0x00000040	[  2] __ZN4CUDT8sendCtrlERKiPvS2_S1_.eh
0x0002EC80	0x00000038	[  2] __ZN4CUDT12destroySynchEv.eh
0x0002ECB8	0x00000038	[  2] __ZN4CUDT9initSynchEv.eh
0x0002ECF0	0x00000040	[  2] __ZN4CUDT6getOptE6UDTOptPvRi.eh
0x0002ED30	0x00000040	[  2] __ZN4CUDT6setOptE6UDTOptPKvRKi.eh
0x0002ED70	0x00000040	[  2] __ZN4CUDT7recvmsgEPcRKi.eh
0x0002EDB0	0x00000040	[  2] __ZN4CUDT7sendmsgEPKcRKiS3_RKb.eh
0x0002EDF0	0x00000040	[  2] __ZN4CUDT4sendEPKcRKi.eh
0x0002EE30	0x00000040	[  2] __ZN4CUDT4recvEPcRKi.eh
0x0002EE70	0x00000040	[  2] __ZN4CUDT5closeEv.eh
0x0002EEB0	0x00000040	[  2] __ZN4CUDT7connectEPK8sockaddrP10CHandShake.eh
0x0002EEF0	0x00000040	[  2] __ZN4CUDT6listenEv.eh
0x0002EF30	0x00000040	[  2] __ZN4CUDT4openEv.eh
0x0002EF70	0x00000040	[  2] __ZN10CCCFactoryI6CUDTCCE6createEv.eh
0x0002EFB0	0x00000040	[  2] __ZN4CUDT6sampleEP8CPerfMonb.eh
0x0002EFF0	0x00000040	[  2] __ZN4CUDT11checkTimersEv.eh
0x0002F030	0x00000040	[  2] __ZN4CUDT8recvfileERSt13basic_fstreamIcSt11char_traitsIcEERxRKxRKi.eh
0x0002F070	0x00000040	[  2] __ZN4CUDT11processDataEP5CUnit.eh
0x0002F0B0	0x00000040	[  2] __ZN4CUDT11processCtrlER7CPacket.eh
0x0002F0F0	0x00000040	[  2] __ZN4CUDT8packDataER7CPacketRy.eh
0x0002F130	0x00000040	[  2] __ZN4CUDT8sendfileERSt13basic_fstreamIcSt11char_traitsIcEERxRKxRKi.eh
0x0002F170	0x00000040	[  2] __ZNSt8_Rb_treeIiiSt9_IdentityIiESt4lessIiESaIiEE8_M_eraseEPSt13_Rb_tree_nodeIiE.eh
0x0002F1B0	0x00000040	[  2] __ZN4CUDTD2Ev.eh
0x0002F1F0	0x00000038	[  2] __ZN4CUDTD1Ev.eh
0x0002F228	0x00000040	[  2] __ZN4CUDTC2ERKS_.eh
0x0002F268	0x00000038	[  2] __ZN4CUDTC1ERKS_.eh
0x0002F2A0	0x00000040	[  2] __ZN4CUDTC2Ev.eh
0x0002F2E0	0x00000038	[  2] __ZN4CUDTC1Ev.eh
0x0002F318	0x00000040	[  2] __ZNSt8_Rb_treeIiiSt9_IdentityIiESt4lessIiESaIiEE5eraseERKi.eh
0x0002F358	0x00000038	[  2] __ZN4CUDT11removeEPollEi.eh
0x0002F390	0x00000040	[  2] __ZN4CUDT7connectEPK8sockaddr.eh
0x0002F3D0	0x00000020	[  3] CIE
0x0002F3F0	0x00000038	[  3] __ZN6CTimer16readCPUFrequencyEv.eh
0x0002F428	0x00000038	[  3] __ZN6CTimer15getCPUFrequencyEv.eh
0x0002F460	0x00000038	[  3] __ZN13CUDTExceptionC2ERKS_.eh
0x0002F498	0x00000038	[  3] __ZN13CUDTExceptionC1ERKS_.eh
0x0002F4D0	0x00000038	[  3] __ZNK13CUDTException12getErrorCodeEv.eh
0x0002F508	0x00000038	[  3] __ZN13CUDTException5clearEv.eh
0x0002F540	0x00000038	[  3] __ZN10CIPAddress5ipcmpEPK8sockaddrS2_RKi.eh
0x0002F578	0x00000038	[  3] __ZN10CIPAddress4ntopEPK8sockaddrPjRKi.eh
0x0002F5B0	0x00000038	[  3] __ZN10CIPAddress4ptonEP8sockaddrPKjRKi.eh
0x0002F5E8	0x00000040	[  3] __ZN4CMD57computeEPKcPh.eh
0x0002F628	0x00000038	[  3] __ZN6CGuard11releaseCondER22_opaque_pthread_cond_t.eh
0x0002F660	0x00000038	[  3] __ZN6CGuard10createCondER22_opaque_pthread_cond_t.eh
0x0002F698	0x00000038	[  3] __ZN6CGuard12releaseMutexER23_opaque_pthread_mutex_t.eh
0x0002F6D0	0x00000038	[  3] __ZN6CTimerD1Ev.eh
0x0002F708	0x00000038	[  3] __ZN6CTimerD2Ev.eh
0x0002F740	0x00000038	[  3] __ZN6CGuard11createMutexER23_opaque_pthread_mutex_t.eh
0x0002F778	0x00000038	[  3] __ZN6CTimerC1Ev.eh
0x0002F7B0	0x00000038	[  3] __ZN6CTimerC2Ev.eh
0x0002F7E8	0x00000038	[  3] __ZN6CGuard7leaveCSER23_opaque_pthread_mutex_t.eh
0x0002F820	0x00000038	[  3] __ZN6CGuardD1Ev.eh
0x0002F858	0x00000038	[  3] __ZN6CGuardD2Ev.eh
0x0002F890	0x00000038	[  3] __ZN6CGuard7enterCSER23_opaque_pthread_mutex_t.eh
0x0002F8C8	0x00000038	[  3] __ZN6CGuardC1ER23_opaque_pthread_mutex_t.eh
0x0002F900	0x00000038	[  3] __ZN6CGuardC2ER23_opaque_pthread_mutex_t.eh
0x0002F938	0x00000038	[  3] __ZN6CTimer5sleepEv.eh
0x0002F970	0x00000038	[  3] __ZN6CTimer7getTimeEv.eh
0x0002F9A8	0x00000038	[  3] __ZN6CTimer5rdtscERy.eh
0x0002F9E0	0x00000038	[  3] __ZN6CTimer12waitForEventEv.eh
0x0002FA18	0x00000038	[  3] __ZN6CTimer12triggerEventEv.eh
0x0002FA50	0x00000038	[  3] __ZN6CTimer4tickEv.eh
0x0002FA88	0x00000038	[  3] __Z41__static_initialization_and_destruction_0ii.eh
0x0002FAC0	0x00000038	[  3] __GLOBAL__I__ZN6CTimer17s_ullCPUFrequencyE.eh
0x0002FAF8	0x00000040	[  3] __ZN6CTimer7sleeptoERKy.eh
0x0002FB38	0x00000040	[  3] __ZN6CTimer5sleepERKy.eh
0x0002FB78	0x00000038	[  3] __ZN6CTimer9interruptEv.eh
0x0002FBB0	0x00000040	[  3] __ZN13CUDTExceptionD0Ev.eh
0x0002FBF0	0x00000040	[  3] __ZN13CUDTExceptionD1Ev.eh
0x0002FC30	0x00000040	[  3] __ZN13CUDTExceptionD2Ev.eh
0x0002FC70	0x00000040	[  3] __ZN13CUDTExceptionC2Eiii.eh
0x0002FCB0	0x00000038	[  3] __ZN13CUDTExceptionC1Eiii.eh
0x0002FCE8	0x00000040	[  3] __ZN13CUDTException15getErrorMessageEv.eh
0x0002FD28	0x00000020	[  4] CIE
0x0002FD48	0x00000030	[  4] __ZN7CPacketC2Ev.eh
0x0002FD78	0x00000030	[  4] __ZN7CPacketC1Ev.eh
0x0002FDA8	0x00000030	[  4] __ZN7CPacketD2Ev.eh
0x0002FDD8	0x00000030	[  4] __ZN7CPacketD1Ev.eh
0x0002FE08	0x00000030	[  4] __ZNK7CPacket9getLengthEv.eh
0x0002FE38	0x00000030	[  4] __ZN7CPacket9setLengthERKi.eh
0x0002FE68	0x00000030	[  4] __ZN7CPacket4packERKiPvS2_S1_.eh
0x0002FE98	0x00000030	[  4] __ZN7CPacket15getPacketVectorEv.eh
0x0002FEC8	0x00000030	[  4] __ZNK7CPacket7getFlagEv.eh
0x0002FEF8	0x00000030	[  4] __ZNK7CPacket7getTypeEv.eh
0x0002FF28	0x00000030	[  4] __ZNK7CPacket15getExtendedTypeEv.eh
0x0002FF58	0x00000030	[  4] __ZNK7CPacket11getAckSeqNoEv.eh
0x0002FF88	0x00000030	[  4] __ZNK7CPacket14getMsgBoundaryEv.eh
0x0002FFB8	0x00000030	[  4] __ZNK7CPacket15getMsgOrderFlagEv.eh
0x0002FFE8	0x00000030	[  4] __ZNK7CPacket9getMsgSeqEv.eh
0x00030018	0x00000030	[  4] __ZN10CHandShakeC2Ev.eh
0x00030048	0x00000030	[  4] __ZN10CHandShakeC1Ev.eh
0x00030078	0x00000030	[  4] __ZN10CHandShake9serializeEPcRKi.eh
0x000300A8	0x00000030	[  4] __ZN10CHandShake11deserializeEPKcRKi.eh
0x000300D8	0x00000038	[  4] __ZNK7CPacket5cloneEv.eh
0x00030110	0x00000020	[  5] CIE
0x00030130	0x00000038	[  5] _UDT_GetSocketID.eh
0x00030168	0x00000038	[  5] _UDT_SetSocketID.eh
0x000301A0	0x00000040	[  5] _UDT_InitFieldMonitor.eh
0x000301E0	0x00000038	[  5] _UDT_InitFieldRefAll.eh
0x00030218	0x00000038	[  5] _Java_com_barchart_udt_SocketUDT_getSignatureJNI0.eh
0x00030250	0x00000038	[  5] _Java_com_barchart_udt_SocketUDT_testEmptyCall0.eh
0x00030288	0x00000038	[  5] _Java_com_barchart_udt_SocketUDT_testMakeArray0.eh
0x000302C0	0x00000038	[  5] _UDT_InitMethodRefAll.eh
0x000302F8	0x00000040	[  5] _X_InitMethodRef.eh
0x00030338	0x00000038	[  5] _XXX_ThrowSocketExceptionMessage.eh
0x00030370	0x00000040	[  5] _X_InitClassReference.eh
0x000303B0	0x00000038	[  5] _UDT_InitClassRefAll.eh
0x000303E8	0x00000038	[  5] _Java_com_barchart_udt_SocketUDT_testCrashJVM0.eh
0x00030420	0x00000038	[  5] _Java_com_barchart_udt_SocketUDT_clearError0.eh
0x00030458	0x00000038	[  5] _Java_com_barchart_udt_SocketUDT_getErrorCode0.eh
0x00030490	0x00000038	[  5] __ZN7JNIEnv_14CallLongMethodEP8_jobjectP10_jmethodIDz.eh
0x000304C8	0x00000038	[  5] __ZN7JNIEnv_13CallIntMethodEP8_jobjectP10_jmethodIDz.eh
0x00030500	0x00000038	[  5] __ZN7JNIEnv_17CallBooleanMethodEP8_jobjectP10_jmethodIDz.eh
0x00030538	0x00000038	[  5] __ZN7JNIEnv_16CallObjectMethodEP8_jobjectP10_jmethodIDz.eh
0x00030570	0x00000040	[  5] _Java_com_barchart_udt_SocketUDT_testIterateSet0.eh
0x000305B0	0x00000038	[  5] __ZN7JNIEnv_9NewObjectEP7_jclassP10_jmethodIDz.eh
0x000305E8	0x00000040	[  5] _UDT_NewExceptionUDT.eh
0x00030628	0x00000038	[  5] _UDT_NewLingerUDT.eh
0x00030660	0x00000040	[  5] _X_NewInetAddress.eh
0x000306A0	0x00000038	[  5] _X_NewLong.eh
0x000306D8	0x00000038	[  5] _X_NewInteger.eh
0x00030710	0x00000038	[  5] _X_NewBoolean.eh
0x00030748	0x00000040	[  5] _UDT_CopySetToArray.eh
0x00030788	0x00000040	[  5] _UDT_CopyArrayToSet.eh
0x000307C8	0x00000040	[  5] _X_IsSockaddrEqualsInetSocketAddress.eh
0x00030808	0x00000040	[  5] _X_NewInetSocketAddress.eh
0x00030848	0x00000040	[  5] _X_ConvertInetSocketAddressToSockaddr.eh
0x00030888	0x00000038	[  5] _X_InitSockAddr.eh
0x000308C0	0x00000040	[  5] _X_ConvertSockaddrToInetSocketAddress.eh
0x00030900	0x00000040	[  5] _Java_com_barchart_udt_SocketUDT_testFillArray0.eh
0x00030940	0x00000040	[  5] _Java_com_barchart_udt_SocketUDT_testGetSetArray0.eh
0x00030980	0x00000038	[  5] _Java_com_barchart_udt_SocketUDT_getErrorMessage0.eh
0x000309B8	0x00000040	[  5] _Java_com_barchart_udt_SocketUDT_testIterateArray0.eh
0x000309F8	0x00000040	[  5] _Java_com_barchart_udt_SocketUDT_testFillBuffer0.eh
0x00030A38	0x00000040	[  5] _Java_com_barchart_udt_SocketUDT_testDirectIntBufferAccess0.eh
0x00030A78	0x00000040	[  5] _Java_com_barchart_udt_SocketUDT_testDirectByteBufferAccess0.eh
0x00030AB8	0x00000040	[  5] __ZNSt6vectorIiSaIiEE13_M_insert_auxEN9__gnu_cxx17__normal_iteratorIPiS1_EERKi.eh
0x00030AF8	0x00000040	[  5] _Java_com_barchart_udt_SocketUDT_hasLoadedLocalSocketAddress.eh
0x00030B38	0x00000040	[  5] _Java_com_barchart_udt_SocketUDT_hasLoadedRemoteSocketAddress.eh
0x00030B78	0x00000038	[  5] _Java_com_barchart_udt_SocketUDT_testSocketStatus0.eh
0x00030BB0	0x00000038	[  5] _UDT_IsSocketOpen.eh
0x00030BE8	0x00000038	[  5] _Java_com_barchart_udt_SocketUDT_isOpen0.eh
0x00030C20	0x00000040	[  5] _UDT_ThrowExceptionUDT_ErrorInfo.eh
0x00030C60	0x00000040	[  5] _Java_com_barchart_udt_SocketUDT_testInvalidClose0.eh
0x00030CA0	0x00000040	[  5] _Java_com_barchart_udt_SocketUDT_select1.eh
0x00030CE0	0x00000040	[  5] _Java_com_barchart_udt_SocketUDT_updateMonitor0.eh
0x00030D20	0x00000040	[  5] _UDT_ReturnSendError.eh
0x00030D60	0x00000040	[  5] _UDT_ReturnReceiveError.eh
0x00030DA0	0x00000040	[  5] _Java_com_barchart_udt_SocketUDT_listen0.eh
0x00030DE0	0x00000040	[  5] _Java_com_barchart_udt_SocketUDT_accept0.eh
0x00030E20	0x00000040	[  5] _Java_com_barchart_udt_SocketUDT_initInstance1.eh
0x00030E60	0x00000040	[  5] _Java_com_barchart_udt_SocketUDT_initInstance0.eh
0x00030EA0	0x00000040	[  5] _Java_com_barchart_udt_SocketUDT_stopClass0.eh
0x00030EE0	0x00000040	[  5] _Java_com_barchart_udt_SocketUDT_initClass0.eh
0x00030F20	0x00000040	[  5] _UDT_ThrowExceptionUDT_Message.eh
0x00030F60	0x00000040	[  5] _Java_com_barchart_udt_SocketUDT_select0.eh
0x00030FA0	0x00000040	[  5] _Java_com_barchart_udt_SocketUDT_send0.eh
0x00030FE0	0x00000040	[  5] _Java_com_barchart_udt_SocketUDT_receive0.eh
0x00031020	0x00000038	[  5] _X_IsValidRange.eh
0x00031058	0x00000040	[  5] _Java_com_barchart_udt_SocketUDT_setOption0.eh
0x00031098	0x00000040	[  5] _Java_com_barchart_udt_SocketUDT_getOption0.eh
0x000310D8	0x00000040	[  5] _Java_com_barchart_udt_SocketUDT_connect0.eh
0x00031118	0x00000040	[  5] _Java_com_barchart_udt_SocketUDT_close0.eh
0x00031158	0x00000040	[  5] _Java_com_barchart_udt_SocketUDT_bind0.eh
0x00031198	0x00000040	[  5] _Java_com_barchart_udt_SocketUDT_send2.eh
0x000311D8	0x00000040	[  5] _Java_com_barchart_udt_SocketUDT_send1.eh
0x00031218	0x00000040	[  5] _Java_com_barchart_udt_SocketUDT_receive2.eh
0x00031258	0x00000040	[  5] _Java_com_barchart_udt_SocketUDT_receive1.eh
0x00031298	0x00000040	[  5] _Java_com_barchart_udt_SocketUDT_selectEx1.eh
0x000312D8	0x00000040	[  5] _Java_com_barchart_udt_SocketUDT_selectEx0.eh
0x00031318	0x00000020	[  6] CIE
0x00031338	0x00000038	[  6] __ZN10CUDTUnited10TLSDestroyEPv.eh
0x00031370	0x00000040	[  6] __ZNSt8_Rb_treeIiSt4pairIKi12CMultiplexerESt10_Select1stIS3_ESt4lessIiESaIS3_EE9_M_insertEPSt18_Rb_tree_node_baseSB_RKS3_.eh
0x000313B0	0x00000040	[  6] __ZNSt8_Rb_treeIiSt4pairIKiP10CUDTSocketESt10_Select1stIS4_ESt4lessIiESaIS4_EE9_M_insertEPSt18_Rb_tree_node_baseSC_RKS4_.eh
0x000313F0	0x00000040	[  6] __ZNSt8_Rb_treeIiSt4pairIKiP10CUDTSocketESt10_Select1stIS4_ESt4lessIiESaIS4_EE16_M_insert_uniqueERKS4_.eh
0x00031430	0x00000040	[  6] __ZN10CUDTUnited9updateMuxEP10CUDTSocketPKS0_.eh
0x00031470	0x00000040	[  6] __ZN10CUDTUnited8getErrorEv.eh
0x000314B0	0x00000038	[  6] __ZN4CUDT12getlasterrorEv.eh
0x000314E8	0x00000040	[  6] __ZN10CUDTUnited8setErrorEP13CUDTException.eh
0x00031528	0x00000038	[  6] __ZN10CUDTUnited13epoll_releaseEi.eh
0x00031560	0x00000038	[  6] __ZN10CUDTUnited10epoll_waitEiPSt3setIiSt4lessIiESaIiEES5_xS5_S5_.eh
0x00031598	0x00000038	[  6] __ZN10CUDTUnited18epoll_remove_ssockEiiPKi.eh
0x000315D0	0x00000040	[  6] __ZN10CUDTUnited6lookupEi.eh
0x00031610	0x00000038	[  6] __ZN4CUDT12getUDTHandleEi.eh
0x00031648	0x00000038	[  6] __ZN10CUDTUnited15epoll_add_ssockEiiPKi.eh
0x00031680	0x00000038	[  6] __ZN10CUDTUnited12epoll_createEv.eh
0x000316B8	0x00000040	[  6] __ZN10CUDTUnited7cleanupEv.eh
0x000316F8	0x00000038	[  6] __ZN4CUDT7cleanupEv.eh
0x00031730	0x00000038	[  6] __ZN10CUDTSocketC1Ev.eh
0x00031768	0x00000038	[  6] __ZN10CUDTSocketC2Ev.eh
0x000317A0	0x00000040	[  6] __ZN10CUDTUnited7startupEv.eh
0x000317E0	0x00000038	[  6] __ZN4CUDT7startupEv.eh
0x00031818	0x00000040	[  6] __ZNSt8_Rb_treeIiSt4pairIKi12CMultiplexerESt10_Select1stIS3_ESt4lessIiESaIS3_EE16_M_insert_uniqueERKS3_.eh
0x00031858	0x00000040	[  6] __ZNSt6vectorIP10CUDTSocketSaIS1_EE13_M_insert_auxEN9__gnu_cxx17__normal_iteratorIPS1_S3_EERKS1_.eh
0x00031898	0x00000040	[  6] __ZNSt8_Rb_treeIiSt4pairIKi12CMultiplexerESt10_Select1stIS3_ESt4lessIiESaIS3_EE16_M_insert_uniqueESt17_Rb_tree_iteratorIS3_ERKS3_.eh
0x000318D8	0x00000040	[  6] __ZN10CUDTUnited9updateMuxEP10CUDTSocketPK8sockaddrPKi.eh
0x00031918	0x00000040	[  6] __ZNSt8_Rb_treeIiSt4pairIKiP10CUDTSocketESt10_Select1stIS4_ESt4lessIiESaIS4_EE16_M_insert_uniqueESt17_Rb_tree_iteratorIS4_ERKS4_.eh
0x00031958	0x00000038	[  6] __ZN3UDT7startupEv.eh
0x00031990	0x00000038	[  6] __ZN3UDT7cleanupEv.eh
0x000319C8	0x00000038	[  6] __ZN3UDT12getlasterrorEv.eh
0x00031A00	0x00000040	[  6] __ZNSt8_Rb_treeIiSt4pairIKi12CMultiplexerESt10_Select1stIS3_ESt4lessIiESaIS3_EE8_M_eraseEPSt13_Rb_tree_nodeIS3_E.eh
0x00031A40	0x00000040	[  6] __ZN10CUDTUnited6locateEiPK8sockaddrRKiS4_.eh
0x00031A80	0x00000040	[  6] __ZN10CUDTUnited6locateEi.eh
0x00031AC0	0x00000040	[  6] __ZN10CUDTUnited18epoll_remove_usockEiiPKi.eh
0x00031B00	0x00000040	[  6] __ZN10CUDTUnited15epoll_add_usockEiiPKi.eh
0x00031B40	0x00000040	[  6] __ZN10CUDTUnited11getsocknameEiP8sockaddrPi.eh
0x00031B80	0x00000040	[  6] __ZN10CUDTUnited7connectEiPK8sockaddrRKi.eh
0x00031BC0	0x00000040	[  6] __ZN10CUDTUnited4bindEii.eh
0x00031C00	0x00000040	[  6] __ZN10CUDTUnited4bindEiPK8sockaddrRKi.eh
0x00031C40	0x00000040	[  6] __ZN10CUDTUnited9getStatusEi.eh
0x00031C80	0x00000040	[  6] __ZN10CUDTUnited11getpeernameEiP8sockaddrPi.eh
0x00031CC0	0x00000040	[  6] __ZNSt8_Rb_treeIiSt4pairIKiP10CUDTSocketESt10_Select1stIS4_ESt4lessIiESaIS4_EE8_M_eraseEPSt13_Rb_tree_nodeIS4_E.eh
0x00031D00	0x00000040	[  6] __ZNSt8_Rb_treeIiSt4pairIKiP10CUDTSocketESt10_Select1stIS4_ESt4lessIiESaIS4_EE5eraseERS1_.eh
0x00031D40	0x00000040	[  6] __ZN10CUDTUnited5closeEi.eh
0x00031D80	0x00000040	[  6] __ZN10CUDTUnited8selectExERKSt6vectorIiSaIiEEPS2_S5_S5_x.eh
0x00031DC0	0x00000040	[  6] __ZN10CUDTUnited6listenEiRKi.eh
0x00031E00	0x00000040	[  6] __ZN10CUDTSocketD2Ev.eh
0x00031E40	0x00000038	[  6] __ZN10CUDTSocketD1Ev.eh
0x00031E78	0x00000040	[  6] __ZNSt8_Rb_treeIxSt4pairIKxSt3setIiSt4lessIiESaIiEEESt10_Select1stIS7_ES3_IxESaIS7_EE8_M_eraseEPSt13_Rb_tree_nodeIS7_E.eh
0x00031EB8	0x00000040	[  6] __ZN10CUDTUnitedD2Ev.eh
0x00031EF8	0x00000038	[  6] __ZN10CUDTUnitedD1Ev.eh
0x00031F30	0x00000040	[  6] __ZN10CUDTUnitedC2Ev.eh
0x00031F70	0x00000038	[  6] __ZN10CUDTUnitedC1Ev.eh
0x00031FA8	0x00000040	[  6] __ZN10CUDTUnited9newSocketERKiS1_.eh
0x00031FE8	0x00000040	[  6] __ZNSt8_Rb_treeIiiSt9_IdentityIiESt4lessIiESaIiEE7_M_copyEPKSt13_Rb_tree_nodeIiEPS7_.eh
0x00032028	0x00000040	[  6] __ZNSt8_Rb_treeIxSt4pairIKxSt3setIiSt4lessIiESaIiEEESt10_Select1stIS7_ES3_IxESaIS7_EE9_M_insertEPSt18_Rb_tree_node_baseSE_RKS7_.eh
0x00032068	0x00000040	[  6] __ZNSt8_Rb_treeIxSt4pairIKxSt3setIiSt4lessIiESaIiEEESt10_Select1stIS7_ES3_IxESaIS7_EE16_M_insert_uniqueERKS7_.eh
0x000320A8	0x00000040	[  6] __ZNSt8_Rb_treeIxSt4pairIKxSt3setIiSt4lessIiESaIiEEESt10_Select1stIS7_ES3_IxESaIS7_EE16_M_insert_uniqueESt17_Rb_tree_iteratorIS7_ERKS7_.eh
0x000320E8	0x00000040	[  6] __ZN10CUDTUnited12removeSocketEi.eh
0x00032128	0x00000040	[  6] __ZN10CUDTUnited18checkBrokenSocketsEv.eh
0x00032168	0x00000040	[  6] __ZN10CUDTUnited14garbageCollectEPv.eh
0x000321A8	0x00000040	[  6] __ZN10CUDTUnited6selectEPSt3setIiSt4lessIiESaIiEES5_S5_PK7timeval.eh
0x000321E8	0x00000040	[  6] __ZN10CUDTUnited13newConnectionEiPK8sockaddrP10CHandShake.eh
0x00032228	0x00000040	[  6] __ZNSt8_Rb_treeIiiSt9_IdentityIiESt4lessIiESaIiEE16_M_insert_uniqueESt23_Rb_tree_const_iteratorIiERKi.eh
0x00032268	0x00000040	[  6] __ZN10CUDTUnited6acceptEiP8sockaddrPi.eh
0x000322A8	0x00000040	[  6] __ZN4CUDT6listenEii.eh
0x000322E8	0x00000038	[  6] __ZN3UDT6listenEii.eh
0x00032320	0x00000040	[  6] __ZN4CUDT4bindEii.eh
0x00032360	0x00000038	[  6] __ZN3UDT4bindEii.eh
0x00032398	0x00000040	[  6] __ZN4CUDT7perfmonEiP8CPerfMonb.eh
0x000323D8	0x00000038	[  6] __ZN3UDT7perfmonEiP8CPerfMonb.eh
0x00032410	0x00000040	[  6] __ZN4CUDT13epoll_releaseEi.eh
0x00032450	0x00000038	[  6] __ZN3UDT13epoll_releaseEi.eh
0x00032488	0x00000040	[  6] __ZN4CUDT4bindEiPK8sockaddri.eh
0x000324C8	0x00000038	[  6] __ZN3UDT4bindEiPK8sockaddri.eh
0x00032500	0x00000040	[  6] __ZN4CUDT6socketEiii.eh
0x00032540	0x00000038	[  6] __ZN3UDT6socketEiii.eh
0x00032578	0x00000040	[  6] __ZN4CUDT10epoll_waitEiPSt3setIiSt4lessIiESaIiEES5_xS5_S5_.eh
0x000325B8	0x00000038	[  6] __ZN3UDT10epoll_waitEiPSt3setIiSt4lessIiESaIiEES5_xS5_S5_.eh
0x000325F0	0x00000040	[  6] __ZN4CUDT18epoll_remove_ssockEiiPKi.eh
0x00032630	0x00000040	[  6] __ZN4CUDT18epoll_remove_usockEiiPKi.eh
0x00032670	0x00000038	[  6] __ZN3UDT18epoll_remove_ssockEiiPKi.eh
0x000326A8	0x00000038	[  6] __ZN3UDT18epoll_remove_usockEiiPKi.eh
0x000326E0	0x00000040	[  6] __ZN4CUDT15epoll_add_ssockEiiPKi.eh
0x00032720	0x00000038	[  6] __ZN3UDT15epoll_add_ssockEiiPKi.eh
0x00032758	0x00000040	[  6] __ZN4CUDT15epoll_add_usockEiiPKi.eh
0x00032798	0x00000038	[  6] __ZN3UDT15epoll_add_usockEiiPKi.eh
0x000327D0	0x00000040	[  6] __ZN4CUDT12epoll_createEv.eh
0x00032810	0x00000038	[  6] __ZN3UDT12epoll_createEv.eh
0x00032848	0x00000040	[  6] __ZN4CUDT8selectExERKSt6vectorIiSaIiEEPS2_S5_S5_x.eh
0x00032888	0x00000038	[  6] __ZN3UDT8selectExERKSt6vectorIiSaIiEEPS2_S5_S5_x.eh
0x000328C0	0x00000040	[  6] __ZN4CUDT6selectEiPSt3setIiSt4lessIiESaIiEES5_S5_PK7timeval.eh
0x00032900	0x00000038	[  6] __ZN3UDT6selectEiPSt3setIiSt4lessIiESaIiEES5_S5_PK7timeval.eh
0x00032938	0x00000040	[  6] __ZN4CUDT8recvfileEiRSt13basic_fstreamIcSt11char_traitsIcEERxRKxRKi.eh
0x00032978	0x00000038	[  6] __ZN3UDT8recvfileEiRSt13basic_fstreamIcSt11char_traitsIcEERxxi.eh
0x000329B0	0x00000040	[  6] __ZN4CUDT8sendfileEiRSt13basic_fstreamIcSt11char_traitsIcEERxRKxRKi.eh
0x000329F0	0x00000038	[  6] __ZN3UDT8sendfileEiRSt13basic_fstreamIcSt11char_traitsIcEERxxi.eh
0x00032A28	0x00000040	[  6] __ZN4CUDT7recvmsgEiPci.eh
0x00032A68	0x00000038	[  6] __ZN3UDT7recvmsgEiPci.eh
0x00032AA0	0x00000040	[  6] __ZN4CUDT7sendmsgEiPKciib.eh
0x00032AE0	0x00000038	[  6] __ZN3UDT7sendmsgEiPKciib.eh
0x00032B18	0x00000040	[  6] __ZN4CUDT4recvEiPcii.eh
0x00032B58	0x00000038	[  6] __ZN3UDT4recvEiPcii.eh
0x00032B90	0x00000040	[  6] __ZN4CUDT4sendEiPKcii.eh
0x00032BD0	0x00000038	[  6] __ZN3UDT4sendEiPKcii.eh
0x00032C08	0x00000040	[  6] __ZN4CUDT10setsockoptEii6UDTOptPKvi.eh
0x00032C48	0x00000038	[  6] __ZN3UDT10setsockoptEii6UDTOptPKvi.eh
0x00032C80	0x00000040	[  6] __ZN4CUDT10getsockoptEii6UDTOptPvPi.eh
0x00032CC0	0x00000038	[  6] __ZN3UDT10getsockoptEii6UDTOptPvPi.eh
0x00032CF8	0x00000040	[  6] __ZN4CUDT11getsocknameEiP8sockaddrPi.eh
0x00032D38	0x00000038	[  6] __ZN3UDT11getsocknameEiP8sockaddrPi.eh
0x00032D70	0x00000040	[  6] __ZN4CUDT11getpeernameEiP8sockaddrPi.eh
0x00032DB0	0x00000038	[  6] __ZN3UDT11getpeernameEiP8sockaddrPi.eh
0x00032DE8	0x00000040	[  6] __ZN4CUDT5closeEi.eh
0x00032E28	0x00000038	[  6] __ZN3UDT5closeEi.eh
0x00032E60	0x00000040	[  6] __ZN4CUDT7connectEiPK8sockaddri.eh
0x00032EA0	0x00000038	[  6] __ZN3UDT7connectEiPK8sockaddri.eh
0x00032ED8	0x00000040	[  6] __ZN4CUDT6acceptEiP8sockaddrPi.eh
0x00032F18	0x00000038	[  6] __ZN3UDT6acceptEiP8sockaddrPi.eh
0x00032F50	0x00000020	[  7] CIE
0x00032F70	0x00000030	[  7] __ZN3CCC4initEv.eh
0x00032FA0	0x00000030	[  7] __ZN3CCC5closeEv.eh
0x00032FD0	0x00000030	[  7] __ZN3CCC5onACKERKi.eh
0x00033000	0x00000030	[  7] __ZN3CCC6onLossEPKiRS0_.eh
0x00033030	0x00000030	[  7] __ZN3CCC9onTimeoutEv.eh
0x00033060	0x00000030	[  7] __ZN3CCC9onPktSentEPK7CPacket.eh
0x00033090	0x00000030	[  7] __ZN3CCC13onPktReceivedEPK7CPacket.eh
0x000330C0	0x00000030	[  7] __ZN3CCC16processCustomMsgEPK7CPacket.eh
0x000330F0	0x00000030	[  7] __ZN3CCCC2Ev.eh
0x00033120	0x00000030	[  7] __ZN3CCCC1Ev.eh
0x00033150	0x00000030	[  7] __ZN3CCC11setACKTimerERKi.eh
0x00033180	0x00000030	[  7] __ZN3CCC14setACKIntervalERKi.eh
0x000331B0	0x00000030	[  7] __ZN3CCC6setRTOERKi.eh
0x000331E0	0x00000030	[  7] __ZN3CCC6setMSSERKi.eh
0x00033210	0x00000030	[  7] __ZN3CCC12setBandwidthERKi.eh
0x00033240	0x00000030	[  7] __ZN3CCC15setSndCurrSeqNoERKi.eh
0x00033270	0x00000030	[  7] __ZN3CCC10setRcvRateERKi.eh
0x000332A0	0x00000030	[  7] __ZN3CCC14setMaxCWndSizeERKi.eh
0x000332D0	0x00000030	[  7] __ZN3CCC6setRTTERKi.eh
0x00033300	0x00000030	[  7] __ZN6CUDTCC9onTimeoutEv.eh
0x00033330	0x00000030	[  7] __ZN6CUDTCC6onLossEPKiRS0_.eh
0x00033360	0x00000038	[  7] __ZN6CUDTCC5onACKERKi.eh
0x00033398	0x00000030	[  7] __ZN3CCCD0Ev.eh
0x000333C8	0x00000030	[  7] __ZN3CCCD1Ev.eh
0x000333F8	0x00000030	[  7] __ZN3CCCD2Ev.eh
0x00033428	0x00000038	[  7] __ZN3CCC12setUserParamEPKcRKi.eh
0x00033460	0x00000038	[  7] __ZN3CCC11getPerfInfoEv.eh
0x00033498	0x00000030	[  7] __ZNK3CCC13sendCustomMsgER7CPacket.eh
0x000334C8	0x00000030	[  7] __ZN6CUDTCC4initEv.eh
0x000334F8	0x00000038	[  7] __ZN6CUDTCCC1Ev.eh
0x00033530	0x00000038	[  7] __ZN6CUDTCCC2Ev.eh
0x00033568	0x00000030	[  7] __ZN6CUDTCCD0Ev.eh
0x00033598	0x00000030	[  7] __ZN6CUDTCCD1Ev.eh
0x000335C8	0x00000020	[  8] CIE
0x000335E8	0x00000038	[  8] __ZN10CSndBuffer8readDataEPPcRi.eh
0x00033620	0x00000038	[  8] __ZNK10CSndBuffer14getCurrBufSizeEv.eh
0x00033658	0x00000038	[  8] __ZN10CRcvBuffer7addDataEP5CUniti.eh
0x00033690	0x00000038	[  8] __ZNK10CRcvBuffer14getRcvDataSizeEv.eh
0x000336C8	0x00000038	[  8] __ZN10CRcvBuffer7dropMsgERKi.eh
0x00033700	0x00000040	[  8] __ZN10CRcvBuffer7scanMsgERiS0_Rb.eh
0x00033740	0x00000038	[  8] __ZN10CRcvBuffer12getRcvMsgNumEv.eh
0x00033778	0x00000040	[  8] __ZN10CRcvBuffer7readMsgEPcRKi.eh
0x000337B8	0x00000040	[  8] __ZN10CRcvBuffer10readBufferEPcRKi.eh
0x000337F8	0x00000038	[  8] __ZN10CRcvBuffer7ackDataERKi.eh
0x00033830	0x00000038	[  8] __ZN10CRcvBufferD1Ev.eh
0x00033868	0x00000038	[  8] __ZN10CRcvBufferD2Ev.eh
0x000338A0	0x00000038	[  8] __ZN10CRcvBufferC1ERKiP10CUnitQueue.eh
0x000338D8	0x00000038	[  8] __ZN10CRcvBufferC2ERKiP10CUnitQueue.eh
0x00033910	0x00000038	[  8] __ZN10CRcvBufferC1EP10CUnitQueue.eh
0x00033948	0x00000038	[  8] __ZN10CRcvBufferC2EP10CUnitQueue.eh
0x00033980	0x00000040	[  8] __ZN10CSndBuffer8increaseEv.eh
0x000339C0	0x00000040	[  8] __ZN10CSndBuffer7ackDataERKi.eh
0x00033A00	0x00000040	[  8] __ZN10CSndBuffer8readDataEPPciRiS2_.eh
0x00033A40	0x00000040	[  8] __ZN10CSndBuffer17addBufferFromFileERSt13basic_fstreamIcSt11char_traitsIcEERKi.eh
0x00033A80	0x00000040	[  8] __ZN10CSndBuffer9addBufferEPKcRKiS3_RKb.eh
0x00033AC0	0x00000040	[  8] __ZN10CSndBufferD2Ev.eh
0x00033B00	0x00000038	[  8] __ZN10CSndBufferD1Ev.eh
0x00033B38	0x00000040	[  8] __ZN10CSndBufferC2ERKiS1_.eh
0x00033B78	0x00000038	[  8] __ZN10CSndBufferC1ERKiS1_.eh
0x00033BB0	0x00000040	[  8] __ZN10CRcvBuffer16readBufferToFileERSt13basic_fstreamIcSt11char_traitsIcEERKi.eh
0x00033BF0	0x00000038	[  8] __ZNK10CRcvBuffer15getAvailBufSizeEv.eh
0x00033C28	0x00000020	[  9] CIE
0x00033C48	0x00000040	[  9] __ZN6CEPoll12remove_ssockEiRKiPS0_.eh
0x00033C88	0x00000040	[  9] __ZN6CEPoll12remove_usockEiRKiPS0_.eh
0x00033CC8	0x00000040	[  9] __ZN6CEPoll9add_ssockEiRKiPS0_.eh
0x00033D08	0x00000040	[  9] __ZN6CEPoll9add_usockEiRKiPS0_.eh
0x00033D48	0x00000040	[  9] __ZN6CEPoll4waitEiPSt3setIiSt4lessIiESaIiEES5_xS5_S5_.eh
0x00033D88	0x00000040	[  9] __ZNSt8_Rb_treeIiSt4pairIKi10CEPollDescESt10_Select1stIS3_ESt4lessIiESaIS3_EE9_M_insertEPSt18_Rb_tree_node_baseSB_RKS3_.eh
0x00033DC8	0x00000040	[  9] __ZNSt8_Rb_treeIiSt4pairIKi10CEPollDescESt10_Select1stIS3_ESt4lessIiESaIS3_EE16_M_insert_uniqueERKS3_.eh
0x00033E08	0x00000040	[  9] __ZNSt8_Rb_treeIiSt4pairIKi10CEPollDescESt10_Select1stIS3_ESt4lessIiESaIS3_EE16_M_insert_uniqueESt17_Rb_tree_iteratorIS3_ERKS3_.eh
0x00033E48	0x00000040	[  9] __ZN6CEPoll11enable_readERKiRSt3setIiSt4lessIiESaIiEE.eh
0x00033E88	0x00000040	[  9] __ZN6CEPoll12enable_writeERKiRSt3setIiSt4lessIiESaIiEE.eh
0x00033EC8	0x00000040	[  9] __ZN6CEPoll12disable_readERKiRSt3setIiSt4lessIiESaIiEE.eh
0x00033F08	0x00000040	[  9] __ZN6CEPoll13disable_writeERKiRSt3setIiSt4lessIiESaIiEE.eh
0x00033F48	0x00000040	[  9] __ZNSt8_Rb_treeIiSt4pairIKi10CEPollDescESt10_Select1stIS3_ESt4lessIiESaIS3_EE8_M_eraseEPSt13_Rb_tree_nodeIS3_E.eh
0x00033F88	0x00000040	[  9] __ZN6CEPollC2Ev.eh
0x00033FC8	0x00000040	[  9] __ZN6CEPollC1Ev.eh
0x00034008	0x00000040	[  9] __ZN6CEPollD1Ev.eh
0x00034048	0x00000040	[  9] __ZN6CEPollD2Ev.eh
0x00034088	0x00000040	[  9] __ZN6CEPoll6createEv.eh
0x000340C8	0x00000040	[  9] __ZN6CEPoll7releaseEi.eh
0x00034108	0x00000020	[ 10] CIE
0x00034128	0x00000030	[ 10] __ZNK14CPktTimeWindow15getMinPktSndIntEv.eh
0x00034158	0x00000030	[ 10] __ZN14CPktTimeWindow9onPktSentERKi.eh
0x00034188	0x00000030	[ 10] __ZN14CPktTimeWindow13probe2ArrivalEv.eh
0x000341B8	0x00000030	[ 10] __ZN14CPktTimeWindow13probe1ArrivalEv.eh
0x000341E8	0x00000030	[ 10] __ZN14CPktTimeWindow12onPktArrivalEv.eh
0x00034218	0x00000038	[ 10] __ZN10CACKWindow11acknowledgeERKiRi.eh
0x00034250	0x00000038	[ 10] __ZN10CACKWindow5storeERKiS1_.eh
0x00034288	0x00000030	[ 10] __ZNK14CPktTimeWindow12getBandwidthEv.eh
0x000342B8	0x00000038	[ 10] __ZNK14CPktTimeWindow14getPktRcvSpeedEv.eh
0x000342F0	0x00000030	[ 10] __ZN14CPktTimeWindowD1Ev.eh
0x00034320	0x00000030	[ 10] __ZN14CPktTimeWindowD2Ev.eh
0x00034350	0x00000030	[ 10] __ZN10CACKWindowD1Ev.eh
0x00034380	0x00000030	[ 10] __ZN10CACKWindowD2Ev.eh
0x000343B0	0x00000030	[ 10] __ZN14CPktTimeWindowC1ERKiS1_.eh
0x000343E0	0x00000030	[ 10] __ZN14CPktTimeWindowC2ERKiS1_.eh
0x00034410	0x00000030	[ 10] __ZN14CPktTimeWindowC1Ev.eh
0x00034440	0x00000030	[ 10] __ZN14CPktTimeWindowC2Ev.eh
0x00034470	0x00000030	[ 10] __ZN10CACKWindowC1ERKi.eh
0x000344A0	0x00000030	[ 10] __ZN10CACKWindowC2ERKi.eh
0x000344D0	0x00000030	[ 10] __ZN10CACKWindowC1Ev.eh
0x00034500	0x00000030	[ 10] __ZN10CACKWindowC2Ev.eh
0x00034530	0x00000020	[ 11] CIE
0x00034550	0x00000030	[ 11] _md5_init.eh
0x00034580	0x00000038	[ 11] __ZL11md5_processP11md5_state_sPKh.eh
0x000345B8	0x00000038	[ 11] _md5_append.eh
0x000345F0	0x00000038	[ 11] _md5_finish.eh
0x00034628	0x00000020	[ 12] CIE
0x00034648	0x00000030	[ 12] __ZNK12CRcvLossList13getLossLengthEv.eh
0x00034678	0x00000030	[ 12] __ZNK12CRcvLossList15getFirstLostSeqEv.eh
0x000346A8	0x00000038	[ 12] __ZN12CRcvLossList12getLossArrayEPiRiRKiS3_.eh
0x000346E0	0x00000038	[ 12] __ZN12CRcvLossList6removeERKi.eh
0x00034718	0x00000038	[ 12] __ZN12CRcvLossList6removeERKiS1_.eh
0x00034750	0x00000030	[ 12] __ZN12CRcvLossListD1Ev.eh
0x00034780	0x00000030	[ 12] __ZN12CRcvLossListD2Ev.eh
0x000347B0	0x00000038	[ 12] __ZN12CRcvLossListC2ERKi.eh
0x000347E8	0x00000030	[ 12] __ZN12CRcvLossListC1ERKi.eh
0x00034818	0x00000038	[ 12] __ZN12CSndLossList13getLossLengthEv.eh
0x00034850	0x00000030	[ 12] __ZN12CSndLossListD1Ev.eh
0x00034880	0x00000030	[ 12] __ZN12CSndLossListD2Ev.eh
0x000348B0	0x00000038	[ 12] __ZN12CSndLossListC2ERKi.eh
0x000348E8	0x00000030	[ 12] __ZN12CSndLossListC1ERKi.eh
0x00034918	0x00000038	[ 12] __ZNK12CRcvLossList4findERKiS1_.eh
0x00034950	0x00000038	[ 12] __ZN12CSndLossList6removeERKi.eh
0x00034988	0x00000038	[ 12] __ZN12CSndLossList10getLostSeqEv.eh
0x000349C0	0x00000038	[ 12] __ZN12CSndLossList6insertERKiS1_.eh
0x000349F8	0x00000038	[ 12] __ZN12CRcvLossList6insertERKiS1_.eh
0x00034A30	0x00000020	[ 13] CIE
0x00034A50	0x00000038	[ 13] __ZNK7CIPCompclEPK10CInfoBlockS2_.eh
0x00034A88	0x00000038	[ 13] __ZNK7CTSCompclEPK10CInfoBlockS2_.eh
0x00034AC0	0x00000038	[ 13] __ZN6CCache7convertEPK8sockaddrRKiPj.eh
0x00034AF8	0x00000040	[ 13] __ZNSt8_Rb_treeIP10CInfoBlockS1_St9_IdentityIS1_E7CIPCompSaIS1_EE9_M_insertEPSt18_Rb_tree_node_baseS8_RKS1_.eh
0x00034B38	0x00000040	[ 13] __ZNSt8_Rb_treeIP10CInfoBlockS1_St9_IdentityIS1_E7CIPCompSaIS1_EE16_M_insert_uniqueERKS1_.eh
0x00034B78	0x00000040	[ 13] __ZNSt8_Rb_treeIP10CInfoBlockS1_St9_IdentityIS1_E7CTSCompSaIS1_EE9_M_insertEPSt18_Rb_tree_node_baseS8_RKS1_.eh
0x00034BB8	0x00000040	[ 13] __ZNSt8_Rb_treeIP10CInfoBlockS1_St9_IdentityIS1_E7CTSCompSaIS1_EE16_M_insert_uniqueERKS1_.eh
0x00034BF8	0x00000040	[ 13] __ZN6CCache6lookupEPK8sockaddrRKiP10CInfoBlock.eh
0x00034C38	0x00000040	[ 13] __ZNSt8_Rb_treeIP10CInfoBlockS1_St9_IdentityIS1_E7CIPCompSaIS1_EE8_M_eraseEPSt13_Rb_tree_nodeIS1_E.eh
0x00034C78	0x00000040	[ 13] __ZNSt8_Rb_treeIP10CInfoBlockS1_St9_IdentityIS1_E7CIPCompSaIS1_EE5eraseERKS1_.eh
0x00034CB8	0x00000040	[ 13] __ZNSt8_Rb_treeIP10CInfoBlockS1_St9_IdentityIS1_E7CTSCompSaIS1_EE8_M_eraseEPSt13_Rb_tree_nodeIS1_E.eh
0x00034CF8	0x00000040	[ 13] __ZN6CCacheC2Ev.eh
0x00034D38	0x00000038	[ 13] __ZN6CCacheC1Ev.eh
0x00034D70	0x00000040	[ 13] __ZN6CCacheC2ERKj.eh
0x00034DB0	0x00000038	[ 13] __ZN6CCacheC1ERKj.eh
0x00034DE8	0x00000040	[ 13] __ZN6CCacheD2Ev.eh
0x00034E28	0x00000038	[ 13] __ZN6CCacheD1Ev.eh
0x00034E60	0x00000040	[ 13] __ZNSt8_Rb_treeIP10CInfoBlockS1_St9_IdentityIS1_E7CTSCompSaIS1_EE5eraseERKS1_.eh
0x00034EA0	0x00000040	[ 13] __ZN6CCache6updateEPK8sockaddrRKiP10CInfoBlock.eh
0x00034EE0	0x00000020	[ 14] CIE
0x00034F00	0x00000038	[ 14] __ZN10CUnitQueueC2Ev.eh
0x00034F38	0x00000038	[ 14] __ZN10CUnitQueueC1Ev.eh
0x00034F70	0x00000038	[ 14] __ZN10CUnitQueue6shrinkEv.eh
0x00034FA8	0x00000040	[ 14] __ZN9CSndUList7remove_EPK4CUDT.eh
0x00034FE8	0x00000038	[ 14] __ZN9CRcvUListC2Ev.eh
0x00035020	0x00000038	[ 14] __ZN9CRcvUListC1Ev.eh
0x00035058	0x00000038	[ 14] __ZN9CRcvUListD2Ev.eh
0x00035090	0x00000038	[ 14] __ZN9CRcvUListD1Ev.eh
0x000350C8	0x00000038	[ 14] __ZN9CRcvUList6removeEPK4CUDT.eh
0x00035100	0x00000038	[ 14] __ZN5CHashC2Ev.eh
0x00035138	0x00000038	[ 14] __ZN5CHashC1Ev.eh
0x00035170	0x00000038	[ 14] __ZN5CHash6lookupERKi.eh
0x000351A8	0x00000038	[ 14] __ZN9CRcvQueue10ifNewEntryEv.eh
0x000351E0	0x00000040	[ 14] __ZN9CRcvQueue14removeListenerEPK4CUDT.eh
0x00035220	0x00000040	[ 14] __ZN9CRcvQueue11setListenerEPK4CUDT.eh
0x00035260	0x00000040	[ 14] __ZN9CSndUList15getNextProcTimeEv.eh
0x000352A0	0x00000040	[ 14] __ZN5CHash6insertERKiPK4CUDT.eh
0x000352E0	0x00000038	[ 14] __ZN5CHash6removeERKi.eh
0x00035318	0x00000040	[ 14] __ZNSt6vectorIN16CRendezvousQueue3CRLESaIS1_EE13_M_insert_auxEN9__gnu_cxx17__normal_iteratorIPS1_S3_EERKS1_.eh
0x00035358	0x00000040	[ 14] __ZN16CRendezvousQueue6insertERKiS1_PK8sockaddr.eh
0x00035398	0x00000040	[ 14] __ZN5CHashD1Ev.eh
0x000353D8	0x00000040	[ 14] __ZN5CHashD2Ev.eh
0x00035418	0x00000040	[ 14] __ZN10CUnitQueueD1Ev.eh
0x00035458	0x00000040	[ 14] __ZN10CUnitQueueD2Ev.eh
0x00035498	0x00000040	[ 14] __ZN5CHash4initERKi.eh
0x000354D8	0x00000040	[ 14] __ZN10CUnitQueue8increaseEv.eh
0x00035518	0x00000038	[ 14] __ZN10CUnitQueue16getNextAvailUnitEv.eh
0x00035550	0x00000040	[ 14] __ZN10CUnitQueue4initERKiS1_S1_.eh
0x00035590	0x00000040	[ 14] __ZN16CRendezvousQueue8retrieveEPK8sockaddrRi.eh
0x000355D0	0x00000040	[ 14] __ZN9CRcvUList6updateEPK4CUDT.eh
0x00035610	0x00000040	[ 14] __ZN9CRcvUList6insertEPK4CUDT.eh
0x00035650	0x00000038	[ 14] __ZN9CSndUListD1Ev.eh
0x00035688	0x00000038	[ 14] __ZN9CSndUListD2Ev.eh
0x000356C0	0x00000038	[ 14] __ZN9CSndUListC1Ev.eh
0x000356F8	0x00000038	[ 14] __ZN9CSndUListC2Ev.eh
0x00035730	0x00000038	[ 14] __ZN9CSndQueueC1Ev.eh
0x00035768	0x00000038	[ 14] __ZN9CSndQueueC2Ev.eh
0x000357A0	0x00000038	[ 14] __ZN9CSndQueue6sendtoEPK8sockaddrR7CPacket.eh
0x000357D8	0x00000038	[ 14] __ZN9CSndUList7insert_ERKxPK4CUDT.eh
0x00035810	0x00000040	[ 14] __ZN9CSndUList6insertERKxPK4CUDT.eh
0x00035850	0x00000040	[ 14] __ZN16CRendezvousQueue6removeERKi.eh
0x00035890	0x00000040	[ 14] __ZNSt5dequeIP7CPacketSaIS1_EE17_M_reallocate_mapEmb.eh
0x000358D0	0x00000040	[ 14] __ZNSt5dequeIP7CPacketSaIS1_EE16_M_push_back_auxERKS1_.eh
0x00035910	0x00000040	[ 14] __ZN9CRcvQueue11getNewEntryEv.eh
0x00035950	0x00000040	[ 14] __ZNSt6vectorIP4CUDTSaIS1_EE13_M_insert_auxEN9__gnu_cxx17__normal_iteratorIPS1_S3_EERKS1_.eh
0x00035990	0x00000040	[ 14] __ZN9CRcvQueue11setNewEntryEP4CUDT.eh
0x000359D0	0x00000040	[ 14] __ZNSt11_Deque_baseIP7CPacketSaIS1_EE15_M_create_nodesEPPS1_S5_.eh
0x00035A10	0x00000040	[ 14] __ZNSt11_Deque_baseIP7CPacketSaIS1_EE17_M_initialize_mapEm.eh
0x00035A50	0x00000040	[ 14] __ZN9CSndQueueD2Ev.eh
0x00035A90	0x00000038	[ 14] __ZN9CSndQueueD1Ev.eh
0x00035AC8	0x00000040	[ 14] __ZN9CSndQueue4initEPK8CChannelPK6CTimer.eh
0x00035B08	0x00000040	[ 14] __ZN16CRendezvousQueueC1Ev.eh
0x00035B48	0x00000040	[ 14] __ZN16CRendezvousQueueD2Ev.eh
0x00035B88	0x00000038	[ 14] __ZN16CRendezvousQueueD1Ev.eh
0x00035BC0	0x00000040	[ 14] __ZN16CRendezvousQueueC2Ev.eh
0x00035C00	0x00000040	[ 14] __ZN9CRcvQueue4initERKiS1_S1_S1_PK8CChannelPK6CTimer.eh
0x00035C40	0x00000040	[ 14] __ZN9CSndUList6removeEPK4CUDT.eh
0x00035C80	0x00000040	[ 14] __ZN9CSndUList3popERP8sockaddrR7CPacket.eh
0x00035CC0	0x00000040	[ 14] __ZN9CSndQueue6workerEPv.eh
0x00035D00	0x00000040	[ 14] __ZN9CSndUList6updateEPK4CUDTRKb.eh
0x00035D40	0x00000040	[ 14] __ZNSt8_Rb_treeIiSt4pairIKiSt5queueIP7CPacketSt5dequeIS4_SaIS4_EEEESt10_Select1stIS9_ESt4lessIiESaIS9_EE9_M_insertEPSt18_Rb_tree_node_baseSH_RKS9_.eh
0x00035D80	0x00000040	[ 14] __ZNSt8_Rb_treeIiSt4pairIKiSt5queueIP7CPacketSt5dequeIS4_SaIS4_EEEESt10_Select1stIS9_ESt4lessIiESaIS9_EE16_M_insert_uniqueERKS9_.eh
0x00035DC0	0x00000040	[ 14] __ZNSt8_Rb_treeIiSt4pairIKiSt5queueIP7CPacketSt5dequeIS4_SaIS4_EEEESt10_Select1stIS9_ESt4lessIiESaIS9_EE16_M_insert_uniqueESt17_Rb_tree_iteratorIS9_ERKS9_.eh
0x00035E00	0x00000040	[ 14] __ZNSt8_Rb_treeIiSt4pairIKiSt5queueIP7CPacketSt5dequeIS4_SaIS4_EEEESt10_Select1stIS9_ESt4lessIiESaIS9_EE8_M_eraseEPSt13_Rb_tree_nodeIS9_E.eh
0x00035E40	0x00000040	[ 14] __ZN9CRcvQueueD2Ev.eh
0x00035E80	0x00000038	[ 14] __ZN9CRcvQueueD1Ev.eh
0x00035EB8	0x00000040	[ 14] __ZN9CRcvQueueC2Ev.eh
0x00035EF8	0x00000038	[ 14] __ZN9CRcvQueueC1Ev.eh
0x00035F30	0x00000040	[ 14] __ZN9CRcvQueue8storePktERKiP7CPacket.eh
0x00035F70	0x00000040	[ 14] __ZN9CRcvQueue6workerEPv.eh
0x00035FB0	0x00000040	[ 14] __ZN9CRcvQueue8recvfromERKiR7CPacket.eh
0x00036000	0x00000008	[  2] initializer$0
0x00036008	0x00000008	[  3] initializer$0
0x00036010	0x00000008	[  0] __ZN10CHandShake14m_iContentSizeE$non_lazy_pointer
0x00036018	0x00000008	[  0] __ZN10CUDTUnited10TLSDestroyEPv$non_lazy_pointer
0x00036020	0x00000008	[  0] __ZN13CUDTException5EFILEE$non_lazy_pointer
0x00036028	0x00000008	[  0] __ZN13CUDTException9EASYNCRCVE$non_lazy_pointer
0x00036030	0x00000008	[  0] __ZN13CUDTException9EASYNCSNDE$non_lazy_pointer
0x00036038	0x00000008	[  0] __ZN13CUDTExceptionD1Ev$non_lazy_pointer
0x00036040	0x00000008	[  0] __ZN3UDT12INVALID_SOCKE$non_lazy_pointer
0x00036048	0x00000008	[  0] __ZN3UDT5ERRORE$non_lazy_pointer
0x00036050	0x00000008	[  0] __ZN4CUDT11s_UDTUnitedE$non_lazy_pointer
0x00036058	0x00000008	[  0] __ZN4CUDT12INVALID_SOCKE$non_lazy_pointer
0x00036060	0x00000008	[  0] __ZN4CUDT14m_iSYNIntervalE$non_lazy_pointer
0x00036068	0x00000008	[  0] __ZN4CUDT5ERRORE$non_lazy_pointer
0x00036070	0x00000008	[  0] __ZN6CMsgNo11m_iMaxMsgNoE$non_lazy_pointer
0x00036078	0x00000008	[  0] __ZN6CSeqNo10m_iSeqNoTHE$non_lazy_pointer
0x00036080	0x00000008	[  0] __ZN6CSeqNo11m_iMaxSeqNoE$non_lazy_pointer
0x00036088	0x00000008	[  0] __ZN7CPacket13m_iPktHdrSizeE$non_lazy_pointer
0x00036090	0x00000008	[  0] __ZNSs4_Rep20_S_empty_rep_storageE$non_lazy_pointer
0x00036098	0x00000008	[  0] __ZTI13CUDTException$non_lazy_pointer
0x000360A0	0x00000008	[  0] __ZTISt9bad_alloc$non_lazy_pointer
0x000360A8	0x00000008	[  0] __ZTV10CCCFactoryI6CUDTCCE$non_lazy_pointer
0x000360B0	0x00000008	[  0] __ZTV17CCCVirtualFactory$non_lazy_pointer
0x000360B8	0x00000008	[  0] ___gxx_personality_v0$non_lazy_pointer
0x000360C0	0x00000008	[  0] ___stack_chk_guard$non_lazy_pointer
0x000360C8	0x00000008	[  0] dyld_stub_binder$non_lazy_pointer
0x000360D0	0x00000008	[  0] none
0x000360D8	0x00000008	[  0] _UDT_InitClassRefAll$lazy_pointer
0x000360E0	0x00000008	[  0] _UDT_InitFieldMonitor$lazy_pointer
0x000360E8	0x00000008	[  0] _UDT_InitFieldRefAll$lazy_pointer
0x000360F0	0x00000008	[  0] _UDT_InitMethodRefAll$lazy_pointer
0x000360F8	0x00000008	[  0] _UDT_ReturnReceiveError$lazy_pointer
0x00036100	0x00000008	[  0] _UDT_ReturnSendError$lazy_pointer
0x00036108	0x00000008	[  0] _UDT_ThrowExceptionUDT_ErrorInfo$lazy_pointer
0x00036110	0x00000008	[  0] _UDT_ThrowExceptionUDT_Message$lazy_pointer
0x00036118	0x00000008	[  0] _X_ConvertInetSocketAddressToSockaddr$lazy_pointer
0x00036120	0x00000008	[  0] _X_InitClassReference$lazy_pointer
0x00036128	0x00000008	[  0] _X_IsSockaddrEqualsInetSocketAddress$lazy_pointer
0x00036130	0x00000008	[  0] _X_NewInetAddress$lazy_pointer
0x00036138	0x00000008	[  0] _X_NewInetSocketAddress$lazy_pointer
0x00036140	0x00000008	[  0] __Unwind_Resume$lazy_pointer
0x00036148	0x00000008	[  0] __ZN10CACKWindow11acknowledgeERKiRi$lazy_pointer
0x00036150	0x00000008	[  0] __ZN10CACKWindow5storeERKiS1_$lazy_pointer
0x00036158	0x00000008	[  0] __ZN10CACKWindowC1ERKi$lazy_pointer
0x00036160	0x00000008	[  0] __ZN10CACKWindowD1Ev$lazy_pointer
0x00036168	0x00000008	[  0] __ZN10CHandShake11deserializeEPKcRKi$lazy_pointer
0x00036170	0x00000008	[  0] __ZN10CHandShake9serializeEPcRKi$lazy_pointer
0x00036178	0x00000008	[  0] __ZN10CHandShakeC1Ev$lazy_pointer
0x00036180	0x00000008	[  0] __ZN10CIPAddress4ntopEPK8sockaddrPjRKi$lazy_pointer
0x00036188	0x00000008	[  0] __ZN10CIPAddress4ptonEP8sockaddrPKjRKi$lazy_pointer
0x00036190	0x00000008	[  0] __ZN10CIPAddress5ipcmpEPK8sockaddrS2_RKi$lazy_pointer
0x00036198	0x00000008	[  0] __ZN10CRcvBuffer10readBufferEPcRKi$lazy_pointer
0x000361A0	0x00000008	[  0] __ZN10CRcvBuffer12getRcvMsgNumEv$lazy_pointer
0x000361A8	0x00000008	[  0] __ZN10CRcvBuffer16readBufferToFileERSt13basic_fstreamIcSt11char_traitsIcEERKi$lazy_pointer
0x000361B0	0x00000008	[  0] __ZN10CRcvBuffer7ackDataERKi$lazy_pointer
0x000361B8	0x00000008	[  0] __ZN10CRcvBuffer7addDataEP5CUniti$lazy_pointer
0x000361C0	0x00000008	[  0] __ZN10CRcvBuffer7dropMsgERKi$lazy_pointer
0x000361C8	0x00000008	[  0] __ZN10CRcvBuffer7readMsgEPcRKi$lazy_pointer
0x000361D0	0x00000008	[  0] __ZN10CRcvBuffer7scanMsgERiS0_Rb$lazy_pointer
0x000361D8	0x00000008	[  0] __ZN10CRcvBufferC1ERKiP10CUnitQueue$lazy_pointer
0x000361E0	0x00000008	[  0] __ZN10CRcvBufferD1Ev$lazy_pointer
0x000361E8	0x00000008	[  0] __ZN10CSndBuffer17addBufferFromFileERSt13basic_fstreamIcSt11char_traitsIcEERKi$lazy_pointer
0x000361F0	0x00000008	[  0] __ZN10CSndBuffer7ackDataERKi$lazy_pointer
0x000361F8	0x00000008	[  0] __ZN10CSndBuffer8increaseEv$lazy_pointer
0x00036200	0x00000008	[  0] __ZN10CSndBuffer8readDataEPPcRi$lazy_pointer
0x00036208	0x00000008	[  0] __ZN10CSndBuffer8readDataEPPciRiS2_$lazy_pointer
0x00036210	0x00000008	[  0] __ZN10CSndBuffer9addBufferEPKcRKiS3_RKb$lazy_pointer
0x00036218	0x00000008	[  0] __ZN10CSndBufferC1ERKiS1_$lazy_pointer
0x00036220	0x00000008	[  0] __ZN10CSndBufferC2ERKiS1_$lazy_pointer
0x00036228	0x00000008	[  0] __ZN10CSndBufferD1Ev$lazy_pointer
0x00036230	0x00000008	[  0] __ZN10CSndBufferD2Ev$lazy_pointer
0x00036238	0x00000008	[  0] __ZN10CUDTSocketD2Ev$lazy_pointer
0x00036240	0x00000008	[  0] __ZN10CUDTUnited11getpeernameEiP8sockaddrPi$lazy_pointer
0x00036248	0x00000008	[  0] __ZN10CUDTUnited11getsocknameEiP8sockaddrPi$lazy_pointer
0x00036250	0x00000008	[  0] __ZN10CUDTUnited12removeSocketEi$lazy_pointer
0x00036258	0x00000008	[  0] __ZN10CUDTUnited13newConnectionEiPK8sockaddrP10CHandShake$lazy_pointer
0x00036260	0x00000008	[  0] __ZN10CUDTUnited15epoll_add_usockEiiPKi$lazy_pointer
0x00036268	0x00000008	[  0] __ZN10CUDTUnited18checkBrokenSocketsEv$lazy_pointer
0x00036270	0x00000008	[  0] __ZN10CUDTUnited18epoll_remove_usockEiiPKi$lazy_pointer
0x00036278	0x00000008	[  0] __ZN10CUDTUnited4bindEiPK8sockaddrRKi$lazy_pointer
0x00036280	0x00000008	[  0] __ZN10CUDTUnited4bindEii$lazy_pointer
0x00036288	0x00000008	[  0] __ZN10CUDTUnited5closeEi$lazy_pointer
0x00036290	0x00000008	[  0] __ZN10CUDTUnited6acceptEiP8sockaddrPi$lazy_pointer
0x00036298	0x00000008	[  0] __ZN10CUDTUnited6listenEiRKi$lazy_pointer
0x000362A0	0x00000008	[  0] __ZN10CUDTUnited6locateEi$lazy_pointer
0x000362A8	0x00000008	[  0] __ZN10CUDTUnited6locateEiPK8sockaddrRKiS4_$lazy_pointer
0x000362B0	0x00000008	[  0] __ZN10CUDTUnited6lookupEi$lazy_pointer
0x000362B8	0x00000008	[  0] __ZN10CUDTUnited6selectEPSt3setIiSt4lessIiESaIiEES5_S5_PK7timeval$lazy_pointer
0x000362C0	0x00000008	[  0] __ZN10CUDTUnited7cleanupEv$lazy_pointer
0x000362C8	0x00000008	[  0] __ZN10CUDTUnited7connectEiPK8sockaddrRKi$lazy_pointer
0x000362D0	0x00000008	[  0] __ZN10CUDTUnited7startupEv$lazy_pointer
0x000362D8	0x00000008	[  0] __ZN10CUDTUnited8getErrorEv$lazy_pointer
0x000362E0	0x00000008	[  0] __ZN10CUDTUnited8selectExERKSt6vectorIiSaIiEEPS2_S5_S5_x$lazy_pointer
0x000362E8	0x00000008	[  0] __ZN10CUDTUnited9getStatusEi$lazy_pointer
0x000362F0	0x00000008	[  0] __ZN10CUDTUnited9newSocketERKiS1_$lazy_pointer
0x000362F8	0x00000008	[  0] __ZN10CUDTUnited9updateMuxEP10CUDTSocketPK8sockaddrPKi$lazy_pointer
0x00036300	0x00000008	[  0] __ZN10CUDTUnited9updateMuxEP10CUDTSocketPKS0_$lazy_pointer
0x00036308	0x00000008	[  0] __ZN10CUDTUnitedC1Ev$lazy_pointer
0x00036310	0x00000008	[  0] __ZN10CUDTUnitedC2Ev$lazy_pointer
0x00036318	0x00000008	[  0] __ZN10CUDTUnitedD1Ev$lazy_pointer
0x00036320	0x00000008	[  0] __ZN10CUDTUnitedD2Ev$lazy_pointer
0x00036328	0x00000008	[  0] __ZN10CUnitQueue4initERKiS1_S1_$lazy_pointer
0x00036330	0x00000008	[  0] __ZN10CUnitQueue8increaseEv$lazy_pointer
0x00036338	0x00000008	[  0] __ZN12CRcvLossList12getLossArrayEPiRiRKiS3_$lazy_pointer
0x00036340	0x00000008	[  0] __ZN12CRcvLossList6insertERKiS1_$lazy_pointer
0x00036348	0x00000008	[  0] __ZN12CRcvLossList6removeERKi$lazy_pointer
0x00036350	0x00000008	[  0] __ZN12CRcvLossList6removeERKiS1_$lazy_pointer
0x00036358	0x00000008	[  0] __ZN12CRcvLossListC1ERKi$lazy_pointer
0x00036360	0x00000008	[  0] __ZN12CRcvLossListC2ERKi$lazy_pointer
0x00036368	0x00000008	[  0] __ZN12CRcvLossListD1Ev$lazy_pointer
0x00036370	0x00000008	[  0] __ZN12CSndLossList10getLostSeqEv$lazy_pointer
0x00036378	0x00000008	[  0] __ZN12CSndLossList6insertERKiS1_$lazy_pointer
0x00036380	0x00000008	[  0] __ZN12CSndLossList6removeERKi$lazy_pointer
0x00036388	0x00000008	[  0] __ZN12CSndLossListC1ERKi$lazy_pointer
0x00036390	0x00000008	[  0] __ZN12CSndLossListC2ERKi$lazy_pointer
0x00036398	0x00000008	[  0] __ZN12CSndLossListD1Ev$lazy_pointer
0x000363A0	0x00000008	[  0] __ZN13CUDTExceptionC1ERKS_$lazy_pointer
0x000363A8	0x00000008	[  0] __ZN13CUDTExceptionC1Eiii$lazy_pointer
0x000363B0	0x00000008	[  0] __ZN13CUDTExceptionC2ERKS_$lazy_pointer
0x000363B8	0x00000008	[  0] __ZN13CUDTExceptionC2Eiii$lazy_pointer
0x000363C0	0x00000008	[  0] __ZN13CUDTExceptionD1Ev$lazy_pointer
0x000363C8	0x00000008	[  0] __ZN14CPktTimeWindow12onPktArrivalEv$lazy_pointer
0x000363D0	0x00000008	[  0] __ZN14CPktTimeWindow13probe1ArrivalEv$lazy_pointer
0x000363D8	0x00000008	[  0] __ZN14CPktTimeWindow13probe2ArrivalEv$lazy_pointer
0x000363E0	0x00000008	[  0] __ZN14CPktTimeWindowC1ERKiS1_$lazy_pointer
0x000363E8	0x00000008	[  0] __ZN14CPktTimeWindowC1Ev$lazy_pointer
0x000363F0	0x00000008	[  0] __ZN14CPktTimeWindowD1Ev$lazy_pointer
0x000363F8	0x00000008	[  0] __ZN16CRendezvousQueue6insertERKiS1_PK8sockaddr$lazy_pointer
0x00036400	0x00000008	[  0] __ZN16CRendezvousQueue6removeERKi$lazy_pointer
0x00036408	0x00000008	[  0] __ZN16CRendezvousQueue8retrieveEPK8sockaddrRi$lazy_pointer
0x00036410	0x00000008	[  0] __ZN16CRendezvousQueueC2Ev$lazy_pointer
0x00036418	0x00000008	[  0] __ZN16CRendezvousQueueD2Ev$lazy_pointer
0x00036420	0x00000008	[  0] __ZN3CCC10setRcvRateERKi$lazy_pointer
0x00036428	0x00000008	[  0] __ZN3CCC12setBandwidthERKi$lazy_pointer
0x00036430	0x00000008	[  0] __ZN3CCC12setUserParamEPKcRKi$lazy_pointer
0x00036438	0x00000008	[  0] __ZN3CCC14setMaxCWndSizeERKi$lazy_pointer
0x00036440	0x00000008	[  0] __ZN3CCC15setSndCurrSeqNoERKi$lazy_pointer
0x00036448	0x00000008	[  0] __ZN3CCC6setMSSERKi$lazy_pointer
0x00036450	0x00000008	[  0] __ZN3CCC6setRTTERKi$lazy_pointer
0x00036458	0x00000008	[  0] __ZN3UDT10getsockoptEii6UDTOptPvPi$lazy_pointer
0x00036460	0x00000008	[  0] __ZN3UDT10setsockoptEii6UDTOptPKvi$lazy_pointer
0x00036468	0x00000008	[  0] __ZN3UDT11getpeernameEiP8sockaddrPi$lazy_pointer
0x00036470	0x00000008	[  0] __ZN3UDT11getsocknameEiP8sockaddrPi$lazy_pointer
0x00036478	0x00000008	[  0] __ZN3UDT12getlasterrorEv$lazy_pointer
0x00036480	0x00000008	[  0] __ZN3UDT4bindEiPK8sockaddri$lazy_pointer
0x00036488	0x00000008	[  0] __ZN3UDT4recvEiPcii$lazy_pointer
0x00036490	0x00000008	[  0] __ZN3UDT4sendEiPKcii$lazy_pointer
0x00036498	0x00000008	[  0] __ZN3UDT5closeEi$lazy_pointer
0x000364A0	0x00000008	[  0] __ZN3UDT6acceptEiP8sockaddrPi$lazy_pointer
0x000364A8	0x00000008	[  0] __ZN3UDT6listenEii$lazy_pointer
0x000364B0	0x00000008	[  0] __ZN3UDT6selectEiPSt3setIiSt4lessIiESaIiEES5_S5_PK7timeval$lazy_pointer
0x000364B8	0x00000008	[  0] __ZN3UDT6socketEiii$lazy_pointer
0x000364C0	0x00000008	[  0] __ZN3UDT7cleanupEv$lazy_pointer
0x000364C8	0x00000008	[  0] __ZN3UDT7connectEiPK8sockaddri$lazy_pointer
0x000364D0	0x00000008	[  0] __ZN3UDT7perfmonEiP8CPerfMonb$lazy_pointer
0x000364D8	0x00000008	[  0] __ZN3UDT7recvmsgEiPci$lazy_pointer
0x000364E0	0x00000008	[  0] __ZN3UDT7sendmsgEiPKciib$lazy_pointer
0x000364E8	0x00000008	[  0] __ZN3UDT7startupEv$lazy_pointer
0x000364F0	0x00000008	[  0] __ZN3UDT8selectExERKSt6vectorIiSaIiEEPS2_S5_S5_x$lazy_pointer
0x000364F8	0x00000008	[  0] __ZN4CMD57computeEPKcPh$lazy_pointer
0x00036500	0x00000008	[  0] __ZN4CUDT10epoll_waitEiPSt3setIiSt4lessIiESaIiEES5_xS5_S5_$lazy_pointer
0x00036508	0x00000008	[  0] __ZN4CUDT10getsockoptEii6UDTOptPvPi$lazy_pointer
0x00036510	0x00000008	[  0] __ZN4CUDT10setsockoptEii6UDTOptPKvi$lazy_pointer
0x00036518	0x00000008	[  0] __ZN4CUDT11checkTimersEv$lazy_pointer
0x00036520	0x00000008	[  0] __ZN4CUDT11getpeernameEiP8sockaddrPi$lazy_pointer
0x00036528	0x00000008	[  0] __ZN4CUDT11getsocknameEiP8sockaddrPi$lazy_pointer
0x00036530	0x00000008	[  0] __ZN4CUDT11processCtrlER7CPacket$lazy_pointer
0x00036538	0x00000008	[  0] __ZN4CUDT11processDataEP5CUnit$lazy_pointer
0x00036540	0x00000008	[  0] __ZN4CUDT11removeEPollEi$lazy_pointer
0x00036548	0x00000008	[  0] __ZN4CUDT12destroySynchEv$lazy_pointer
0x00036550	0x00000008	[  0] __ZN4CUDT12epoll_createEv$lazy_pointer
0x00036558	0x00000008	[  0] __ZN4CUDT12getUDTHandleEi$lazy_pointer
0x00036560	0x00000008	[  0] __ZN4CUDT12releaseSynchEv$lazy_pointer
0x00036568	0x00000008	[  0] __ZN4CUDT13epoll_releaseEi$lazy_pointer
0x00036570	0x00000008	[  0] __ZN4CUDT15epoll_add_ssockEiiPKi$lazy_pointer
0x00036578	0x00000008	[  0] __ZN4CUDT15epoll_add_usockEiiPKi$lazy_pointer
0x00036580	0x00000008	[  0] __ZN4CUDT18epoll_remove_usockEiiPKi$lazy_pointer
0x00036588	0x00000008	[  0] __ZN4CUDT4bindEiPK8sockaddri$lazy_pointer
0x00036590	0x00000008	[  0] __ZN4CUDT4bindEii$lazy_pointer
0x00036598	0x00000008	[  0] __ZN4CUDT4openEv$lazy_pointer
0x000365A0	0x00000008	[  0] __ZN4CUDT4recvEPcRKi$lazy_pointer
0x000365A8	0x00000008	[  0] __ZN4CUDT4recvEiPcii$lazy_pointer
0x000365B0	0x00000008	[  0] __ZN4CUDT4sendEPKcRKi$lazy_pointer
0x000365B8	0x00000008	[  0] __ZN4CUDT4sendEiPKcii$lazy_pointer
0x000365C0	0x00000008	[  0] __ZN4CUDT5closeEi$lazy_pointer
0x000365C8	0x00000008	[  0] __ZN4CUDT5closeEv$lazy_pointer
0x000365D0	0x00000008	[  0] __ZN4CUDT6acceptEiP8sockaddrPi$lazy_pointer
0x000365D8	0x00000008	[  0] __ZN4CUDT6getOptE6UDTOptPvRi$lazy_pointer
0x000365E0	0x00000008	[  0] __ZN4CUDT6listenEP8sockaddrR7CPacket$lazy_pointer
0x000365E8	0x00000008	[  0] __ZN4CUDT6listenEii$lazy_pointer
0x000365F0	0x00000008	[  0] __ZN4CUDT6listenEv$lazy_pointer
0x000365F8	0x00000008	[  0] __ZN4CUDT6sampleEP8CPerfMonb$lazy_pointer
0x00036600	0x00000008	[  0] __ZN4CUDT6selectEiPSt3setIiSt4lessIiESaIiEES5_S5_PK7timeval$lazy_pointer
0x00036608	0x00000008	[  0] __ZN4CUDT6setOptE6UDTOptPKvRKi$lazy_pointer
0x00036610	0x00000008	[  0] __ZN4CUDT6socketEiii$lazy_pointer
0x00036618	0x00000008	[  0] __ZN4CUDT7connectEPK8sockaddr$lazy_pointer
0x00036620	0x00000008	[  0] __ZN4CUDT7connectEPK8sockaddrP10CHandShake$lazy_pointer
0x00036628	0x00000008	[  0] __ZN4CUDT7connectEiPK8sockaddri$lazy_pointer
0x00036630	0x00000008	[  0] __ZN4CUDT7perfmonEiP8CPerfMonb$lazy_pointer
0x00036638	0x00000008	[  0] __ZN4CUDT7recvmsgEPcRKi$lazy_pointer
0x00036640	0x00000008	[  0] __ZN4CUDT7recvmsgEiPci$lazy_pointer
0x00036648	0x00000008	[  0] __ZN4CUDT7sendmsgEPKcRKiS3_RKb$lazy_pointer
0x00036650	0x00000008	[  0] __ZN4CUDT7sendmsgEiPKciib$lazy_pointer
0x00036658	0x00000008	[  0] __ZN4CUDT8addEPollEi$lazy_pointer
0x00036660	0x00000008	[  0] __ZN4CUDT8packDataER7CPacketRy$lazy_pointer
0x00036668	0x00000008	[  0] __ZN4CUDT8recvfileERSt13basic_fstreamIcSt11char_traitsIcEERxRKxRKi$lazy_pointer
0x00036670	0x00000008	[  0] __ZN4CUDT8recvfileEiRSt13basic_fstreamIcSt11char_traitsIcEERxRKxRKi$lazy_pointer
0x00036678	0x00000008	[  0] __ZN4CUDT8selectExERKSt6vectorIiSaIiEEPS2_S5_S5_x$lazy_pointer
0x00036680	0x00000008	[  0] __ZN4CUDT8sendCtrlERKiPvS2_S1_$lazy_pointer
0x00036688	0x00000008	[  0] __ZN4CUDT8sendfileERSt13basic_fstreamIcSt11char_traitsIcEERxRKxRKi$lazy_pointer
0x00036690	0x00000008	[  0] __ZN4CUDT8sendfileEiRSt13basic_fstreamIcSt11char_traitsIcEERxRKxRKi$lazy_pointer
0x00036698	0x00000008	[  0] __ZN4CUDT9initSynchEv$lazy_pointer
0x000366A0	0x00000008	[  0] __ZN4CUDTC1ERKS_$lazy_pointer
0x000366A8	0x00000008	[  0] __ZN4CUDTC1Ev$lazy_pointer
0x000366B0	0x00000008	[  0] __ZN4CUDTC2ERKS_$lazy_pointer
0x000366B8	0x00000008	[  0] __ZN4CUDTC2Ev$lazy_pointer
0x000366C0	0x00000008	[  0] __ZN4CUDTD1Ev$lazy_pointer
0x000366C8	0x00000008	[  0] __ZN4CUDTD2Ev$lazy_pointer
0x000366D0	0x00000008	[  0] __ZN6CCache6lookupEPK8sockaddrRKiP10CInfoBlock$lazy_pointer
0x000366D8	0x00000008	[  0] __ZN6CCache6updateEPK8sockaddrRKiP10CInfoBlock$lazy_pointer
0x000366E0	0x00000008	[  0] __ZN6CCacheC1Ev$lazy_pointer
0x000366E8	0x00000008	[  0] __ZN6CCacheC2ERKj$lazy_pointer
0x000366F0	0x00000008	[  0] __ZN6CCacheC2Ev$lazy_pointer
0x000366F8	0x00000008	[  0] __ZN6CCacheD1Ev$lazy_pointer
0x00036700	0x00000008	[  0] __ZN6CCacheD2Ev$lazy_pointer
0x00036708	0x00000008	[  0] __ZN6CEPoll11enable_readERKiRSt3setIiSt4lessIiESaIiEE$lazy_pointer
0x00036710	0x00000008	[  0] __ZN6CEPoll12disable_readERKiRSt3setIiSt4lessIiESaIiEE$lazy_pointer
0x00036718	0x00000008	[  0] __ZN6CEPoll12enable_writeERKiRSt3setIiSt4lessIiESaIiEE$lazy_pointer
0x00036720	0x00000008	[  0] __ZN6CEPoll12remove_ssockEiRKiPS0_$lazy_pointer
0x00036728	0x00000008	[  0] __ZN6CEPoll12remove_usockEiRKiPS0_$lazy_pointer
0x00036730	0x00000008	[  0] __ZN6CEPoll13disable_writeERKiRSt3setIiSt4lessIiESaIiEE$lazy_pointer
0x00036738	0x00000008	[  0] __ZN6CEPoll4waitEiPSt3setIiSt4lessIiESaIiEES5_xS5_S5_$lazy_pointer
0x00036740	0x00000008	[  0] __ZN6CEPoll6createEv$lazy_pointer
0x00036748	0x00000008	[  0] __ZN6CEPoll7releaseEi$lazy_pointer
0x00036750	0x00000008	[  0] __ZN6CEPoll9add_ssockEiRKiPS0_$lazy_pointer
0x00036758	0x00000008	[  0] __ZN6CEPoll9add_usockEiRKiPS0_$lazy_pointer
0x00036760	0x00000008	[  0] __ZN6CEPollC1Ev$lazy_pointer
0x00036768	0x00000008	[  0] __ZN6CEPollD1Ev$lazy_pointer
0x00036770	0x00000008	[  0] __ZN6CGuard11createMutexER23_opaque_pthread_mutex_t$lazy_pointer
0x00036778	0x00000008	[  0] __ZN6CGuard12releaseMutexER23_opaque_pthread_mutex_t$lazy_pointer
0x00036780	0x00000008	[  0] __ZN6CGuard7enterCSER23_opaque_pthread_mutex_t$lazy_pointer
0x00036788	0x00000008	[  0] __ZN6CGuard7leaveCSER23_opaque_pthread_mutex_t$lazy_pointer
0x00036790	0x00000008	[  0] __ZN6CGuardC1ER23_opaque_pthread_mutex_t$lazy_pointer
0x00036798	0x00000008	[  0] __ZN6CGuardD1Ev$lazy_pointer
0x000367A0	0x00000008	[  0] __ZN6CTimer12triggerEventEv$lazy_pointer
0x000367A8	0x00000008	[  0] __ZN6CTimer12waitForEventEv$lazy_pointer
0x000367B0	0x00000008	[  0] __ZN6CTimer15getCPUFrequencyEv$lazy_pointer
0x000367B8	0x00000008	[  0] __ZN6CTimer4tickEv$lazy_pointer
0x000367C0	0x00000008	[  0] __ZN6CTimer5rdtscERy$lazy_pointer
0x000367C8	0x00000008	[  0] __ZN6CTimer5sleepEv$lazy_pointer
0x000367D0	0x00000008	[  0] __ZN6CTimer7getTimeEv$lazy_pointer
0x000367D8	0x00000008	[  0] __ZN6CTimer7sleeptoERKy$lazy_pointer
0x000367E0	0x00000008	[  0] __ZN6CTimer9interruptEv$lazy_pointer
0x000367E8	0x00000008	[  0] __ZN6CTimerC1Ev$lazy_pointer
0x000367F0	0x00000008	[  0] __ZN6CTimerD1Ev$lazy_pointer
0x000367F8	0x00000008	[  0] __ZN6CUDTCCC1Ev$lazy_pointer
0x00036800	0x00000008	[  0] __ZN7CPacket4packERKiPvS2_S1_$lazy_pointer
0x00036808	0x00000008	[  0] __ZN7CPacket9setLengthERKi$lazy_pointer
0x00036810	0x00000008	[  0] __ZN7CPacketC1Ev$lazy_pointer
0x00036818	0x00000008	[  0] __ZN7CPacketD1Ev$lazy_pointer
0x00036820	0x00000008	[  0] __ZN7JNIEnv_13CallIntMethodEP8_jobjectP10_jmethodIDz$lazy_pointer
0x00036828	0x00000008	[  0] __ZN7JNIEnv_14CallLongMethodEP8_jobjectP10_jmethodIDz$lazy_pointer
0x00036830	0x00000008	[  0] __ZN7JNIEnv_16CallObjectMethodEP8_jobjectP10_jmethodIDz$lazy_pointer
0x00036838	0x00000008	[  0] __ZN7JNIEnv_17CallBooleanMethodEP8_jobjectP10_jmethodIDz$lazy_pointer
0x00036840	0x00000008	[  0] __ZN7JNIEnv_9NewObjectEP7_jclassP10_jmethodIDz$lazy_pointer
0x00036848	0x00000008	[  0] __ZN8CChannel13setRcvBufSizeERKi$lazy_pointer
0x00036850	0x00000008	[  0] __ZN8CChannel13setSndBufSizeERKi$lazy_pointer
0x00036858	0x00000008	[  0] __ZN8CChannel13setUDPSockOptEv$lazy_pointer
0x00036860	0x00000008	[  0] __ZN8CChannel4openEPK8sockaddr$lazy_pointer
0x00036868	0x00000008	[  0] __ZN8CChannel4openEi$lazy_pointer
0x00036870	0x00000008	[  0] __ZN8CChannelC1ERKi$lazy_pointer
0x00036878	0x00000008	[  0] __ZN8CChannelD1Ev$lazy_pointer
0x00036880	0x00000008	[  0] __ZN9CRcvQueue11getNewEntryEv$lazy_pointer
0x00036888	0x00000008	[  0] __ZN9CRcvQueue11setListenerEPK4CUDT$lazy_pointer
0x00036890	0x00000008	[  0] __ZN9CRcvQueue11setNewEntryEP4CUDT$lazy_pointer
0x00036898	0x00000008	[  0] __ZN9CRcvQueue14removeListenerEPK4CUDT$lazy_pointer
0x000368A0	0x00000008	[  0] __ZN9CRcvQueue4initERKiS1_S1_S1_PK8CChannelPK6CTimer$lazy_pointer
0x000368A8	0x00000008	[  0] __ZN9CRcvQueue8recvfromERKiR7CPacket$lazy_pointer
0x000368B0	0x00000008	[  0] __ZN9CRcvQueue8storePktERKiP7CPacket$lazy_pointer
0x000368B8	0x00000008	[  0] __ZN9CRcvQueueC1Ev$lazy_pointer
0x000368C0	0x00000008	[  0] __ZN9CRcvQueueC2Ev$lazy_pointer
0x000368C8	0x00000008	[  0] __ZN9CRcvQueueD1Ev$lazy_pointer
0x000368D0	0x00000008	[  0] __ZN9CRcvQueueD2Ev$lazy_pointer
0x000368D8	0x00000008	[  0] __ZN9CSndQueue4initEPK8CChannelPK6CTimer$lazy_pointer
0x000368E0	0x00000008	[  0] __ZN9CSndQueue6sendtoEPK8sockaddrR7CPacket$lazy_pointer
0x000368E8	0x00000008	[  0] __ZN9CSndQueueC1Ev$lazy_pointer
0x000368F0	0x00000008	[  0] __ZN9CSndQueueD1Ev$lazy_pointer
0x000368F8	0x00000008	[  0] __ZN9CSndQueueD2Ev$lazy_pointer
0x00036900	0x00000008	[  0] __ZN9CSndUList3popERP8sockaddrR7CPacket$lazy_pointer
0x00036908	0x00000008	[  0] __ZN9CSndUList6removeEPK4CUDT$lazy_pointer
0x00036910	0x00000008	[  0] __ZN9CSndUList6updateEPK4CUDTRKb$lazy_pointer
0x00036918	0x00000008	[  0] __ZN9CSndUList7insert_ERKxPK4CUDT$lazy_pointer
0x00036920	0x00000008	[  0] __ZNK10CRcvBuffer14getRcvDataSizeEv$lazy_pointer
0x00036928	0x00000008	[  0] __ZNK10CRcvBuffer15getAvailBufSizeEv$lazy_pointer
0x00036930	0x00000008	[  0] __ZNK10CSndBuffer14getCurrBufSizeEv$lazy_pointer
0x00036938	0x00000008	[  0] __ZNK12CRcvLossList13getLossLengthEv$lazy_pointer
0x00036940	0x00000008	[  0] __ZNK12CRcvLossList15getFirstLostSeqEv$lazy_pointer
0x00036948	0x00000008	[  0] __ZNK13CUDTException12getErrorCodeEv$lazy_pointer
0x00036950	0x00000008	[  0] __ZNK14CPktTimeWindow12getBandwidthEv$lazy_pointer
0x00036958	0x00000008	[  0] __ZNK14CPktTimeWindow14getPktRcvSpeedEv$lazy_pointer
0x00036960	0x00000008	[  0] __ZNK7CPacket11getAckSeqNoEv$lazy_pointer
0x00036968	0x00000008	[  0] __ZNK7CPacket14getMsgBoundaryEv$lazy_pointer
0x00036970	0x00000008	[  0] __ZNK7CPacket15getMsgOrderFlagEv$lazy_pointer
0x00036978	0x00000008	[  0] __ZNK7CPacket5cloneEv$lazy_pointer
0x00036980	0x00000008	[  0] __ZNK7CPacket7getFlagEv$lazy_pointer
0x00036988	0x00000008	[  0] __ZNK7CPacket7getTypeEv$lazy_pointer
0x00036990	0x00000008	[  0] __ZNK7CPacket9getLengthEv$lazy_pointer
0x00036998	0x00000008	[  0] __ZNK7CPacket9getMsgSeqEv$lazy_pointer
0x000369A0	0x00000008	[  0] __ZNK8CChannel11getSockAddrEP8sockaddr$lazy_pointer
0x000369A8	0x00000008	[  0] __ZNK8CChannel5closeEv$lazy_pointer
0x000369B0	0x00000008	[  0] __ZNK8CChannel6sendtoEPK8sockaddrR7CPacket$lazy_pointer
0x000369B8	0x00000008	[  0] __ZNK8CChannel8recvfromEP8sockaddrR7CPacket$lazy_pointer
0x000369C0	0x00000008	[  0] __ZNSi4readEPcl$lazy_pointer
0x000369C8	0x00000008	[  0] __ZNSi5seekgESt4fposI11__mbstate_tE$lazy_pointer
0x000369D0	0x00000008	[  0] __ZNSo5seekpESt4fposI11__mbstate_tE$lazy_pointer
0x000369D8	0x00000008	[  0] __ZNSo5writeEPKcl$lazy_pointer
0x000369E0	0x00000008	[  0] __ZNSs4_Rep10_M_destroyERKSaIcE$lazy_pointer
0x000369E8	0x00000008	[  0] __ZNSs6appendEPKcm$lazy_pointer
0x000369F0	0x00000008	[  0] __ZNSs6assignEPKcm$lazy_pointer
0x000369F8	0x00000008	[  0] __ZNSs6assignERKSs$lazy_pointer
0x00036A00	0x00000008	[  0] __ZNSt11_Deque_baseIP7CPacketSaIS1_EE15_M_create_nodesEPPS1_S5_$lazy_pointer
0x00036A08	0x00000008	[  0] __ZNSt11_Deque_baseIP7CPacketSaIS1_EE17_M_initialize_mapEm$lazy_pointer
0x00036A10	0x00000008	[  0] __ZNSt5dequeIP7CPacketSaIS1_EE16_M_push_back_auxERKS1_$lazy_pointer
0x00036A18	0x00000008	[  0] __ZNSt5dequeIP7CPacketSaIS1_EE17_M_reallocate_mapEmb$lazy_pointer
0x00036A20	0x00000008	[  0] __ZNSt6vectorIN16CRendezvousQueue3CRLESaIS1_EE13_M_insert_auxEN9__gnu_cxx17__normal_iteratorIPS1_S3_EERKS1_$lazy_pointer
0x00036A28	0x00000008	[  0] __ZNSt6vectorIP10CUDTSocketSaIS1_EE13_M_insert_auxEN9__gnu_cxx17__normal_iteratorIPS1_S3_EERKS1_$lazy_pointer
0x00036A30	0x00000008	[  0] __ZNSt6vectorIP4CUDTSaIS1_EE13_M_insert_auxEN9__gnu_cxx17__normal_iteratorIPS1_S3_EERKS1_$lazy_pointer
0x00036A38	0x00000008	[  0] __ZNSt6vectorIiSaIiEE13_M_insert_auxEN9__gnu_cxx17__normal_iteratorIPiS1_EERKi$lazy_pointer
0x00036A40	0x00000008	[  0] __ZNSt8_Rb_treeIP10CInfoBlockS1_St9_IdentityIS1_E7CIPCompSaIS1_EE16_M_insert_uniqueERKS1_$lazy_pointer
0x00036A48	0x00000008	[  0] __ZNSt8_Rb_treeIP10CInfoBlockS1_St9_IdentityIS1_E7CIPCompSaIS1_EE5eraseERKS1_$lazy_pointer
0x00036A50	0x00000008	[  0] __ZNSt8_Rb_treeIP10CInfoBlockS1_St9_IdentityIS1_E7CIPCompSaIS1_EE8_M_eraseEPSt13_Rb_tree_nodeIS1_E$lazy_pointer
0x00036A58	0x00000008	[  0] __ZNSt8_Rb_treeIP10CInfoBlockS1_St9_IdentityIS1_E7CIPCompSaIS1_EE9_M_insertEPSt18_Rb_tree_node_baseS8_RKS1_$lazy_pointer
0x00036A60	0x00000008	[  0] __ZNSt8_Rb_treeIP10CInfoBlockS1_St9_IdentityIS1_E7CTSCompSaIS1_EE16_M_insert_uniqueERKS1_$lazy_pointer
0x00036A68	0x00000008	[  0] __ZNSt8_Rb_treeIP10CInfoBlockS1_St9_IdentityIS1_E7CTSCompSaIS1_EE5eraseERKS1_$lazy_pointer
0x00036A70	0x00000008	[  0] __ZNSt8_Rb_treeIP10CInfoBlockS1_St9_IdentityIS1_E7CTSCompSaIS1_EE8_M_eraseEPSt13_Rb_tree_nodeIS1_E$lazy_pointer
0x00036A78	0x00000008	[  0] __ZNSt8_Rb_treeIP10CInfoBlockS1_St9_IdentityIS1_E7CTSCompSaIS1_EE9_M_insertEPSt18_Rb_tree_node_baseS8_RKS1_$lazy_pointer
0x00036A80	0x00000008	[  0] __ZNSt8_Rb_treeIiSt4pairIKi10CEPollDescESt10_Select1stIS3_ESt4lessIiESaIS3_EE16_M_insert_uniqueERKS3_$lazy_pointer
0x00036A88	0x00000008	[  0] __ZNSt8_Rb_treeIiSt4pairIKi10CEPollDescESt10_Select1stIS3_ESt4lessIiESaIS3_EE16_M_insert_uniqueESt17_Rb_tree_iteratorIS3_ERKS3_$lazy_pointer
0x00036A90	0x00000008	[  0] __ZNSt8_Rb_treeIiSt4pairIKi10CEPollDescESt10_Select1stIS3_ESt4lessIiESaIS3_EE8_M_eraseEPSt13_Rb_tree_nodeIS3_E$lazy_pointer
0x00036A98	0x00000008	[  0] __ZNSt8_Rb_treeIiSt4pairIKi10CEPollDescESt10_Select1stIS3_ESt4lessIiESaIS3_EE9_M_insertEPSt18_Rb_tree_node_baseSB_RKS3_$lazy_pointer
0x00036AA0	0x00000008	[  0] __ZNSt8_Rb_treeIiSt4pairIKi12CMultiplexerESt10_Select1stIS3_ESt4lessIiESaIS3_EE16_M_insert_uniqueERKS3_$lazy_pointer
0x00036AA8	0x00000008	[  0] __ZNSt8_Rb_treeIiSt4pairIKi12CMultiplexerESt10_Select1stIS3_ESt4lessIiESaIS3_EE16_M_insert_uniqueESt17_Rb_tree_iteratorIS3_ERKS3_$lazy_pointer
0x00036AB0	0x00000008	[  0] __ZNSt8_Rb_treeIiSt4pairIKi12CMultiplexerESt10_Select1stIS3_ESt4lessIiESaIS3_EE8_M_eraseEPSt13_Rb_tree_nodeIS3_E$lazy_pointer
0x00036AB8	0x00000008	[  0] __ZNSt8_Rb_treeIiSt4pairIKi12CMultiplexerESt10_Select1stIS3_ESt4lessIiESaIS3_EE9_M_insertEPSt18_Rb_tree_node_baseSB_RKS3_$lazy_pointer
0x00036AC0	0x00000008	[  0] __ZNSt8_Rb_treeIiSt4pairIKiP10CUDTSocketESt10_Select1stIS4_ESt4lessIiESaIS4_EE16_M_insert_uniqueERKS4_$lazy_pointer
0x00036AC8	0x00000008	[  0] __ZNSt8_Rb_treeIiSt4pairIKiP10CUDTSocketESt10_Select1stIS4_ESt4lessIiESaIS4_EE16_M_insert_uniqueESt17_Rb_tree_iteratorIS4_ERKS4_$lazy_pointer
0x00036AD0	0x00000008	[  0] __ZNSt8_Rb_treeIiSt4pairIKiP10CUDTSocketESt10_Select1stIS4_ESt4lessIiESaIS4_EE5eraseERS1_$lazy_pointer
0x00036AD8	0x00000008	[  0] __ZNSt8_Rb_treeIiSt4pairIKiP10CUDTSocketESt10_Select1stIS4_ESt4lessIiESaIS4_EE8_M_eraseEPSt13_Rb_tree_nodeIS4_E$lazy_pointer
0x00036AE0	0x00000008	[  0] __ZNSt8_Rb_treeIiSt4pairIKiP10CUDTSocketESt10_Select1stIS4_ESt4lessIiESaIS4_EE9_M_insertEPSt18_Rb_tree_node_baseSC_RKS4_$lazy_pointer
0x00036AE8	0x00000008	[  0] __ZNSt8_Rb_treeIiSt4pairIKiSt5queueIP7CPacketSt5dequeIS4_SaIS4_EEEESt10_Select1stIS9_ESt4lessIiESaIS9_EE16_M_insert_uniqueERKS9_$lazy_pointer
0x00036AF0	0x00000008	[  0] __ZNSt8_Rb_treeIiSt4pairIKiSt5queueIP7CPacketSt5dequeIS4_SaIS4_EEEESt10_Select1stIS9_ESt4lessIiESaIS9_EE16_M_insert_uniqueESt17_Rb_tree_iteratorIS9_ERKS9_$lazy_pointer
0x00036AF8	0x00000008	[  0] __ZNSt8_Rb_treeIiSt4pairIKiSt5queueIP7CPacketSt5dequeIS4_SaIS4_EEEESt10_Select1stIS9_ESt4lessIiESaIS9_EE8_M_eraseEPSt13_Rb_tree_nodeIS9_E$lazy_pointer
0x00036B00	0x00000008	[  0] __ZNSt8_Rb_treeIiSt4pairIKiSt5queueIP7CPacketSt5dequeIS4_SaIS4_EEEESt10_Select1stIS9_ESt4lessIiESaIS9_EE9_M_insertEPSt18_Rb_tree_node_baseSH_RKS9_$lazy_pointer
0x00036B08	0x00000008	[  0] __ZNSt8_Rb_treeIiiSt9_IdentityIiESt4lessIiESaIiEE16_M_insert_uniqueERKi$lazy_pointer
0x00036B10	0x00000008	[  0] __ZNSt8_Rb_treeIiiSt9_IdentityIiESt4lessIiESaIiEE16_M_insert_uniqueESt23_Rb_tree_const_iteratorIiERKi$lazy_pointer
0x00036B18	0x00000008	[  0] __ZNSt8_Rb_treeIiiSt9_IdentityIiESt4lessIiESaIiEE5eraseERKi$lazy_pointer
0x00036B20	0x00000008	[  0] __ZNSt8_Rb_treeIiiSt9_IdentityIiESt4lessIiESaIiEE7_M_copyEPKSt13_Rb_tree_nodeIiEPS7_$lazy_pointer
0x00036B28	0x00000008	[  0] __ZNSt8_Rb_treeIiiSt9_IdentityIiESt4lessIiESaIiEE8_M_eraseEPSt13_Rb_tree_nodeIiE$lazy_pointer
0x00036B30	0x00000008	[  0] __ZNSt8_Rb_treeIiiSt9_IdentityIiESt4lessIiESaIiEE9_M_insertEPSt18_Rb_tree_node_baseS7_RKi$lazy_pointer
0x00036B38	0x00000008	[  0] __ZNSt8_Rb_treeIxSt4pairIKxSt3setIiSt4lessIiESaIiEEESt10_Select1stIS7_ES3_IxESaIS7_EE16_M_insert_uniqueERKS7_$lazy_pointer
0x00036B40	0x00000008	[  0] __ZNSt8_Rb_treeIxSt4pairIKxSt3setIiSt4lessIiESaIiEEESt10_Select1stIS7_ES3_IxESaIS7_EE16_M_insert_uniqueESt17_Rb_tree_iteratorIS7_ERKS7_$lazy_pointer
0x00036B48	0x00000008	[  0] __ZNSt8_Rb_treeIxSt4pairIKxSt3setIiSt4lessIiESaIiEEESt10_Select1stIS7_ES3_IxESaIS7_EE8_M_eraseEPSt13_Rb_tree_nodeIS7_E$lazy_pointer
0x00036B50	0x00000008	[  0] __ZNSt8_Rb_treeIxSt4pairIKxSt3setIiSt4lessIiESaIiEEESt10_Select1stIS7_ES3_IxESaIS7_EE9_M_insertEPSt18_Rb_tree_node_baseSE_RKS7_$lazy_pointer
0x00036B58	0x00000008	[  0] __ZSt17__throw_bad_allocv$lazy_pointer
0x00036B60	0x00000008	[  0] __ZSt18_Rb_tree_decrementPKSt18_Rb_tree_node_base$lazy_pointer
0x00036B68	0x00000008	[  0] __ZSt18_Rb_tree_decrementPSt18_Rb_tree_node_base$lazy_pointer
0x00036B70	0x00000008	[  0] __ZSt18_Rb_tree_incrementPKSt18_Rb_tree_node_base$lazy_pointer
0x00036B78	0x00000008	[  0] __ZSt18_Rb_tree_incrementPSt18_Rb_tree_node_base$lazy_pointer
0x00036B80	0x00000008	[  0] __ZSt20__throw_length_errorPKc$lazy_pointer
0x00036B88	0x00000008	[  0] __ZSt28_Rb_tree_rebalance_for_erasePSt18_Rb_tree_node_baseRS_$lazy_pointer
0x00036B90	0x00000008	[  0] __ZSt29_Rb_tree_insert_and_rebalancebPSt18_Rb_tree_node_baseS0_RS_$lazy_pointer
0x00036B98	0x00000008	[  0] __ZSt9terminatev$lazy_pointer
0x00036BA0	0x00000008	[  0] __ZdaPv$lazy_pointer
0x00036BA8	0x00000008	[  0] __ZdlPv$lazy_pointer
0x00036BB0	0x00000008	[  0] __Znam$lazy_pointer
0x00036BB8	0x00000008	[  0] __Znwm$lazy_pointer
0x00036BC0	0x00000008	[  0] ___cxa_allocate_exception$lazy_pointer
0x00036BC8	0x00000008	[  0] ___cxa_atexit$lazy_pointer
0x00036BD0	0x00000008	[  0] ___cxa_begin_catch$lazy_pointer
0x00036BD8	0x00000008	[  0] ___cxa_end_catch$lazy_pointer
0x00036BE0	0x00000008	[  0] ___cxa_free_exception$lazy_pointer
0x00036BE8	0x00000008	[  0] ___cxa_get_exception_ptr$lazy_pointer
0x00036BF0	0x00000008	[  0] ___cxa_rethrow$lazy_pointer
0x00036BF8	0x00000008	[  0] ___cxa_throw$lazy_pointer
0x00036C00	0x00000008	[  0] ___error$lazy_pointer
0x00036C08	0x00000008	[  0] ___stack_chk_fail$lazy_pointer
0x00036C10	0x00000008	[  0] _bind$lazy_pointer
0x00036C18	0x00000008	[  0] _ceil$lazy_pointer
0x00036C20	0x00000008	[  0] _close$lazy_pointer
0x00036C28	0x00000008	[  0] _free$lazy_pointer
0x00036C30	0x00000008	[  0] _freeaddrinfo$lazy_pointer
0x00036C38	0x00000008	[  0] _getaddrinfo$lazy_pointer
0x00036C40	0x00000008	[  0] _getnameinfo$lazy_pointer
0x00036C48	0x00000008	[  0] _getpeername$lazy_pointer
0x00036C50	0x00000008	[  0] _getsockname$lazy_pointer
0x00036C58	0x00000008	[  0] _getsockopt$lazy_pointer
0x00036C60	0x00000008	[  0] _gettimeofday$lazy_pointer
0x00036C68	0x00000008	[  0] _log10$lazy_pointer
0x00036C70	0x00000008	[  0] _malloc$lazy_pointer
0x00036C78	0x00000008	[  0] _md5_append$lazy_pointer
0x00036C80	0x00000008	[  0] _md5_finish$lazy_pointer
0x00036C88	0x00000008	[  0] _md5_init$lazy_pointer
0x00036C90	0x00000008	[  0] _memcpy$lazy_pointer
0x00036C98	0x00000008	[  0] _memmove$lazy_pointer
0x00036CA0	0x00000008	[  0] _memset$lazy_pointer
0x00036CA8	0x00000008	[  0] _nanosleep$lazy_pointer
0x00036CB0	0x00000008	[  0] _pow$lazy_pointer
0x00036CB8	0x00000008	[  0] _printf$lazy_pointer
0x00036CC0	0x00000008	[  0] _pthread_cond_broadcast$lazy_pointer
0x00036CC8	0x00000008	[  0] _pthread_cond_destroy$lazy_pointer
0x00036CD0	0x00000008	[  0] _pthread_cond_init$lazy_pointer
0x00036CD8	0x00000008	[  0] _pthread_cond_signal$lazy_pointer
0x00036CE0	0x00000008	[  0] _pthread_cond_timedwait$lazy_pointer
0x00036CE8	0x00000008	[  0] _pthread_cond_wait$lazy_pointer
0x00036CF0	0x00000008	[  0] _pthread_create$lazy_pointer
0x00036CF8	0x00000008	[  0] _pthread_getspecific$lazy_pointer
0x00036D00	0x00000008	[  0] _pthread_join$lazy_pointer
0x00036D08	0x00000008	[  0] _pthread_key_create$lazy_pointer
0x00036D10	0x00000008	[  0] _pthread_key_delete$lazy_pointer
0x00036D18	0x00000008	[  0] _pthread_mutex_destroy$lazy_pointer
0x00036D20	0x00000008	[  0] _pthread_mutex_init$lazy_pointer
0x00036D28	0x00000008	[  0] _pthread_mutex_lock$lazy_pointer
0x00036D30	0x00000008	[  0] _pthread_mutex_trylock$lazy_pointer
0x00036D38	0x00000008	[  0] _pthread_mutex_unlock$lazy_pointer
0x00036D40	0x00000008	[  0] _pthread_setspecific$lazy_pointer
0x00036D48	0x00000008	[  0] _puts$lazy_pointer
0x00036D50	0x00000008	[  0] _rand$lazy_pointer
0x00036D58	0x00000008	[  0] _recvmsg$lazy_pointer
0x00036D60	0x00000008	[  0] _select$1050$lazy_pointer
0x00036D68	0x00000008	[  0] _sendmsg$lazy_pointer
0x00036D70	0x00000008	[  0] _setsockopt$lazy_pointer
0x00036D78	0x00000008	[  0] _socket$lazy_pointer
0x00036D80	0x00000008	[  0] _sprintf$lazy_pointer
0x00036D88	0x00000008	[  0] _srand$lazy_pointer
0x00036D90	0x00000008	[  0] _strerror_r$lazy_pointer
0x00036D98	0x00000008	[  0] _strlen$lazy_pointer
0x00036DA0	0x00000008	[  0] _usleep$lazy_pointer
0x00036DC0	0x00000030	[  2] __ZTV10CCCFactoryI6CUDTCCE
0x00036DF0	0x00000020	[  2] __ZTI10CCCFactoryI6CUDTCCE
0x00036E10	0x00000010	[  2] __ZTI17CCCVirtualFactory
0x00036E20	0x00000030	[  2] __ZTV17CCCVirtualFactory
0x00036E60	0x00000040	[  3] __ZTV13CUDTException
0x00036EA0	0x00000010	[  3] __ZTI13CUDTException
0x00036EC0	0x00000060	[  7] __ZTV6CUDTCC
0x00036F20	0x00000060	[  7] __ZTV3CCC
0x00036F80	0x00000020	[  7] __ZTI6CUDTCC
0x00036FA0	0x00000010	[  7] __ZTI3CCC
0x00036FC0	0x00000040	[  3] __ZN6CTimer11m_EventLockE
0x00037000	0x00000030	[  3] __ZN6CTimer11m_EventCondE
0x00037040	0x00000318	[  2] __ZN4CUDT11s_UDTUnitedE
0x00037358	0x00000008	[  3] __ZN6CTimer17s_ullCPUFrequencyE
0x00037360	0x00000008	[  5] __ZL21jdk_clsSet_iteratorID
0x00037368	0x00000008	[  5] __ZL22jdk_clsIterator_nextID
0x00037370	0x00000008	[  5] __ZL25jdk_clsIterator_hasNextID
0x00037378	0x00000008	[  5] __ZL13udts_SocketID
0x00037380	0x00000008	[  5] __ZL21udts_IsSelectedReadID
0x00037388	0x00000008	[  5] __ZL22udts_IsSelectedWriteID
0x00037390	0x00000008	[  5] __ZL26udts_IsSelectedExceptionID
0x00037398	0x00000008	[  5] __ZL14udts_MonitorID
0x000373A0	0x00000008	[  5] __ZL16udtm_msTimeStamp
0x000373A8	0x00000008	[  5] __ZL17udtm_pktSentTotal
0x000373B0	0x00000008	[  5] __ZL17udtm_pktRecvTotal
0x000373B8	0x00000008	[  5] __ZL20udtm_pktSndLossTotal
0x000373C0	0x00000008	[  5] __ZL20udtm_pktRcvLossTotal
0x000373C8	0x00000008	[  5] __ZL20udtm_pktRetransTotal
0x000373D0	0x00000008	[  5] __ZL20udtm_pktSentACKTotal
0x000373D8	0x00000008	[  5] __ZL20udtm_pktRecvACKTotal
0x000373E0	0x00000008	[  5] __ZL20udtm_pktSentNAKTotal
0x000373E8	0x00000008	[  5] __ZL20udtm_pktRecvNAKTotal
0x000373F0	0x00000008	[  5] __ZL23udtm_usSndDurationTotal
0x000373F8	0x00000008	[  5] __ZL12udtm_pktSent
0x00037400	0x00000008	[  5] __ZL12udtm_pktRecv
0x00037408	0x00000008	[  5] __ZL15udtm_pktSndLoss
0x00037410	0x00000008	[  5] __ZL15udtm_pktRcvLoss
0x00037418	0x00000008	[  5] __ZL15udtm_pktRetrans
0x00037420	0x00000008	[  5] __ZL15udtm_pktSentACK
0x00037428	0x00000008	[  5] __ZL15udtm_pktRecvACK
0x00037430	0x00000008	[  5] __ZL15udtm_pktSentNAK
0x00037438	0x00000008	[  5] __ZL15udtm_pktRecvNAK
0x00037440	0x00000008	[  5] __ZL17udtm_mbpsSendRate
0x00037448	0x00000008	[  5] __ZL17udtm_mbpsRecvRate
0x00037450	0x00000008	[  5] __ZL18udtm_usSndDuration
0x00037458	0x00000008	[  5] __ZL19udtm_usPktSndPeriod
0x00037460	0x00000008	[  5] __ZL18udtm_pktFlowWindow
0x00037468	0x00000008	[  5] __ZL24udtm_pktCongestionWindow
0x00037470	0x00000008	[  5] __ZL18udtm_pktFlightSize
0x00037478	0x00000008	[  5] __ZL10udtm_msRTT
0x00037480	0x00000008	[  5] __ZL18udtm_mbpsBandwidth
0x00037488	0x00000008	[  5] __ZL20udtm_byteAvailSndBuf
0x00037490	0x00000008	[  5] __ZL20udtm_byteAvailRcvBuf
0x00037498	0x00000008	[  5] __ZL14jdk_clsBoolean
0x000374A0	0x00000008	[  5] __ZL14jdk_clsInteger
0x000374A8	0x00000008	[  5] __ZL16udt_clsLingerUDT
0x000374B0	0x00000008	[  5] __ZL11jdk_clsLong
0x000374B8	0x00000008	[  5] __ZL17udt_clsFactoryUDT
0x000374C0	0x00000008	[  5] __ZL25udts_LocalSocketAddressID
0x000374C8	0x00000008	[  5] __ZL26udts_RemoteSocketAddressID
0x000374D0	0x00000008	[  5] __ZL11udts_TypeID
0x000374D8	0x00000008	[  5] __ZL24udt_clsSocketUDT_initID1
0x000374E0	0x00000008	[  5] __ZL16udt_clsSocketUDT
0x000374E8	0x00000008	[  5] __ZL21jdk_clsBoolean_initID
0x000374F0	0x00000008	[  5] __ZL21jdk_clsInteger_initID
0x000374F8	0x00000008	[  5] __ZL18jdk_clsLong_initID
0x00037500	0x00000008	[  5] __ZL19jdk_clsInet4Address
0x00037508	0x00000008	[  5] __ZL26jdk_clsInet4Address_initID
0x00037510	0x00000008	[  5] __ZL24jdk_clsInetSocketAddress
0x00037518	0x00000008	[  5] __ZL31jdk_clsInetSocketAddress_initID
0x00037520	0x00000008	[  5] __ZL10jdk_clsSet
0x00037528	0x00000008	[  5] __ZL16jdk_clsSet_addID
0x00037530	0x00000008	[  5] __ZL21jdk_clsSet_containsID
0x00037538	0x00000008	[  5] __ZL15jdk_clsIterator
0x00037540	0x00000008	[  5] __ZL19udt_clsExceptionUDT
0x00037548	0x00000008	[  5] __ZL27udt_clsExceptionUDT_initID0
0x00037550	0x00000008	[  5] __ZL23udt_clsLingerUDT_initID
0x00037558	0x00000008	[  5] __ZL12ia_AddressID
0x00037560	0x00000008	[  5] __ZL17isa_InetAddressID
0x00037568	0x00000008	[  5] __ZL10isa_PortID
0x00037570	0x00000008	[  5] __ZL14udt_clsTypeUDT
0x00037578	0x00000008	[  5] __ZL15udtt_TypeCodeID
0x00037580	0x00000008	[  5] __ZL19jdk_clsInet6Address
0x00037588	0x00000008	[  5] __ZL22jdk_clsSocketException
0x00037590	0x00000008	[  5] __ZL17udt_clsMonitorUDT
