
Discarded input sections

 .note.GNU-stack
                0x0000000000000000        0x0 /usr/lib/gcc/x86_64-linux-gnu/4.4.3/../../../../lib/crti.o
 .gnu_debuglink
                0x0000000000000000        0xc /usr/lib/gcc/x86_64-linux-gnu/4.4.3/../../../../lib/crti.o
 .note.GNU-stack
                0x0000000000000000        0x0 /usr/lib/gcc/x86_64-linux-gnu/4.4.3/crtbeginS.o
 .group         0x0000000000000000        0x8 channel.o
 .note.GNU-stack
                0x0000000000000000        0x0 channel.o
 .group         0x0000000000000000        0x8 core.o
 .group         0x0000000000000000        0x8 core.o
 .group         0x0000000000000000        0x8 core.o
 .group         0x0000000000000000        0x8 core.o
 .group         0x0000000000000000        0x8 core.o
 .group         0x0000000000000000        0x8 core.o
 .group         0x0000000000000000        0x8 core.o
 .group         0x0000000000000000        0x8 core.o
 .group         0x0000000000000000        0x8 core.o
 .group         0x0000000000000000        0x8 core.o
 .group         0x0000000000000000        0x8 core.o
 .group         0x0000000000000000        0x8 core.o
 .group         0x0000000000000000        0x8 core.o
 .group         0x0000000000000000        0x8 core.o
 .group         0x0000000000000000        0x8 core.o
 .group         0x0000000000000000        0x8 core.o
 .data.DW.ref.__gxx_personality_v0
                0x0000000000000000        0x8 core.o
 .note.GNU-stack
                0x0000000000000000        0x0 core.o
 .group         0x0000000000000000        0x8 common.o
 .group         0x0000000000000000        0x8 common.o
 .group         0x0000000000000000        0x8 common.o
 .group         0x0000000000000000        0x8 common.o
 .data.DW.ref.__gxx_personality_v0
                0x0000000000000000        0x8 common.o
 .note.GNU-stack
                0x0000000000000000        0x0 common.o
 .group         0x0000000000000000        0x8 packet.o
 .data.DW.ref.__gxx_personality_v0
                0x0000000000000000        0x8 packet.o
 .note.GNU-stack
                0x0000000000000000        0x0 packet.o
 .group         0x0000000000000000        0x8 com_barchart_udt_SocketUDT.o
 .group         0x0000000000000000        0x8 com_barchart_udt_SocketUDT.o
 .group         0x0000000000000000        0x8 com_barchart_udt_SocketUDT.o
 .group         0x0000000000000000        0x8 com_barchart_udt_SocketUDT.o
 .group         0x0000000000000000        0x8 com_barchart_udt_SocketUDT.o
 .group         0x0000000000000000        0x8 com_barchart_udt_SocketUDT.o
 .group         0x0000000000000000        0x8 com_barchart_udt_SocketUDT.o
 .group         0x0000000000000000        0x8 com_barchart_udt_SocketUDT.o
 .group         0x0000000000000000        0x8 com_barchart_udt_SocketUDT.o
 .group         0x0000000000000000        0x8 com_barchart_udt_SocketUDT.o
 .text._ZNSt8_Rb_treeIiiSt9_IdentityIiESt4lessIiESaIiEE8_M_eraseEPSt13_Rb_tree_nodeIiE
                0x0000000000000000      0x1b1 com_barchart_udt_SocketUDT.o
 .text._ZNSt3setIiSt4lessIiESaIiEED1Ev
                0x0000000000000000       0x17 com_barchart_udt_SocketUDT.o
 .data.DW.ref.__gxx_personality_v0
                0x0000000000000000        0x8 com_barchart_udt_SocketUDT.o
 .note.GNU-stack
                0x0000000000000000        0x0 com_barchart_udt_SocketUDT.o
 .group         0x0000000000000000        0x8 api.o
 .group         0x0000000000000000        0x8 api.o
 .group         0x0000000000000000        0x8 api.o
 .group         0x0000000000000000        0x8 api.o
 .group         0x0000000000000000        0x8 api.o
 .group         0x0000000000000000        0x8 api.o
 .group         0x0000000000000000        0x8 api.o
 .group         0x0000000000000000        0x8 api.o
 .group         0x0000000000000000        0x8 api.o
 .group         0x0000000000000000        0x8 api.o
 .group         0x0000000000000000        0x8 api.o
 .group         0x0000000000000000        0x8 api.o
 .group         0x0000000000000000        0x8 api.o
 .group         0x0000000000000000        0x8 api.o
 .group         0x0000000000000000        0x8 api.o
 .group         0x0000000000000000        0x8 api.o
 .group         0x0000000000000000        0x8 api.o
 .group         0x0000000000000000        0x8 api.o
 .group         0x0000000000000000        0x8 api.o
 .group         0x0000000000000000        0x8 api.o
 .group         0x0000000000000000        0x8 api.o
 .group         0x0000000000000000        0x8 api.o
 .group         0x0000000000000000        0x8 api.o
 .group         0x0000000000000000        0x8 api.o
 .group         0x0000000000000000        0x8 api.o
 .group         0x0000000000000000        0x8 api.o
 .text._ZNSt8_Rb_treeIiiSt9_IdentityIiESt4lessIiESaIiEE8_M_eraseEPSt13_Rb_tree_nodeIiE
                0x0000000000000000      0x1b1 api.o
 .text._ZNSt3setIiSt4lessIiESaIiEED1Ev
                0x0000000000000000       0x17 api.o
 .text._ZNSt6vectorIiSaIiEE13_M_insert_auxEN9__gnu_cxx17__normal_iteratorIPiS1_EERKi
                0x0000000000000000      0x175 api.o
 .data.DW.ref.__gxx_personality_v0
                0x0000000000000000        0x8 api.o
 .note.GNU-stack
                0x0000000000000000        0x0 api.o
 .group         0x0000000000000000        0x8 ccc.o
 .group         0x0000000000000000        0x8 ccc.o
 .group         0x0000000000000000        0x8 ccc.o
 .group         0x0000000000000000        0x8 ccc.o
 .group         0x0000000000000000        0x8 ccc.o
 .group         0x0000000000000000        0x8 ccc.o
 .group         0x0000000000000000        0x8 ccc.o
 .group         0x0000000000000000        0x8 ccc.o
 .group         0x0000000000000000        0x8 ccc.o
 .group         0x0000000000000000        0x8 ccc.o
 .group         0x0000000000000000        0x8 ccc.o
 .group         0x0000000000000000        0x8 ccc.o
 .group         0x0000000000000000        0x8 ccc.o
 .group         0x0000000000000000        0x8 ccc.o
 .group         0x0000000000000000        0x8 ccc.o
 .group         0x0000000000000000        0x8 ccc.o
 .group         0x0000000000000000        0x8 ccc.o
 .data.DW.ref.__gxx_personality_v0
                0x0000000000000000        0x8 ccc.o
 .note.GNU-stack
                0x0000000000000000        0x0 ccc.o
 .group         0x0000000000000000        0x8 buffer.o
 .data.DW.ref.__gxx_personality_v0
                0x0000000000000000        0x8 buffer.o
 .note.GNU-stack
                0x0000000000000000        0x0 buffer.o
 .group         0x0000000000000000        0x8 epoll.o
 .group         0x0000000000000000        0x8 epoll.o
 .group         0x0000000000000000        0x8 epoll.o
 .group         0x0000000000000000        0x8 epoll.o
 .group         0x0000000000000000        0x8 epoll.o
 .group         0x0000000000000000        0x8 epoll.o
 .group         0x0000000000000000        0x8 epoll.o
 .group         0x0000000000000000        0x8 epoll.o
 .group         0x0000000000000000        0x8 epoll.o
 .group         0x0000000000000000        0x8 epoll.o
 .group         0x0000000000000000        0x8 epoll.o
 .text._ZNSt8_Rb_treeIiiSt9_IdentityIiESt4lessIiESaIiEE10_M_insert_EPKSt18_Rb_tree_node_baseS8_RKi
                0x0000000000000000       0x9b epoll.o
 .text._ZNSt8_Rb_treeIiiSt9_IdentityIiESt4lessIiESaIiEE8_M_eraseEPSt13_Rb_tree_nodeIiE
                0x0000000000000000      0x1b1 epoll.o
 .text._ZNSt3setIiSt4lessIiESaIiEED1Ev
                0x0000000000000000       0x17 epoll.o
 .text._ZNSt8_Rb_treeIiiSt9_IdentityIiESt4lessIiESaIiEE7_M_copyEPKSt13_Rb_tree_nodeIiEPS7_
                0x0000000000000000      0x114 epoll.o
 .text._ZNSt6vectorIiSaIiEE13_M_insert_auxEN9__gnu_cxx17__normal_iteratorIPiS1_EERKi
                0x0000000000000000      0x175 epoll.o
 .data.DW.ref.__gxx_personality_v0
                0x0000000000000000        0x8 epoll.o
 .note.GNU-stack
                0x0000000000000000        0x0 epoll.o
 .group         0x0000000000000000        0x8 window.o
 .data.DW.ref.__gxx_personality_v0
                0x0000000000000000        0x8 window.o
 .note.GNU-stack
                0x0000000000000000        0x0 window.o
 .group         0x0000000000000000        0x8 md5.o
 .data.DW.ref.__gxx_personality_v0
                0x0000000000000000        0x8 md5.o
 .note.GNU-stack
                0x0000000000000000        0x0 md5.o
 .group         0x0000000000000000        0x8 list.o
 .data.DW.ref.__gxx_personality_v0
                0x0000000000000000        0x8 list.o
 .note.GNU-stack
                0x0000000000000000        0x0 list.o
 .group         0x0000000000000000        0x8 cache.o
 .group         0x0000000000000000        0x8 cache.o
 .group         0x0000000000000000        0x8 cache.o
 .group         0x0000000000000000        0x8 cache.o
 .group         0x0000000000000000        0x8 cache.o
 .data.DW.ref.__gxx_personality_v0
                0x0000000000000000        0x8 cache.o
 .note.GNU-stack
                0x0000000000000000        0x0 cache.o
 .group         0x0000000000000000        0x8 queue.o
 .group         0x0000000000000000        0x8 queue.o
 .group         0x0000000000000000        0x8 queue.o
 .group         0x0000000000000000        0x8 queue.o
 .group         0x0000000000000000        0x8 queue.o
 .group         0x0000000000000000        0x8 queue.o
 .group         0x0000000000000000        0x8 queue.o
 .group         0x0000000000000000        0x8 queue.o
 .group         0x0000000000000000        0x8 queue.o
 .data.DW.ref.__gxx_personality_v0
                0x0000000000000000        0x8 queue.o
 .note.GNU-stack
                0x0000000000000000        0x0 queue.o
 .note.GNU-stack
                0x0000000000000000        0x0 /usr/lib/gcc/x86_64-linux-gnu/4.4.3/crtendS.o
 .note.GNU-stack
                0x0000000000000000        0x0 /usr/lib/gcc/x86_64-linux-gnu/4.4.3/../../../../lib/crtn.o
 .gnu_debuglink
                0x0000000000000000        0xc /usr/lib/gcc/x86_64-linux-gnu/4.4.3/../../../../lib/crtn.o

Memory Configuration

Name             Origin             Length             Attributes
*default*        0x0000000000000000 0xffffffffffffffff

Linker script and memory map

LOAD /usr/lib/gcc/x86_64-linux-gnu/4.4.3/../../../../lib/crti.o
LOAD /usr/lib/gcc/x86_64-linux-gnu/4.4.3/crtbeginS.o
LOAD channel.o
LOAD core.o
LOAD common.o
LOAD packet.o
LOAD com_barchart_udt_SocketUDT.o
LOAD api.o
LOAD ccc.o
LOAD buffer.o
LOAD epoll.o
LOAD window.o
LOAD md5.o
LOAD list.o
LOAD cache.o
LOAD queue.o
LOAD /usr/lib/gcc/x86_64-linux-gnu/4.4.3/libstdc++.so
LOAD /usr/lib/gcc/x86_64-linux-gnu/4.4.3/../../../../lib/libpthread.so
START GROUP
LOAD /lib/libpthread.so.0
LOAD /usr/lib/libpthread_nonshared.a
END GROUP
LOAD /usr/lib/gcc/x86_64-linux-gnu/4.4.3/libgcc.a
LOAD /usr/lib/gcc/x86_64-linux-gnu/4.4.3/libgcc_s.so
LOAD /usr/lib/gcc/x86_64-linux-gnu/4.4.3/../../../../lib/libc.so
START GROUP
LOAD /lib/libc.so.6
LOAD /usr/lib/libc_nonshared.a
LOAD /lib/ld-linux-x86-64.so.2
END GROUP
LOAD /usr/lib/gcc/x86_64-linux-gnu/4.4.3/libgcc.a
LOAD /usr/lib/gcc/x86_64-linux-gnu/4.4.3/libgcc_s.so
LOAD /usr/lib/gcc/x86_64-linux-gnu/4.4.3/crtendS.o
LOAD /usr/lib/gcc/x86_64-linux-gnu/4.4.3/../../../../lib/crtn.o
                0x00000000000001c8                . = (0x0 + SIZEOF_HEADERS)

.note.gnu.build-id
                0x00000000000001c8       0x24
 *(.note.gnu.build-id)
 .note.gnu.build-id
                0x00000000000001c8       0x24 /usr/lib/gcc/x86_64-linux-gnu/4.4.3/../../../../lib/crti.o

.hash           0x00000000000001f0     0x12e8
 *(.hash)
 .hash          0x00000000000001f0     0x12e8 /usr/lib/gcc/x86_64-linux-gnu/4.4.3/../../../../lib/crti.o

.gnu.hash       0x00000000000014d8     0x137c
 *(.gnu.hash)
 .gnu.hash      0x00000000000014d8     0x137c /usr/lib/gcc/x86_64-linux-gnu/4.4.3/../../../../lib/crti.o

.dynsym         0x0000000000002858     0x4068
 *(.dynsym)
 .dynsym        0x0000000000002858     0x4068 /usr/lib/gcc/x86_64-linux-gnu/4.4.3/../../../../lib/crti.o

.dynstr         0x00000000000068c0     0x551b
 *(.dynstr)
 .dynstr        0x00000000000068c0     0x551b /usr/lib/gcc/x86_64-linux-gnu/4.4.3/../../../../lib/crti.o

.gnu.version    0x000000000000bddc      0x55e
 *(.gnu.version)
 .gnu.version   0x000000000000bddc      0x55e /usr/lib/gcc/x86_64-linux-gnu/4.4.3/../../../../lib/crti.o

.gnu.version_d  0x000000000000c340        0x0 load address 0x000000000000c33a
 *(.gnu.version_d)
 .gnu.version_d
                0x0000000000000000        0x0 /usr/lib/gcc/x86_64-linux-gnu/4.4.3/../../../../lib/crti.o

.gnu.version_r  0x000000000000c340       0xe0
 *(.gnu.version_r)
 .gnu.version_r
                0x000000000000c340       0xe0 /usr/lib/gcc/x86_64-linux-gnu/4.4.3/../../../../lib/crti.o

.rela.dyn       0x000000000000c420      0x888
 *(.rela.init)
 *(.rela.text .rela.text.* .rela.gnu.linkonce.t.*)
 .rela.text     0x0000000000000000        0x0 /usr/lib/gcc/x86_64-linux-gnu/4.4.3/../../../../lib/crti.o
 *(.rela.fini)
 *(.rela.rodata .rela.rodata.* .rela.gnu.linkonce.r.*)
 *(.rela.data .rela.data.* .rela.gnu.linkonce.d.*)
 .rela.data.rel
                0x000000000000c420       0x18 /usr/lib/gcc/x86_64-linux-gnu/4.4.3/../../../../lib/crti.o
 .rela.data.DW.ref.__gxx_personality_v0
                0x000000000000c438       0x18 /usr/lib/gcc/x86_64-linux-gnu/4.4.3/../../../../lib/crti.o
 .rela.data.rel.ro._ZTV10CCCFactoryI6CUDTCCE
                0x000000000000c450       0x78 /usr/lib/gcc/x86_64-linux-gnu/4.4.3/../../../../lib/crti.o
 .rela.data.rel.ro._ZTI10CCCFactoryI6CUDTCCE
                0x000000000000c4c8       0x48 /usr/lib/gcc/x86_64-linux-gnu/4.4.3/../../../../lib/crti.o
 .rela.data.rel.ro._ZTI17CCCVirtualFactory
                0x000000000000c510       0x30 /usr/lib/gcc/x86_64-linux-gnu/4.4.3/../../../../lib/crti.o
 .rela.data.rel.ro._ZTV17CCCVirtualFactory
                0x000000000000c540       0x78 /usr/lib/gcc/x86_64-linux-gnu/4.4.3/../../../../lib/crti.o
 .rela.data.rel.ro._ZTV13CUDTException
                0x000000000000c5b8       0x90 /usr/lib/gcc/x86_64-linux-gnu/4.4.3/../../../../lib/crti.o
 .rela.data.rel.ro._ZTI13CUDTException
                0x000000000000c648       0x30 /usr/lib/gcc/x86_64-linux-gnu/4.4.3/../../../../lib/crti.o
 .rela.data.DW.ref._ZTI13CUDTException
                0x000000000000c678       0x18 /usr/lib/gcc/x86_64-linux-gnu/4.4.3/../../../../lib/crti.o
 .rela.data.DW.ref._ZTISt9bad_alloc
                0x000000000000c690       0x18 /usr/lib/gcc/x86_64-linux-gnu/4.4.3/../../../../lib/crti.o
 .rela.data.rel.ro._ZTV6CUDTCC
                0x000000000000c6a8      0x108 /usr/lib/gcc/x86_64-linux-gnu/4.4.3/../../../../lib/crti.o
 .rela.data.rel.ro._ZTV3CCC
                0x000000000000c7b0      0x108 /usr/lib/gcc/x86_64-linux-gnu/4.4.3/../../../../lib/crti.o
 .rela.data.rel.ro._ZTI6CUDTCC
                0x000000000000c8b8       0x48 /usr/lib/gcc/x86_64-linux-gnu/4.4.3/../../../../lib/crti.o
 .rela.data.rel.ro._ZTI3CCC
                0x000000000000c900       0x30 /usr/lib/gcc/x86_64-linux-gnu/4.4.3/../../../../lib/crti.o
 *(.rela.tdata .rela.tdata.* .rela.gnu.linkonce.td.*)
 *(.rela.tbss .rela.tbss.* .rela.gnu.linkonce.tb.*)
 *(.rela.ctors)
 .rela.ctors    0x000000000000c930       0x30 /usr/lib/gcc/x86_64-linux-gnu/4.4.3/../../../../lib/crti.o
 *(.rela.dtors)
 *(.rela.got)
 .rela.got      0x000000000000c960      0x348 /usr/lib/gcc/x86_64-linux-gnu/4.4.3/../../../../lib/crti.o
 *(.rela.bss .rela.bss.* .rela.gnu.linkonce.b.*)
 *(.rela.ldata .rela.ldata.* .rela.gnu.linkonce.l.*)
 *(.rela.lbss .rela.lbss.* .rela.gnu.linkonce.lb.*)
 *(.rela.lrodata .rela.lrodata.* .rela.gnu.linkonce.lr.*)
 *(.rela.ifunc)
 .rela.ifunc    0x0000000000000000        0x0 /usr/lib/gcc/x86_64-linux-gnu/4.4.3/../../../../lib/crti.o
 .rela.eh_frame
                0x0000000000000000        0x0 /usr/lib/gcc/x86_64-linux-gnu/4.4.3/../../../../lib/crti.o
 .rela.gcc_except_table
                0x0000000000000000        0x0 /usr/lib/gcc/x86_64-linux-gnu/4.4.3/../../../../lib/crti.o

.rela.plt       0x000000000000cca8     0x2940
 *(.rela.plt)
 .rela.plt      0x000000000000cca8     0x2940 /usr/lib/gcc/x86_64-linux-gnu/4.4.3/../../../../lib/crti.o
 *(.rela.iplt)

.init           0x000000000000f5e8       0x18
 *(.init)
 .init          0x000000000000f5e8        0x9 /usr/lib/gcc/x86_64-linux-gnu/4.4.3/../../../../lib/crti.o
                0x000000000000f5e8                _init
 .init          0x000000000000f5f1        0x5 /usr/lib/gcc/x86_64-linux-gnu/4.4.3/crtbeginS.o
 .init          0x000000000000f5f6        0x5 /usr/lib/gcc/x86_64-linux-gnu/4.4.3/crtendS.o
 .init          0x000000000000f5fb        0x5 /usr/lib/gcc/x86_64-linux-gnu/4.4.3/../../../../lib/crtn.o

.plt            0x000000000000f600     0x1b90
 *(.plt)
 .plt           0x000000000000f600     0x1b90 /usr/lib/gcc/x86_64-linux-gnu/4.4.3/../../../../lib/crti.o
 *(.iplt)

.text           0x0000000000011190    0x264f8
 *(.text.unlikely .text.*_unlikely)
 *(.text .stub .text.* .gnu.linkonce.t.*)
 .text          0x0000000000011190       0x17 /usr/lib/gcc/x86_64-linux-gnu/4.4.3/../../../../lib/crti.o
 *fill*         0x00000000000111a7        0x9 90909090
 .text          0x00000000000111b0       0xaa /usr/lib/gcc/x86_64-linux-gnu/4.4.3/crtbeginS.o
 *fill*         0x000000000001125a        0x6 90909090
 .text          0x0000000000011260      0x73a channel.o
                0x0000000000011260                _ZN8CChannelC2Ev
                0x0000000000011290                _ZN8CChannelC1Ev
                0x00000000000112c0                _ZN8CChannelC2ERKi
                0x00000000000112e0                _ZN8CChannelC1ERKi
                0x0000000000011300                _ZN8CChannelD2Ev
                0x0000000000011310                _ZN8CChannelD1Ev
                0x0000000000011320                _ZN8CChannel13setSndBufSizeERKi
                0x0000000000011330                _ZN8CChannel13setRcvBufSizeERKi
                0x0000000000011340                _ZNK8CChannel8recvfromEP8sockaddrR7CPacket
                0x0000000000011460                _ZNK8CChannel6sendtoEPK8sockaddrR7CPacket
                0x00000000000115e0                _ZNK8CChannel11getPeerAddrEP8sockaddr
                0x0000000000011610                _ZNK8CChannel11getSockAddrEP8sockaddr
                0x0000000000011640                _ZN8CChannel13getRcvBufSizeEv
                0x0000000000011680                _ZN8CChannel13getSndBufSizeEv
                0x00000000000116c0                _ZNK8CChannel5closeEv
                0x00000000000116d0                _ZN8CChannel13setUDPSockOptEv
                0x00000000000117e0                _ZN8CChannel4openEi
                0x00000000000117f0                _ZN8CChannel4openEPK8sockaddr
 *fill*         0x000000000001199a        0x6 90909090
 .text          0x00000000000119a0     0x74a5 core.o
                0x00000000000119e0                _ZN4CUDT6listenEP8sockaddrR7CPacket
                0x0000000000011d20                _ZN4CUDT12releaseSynchEv
                0x0000000000011db0                _ZN4CUDT8sendCtrlERKiPvS2_S1_
                0x00000000000123d0                _ZN4CUDT11checkTimersEv
                0x0000000000012830                _ZN4CUDT11processDataEP5CUnit
                0x0000000000012b90                _ZN4CUDT8packDataER7CPacketRm
                0x0000000000012f90                _ZN4CUDT11processCtrlER7CPacket
                0x0000000000013cb0                _ZN4CUDT12destroySynchEv
                0x0000000000013d30                _ZN4CUDT9initSynchEv
                0x0000000000013dc0                _ZN4CUDT6getOptE6UDTOptPvRi
                0x00000000000140b0                _ZN4CUDT6setOptE6UDTOptPKvRKi
                0x0000000000014800                _ZN4CUDT6sampleEP8CPerfMonb
                0x0000000000014c80                _ZN4CUDT8recvfileERSt13basic_fstreamIcSt11char_traitsIcEERlRKlRKi
                0x0000000000015090                _ZN4CUDT8sendfileERSt13basic_fstreamIcSt11char_traitsIcEERlRKlRKi
                0x0000000000015530                _ZN4CUDT7recvmsgEPcRKi
                0x0000000000015910                _ZN4CUDT7sendmsgEPKcRKiS3_RKb
                0x0000000000015e00                _ZN4CUDT4sendEPKcRKi
                0x00000000000162f0                _ZN4CUDT4recvEPcRKi
                0x0000000000016710                _ZN4CUDT5closeEv
                0x0000000000016970                _ZN4CUDT7connectEPK8sockaddrP10CHandShake
                0x0000000000016ee0                _ZN4CUDT6listenEv
                0x0000000000017050                _ZN4CUDT4openEv
                0x0000000000017370                _ZN4CUDTC1ERKS_
                0x0000000000017520                _ZN4CUDTC2ERKS_
                0x00000000000176d0                _ZN4CUDTC1Ev
                0x0000000000017880                _ZN4CUDTC2Ev
                0x0000000000017a30                _ZN4CUDT11removeEPollEi
                0x0000000000017bd0                _ZN4CUDTD2Ev
                0x0000000000017d20                _ZN4CUDTD1Ev
                0x0000000000017e70                _ZN4CUDT8addEPollEi
                0x00000000000180a0                _ZN4CUDT7connectEPK8sockaddr
 *fill*         0x0000000000018e45        0xb 90909090
 .text._ZN17CCCVirtualFactoryD1Ev
                0x0000000000018e50       0x14 core.o
                0x0000000000018e50                _ZN17CCCVirtualFactoryD1Ev
 *fill*         0x0000000000018e64        0xc 90909090
 .text._ZN10CCCFactoryI6CUDTCCED1Ev
                0x0000000000018e70       0x14 core.o
                0x0000000000018e70                _ZN10CCCFactoryI6CUDTCCED1Ev
 *fill*         0x0000000000018e84        0xc 90909090
 .text._ZN10CCCFactoryI6CUDTCCED0Ev
                0x0000000000018e90       0x18 core.o
                0x0000000000018e90                _ZN10CCCFactoryI6CUDTCCED0Ev
 *fill*         0x0000000000018ea8        0x8 90909090
 .text._ZN17CCCVirtualFactoryD0Ev
                0x0000000000018eb0       0x18 core.o
                0x0000000000018eb0                _ZN17CCCVirtualFactoryD0Ev
 *fill*         0x0000000000018ec8        0x8 90909090
 .text._ZN10CCCFactoryI6CUDTCCE5cloneEv
                0x0000000000018ed0       0x1e core.o
                0x0000000000018ed0                _ZN10CCCFactoryI6CUDTCCE5cloneEv
 *fill*         0x0000000000018eee        0x2 90909090
 .text._ZN13CUDTExceptionaSERKS_
                0x0000000000018ef0       0x50 core.o
                0x0000000000018ef0                _ZN13CUDTExceptionaSERKS_
 .text._ZN10CCCFactoryI6CUDTCCE6createEv
                0x0000000000018f40       0x40 core.o
                0x0000000000018f40                _ZN10CCCFactoryI6CUDTCCE6createEv
 .text._ZNSt8_Rb_treeIiiSt9_IdentityIiESt4lessIiESaIiEE8_M_eraseEPSt13_Rb_tree_nodeIiE
                0x0000000000018f80      0x1b1 core.o
                0x0000000000018f80                _ZNSt8_Rb_treeIiiSt9_IdentityIiESt4lessIiESaIiEE8_M_eraseEPSt13_Rb_tree_nodeIiE
 *fill*         0x0000000000019131        0xf 90909090
 .text._ZNSt3setIiSt4lessIiESaIiEED1Ev
                0x0000000000019140       0x17 core.o
                0x0000000000019140                _ZNSt3setIiSt4lessIiESaIiEED1Ev
 *fill*         0x0000000000019157        0x9 90909090
 .text          0x0000000000019160     0x1143 common.o
                0x0000000000019160                _ZN6CTimer5rdtscERm
                0x0000000000019180                _ZN6CTimer15getCPUFrequencyEv
                0x0000000000019190                _ZN13CUDTExceptionC2ERKS_
                0x00000000000191d0                _ZN13CUDTExceptionC1ERKS_
                0x0000000000019210                _ZNK13CUDTException12getErrorCodeEv
                0x0000000000019230                _ZN13CUDTException5clearEv
                0x0000000000019250                _ZN10CIPAddress5ipcmpEPK8sockaddrS2_RKi
                0x0000000000019340                _ZN10CIPAddress4ntopEPK8sockaddrPjRKi
                0x00000000000193f0                _ZN10CIPAddress4ptonEP8sockaddrPKjRKi
                0x0000000000019480                _ZN4CMD57computeEPKcPh
                0x0000000000019500                _ZN13CUDTExceptionC1Eiii
                0x0000000000019560                _ZN13CUDTExceptionC2Eiii
                0x00000000000195c0                _ZN6CGuard11releaseCondER14pthread_cond_t
                0x00000000000195d0                _ZN6CGuard10createCondER14pthread_cond_t
                0x00000000000195e0                _ZN6CGuard12releaseMutexER15pthread_mutex_t
                0x00000000000195f0                _ZN6CTimerD1Ev
                0x0000000000019620                _ZN6CTimerD2Ev
                0x0000000000019650                _ZN6CGuard11createMutexER15pthread_mutex_t
                0x0000000000019660                _ZN6CTimerC1Ev
                0x00000000000196d0                _ZN6CTimerC2Ev
                0x0000000000019740                _ZN6CGuard7leaveCSER15pthread_mutex_t
                0x0000000000019750                _ZN6CGuardD1Ev
                0x0000000000019770                _ZN6CGuardD2Ev
                0x0000000000019790                _ZN6CGuard7enterCSER15pthread_mutex_t
                0x00000000000197a0                _ZN6CGuardC1ER15pthread_mutex_t
                0x00000000000197d0                _ZN6CGuardC2ER15pthread_mutex_t
                0x0000000000019800                _ZN6CTimer5sleepEv
                0x0000000000019810                _ZN6CTimer7getTimeEv
                0x0000000000019840                _ZN6CTimer12waitForEventEv
                0x00000000000198d0                _ZN6CTimer7sleeptoERKm
                0x00000000000199b0                _ZN6CTimer5sleepERKm
                0x0000000000019a00                _ZN6CTimer12triggerEventEv
                0x0000000000019a20                _ZN6CTimer4tickEv
                0x0000000000019a30                _ZN6CTimer9interruptEv
                0x0000000000019a50                _ZN6CTimer16readCPUFrequencyEv
                0x0000000000019ad0                _ZN13CUDTExceptionD0Ev
                0x0000000000019bc0                _ZN13CUDTExceptionD1Ev
                0x0000000000019ca0                _ZN13CUDTExceptionD2Ev
                0x0000000000019d80                _ZN13CUDTException15getErrorMessageEv
 *fill*         0x000000000001a2a3        0xd 90909090
 .text          0x000000000001a2b0      0x4f5 packet.o
                0x000000000001a2b0                _ZN7CPacketC2Ev
                0x000000000001a320                _ZN7CPacketC1Ev
                0x000000000001a390                _ZN7CPacketD2Ev
                0x000000000001a3a0                _ZN7CPacketD1Ev
                0x000000000001a3b0                _ZNK7CPacket9getLengthEv
                0x000000000001a3c0                _ZN7CPacket9setLengthERKi
                0x000000000001a3d0                _ZN7CPacket4packERKiPvS2_S1_
                0x000000000001a510                _ZN7CPacket15getPacketVectorEv
                0x000000000001a520                _ZNK7CPacket7getFlagEv
                0x000000000001a530                _ZNK7CPacket7getTypeEv
                0x000000000001a540                _ZNK7CPacket15getExtendedTypeEv
                0x000000000001a550                _ZNK7CPacket11getAckSeqNoEv
                0x000000000001a560                _ZNK7CPacket14getMsgBoundaryEv
                0x000000000001a570                _ZNK7CPacket15getMsgOrderFlagEv
                0x000000000001a580                _ZNK7CPacket9getMsgSeqEv
                0x000000000001a590                _ZN10CHandShakeC2Ev
                0x000000000001a5f0                _ZN10CHandShakeC1Ev
                0x000000000001a650                _ZN10CHandShake9serializeEPcRKi
                0x000000000001a6b0                _ZN10CHandShake11deserializeEPKcRKi
                0x000000000001a710                _ZNK7CPacket5cloneEv
 *fill*         0x000000000001a7a5        0xb 90909090
 .text          0x000000000001a7b0     0x4c59 com_barchart_udt_SocketUDT.o
                0x000000000001a7b0                UDT_GetSocketID
                0x000000000001a7d0                UDT_SetSocketID
                0x000000000001a7f0                UDT_InitFieldMonitor
                0x000000000001ac60                UDT_InitFieldRefAll
                0x000000000001ae60                Java_com_barchart_udt_SocketUDT_getSignatureJNI0
                0x000000000001ae70                Java_com_barchart_udt_SocketUDT_testEmptyCall0
                0x000000000001ae80                Java_com_barchart_udt_SocketUDT_testIterateArray0
                0x000000000001aee0                Java_com_barchart_udt_SocketUDT_testMakeArray0
                0x000000000001af00                Java_com_barchart_udt_SocketUDT_testGetSetArray0
                0x000000000001af80                Java_com_barchart_udt_SocketUDT_testFillArray0
                0x000000000001b140                Java_com_barchart_udt_SocketUDT_testFillBuffer0
                0x000000000001b310                Java_com_barchart_udt_SocketUDT_testDirectIntBufferAccess0
                0x000000000001b390                Java_com_barchart_udt_SocketUDT_testDirectByteBufferAccess0
                0x000000000001b400                Java_com_barchart_udt_SocketUDT_testCrashJVM0
                0x000000000001b430                UDT_InitMethodRefAll
                0x000000000001b740                X_InitMethodRef
                0x000000000001b7b0                XXX_ThrowSocketExceptionMessage
                0x000000000001b840                X_InitClassReference
                0x000000000001b8f0                UDT_InitClassRefAll
                0x000000000001ba50                Java_com_barchart_udt_SocketUDT_clearError0
                0x000000000001ba70                Java_com_barchart_udt_SocketUDT_getErrorMessage0
                0x000000000001bad0                Java_com_barchart_udt_SocketUDT_getErrorCode0
                0x000000000001baf0                Java_com_barchart_udt_SocketUDT_testIterateSet0
                0x000000000001bb50                UDT_NewExceptionUDT
                0x000000000001bc00                UDT_ThrowExceptionUDT_ErrorInfo
                0x000000000001bce0                Java_com_barchart_udt_SocketUDT_testInvalidClose0
                0x000000000001bd70                Java_com_barchart_udt_SocketUDT_initInstance1
                0x000000000001be00                UDT_ThrowExceptionUDT_Message
                0x000000000001beb0                X_IsValidRange
                0x000000000001bf20                UDT_NewLingerUDT
                0x000000000001bfb0                X_NewInetAddress
                0x000000000001c090                X_NewLong
                0x000000000001c0f0                X_NewInteger
                0x000000000001c150                X_NewBoolean
                0x000000000001c1a0                UDT_CopySetToArray
                0x000000000001c1f0                Java_com_barchart_udt_SocketUDT_updateMonitor0
                0x000000000001c680                UDT_ReturnSendError
                0x000000000001c710                Java_com_barchart_udt_SocketUDT_send2
                0x000000000001c820                Java_com_barchart_udt_SocketUDT_send1
                0x000000000001c9a0                Java_com_barchart_udt_SocketUDT_send0
                0x000000000001cac0                UDT_ReturnReceiveError
                0x000000000001cb50                Java_com_barchart_udt_SocketUDT_receive2
                0x000000000001cc60                Java_com_barchart_udt_SocketUDT_receive1
                0x000000000001cdd0                Java_com_barchart_udt_SocketUDT_receive0
                0x000000000001cf00                Java_com_barchart_udt_SocketUDT_listen0
                0x000000000001cf90                Java_com_barchart_udt_SocketUDT_setOption0
                0x000000000001d240                Java_com_barchart_udt_SocketUDT_getOption0
                0x000000000001d420                UDT_IsSocketOpen
                0x000000000001d460                Java_com_barchart_udt_SocketUDT_isOpen0
                0x000000000001d470                Java_com_barchart_udt_SocketUDT_close0
                0x000000000001d530                Java_com_barchart_udt_SocketUDT_accept0
                0x000000000001d6c0                Java_com_barchart_udt_SocketUDT_initInstance0
                0x000000000001d770                Java_com_barchart_udt_SocketUDT_stopClass0
                0x000000000001d7f0                Java_com_barchart_udt_SocketUDT_initClass0
                0x000000000001d890                X_IsSockaddrEqualsInetSocketAddress
                0x000000000001d9c0                X_NewInetSocketAddress
                0x000000000001dac0                Java_com_barchart_udt_SocketUDT_hasLoadedLocalSocketAddress
                0x000000000001dba0                Java_com_barchart_udt_SocketUDT_hasLoadedRemoteSocketAddress
                0x000000000001dc80                X_ConvertSockaddrToInetSocketAddress
                0x000000000001dd90                X_ConvertInetSocketAddressToSockaddr
                0x000000000001deb0                X_InitSockAddr
                0x000000000001df00                Java_com_barchart_udt_SocketUDT_connect0
                0x000000000001e050                Java_com_barchart_udt_SocketUDT_bind0
                0x000000000001e170                UDT_CopyArrayToSet
                0x000000000001e2d0                Java_com_barchart_udt_SocketUDT_select0
                0x000000000001e890                Java_com_barchart_udt_SocketUDT_select1
                0x000000000001ec40                Java_com_barchart_udt_SocketUDT_selectEx1
                0x000000000001ee90                Java_com_barchart_udt_SocketUDT_selectEx0
 *fill*         0x000000000001f409        0x7 90909090
 .text._ZN7JNIEnv_16CallObjectMethodEP8_jobjectP10_jmethodIDz
                0x000000000001f410       0x9a com_barchart_udt_SocketUDT.o
                0x000000000001f410                _ZN7JNIEnv_16CallObjectMethodEP8_jobjectP10_jmethodIDz
 *fill*         0x000000000001f4aa        0x6 90909090
 .text._ZN7JNIEnv_17CallBooleanMethodEP8_jobjectP10_jmethodIDz
                0x000000000001f4b0       0x9a com_barchart_udt_SocketUDT.o
                0x000000000001f4b0                _ZN7JNIEnv_17CallBooleanMethodEP8_jobjectP10_jmethodIDz
 *fill*         0x000000000001f54a        0x6 90909090
 .text._ZN7JNIEnv_13CallIntMethodEP8_jobjectP10_jmethodIDz
                0x000000000001f550       0x9a com_barchart_udt_SocketUDT.o
                0x000000000001f550                _ZN7JNIEnv_13CallIntMethodEP8_jobjectP10_jmethodIDz
 *fill*         0x000000000001f5ea        0x6 90909090
 .text._ZN7JNIEnv_14CallLongMethodEP8_jobjectP10_jmethodIDz
                0x000000000001f5f0       0x9a com_barchart_udt_SocketUDT.o
                0x000000000001f5f0                _ZN7JNIEnv_14CallLongMethodEP8_jobjectP10_jmethodIDz
 *fill*         0x000000000001f68a        0x6 90909090
 .text._ZN7JNIEnv_9NewObjectEP7_jclassP10_jmethodIDz
                0x000000000001f690       0x9a com_barchart_udt_SocketUDT.o
                0x000000000001f690                _ZN7JNIEnv_9NewObjectEP7_jclassP10_jmethodIDz
 *fill*         0x000000000001f72a        0x6 90909090
 .text._ZNSt6vectorIiSaIiEED1Ev
                0x000000000001f730       0x1a com_barchart_udt_SocketUDT.o
                0x000000000001f730                _ZNSt6vectorIiSaIiEED1Ev
 *fill*         0x000000000001f74a        0x6 90909090
 .text._ZNSt6vectorIiSaIiEE13_M_insert_auxEN9__gnu_cxx17__normal_iteratorIPiS1_EERKi
                0x000000000001f750      0x175 com_barchart_udt_SocketUDT.o
                0x000000000001f750                _ZNSt6vectorIiSaIiEE13_M_insert_auxEN9__gnu_cxx17__normal_iteratorIPiS1_EERKi
 *fill*         0x000000000001f8c5        0xb 90909090
 .text          0x000000000001f8d0     0x84a2 api.o
                0x000000000001f8d0                _ZN10CUDTUnited6locateEi
                0x000000000001f960                _ZN10CUDTUnited9getStatusEi
                0x000000000001fa00                _ZN10CUDTUnited9updateMuxEP10CUDTSocketPKS0_
                0x000000000001faf0                _ZN10CUDTUnited8getErrorEv
                0x000000000001fb80                _ZN4CUDT12getlasterrorEv
                0x000000000001fba0                _ZN3UDT12getlasterrorEv
                0x000000000001fbb0                _ZN10CUDTUnited8setErrorEP13CUDTException
                0x000000000001fc00                _ZN10CUDTUnited6locateEiPK8sockaddrRKiS4_
                0x000000000001fd60                _ZN10CUDTUnited13epoll_releaseEi
                0x000000000001fd80                _ZN4CUDT13epoll_releaseEi
                0x000000000001feb0                _ZN3UDT13epoll_releaseEi
                0x000000000001fec0                _ZN10CUDTUnited10epoll_waitEiPSt3setIiSt4lessIiESaIiEES5_lS5_S5_
                0x000000000001fee0                _ZN4CUDT10epoll_waitEiPSt3setIiSt4lessIiESaIiEES5_lS5_S5_
                0x0000000000020020                _ZN3UDT10epoll_waitEiPSt3setIiSt4lessIiESaIiEES5_lS5_S5_
                0x0000000000020030                _ZN10CUDTUnited18epoll_remove_ssockEiiPKi
                0x0000000000020050                _ZN4CUDT18epoll_remove_ssockEiiPKi
                0x0000000000020180                _ZN10CUDTUnited18epoll_remove_usockEiiPKi
                0x0000000000020230                _ZN4CUDT18epoll_remove_usockEiiPKi
                0x0000000000020360                _ZN3UDT18epoll_remove_ssockEiiPKi
                0x0000000000020370                _ZN3UDT18epoll_remove_usockEiiPKi
                0x0000000000020380                _ZN10CUDTUnited6lookupEi
                0x0000000000020470                _ZN4CUDT12getUDTHandleEi
                0x00000000000204a0                _ZN4CUDT7perfmonEiP8CPerfMonb
                0x00000000000205e0                _ZN3UDT7perfmonEiP8CPerfMonb
                0x00000000000205f0                _ZN4CUDT8recvfileEiRSt13basic_fstreamIcSt11char_traitsIcEERlRKlRKi
                0x0000000000020750                _ZN3UDT8recvfileEiRSt13basic_fstreamIcSt11char_traitsIcEERlli
                0x0000000000020770                _ZN4CUDT8sendfileEiRSt13basic_fstreamIcSt11char_traitsIcEERlRKlRKi
                0x0000000000020920                _ZN3UDT8sendfileEiRSt13basic_fstreamIcSt11char_traitsIcEERlli
                0x0000000000020940                _ZN4CUDT7recvmsgEiPci
                0x0000000000020a80                _ZN3UDT7recvmsgEiPci
                0x0000000000020a90                _ZN4CUDT7sendmsgEiPKciib
                0x0000000000020c40                _ZN3UDT7sendmsgEiPKciib
                0x0000000000020c50                _ZN4CUDT4recvEiPcii
                0x0000000000020d90                _ZN3UDT4recvEiPcii
                0x0000000000020da0                _ZN4CUDT4sendEiPKcii
                0x0000000000020f40                _ZN3UDT4sendEiPKcii
                0x0000000000020f50                _ZN4CUDT10setsockoptEii6UDTOptPKvi
                0x00000000000210a0                _ZN3UDT10setsockoptEii6UDTOptPKvi
                0x00000000000210b0                _ZN4CUDT10getsockoptEii6UDTOptPvPi
                0x0000000000021200                _ZN3UDT10getsockoptEii6UDTOptPvPi
                0x0000000000021210                _ZN10CUDTUnited15epoll_add_ssockEiiPKi
                0x0000000000021230                _ZN4CUDT15epoll_add_ssockEiiPKi
                0x0000000000021360                _ZN3UDT15epoll_add_ssockEiiPKi
                0x0000000000021370                _ZN10CUDTUnited15epoll_add_usockEiiPKi
                0x0000000000021420                _ZN4CUDT15epoll_add_usockEiiPKi
                0x0000000000021550                _ZN3UDT15epoll_add_usockEiiPKi
                0x0000000000021560                _ZN10CUDTUnited12epoll_createEv
                0x0000000000021580                _ZN4CUDT12epoll_createEv
                0x00000000000216b0                _ZN3UDT12epoll_createEv
                0x00000000000216c0                _ZN10CUDTUnited11getsocknameEiP8sockaddrPi
                0x00000000000217d0                _ZN4CUDT11getsocknameEiP8sockaddrPi
                0x0000000000021900                _ZN3UDT11getsocknameEiP8sockaddrPi
                0x0000000000021910                _ZN10CUDTUnited11getpeernameEiP8sockaddrPi
                0x0000000000021a60                _ZN4CUDT11getpeernameEiP8sockaddrPi
                0x0000000000021b90                _ZN3UDT11getpeernameEiP8sockaddrPi
                0x0000000000021ba0                _ZN10CUDTUnited7cleanupEv
                0x0000000000021c60                _ZN4CUDT7cleanupEv
                0x0000000000021c80                _ZN3UDT7cleanupEv
                0x0000000000021c90                _ZN10CUDTSocketC1Ev
                0x0000000000021d70                _ZN10CUDTSocketC2Ev
                0x0000000000021e50                _ZN10CUDTUnited7startupEv
                0x0000000000021f10                _ZN4CUDT7startupEv
                0x0000000000021f30                _ZN3UDT7startupEv
                0x0000000000021f40                _ZN10CUDTUnited6listenEiRKi
                0x0000000000022160                _ZN4CUDT6listenEii
                0x00000000000222a0                _ZN3UDT6listenEii
                0x00000000000222b0                _ZN10CUDTSocketD2Ev
                0x0000000000022350                _ZN10CUDTSocketD1Ev
                0x00000000000223f0                _ZN10CUDTUnited8selectExERKSt6vectorIiSaIiEEPS2_S5_S5_l
                0x0000000000022670                _ZN4CUDT8selectExERKSt6vectorIiSaIiEEPS2_S5_S5_l
                0x0000000000022870                _ZN3UDT8selectExERKSt6vectorIiSaIiEEPS2_S5_S5_l
                0x0000000000022880                _ZN10CUDTUnited5closeEi
                0x0000000000022c60                _ZN4CUDT5closeEi
                0x0000000000022d90                _ZN3UDT5closeEi
                0x0000000000022da0                _ZN10CUDTUnited6selectEPSt3setIiSt4lessIiESaIiEES5_S5_PK7timeval
                0x0000000000023c10                _ZN4CUDT6selectEiPSt3setIiSt4lessIiESaIiEES5_S5_PK7timeval
                0x0000000000023e00                _ZN3UDT6selectEiPSt3setIiSt4lessIiESaIiEES5_S5_PK7timeval
                0x0000000000023e10                _ZN10CUDTUnited6acceptEiP8sockaddrPi
                0x00000000000241b0                _ZN4CUDT6acceptEiP8sockaddrPi
                0x0000000000024290                _ZN3UDT6acceptEiP8sockaddrPi
                0x00000000000242a0                _ZN10CUDTUnited13newConnectionEiPK8sockaddrP10CHandShake
                0x00000000000248b0                _ZN10CUDTUnited12removeSocketEi
                0x0000000000025220                _ZN10CUDTUnited18checkBrokenSocketsEv
                0x0000000000025b40                _ZN10CUDTUnited14garbageCollectEPv
                0x00000000000261d0                _ZN10CUDTUnited9newSocketERKiS1_
                0x00000000000264d0                _ZN4CUDT6socketEiii
                0x0000000000026630                _ZN3UDT6socketEiii
                0x0000000000026640                _ZN10CUDTUnited9updateMuxEP10CUDTSocketPK8sockaddrPKi
                0x0000000000026b20                _ZN10CUDTUnited4bindEiPK8sockaddrRKi
                0x0000000000026ca0                _ZN4CUDT4bindEiPK8sockaddri
                0x0000000000026de0                _ZN3UDT4bindEiPK8sockaddri
                0x0000000000026df0                _ZN10CUDTUnited7connectEiPK8sockaddrRKi
                0x0000000000027040                _ZN4CUDT7connectEiPK8sockaddri
                0x00000000000271d0                _ZN3UDT7connectEiPK8sockaddri
                0x00000000000271e0                _ZN10CUDTUnited4bindEii
                0x0000000000027380                _ZN4CUDT4bindEii
                0x00000000000274b0                _ZN3UDT4bindEii
                0x00000000000274c0                _ZN10CUDTUnitedD1Ev
                0x00000000000275f0                _ZN10CUDTUnitedC2Ev
                0x0000000000027920                _ZN10CUDTUnitedD2Ev
                0x0000000000027a50                _ZN10CUDTUnitedC1Ev
 *fill*         0x0000000000027d72        0xe 90909090
 .text._ZN10CUDTUnited10TLSDestroyEPv
                0x0000000000027d80       0x1a api.o
                0x0000000000027d80                _ZN10CUDTUnited10TLSDestroyEPv
 *fill*         0x0000000000027d9a        0x6 90909090
 .text._ZNSt8_Rb_treeIiSt4pairIKiP10CUDTSocketESt10_Select1stIS4_ESt4lessIiESaIS4_EE10_M_insert_EPKSt18_Rb_tree_node_baseSD_RKS4_
                0x0000000000027da0       0xa4 api.o
                0x0000000000027da0                _ZNSt8_Rb_treeIiSt4pairIKiP10CUDTSocketESt10_Select1stIS4_ESt4lessIiESaIS4_EE10_M_insert_EPKSt18_Rb_tree_node_baseSD_RKS4_
 *fill*         0x0000000000027e44        0xc 90909090
 .text._ZNSt8_Rb_treeIiiSt9_IdentityIiESt4lessIiESaIiEE10_M_insert_EPKSt18_Rb_tree_node_baseS8_RKi
                0x0000000000027e50       0x9b api.o
                0x0000000000027e50                _ZNSt8_Rb_treeIiiSt9_IdentityIiESt4lessIiESaIiEE10_M_insert_EPKSt18_Rb_tree_node_baseS8_RKi
 *fill*         0x0000000000027eeb        0x5 90909090
 .text._ZNSt8_Rb_treeIiSt4pairIKi12CMultiplexerESt10_Select1stIS3_ESt4lessIiESaIS3_EE10_M_insert_EPKSt18_Rb_tree_node_baseSC_RKS3_
                0x0000000000027ef0       0xdb api.o
                0x0000000000027ef0                _ZNSt8_Rb_treeIiSt4pairIKi12CMultiplexerESt10_Select1stIS3_ESt4lessIiESaIS3_EE10_M_insert_EPKSt18_Rb_tree_node_baseSC_RKS3_
 *fill*         0x0000000000027fcb        0x5 90909090
 .text._ZNSt8_Rb_treeIiSt4pairIKi12CMultiplexerESt10_Select1stIS3_ESt4lessIiESaIS3_EE8_M_eraseEPSt13_Rb_tree_nodeIS3_E
                0x0000000000027fd0      0x1b1 api.o
                0x0000000000027fd0                _ZNSt8_Rb_treeIiSt4pairIKi12CMultiplexerESt10_Select1stIS3_ESt4lessIiESaIS3_EE8_M_eraseEPSt13_Rb_tree_nodeIS3_E
 *fill*         0x0000000000028181        0xf 90909090
 .text._ZNSt8_Rb_treeIiSt4pairIKiP10CUDTSocketESt10_Select1stIS4_ESt4lessIiESaIS4_EE8_M_eraseEPSt13_Rb_tree_nodeIS4_E
                0x0000000000028190      0x1b1 api.o
                0x0000000000028190                _ZNSt8_Rb_treeIiSt4pairIKiP10CUDTSocketESt10_Select1stIS4_ESt4lessIiESaIS4_EE8_M_eraseEPSt13_Rb_tree_nodeIS4_E
 *fill*         0x0000000000028341        0xf 90909090
 .text._ZNSt3mapIiP10CUDTSocketSt4lessIiESaISt4pairIKiS1_EEED1Ev
                0x0000000000028350       0x17 api.o
                0x0000000000028350                _ZNSt3mapIiP10CUDTSocketSt4lessIiESaISt4pairIKiS1_EEED1Ev
 *fill*         0x0000000000028367        0x9 90909090
 .text._ZNSt8_Rb_treeIiiSt9_IdentityIiESt4lessIiESaIiEE7_M_copyEPKSt13_Rb_tree_nodeIiEPS7_
                0x0000000000028370      0x114 api.o
                0x0000000000028370                _ZNSt8_Rb_treeIiiSt9_IdentityIiESt4lessIiESaIiEE7_M_copyEPKSt13_Rb_tree_nodeIiEPS7_
 *fill*         0x0000000000028484        0xc 90909090
 .text._ZNSt8_Rb_treeIlSt4pairIKlSt3setIiSt4lessIiESaIiEEESt10_Select1stIS7_ES3_IlESaIS7_EE10_M_insert_EPKSt18_Rb_tree_node_baseSF_RKS7_
                0x0000000000028490      0x12a api.o
                0x0000000000028490                _ZNSt8_Rb_treeIlSt4pairIKlSt3setIiSt4lessIiESaIiEEESt10_Select1stIS7_ES3_IlESaIS7_EE10_M_insert_EPKSt18_Rb_tree_node_baseSF_RKS7_
 *fill*         0x00000000000285ba        0x6 90909090
 .text._ZNSt8_Rb_treeIlSt4pairIKlSt3setIiSt4lessIiESaIiEEESt10_Select1stIS7_ES3_IlESaIS7_EE16_M_insert_uniqueERKS7_
                0x00000000000285c0       0xa9 api.o
                0x00000000000285c0                _ZNSt8_Rb_treeIlSt4pairIKlSt3setIiSt4lessIiESaIiEEESt10_Select1stIS7_ES3_IlESaIS7_EE16_M_insert_uniqueERKS7_
 *fill*         0x0000000000028669        0x7 90909090
 .text._ZNSt8_Rb_treeIlSt4pairIKlSt3setIiSt4lessIiESaIiEEESt10_Select1stIS7_ES3_IlESaIS7_EE17_M_insert_unique_ESt23_Rb_tree_const_iteratorIS7_ERKS7_
                0x0000000000028670      0x145 api.o
                0x0000000000028670                _ZNSt8_Rb_treeIlSt4pairIKlSt3setIiSt4lessIiESaIiEEESt10_Select1stIS7_ES3_IlESaIS7_EE17_M_insert_unique_ESt23_Rb_tree_const_iteratorIS7_ERKS7_
 *fill*         0x00000000000287b5        0xb 90909090
 .text._ZNSt3setIiSt4lessIiESaIiEE5eraseERKi
                0x00000000000287c0      0x182 api.o
                0x00000000000287c0                _ZNSt3setIiSt4lessIiESaIiEE5eraseERKi
 *fill*         0x0000000000028942        0xe 90909090
 .text._ZNSt8_Rb_treeIlSt4pairIKlSt3setIiSt4lessIiESaIiEEESt10_Select1stIS7_ES3_IlESaIS7_EE8_M_eraseEPSt13_Rb_tree_nodeIS7_E
                0x0000000000028950      0x285 api.o
                0x0000000000028950                _ZNSt8_Rb_treeIlSt4pairIKlSt3setIiSt4lessIiESaIiEEESt10_Select1stIS7_ES3_IlESaIS7_EE8_M_eraseEPSt13_Rb_tree_nodeIS7_E
 *fill*         0x0000000000028bd5        0xb 90909090
 .text._ZNSt6vectorIP10CUDTSocketSaIS1_EE13_M_insert_auxEN9__gnu_cxx17__normal_iteratorIPS1_S3_EERKS1_
                0x0000000000028be0      0x176 api.o
                0x0000000000028be0                _ZNSt6vectorIP10CUDTSocketSaIS1_EE13_M_insert_auxEN9__gnu_cxx17__normal_iteratorIPS1_S3_EERKS1_
 *fill*         0x0000000000028d56        0xa 90909090
 .text._ZNSt8_Rb_treeIiiSt9_IdentityIiESt4lessIiESaIiEE16_M_insert_uniqueERKi
                0x0000000000028d60      0x11b api.o
                0x0000000000028d60                _ZNSt8_Rb_treeIiiSt9_IdentityIiESt4lessIiESaIiEE16_M_insert_uniqueERKi
 *fill*         0x0000000000028e7b        0x5 90909090
 .text._ZNSt8_Rb_treeIiSt4pairIKiP10CUDTSocketESt10_Select1stIS4_ESt4lessIiESaIS4_EE16_M_insert_uniqueERKS4_
                0x0000000000028e80      0x124 api.o
                0x0000000000028e80                _ZNSt8_Rb_treeIiSt4pairIKiP10CUDTSocketESt10_Select1stIS4_ESt4lessIiESaIS4_EE16_M_insert_uniqueERKS4_
 *fill*         0x0000000000028fa4        0xc 90909090
 .text._ZNSt8_Rb_treeIiSt4pairIKi12CMultiplexerESt10_Select1stIS3_ESt4lessIiESaIS3_EE16_M_insert_uniqueERKS3_
                0x0000000000028fb0      0x158 api.o
                0x0000000000028fb0                _ZNSt8_Rb_treeIiSt4pairIKi12CMultiplexerESt10_Select1stIS3_ESt4lessIiESaIS3_EE16_M_insert_uniqueERKS3_
 *fill*         0x0000000000029108        0x8 90909090
 .text._ZNSt8_Rb_treeIiiSt9_IdentityIiESt4lessIiESaIiEE17_M_insert_unique_ESt23_Rb_tree_const_iteratorIiERKi
                0x0000000000029110      0x185 api.o
                0x0000000000029110                _ZNSt8_Rb_treeIiiSt9_IdentityIiESt4lessIiESaIiEE17_M_insert_unique_ESt23_Rb_tree_const_iteratorIiERKi
 *fill*         0x0000000000029295        0xb 90909090
 .text._ZNSt8_Rb_treeIiSt4pairIKiP10CUDTSocketESt10_Select1stIS4_ESt4lessIiESaIS4_EE17_M_insert_unique_ESt23_Rb_tree_const_iteratorIS4_ERKS4_
                0x00000000000292a0      0x1a5 api.o
                0x00000000000292a0                _ZNSt8_Rb_treeIiSt4pairIKiP10CUDTSocketESt10_Select1stIS4_ESt4lessIiESaIS4_EE17_M_insert_unique_ESt23_Rb_tree_const_iteratorIS4_ERKS4_
 *fill*         0x0000000000029445        0xb 90909090
 .text._ZNSt8_Rb_treeIiSt4pairIKi12CMultiplexerESt10_Select1stIS3_ESt4lessIiESaIS3_EE17_M_insert_unique_ESt23_Rb_tree_const_iteratorIS3_ERKS3_
                0x0000000000029450      0x215 api.o
                0x0000000000029450                _ZNSt8_Rb_treeIiSt4pairIKi12CMultiplexerESt10_Select1stIS3_ESt4lessIiESaIS3_EE17_M_insert_unique_ESt23_Rb_tree_const_iteratorIS3_ERKS3_
 *fill*         0x0000000000029665        0xb 90909090
 .text          0x0000000000029670      0x9f7 ccc.o
                0x0000000000029670                _ZN3CCCC2Ev
                0x0000000000029720                _ZN3CCCC1Ev
                0x00000000000297d0                _ZN3CCC11setACKTimerERKi
                0x00000000000297f0                _ZN3CCC14setACKIntervalERKi
                0x0000000000029800                _ZN3CCC6setRTOERKi
                0x0000000000029810                _ZN3CCC6setMSSERKi
                0x0000000000029820                _ZN3CCC12setBandwidthERKi
                0x0000000000029830                _ZN3CCC15setSndCurrSeqNoERKi
                0x0000000000029840                _ZN3CCC10setRcvRateERKi
                0x0000000000029850                _ZN3CCC14setMaxCWndSizeERKi
                0x0000000000029860                _ZN3CCC6setRTTERKi
                0x0000000000029870                _ZN6CUDTCCC2Ev
                0x0000000000029900                _ZN6CUDTCCC1Ev
                0x0000000000029990                _ZN6CUDTCC9onTimeoutEv
                0x00000000000299f0                _ZN6CUDTCC6onLossEPKiRS0_
                0x0000000000029ba0                _ZN6CUDTCC4initEv
                0x0000000000029c60                _ZN6CUDTCC5onACKERKi
                0x0000000000029ee0                _ZN3CCCD0Ev
                0x0000000000029f20                _ZN3CCCD1Ev
                0x0000000000029f50                _ZN3CCCD2Ev
                0x0000000000029f80                _ZN3CCC12setUserParamEPKcRKi
                0x0000000000029fe0                _ZN3CCC11getPerfInfoEv
                0x000000000002a020                _ZNK3CCC13sendCustomMsgER7CPacket
 *fill*         0x000000000002a067        0x9 90909090
 .text._ZN3CCC4initEv
                0x000000000002a070        0x6 ccc.o
                0x000000000002a070                _ZN3CCC4initEv
 *fill*         0x000000000002a076        0xa 90909090
 .text._ZN3CCC5closeEv
                0x000000000002a080        0x6 ccc.o
                0x000000000002a080                _ZN3CCC5closeEv
 *fill*         0x000000000002a086        0xa 90909090
 .text._ZN3CCC5onACKERKi
                0x000000000002a090        0x6 ccc.o
                0x000000000002a090                _ZN3CCC5onACKERKi
 *fill*         0x000000000002a096        0xa 90909090
 .text._ZN3CCC6onLossEPKiRS0_
                0x000000000002a0a0        0x6 ccc.o
                0x000000000002a0a0                _ZN3CCC6onLossEPKiRS0_
 *fill*         0x000000000002a0a6        0xa 90909090
 .text._ZN3CCC9onTimeoutEv
                0x000000000002a0b0        0x6 ccc.o
                0x000000000002a0b0                _ZN3CCC9onTimeoutEv
 *fill*         0x000000000002a0b6        0xa 90909090
 .text._ZN3CCC9onPktSentEPK7CPacket
                0x000000000002a0c0        0x6 ccc.o
                0x000000000002a0c0                _ZN3CCC9onPktSentEPK7CPacket
 *fill*         0x000000000002a0c6        0xa 90909090
 .text._ZN3CCC13onPktReceivedEPK7CPacket
                0x000000000002a0d0        0x6 ccc.o
                0x000000000002a0d0                _ZN3CCC13onPktReceivedEPK7CPacket
 *fill*         0x000000000002a0d6        0xa 90909090
 .text._ZN3CCC16processCustomMsgEPK7CPacket
                0x000000000002a0e0        0x6 ccc.o
                0x000000000002a0e0                _ZN3CCC16processCustomMsgEPK7CPacket
 *fill*         0x000000000002a0e6        0xa 90909090
 .text._ZN6CUDTCCD0Ev
                0x000000000002a0f0       0x2d ccc.o
                0x000000000002a0f0                _ZN6CUDTCCD0Ev
 *fill*         0x000000000002a11d        0x3 90909090
 .text._ZN6CUDTCCD1Ev
                0x000000000002a120       0x18 ccc.o
                0x000000000002a120                _ZN6CUDTCCD1Ev
 *fill*         0x000000000002a138        0x8 90909090
 .text          0x000000000002a140     0x1512 buffer.o
                0x000000000002a140                _ZN10CSndBuffer8readDataEPPcRi
                0x000000000002a170                _ZNK10CSndBuffer14getCurrBufSizeEv
                0x000000000002a180                _ZN10CRcvBuffer7addDataEP5CUniti
                0x000000000002a1d0                _ZNK10CRcvBuffer14getRcvDataSizeEv
                0x000000000002a1f0                _ZNK10CRcvBuffer15getAvailBufSizeEv
                0x000000000002a210                _ZN10CRcvBuffer7dropMsgERKi
                0x000000000002a280                _ZN10CRcvBuffer7scanMsgERiS0_Rb
                0x000000000002a540                _ZN10CRcvBuffer12getRcvMsgNumEv
                0x000000000002a560                _ZN10CRcvBuffer7readMsgEPcRKi
                0x000000000002a6a0                _ZN10CRcvBuffer10readBufferEPcRKi
                0x000000000002a850                _ZN10CRcvBuffer7ackDataERKi
                0x000000000002a880                _ZN10CRcvBuffer16readBufferToFileERSt13basic_fstreamIcSt11char_traitsIcEERKi
                0x000000000002a9e0                _ZN10CRcvBufferD1Ev
                0x000000000002aa50                _ZN10CRcvBufferD2Ev
                0x000000000002aac0                _ZN10CRcvBufferC1ERKiP10CUnitQueue
                0x000000000002ab40                _ZN10CRcvBufferC2ERKiP10CUnitQueue
                0x000000000002abc0                _ZN10CRcvBufferC1EP10CUnitQueue
                0x000000000002ac10                _ZN10CRcvBufferC2EP10CUnitQueue
                0x000000000002ac60                _ZN10CSndBuffer8increaseEv
                0x000000000002ae30                _ZN10CSndBuffer7ackDataERKi
                0x000000000002aeb0                _ZN10CSndBuffer8readDataEPPciRiS2_
                0x000000000002b000                _ZN10CSndBuffer17addBufferFromFileERSt13basic_fstreamIcSt11char_traitsIcEERKi
                0x000000000002b140                _ZN10CSndBuffer9addBufferEPKcRKiS3_RKb
                0x000000000002b2a0                _ZN10CSndBufferD1Ev
                0x000000000002b320                _ZN10CSndBufferD2Ev
                0x000000000002b3a0                _ZN10CSndBufferC1ERKiS1_
                0x000000000002b500                _ZN10CSndBufferC2ERKiS1_
 *fill*         0x000000000002b652        0xe 90909090
 .text          0x000000000002b660     0x2ce6 epoll.o
                0x000000000002b660                _ZN6CEPoll12remove_ssockEiRKiPS0_
                0x000000000002b940                _ZN6CEPoll9add_ssockEiRKiPS0_
                0x000000000002bba0                _ZN6CEPoll4waitEiPSt3setIiSt4lessIiESaIiEES5_lS5_S5_
                0x000000000002c370                _ZN6CEPoll9add_usockEiRKiPS0_
                0x000000000002c520                _ZN6CEPoll12disable_readERKiRSt3setIiSt4lessIiESaIiEE
                0x000000000002c9a0                _ZN6CEPoll13disable_writeERKiRSt3setIiSt4lessIiESaIiEE
                0x000000000002ce20                _ZN6CEPoll11enable_readERKiRSt3setIiSt4lessIiESaIiEE
                0x000000000002d240                _ZN6CEPoll12enable_writeERKiRSt3setIiSt4lessIiESaIiEE
                0x000000000002d660                _ZN6CEPoll12remove_usockEiRKiPS0_
                0x000000000002d8a0                _ZN6CEPoll7releaseEi
                0x000000000002da30                _ZN6CEPoll6createEv
                0x000000000002e1b0                _ZN6CEPollC1Ev
                0x000000000002e220                _ZN6CEPollD2Ev
                0x000000000002e280                _ZN6CEPollC2Ev
                0x000000000002e2f0                _ZN6CEPollD1Ev
 *fill*         0x000000000002e346        0xa 90909090
 .text._ZN10CEPollDescD1Ev
                0x000000000002e350       0x84 epoll.o
                0x000000000002e350                _ZN10CEPollDescD1Ev
 *fill*         0x000000000002e3d4        0xc 90909090
 .text._ZNSt8_Rb_treeIiSt4pairIKi10CEPollDescESt10_Select1stIS3_ESt4lessIiESaIS3_EE10_M_insert_EPKSt18_Rb_tree_node_baseSC_RKS3_
                0x000000000002e3e0      0x312 epoll.o
                0x000000000002e3e0                _ZNSt8_Rb_treeIiSt4pairIKi10CEPollDescESt10_Select1stIS3_ESt4lessIiESaIS3_EE10_M_insert_EPKSt18_Rb_tree_node_baseSC_RKS3_
 *fill*         0x000000000002e6f2        0xe 90909090
 .text._ZNSt8_Rb_treeIiSt4pairIKi10CEPollDescESt10_Select1stIS3_ESt4lessIiESaIS3_EE16_M_insert_uniqueERKS3_
                0x000000000002e700       0xa0 epoll.o
                0x000000000002e700                _ZNSt8_Rb_treeIiSt4pairIKi10CEPollDescESt10_Select1stIS3_ESt4lessIiESaIS3_EE16_M_insert_uniqueERKS3_
 .text._ZNSt8_Rb_treeIiSt4pairIKi10CEPollDescESt10_Select1stIS3_ESt4lessIiESaIS3_EE17_M_insert_unique_ESt23_Rb_tree_const_iteratorIS3_ERKS3_
                0x000000000002e7a0      0x145 epoll.o
                0x000000000002e7a0                _ZNSt8_Rb_treeIiSt4pairIKi10CEPollDescESt10_Select1stIS3_ESt4lessIiESaIS3_EE17_M_insert_unique_ESt23_Rb_tree_const_iteratorIS3_ERKS3_
 *fill*         0x000000000002e8e5        0xb 90909090
 .text._ZNSt8_Rb_treeIiSt4pairIKi10CEPollDescESt10_Select1stIS3_ESt4lessIiESaIS3_EE8_M_eraseEPSt13_Rb_tree_nodeIS3_E
                0x000000000002e8f0      0x6cc epoll.o
                0x000000000002e8f0                _ZNSt8_Rb_treeIiSt4pairIKi10CEPollDescESt10_Select1stIS3_ESt4lessIiESaIS3_EE8_M_eraseEPSt13_Rb_tree_nodeIS3_E
 *fill*         0x000000000002efbc        0x4 90909090
 .text          0x000000000002efc0      0xb27 window.o
                0x000000000002efc0                _ZNK14CPktTimeWindow15getMinPktSndIntEv
                0x000000000002efd0                _ZN14CPktTimeWindow9onPktSentERKi
                0x000000000002eff0                _ZN14CPktTimeWindow13probe2ArrivalEv
                0x000000000002f030                _ZN14CPktTimeWindow13probe1ArrivalEv
                0x000000000002f050                _ZN14CPktTimeWindow12onPktArrivalEv
                0x000000000002f0a0                _ZN10CACKWindow11acknowledgeERKiRi
                0x000000000002f220                _ZN10CACKWindow5storeERKiS1_
                0x000000000002f290                _ZNK14CPktTimeWindow12getBandwidthEv
                0x000000000002f370                _ZNK14CPktTimeWindow14getPktRcvSpeedEv
                0x000000000002f450                _ZN14CPktTimeWindowD1Ev
                0x000000000002f490                _ZN14CPktTimeWindowD2Ev
                0x000000000002f4d0                _ZN10CACKWindowD1Ev
                0x000000000002f520                _ZN10CACKWindowD2Ev
                0x000000000002f570                _ZN14CPktTimeWindowC1ERKiS1_
                0x000000000002f650                _ZN14CPktTimeWindowC2ERKiS1_
                0x000000000002f730                _ZN14CPktTimeWindowC1Ev
                0x000000000002f810                _ZN14CPktTimeWindowC2Ev
                0x000000000002f8f0                _ZN10CACKWindowC1ERKi
                0x000000000002f970                _ZN10CACKWindowC2ERKi
                0x000000000002f9f0                _ZN10CACKWindowC1Ev
                0x000000000002fa70                _ZN10CACKWindowC2Ev
 *fill*         0x000000000002fae7        0x9 90909090
 .text          0x000000000002faf0      0xed6 md5.o
                0x000000000002faf0                md5_init
                0x0000000000030730                md5_append
                0x0000000000030890                md5_finish
 *fill*         0x00000000000309c6        0xa 90909090
 .text          0x00000000000309d0     0x1ab9 list.o
                0x00000000000309d0                _ZNK12CRcvLossList4findERKiS1_
                0x0000000000030ad0                _ZNK12CRcvLossList13getLossLengthEv
                0x0000000000030ae0                _ZNK12CRcvLossList15getFirstLostSeqEv
                0x0000000000030b00                _ZN12CRcvLossList12getLossArrayEPiRiRKiS3_
                0x0000000000030bd0                _ZN12CRcvLossList6removeERKi
                0x0000000000030fe0                _ZN12CRcvLossList6removeERKiS1_
                0x00000000000310a0                _ZN12CRcvLossList6insertERKiS1_
                0x00000000000312a0                _ZN12CRcvLossListD1Ev
                0x0000000000031300                _ZN12CRcvLossListD2Ev
                0x0000000000031360                _ZN12CRcvLossListC1ERKi
                0x0000000000031430                _ZN12CRcvLossListC2ERKi
                0x0000000000031500                _ZN12CSndLossList13getLossLengthEv
                0x0000000000031540                _ZN12CSndLossList10getLostSeqEv
                0x00000000000316a0                _ZN12CSndLossList6removeERKi
                0x0000000000031b20                _ZN12CSndLossList6insertERKiS1_
                0x0000000000032230                _ZN12CSndLossListD1Ev
                0x0000000000032280                _ZN12CSndLossListD2Ev
                0x00000000000322d0                _ZN12CSndLossListC1ERKi
                0x00000000000323b0                _ZN12CSndLossListC2ERKi
 *fill*         0x0000000000032489        0x7 90909090
 .text          0x0000000000032490      0x91a cache.o
                0x0000000000032490                _ZNK7CIPCompclEPK10CInfoBlockS2_
                0x00000000000324f0                _ZNK7CTSCompclEPK10CInfoBlockS2_
                0x0000000000032510                _ZN6CCache7convertEPK8sockaddrRKiPj
                0x0000000000032550                _ZN6CCacheC1ERKj
                0x00000000000325e0                _ZN6CCacheC2ERKj
                0x0000000000032670                _ZN6CCacheC1Ev
                0x0000000000032700                _ZN6CCacheC2Ev
                0x0000000000032790                _ZN6CCache6lookupEPK8sockaddrRKiP10CInfoBlock
                0x00000000000328a0                _ZN6CCacheD1Ev
                0x0000000000032950                _ZN6CCache6updateEPK8sockaddrRKiP10CInfoBlock
                0x0000000000032d00                _ZN6CCacheD2Ev
 *fill*         0x0000000000032daa        0x6 90909090
 .text._ZNSt8_Rb_treeIP10CInfoBlockS1_St9_IdentityIS1_E7CIPCompSaIS1_EE8_M_eraseEPSt13_Rb_tree_nodeIS1_E
                0x0000000000032db0      0x1b1 cache.o
                0x0000000000032db0                _ZNSt8_Rb_treeIP10CInfoBlockS1_St9_IdentityIS1_E7CIPCompSaIS1_EE8_M_eraseEPSt13_Rb_tree_nodeIS1_E
 *fill*         0x0000000000032f61        0xf 90909090
 .text._ZNSt8_Rb_treeIP10CInfoBlockS1_St9_IdentityIS1_E7CIPCompSaIS1_EE5eraseERKS1_
                0x0000000000032f70      0x1cd cache.o
                0x0000000000032f70                _ZNSt8_Rb_treeIP10CInfoBlockS1_St9_IdentityIS1_E7CIPCompSaIS1_EE5eraseERKS1_
 *fill*         0x000000000003313d        0x3 90909090
 .text._ZNSt8_Rb_treeIP10CInfoBlockS1_St9_IdentityIS1_E7CTSCompSaIS1_EE8_M_eraseEPSt13_Rb_tree_nodeIS1_E
                0x0000000000033140      0x1b1 cache.o
                0x0000000000033140                _ZNSt8_Rb_treeIP10CInfoBlockS1_St9_IdentityIS1_E7CTSCompSaIS1_EE8_M_eraseEPSt13_Rb_tree_nodeIS1_E
 *fill*         0x00000000000332f1        0xf 90909090
 .text._ZNSt8_Rb_treeIP10CInfoBlockS1_St9_IdentityIS1_E7CTSCompSaIS1_EE5eraseERKS1_
                0x0000000000033300      0x1cd cache.o
                0x0000000000033300                _ZNSt8_Rb_treeIP10CInfoBlockS1_St9_IdentityIS1_E7CTSCompSaIS1_EE5eraseERKS1_
 *fill*         0x00000000000334cd        0x3 90909090
 .text          0x00000000000334d0     0x34c8 queue.o
                0x00000000000334d0                _ZN10CUnitQueueC2Ev
                0x0000000000033510                _ZN10CUnitQueueC1Ev
                0x0000000000033550                _ZN10CUnitQueue6shrinkEv
                0x0000000000033560                _ZN9CSndUList7remove_EPK4CUDT
                0x0000000000033650                _ZN9CRcvUListC2Ev
                0x0000000000033670                _ZN9CRcvUListC1Ev
                0x0000000000033690                _ZN9CRcvUListD2Ev
                0x00000000000336a0                _ZN9CRcvUListD1Ev
                0x00000000000336b0                _ZN9CRcvUList6removeEPK4CUDT
                0x0000000000033730                _ZN5CHashC2Ev
                0x0000000000033750                _ZN5CHashC1Ev
                0x0000000000033770                _ZN5CHash6lookupERKi
                0x00000000000337c0                _ZN9CRcvQueue10ifNewEntryEv
                0x00000000000337e0                _ZN9CRcvQueue14removeListenerEPK4CUDT
                0x0000000000033840                _ZN9CRcvQueue11setListenerEPK4CUDT
                0x00000000000338b0                _ZN9CSndUList15getNextProcTimeEv
                0x0000000000033910                _ZN9CSndUList6removeEPK4CUDT
                0x0000000000033970                _ZN5CHash6insertERKiPK4CUDT
                0x00000000000339f0                _ZN5CHash6removeERKi
                0x0000000000033a60                _ZN5CHashD1Ev
                0x0000000000033ae0                _ZN5CHashD2Ev
                0x0000000000033b60                _ZN10CUnitQueueD1Ev
                0x0000000000033c10                _ZN10CUnitQueueD2Ev
                0x0000000000033cc0                _ZN5CHash4initERKi
                0x0000000000033d20                _ZN10CUnitQueue8increaseEv
                0x0000000000033f60                _ZN10CUnitQueue16getNextAvailUnitEv
                0x0000000000034030                _ZN10CUnitQueue4initERKiS1_S1_
                0x0000000000034220                _ZN16CRendezvousQueue8retrieveEPK8sockaddrRi
                0x00000000000342d0                _ZN9CRcvUList6updateEPK4CUDT
                0x0000000000034360                _ZN9CRcvUList6insertEPK4CUDT
                0x00000000000343e0                _ZN16CRendezvousQueueD1Ev
                0x0000000000034440                _ZN16CRendezvousQueueD2Ev
                0x00000000000344a0                _ZN9CSndUListD1Ev
                0x00000000000344d0                _ZN9CSndUListD2Ev
                0x0000000000034500                _ZN16CRendezvousQueueC1Ev
                0x0000000000034550                _ZN9CRcvQueue4initERKiS1_S1_S1_PK8CChannelPK6CTimer
                0x0000000000034690                _ZN16CRendezvousQueueC2Ev
                0x00000000000346e0                _ZN9CSndUListC1Ev
                0x0000000000034760                _ZN9CSndQueue4initEPK8CChannelPK6CTimer
                0x0000000000034850                _ZN9CSndUListC2Ev
                0x00000000000348d0                _ZN9CRcvQueueC1Ev
                0x0000000000034a80                _ZN9CRcvQueueC2Ev
                0x0000000000034c30                _ZN9CSndQueueC1Ev
                0x0000000000034cc0                _ZN9CSndQueueC2Ev
                0x0000000000034d50                _ZN9CSndQueue6sendtoEPK8sockaddrR7CPacket
                0x0000000000034d80                _ZN9CSndQueueD1Ev
                0x0000000000034e20                _ZN9CSndQueueD2Ev
                0x0000000000034ec0                _ZN9CSndUList7insert_ERKlPK4CUDT
                0x0000000000034fc0                _ZN9CSndUList6insertERKlPK4CUDT
                0x0000000000035090                _ZN9CSndUList3popERP8sockaddrR7CPacket
                0x0000000000035180                _ZN9CSndQueue6workerEPv
                0x00000000000352b0                _ZN9CSndUList6updateEPK4CUDTRKb
                0x0000000000035370                _ZN9CRcvQueue11getNewEntryEv
                0x0000000000035400                _ZN9CRcvQueue8recvfromERKiR7CPacket
                0x0000000000035700                _ZN16CRendezvousQueue6removeERKi
                0x0000000000035930                _ZN9CRcvQueueD1Ev
                0x0000000000035b10                _ZN9CRcvQueueD2Ev
                0x0000000000035cf0                _ZN9CRcvQueue11setNewEntryEP4CUDT
                0x0000000000035d90                _ZN16CRendezvousQueue6insertERKiS1_PK8sockaddr
                0x0000000000035e90                _ZN9CRcvQueue8storePktERKiP7CPacket
                0x00000000000365c0                _ZN9CRcvQueue6workerEPv
 *fill*         0x0000000000036998        0x8 90909090
 .text._ZNSt11_Deque_baseIP7CPacketSaIS1_EED2Ev
                0x00000000000369a0       0x63 queue.o
                0x00000000000369a0                _ZNSt11_Deque_baseIP7CPacketSaIS1_EED2Ev
 *fill*         0x0000000000036a03        0xd 90909090
 .text._ZNSt11_Deque_baseIP7CPacketSaIS1_EE17_M_initialize_mapEm
                0x0000000000036a10      0x12e queue.o
                0x0000000000036a10                _ZNSt11_Deque_baseIP7CPacketSaIS1_EE17_M_initialize_mapEm
 *fill*         0x0000000000036b3e        0x2 90909090
 .text._ZNSt8_Rb_treeIiSt4pairIKiSt5queueIP7CPacketSt5dequeIS4_SaIS4_EEEESt10_Select1stIS9_ESt4lessIiESaIS9_EE8_M_eraseEPSt13_Rb_tree_nodeIS9_E
                0x0000000000036b40      0x410 queue.o
                0x0000000000036b40                _ZNSt8_Rb_treeIiSt4pairIKiSt5queueIP7CPacketSt5dequeIS4_SaIS4_EEEESt10_Select1stIS9_ESt4lessIiESaIS9_EE8_M_eraseEPSt13_Rb_tree_nodeIS9_E
 .text._ZNSt8_Rb_treeIiSt4pairIKiSt5queueIP7CPacketSt5dequeIS4_SaIS4_EEEESt10_Select1stIS9_ESt4lessIiESaIS9_EE10_M_insert_EPKSt18_Rb_tree_node_baseSI_RKS9_
                0x0000000000036f50      0x1f8 queue.o
                0x0000000000036f50                _ZNSt8_Rb_treeIiSt4pairIKiSt5queueIP7CPacketSt5dequeIS4_SaIS4_EEEESt10_Select1stIS9_ESt4lessIiESaIS9_EE10_M_insert_EPKSt18_Rb_tree_node_baseSI_RKS9_
 *fill*         0x0000000000037148        0x8 90909090
 .text._ZNSt8_Rb_treeIiSt4pairIKiSt5queueIP7CPacketSt5dequeIS4_SaIS4_EEEESt10_Select1stIS9_ESt4lessIiESaIS9_EE16_M_insert_uniqueERKS9_
                0x0000000000037150       0xa0 queue.o
                0x0000000000037150                _ZNSt8_Rb_treeIiSt4pairIKiSt5queueIP7CPacketSt5dequeIS4_SaIS4_EEEESt10_Select1stIS9_ESt4lessIiESaIS9_EE16_M_insert_uniqueERKS9_
 .text._ZNSt8_Rb_treeIiSt4pairIKiSt5queueIP7CPacketSt5dequeIS4_SaIS4_EEEESt10_Select1stIS9_ESt4lessIiESaIS9_EE17_M_insert_unique_ESt23_Rb_tree_const_iteratorIS9_ERKS9_
                0x00000000000371f0      0x145 queue.o
                0x00000000000371f0                _ZNSt8_Rb_treeIiSt4pairIKiSt5queueIP7CPacketSt5dequeIS4_SaIS4_EEEESt10_Select1stIS9_ESt4lessIiESaIS9_EE17_M_insert_unique_ESt23_Rb_tree_const_iteratorIS9_ERKS9_
 *fill*         0x0000000000037335        0xb 90909090
 .text._ZNSt6vectorIP4CUDTSaIS1_EE13_M_insert_auxEN9__gnu_cxx17__normal_iteratorIPS1_S3_EERKS1_
                0x0000000000037340      0x176 queue.o
                0x0000000000037340                _ZNSt6vectorIP4CUDTSaIS1_EE13_M_insert_auxEN9__gnu_cxx17__normal_iteratorIPS1_S3_EERKS1_
 *fill*         0x00000000000374b6        0xa 90909090
 .text._ZNSt6vectorIN16CRendezvousQueue3CRLESaIS1_EE13_M_insert_auxEN9__gnu_cxx17__normal_iteratorIPS1_S3_EERKS1_
                0x00000000000374c0      0x18f queue.o
                0x00000000000374c0                _ZNSt6vectorIN16CRendezvousQueue3CRLESaIS1_EE13_M_insert_auxEN9__gnu_cxx17__normal_iteratorIPS1_S3_EERKS1_
 *fill*         0x000000000003764f        0x1 90909090
 .text          0x0000000000037650       0x36 /usr/lib/gcc/x86_64-linux-gnu/4.4.3/crtendS.o
 *fill*         0x0000000000037686        0x2 90909090
 .text          0x0000000000037688        0x0 /usr/lib/gcc/x86_64-linux-gnu/4.4.3/../../../../lib/crtn.o
 *(.gnu.warning)

.fini           0x0000000000037688        0xe
 *(.fini)
 .fini          0x0000000000037688        0x4 /usr/lib/gcc/x86_64-linux-gnu/4.4.3/../../../../lib/crti.o
                0x0000000000037688                _fini
 .fini          0x000000000003768c        0x5 /usr/lib/gcc/x86_64-linux-gnu/4.4.3/crtbeginS.o
 .fini          0x0000000000037691        0x5 /usr/lib/gcc/x86_64-linux-gnu/4.4.3/../../../../lib/crtn.o
                0x0000000000037696                PROVIDE (__etext, .)
                0x0000000000037696                PROVIDE (_etext, .)
                0x0000000000037696                PROVIDE (etext, .)

.rodata         0x00000000000376a0     0x15f0
 *(.rodata .rodata.* .gnu.linkonce.r.*)
 .rodata.str1.1
                0x0000000000000000        0x0 channel.o
                                          0x2 (size before relaxing)
 .rodata.str1.1
                0x00000000000376a0        0xb core.o
 *fill*         0x00000000000376ab        0x1 00
 .rodata        0x00000000000376ac       0xdc core.o
                0x0000000000037758                _ZN4CUDT12INVALID_SOCKE
                0x000000000003775c                _ZN4CUDT5ERRORE
                0x0000000000037760                _ZN3UDT12INVALID_SOCKE
                0x0000000000037764                _ZN3UDT5ERRORE
                0x0000000000037768                _ZN6CSeqNo10m_iSeqNoTHE
                0x000000000003776c                _ZN6CSeqNo11m_iMaxSeqNoE
                0x0000000000037770                _ZN6CAckNo14m_iMaxAckSeqNoE
                0x0000000000037774                _ZN6CMsgNo10m_iMsgNoTHE
                0x0000000000037778                _ZN6CMsgNo11m_iMaxMsgNoE
                0x000000000003777c                _ZN4CUDT10m_iVersionE
                0x0000000000037780                _ZN4CUDT14m_iSYNIntervalE
                0x0000000000037784                _ZN4CUDT20m_iSelfClockIntervalE
 *fill*         0x0000000000037788        0x8 00
 .rodata._ZTS10CCCFactoryI6CUDTCCE
                0x0000000000037790       0x16 core.o
                0x0000000000037790                _ZTS10CCCFactoryI6CUDTCCE
 *fill*         0x00000000000377a6        0xa 00
 .rodata._ZTS17CCCVirtualFactory
                0x00000000000377b0       0x14 core.o
                0x00000000000377b0                _ZTS17CCCVirtualFactory
 *fill*         0x00000000000377c4        0x4 00
 .rodata.cst8   0x00000000000377c8       0x30 core.o
 .rodata.str1.1
                0x00000000000377f8      0x1be common.o
 *fill*         0x00000000000379b6        0x2 00
 .rodata.str1.8
                0x00000000000379b8      0x2f5 common.o
 *fill*         0x0000000000037cad        0x3 00
 .rodata        0x0000000000037cb0       0xe8 common.o
                0x0000000000037d08                _ZN13CUDTException7SUCCESSE
                0x0000000000037d0c                _ZN13CUDTException10ECONNSETUPE
                0x0000000000037d10                _ZN13CUDTException9ENOSERVERE
                0x0000000000037d14                _ZN13CUDTException8ECONNREJE
                0x0000000000037d18                _ZN13CUDTException9ESOCKFAILE
                0x0000000000037d1c                _ZN13CUDTException8ESECFAILE
                0x0000000000037d20                _ZN13CUDTException9ECONNFAILE
                0x0000000000037d24                _ZN13CUDTException9ECONNLOSTE
                0x0000000000037d28                _ZN13CUDTException7ENOCONNE
                0x0000000000037d2c                _ZN13CUDTException9ERESOURCEE
                0x0000000000037d30                _ZN13CUDTException7ETHREADE
                0x0000000000037d34                _ZN13CUDTException6ENOBUFE
                0x0000000000037d38                _ZN13CUDTException5EFILEE
                0x0000000000037d3c                _ZN13CUDTException9EINVRDOFFE
                0x0000000000037d40                _ZN13CUDTException7ERDPERME
                0x0000000000037d44                _ZN13CUDTException9EINVWROFFE
                0x0000000000037d48                _ZN13CUDTException7EWRPERME
                0x0000000000037d4c                _ZN13CUDTException6EINVOPE
                0x0000000000037d50                _ZN13CUDTException10EBOUNDSOCKE
                0x0000000000037d54                _ZN13CUDTException9ECONNSOCKE
                0x0000000000037d58                _ZN13CUDTException9EINVPARAME
                0x0000000000037d5c                _ZN13CUDTException8EINVSOCKE
                0x0000000000037d60                _ZN13CUDTException12EUNBOUNDSOCKE
                0x0000000000037d64                _ZN13CUDTException9ENOLISTENE
                0x0000000000037d68                _ZN13CUDTException10ERDVNOSERVE
                0x0000000000037d6c                _ZN13CUDTException11ERDVUNBOUNDE
                0x0000000000037d70                _ZN13CUDTException10ESTREAMILLE
                0x0000000000037d74                _ZN13CUDTException9EDGRAMILLE
                0x0000000000037d78                _ZN13CUDTException10EDUPLISTENE
                0x0000000000037d7c                _ZN13CUDTException9ELARGEMSGE
                0x0000000000037d80                _ZN13CUDTException10EINVPOLLIDE
                0x0000000000037d84                _ZN13CUDTException10EASYNCFAILE
                0x0000000000037d88                _ZN13CUDTException9EASYNCSNDE
                0x0000000000037d8c                _ZN13CUDTException9EASYNCRCVE
                0x0000000000037d90                _ZN13CUDTException8EPEERERRE
                0x0000000000037d94                _ZN13CUDTException8EUNKNOWNE
 *fill*         0x0000000000037d98        0x8 00
 .rodata._ZTS13CUDTException
                0x0000000000037da0       0x10 common.o
                0x0000000000037da0                _ZTS13CUDTException
 .rodata        0x0000000000037db0        0x8 packet.o
                0x0000000000037db0                _ZN7CPacket13m_iPktHdrSizeE
                0x0000000000037db4                _ZN10CHandShake14m_iContentSizeE
 .rodata.str1.1
                0x0000000000037db8      0x8b5 com_barchart_udt_SocketUDT.o
                                        0x8bd (size before relaxing)
 *fill*         0x000000000003866d        0x3 00
 .rodata.str1.8
                0x0000000000038670      0x2c0 com_barchart_udt_SocketUDT.o
                                        0x2bd (size before relaxing)
 *fill*         0x0000000000038930       0x10 00
 .rodata        0x0000000000038940      0x275 com_barchart_udt_SocketUDT.o
 *fill*         0x0000000000038bb5        0xb 00
 .rodata.cst16  0x0000000000038bc0       0x20 com_barchart_udt_SocketUDT.o
 .rodata.cst8   0x0000000000038be0        0x8 api.o
                                         0x10 (size before relaxing)
 .rodata._ZTS6CUDTCC
                0x0000000000038be8        0x8 ccc.o
                0x0000000000038be8                _ZTS6CUDTCC
 .rodata._ZTS3CCC
                0x0000000000038bf0        0x5 ccc.o
                0x0000000000038bf0                _ZTS3CCC
 *fill*         0x0000000000038bf5        0x3 00
 .rodata.cst8   0x0000000000038bf8       0x38 ccc.o
                                         0x58 (size before relaxing)
 .rodata.cst8   0x0000000000000000        0x8 window.o
 *fill*         0x0000000000038c30       0x10 00
 .rodata        0x0000000000038c40       0x44 md5.o
 *fill*         0x0000000000038c84        0x4 00
 .rodata.cst8   0x0000000000038c88        0x8 queue.o

.rodata1
 *(.rodata1)

.eh_frame_hdr   0x0000000000038c90     0x106c
 *(.eh_frame_hdr)
 .eh_frame_hdr  0x0000000000038c90     0x106c channel.o

.eh_frame       0x0000000000039d00     0x4b3c
 *(.eh_frame)
 .eh_frame      0x0000000000039d00      0x298 channel.o
                                        0x250 (size before relaxing)
 .eh_frame      0x0000000000039f98      0x658 core.o
                                        0x628 (size before relaxing)
 .eh_frame      0x000000000003a5f0      0x518 common.o
                                        0x4a8 (size before relaxing)
 .eh_frame      0x000000000003ab08      0x288 packet.o
                                        0x278 (size before relaxing)
 .eh_frame      0x000000000003ad90      0xad8 com_barchart_udt_SocketUDT.o
                                        0xa98 (size before relaxing)
 .eh_frame      0x000000000003b868     0x1208 api.o
                                       0x1190 (size before relaxing)
 .eh_frame      0x000000000003ca70      0x428 ccc.o
                                        0x3c8 (size before relaxing)
 .eh_frame      0x000000000003ce98      0x3c8 buffer.o
                                        0x3c0 (size before relaxing)
 .eh_frame      0x000000000003d260      0x388 epoll.o
                                        0x438 (size before relaxing)
 .eh_frame      0x000000000003d5e8      0x2a0 window.o
                                        0x270 (size before relaxing)
 .eh_frame      0x000000000003d888       0x90 md5.o
                                         0xa8 (size before relaxing)
 .eh_frame      0x000000000003d918      0x2a0 list.o
                                        0x290 (size before relaxing)
 .eh_frame      0x000000000003dbb8      0x230 cache.o
                                        0x248 (size before relaxing)
 .eh_frame      0x000000000003dde8      0xa50 queue.o
                                        0x9b0 (size before relaxing)
 .eh_frame      0x000000000003e838        0x4 /usr/lib/gcc/x86_64-linux-gnu/4.4.3/crtendS.o

.gcc_except_table
                0x000000000003e83c     0x1fbe
 *(.gcc_except_table .gcc_except_table.*)
 .gcc_except_table
                0x000000000003e83c       0x47 channel.o
 *fill*         0x000000000003e883        0x1 00
 .gcc_except_table
                0x000000000003e884      0x699 core.o
 .gcc_except_table
                0x000000000003ef1d       0x11 packet.o
 .gcc_except_table
                0x000000000003ef2e      0x21f com_barchart_udt_SocketUDT.o
 *fill*         0x000000000003f14d        0x3 00
 .gcc_except_table
                0x000000000003f150      0xfa0 api.o
 .gcc_except_table
                0x00000000000400f0       0x63 buffer.o
 *fill*         0x0000000000040153        0x1 00
 .gcc_except_table
                0x0000000000040154      0x3ae epoll.o
 .gcc_except_table
                0x0000000000040502       0x7a cache.o
 .gcc_except_table
                0x000000000004057c      0x27e queue.o
                0x00000000000407fa                . = (ALIGN (0x200000) - ((0x200000 - .) & 0x1fffff))
                0x0000000000240ada                . = (0x200000 DATA_SEGMENT_ALIGN 0x1000)

.eh_frame
 *(.eh_frame)

.gcc_except_table
 *(.gcc_except_table .gcc_except_table.*)

.tdata
 *(.tdata .tdata.* .gnu.linkonce.td.*)

.tbss
 *(.tbss .tbss.* .gnu.linkonce.tb.*)
 *(.tcommon)

.preinit_array
 *(.preinit_array)

.init_array
 *(SORT(.init_array.*))
 *(.init_array)

.fini_array
 *(.fini_array)
 *(SORT(.fini_array.*))

.ctors          0x0000000000240ae0       0x20
 *crtbegin.o(.ctors)
 *crtbegin?.o(.ctors)
 .ctors         0x0000000000240ae0        0x8 /usr/lib/gcc/x86_64-linux-gnu/4.4.3/crtbeginS.o
 *(EXCLUDE_FILE(*crtend?.o *crtend.o) .ctors)
 .ctors         0x0000000000240ae8        0x8 core.o
 .ctors         0x0000000000240af0        0x8 common.o
 *(SORT(.ctors.*))
 *(.ctors)
 .ctors         0x0000000000240af8        0x8 /usr/lib/gcc/x86_64-linux-gnu/4.4.3/crtendS.o

.dtors          0x0000000000240b00       0x10
 *crtbegin.o(.dtors)
 *crtbegin?.o(.dtors)
 .dtors         0x0000000000240b00        0x8 /usr/lib/gcc/x86_64-linux-gnu/4.4.3/crtbeginS.o
 *(EXCLUDE_FILE(*crtend?.o *crtend.o) .dtors)
 *(SORT(.dtors.*))
 *(.dtors)
 .dtors         0x0000000000240b08        0x8 /usr/lib/gcc/x86_64-linux-gnu/4.4.3/crtendS.o
                0x0000000000240b08                __DTOR_END__

.jcr            0x0000000000240b10        0x8
 *(.jcr)
 .jcr           0x0000000000240b10        0x0 /usr/lib/gcc/x86_64-linux-gnu/4.4.3/crtbeginS.o
 .jcr           0x0000000000240b10        0x8 /usr/lib/gcc/x86_64-linux-gnu/4.4.3/crtendS.o

.data.rel.ro    0x0000000000240b20      0x1f0
 *(.data.rel.ro.local* .gnu.linkonce.d.rel.ro.local.*)
 *(.data.rel.ro* .gnu.linkonce.d.rel.ro.*)
 .data.rel.ro._ZTV10CCCFactoryI6CUDTCCE
                0x0000000000240b20       0x30 core.o
                0x0000000000240b20                _ZTV10CCCFactoryI6CUDTCCE
 .data.rel.ro._ZTI10CCCFactoryI6CUDTCCE
                0x0000000000240b50       0x18 core.o
                0x0000000000240b50                _ZTI10CCCFactoryI6CUDTCCE
 *fill*         0x0000000000240b68        0x8 00
 .data.rel.ro._ZTI17CCCVirtualFactory
                0x0000000000240b70       0x10 core.o
                0x0000000000240b70                _ZTI17CCCVirtualFactory
 .data.rel.ro._ZTV17CCCVirtualFactory
                0x0000000000240b80       0x30 core.o
                0x0000000000240b80                _ZTV17CCCVirtualFactory
 *fill*         0x0000000000240bb0       0x10 00
 .data.rel.ro._ZTV13CUDTException
                0x0000000000240bc0       0x38 common.o
                0x0000000000240bc0                _ZTV13CUDTException
 *fill*         0x0000000000240bf8        0x8 00
 .data.rel.ro._ZTI13CUDTException
                0x0000000000240c00       0x10 common.o
                0x0000000000240c00                _ZTI13CUDTException
 *fill*         0x0000000000240c10       0x10 00
 .data.rel.ro._ZTV6CUDTCC
                0x0000000000240c20       0x60 ccc.o
                0x0000000000240c20                _ZTV6CUDTCC
 .data.rel.ro._ZTV3CCC
                0x0000000000240c80       0x60 ccc.o
                0x0000000000240c80                _ZTV3CCC
 .data.rel.ro._ZTI6CUDTCC
                0x0000000000240ce0       0x18 ccc.o
                0x0000000000240ce0                _ZTI6CUDTCC
 *fill*         0x0000000000240cf8        0x8 00
 .data.rel.ro._ZTI3CCC
                0x0000000000240d00       0x10 ccc.o
                0x0000000000240d00                _ZTI3CCC

.dynamic        0x0000000000240d10      0x1c0
 *(.dynamic)
 .dynamic       0x0000000000240d10      0x1c0 /usr/lib/gcc/x86_64-linux-gnu/4.4.3/../../../../lib/crti.o
                0x0000000000240d10                _DYNAMIC

.got            0x0000000000240ed0      0x118
 *(.got)
 .got           0x0000000000240ed0      0x118 /usr/lib/gcc/x86_64-linux-gnu/4.4.3/../../../../lib/crti.o
 *(.igot)
                0x0000000000240fe8                . = (. DATA_SEGMENT_RELRO_END 0x18)

.got.plt        0x0000000000240fe8      0xdd8
 *(.got.plt)
 .got.plt       0x0000000000240fe8      0xdd8 /usr/lib/gcc/x86_64-linux-gnu/4.4.3/../../../../lib/crti.o
                0x0000000000240fe8                _GLOBAL_OFFSET_TABLE_
 *(.igot.plt)

.data           0x0000000000241dc0       0x20
 *(.data .data.* .gnu.linkonce.d.*)
 .data          0x0000000000241dc0        0x0 /usr/lib/gcc/x86_64-linux-gnu/4.4.3/../../../../lib/crti.o
 .data          0x0000000000241dc0        0x0 /usr/lib/gcc/x86_64-linux-gnu/4.4.3/crtbeginS.o
 .data.rel      0x0000000000241dc0        0x8 /usr/lib/gcc/x86_64-linux-gnu/4.4.3/crtbeginS.o
                0x0000000000241dc0                __dso_handle
 .data          0x0000000000241dc8        0x0 channel.o
 .data.DW.ref.__gxx_personality_v0
                0x0000000000241dc8        0x8 channel.o
                0x0000000000241dc8                DW.ref.__gxx_personality_v0
 .data          0x0000000000241dd0        0x0 core.o
 .data          0x0000000000241dd0        0x0 common.o
 .data          0x0000000000241dd0        0x0 packet.o
 .data          0x0000000000241dd0        0x0 com_barchart_udt_SocketUDT.o
 .data          0x0000000000241dd0        0x0 api.o
 .data.DW.ref._ZTI13CUDTException
                0x0000000000241dd0        0x8 api.o
                0x0000000000241dd0                DW.ref._ZTI13CUDTException
 .data.DW.ref._ZTISt9bad_alloc
                0x0000000000241dd8        0x8 api.o
                0x0000000000241dd8                DW.ref._ZTISt9bad_alloc
 .data          0x0000000000241de0        0x0 ccc.o
 .data          0x0000000000241de0        0x0 buffer.o
 .data          0x0000000000241de0        0x0 epoll.o
 .data          0x0000000000241de0        0x0 window.o
 .data          0x0000000000241de0        0x0 md5.o
 .data          0x0000000000241de0        0x0 list.o
 .data          0x0000000000241de0        0x0 cache.o
 .data          0x0000000000241de0        0x0 queue.o
 .data          0x0000000000241de0        0x0 /usr/lib/gcc/x86_64-linux-gnu/4.4.3/crtendS.o
 .data          0x0000000000241de0        0x0 /usr/lib/gcc/x86_64-linux-gnu/4.4.3/../../../../lib/crtn.o

.data1
 *(.data1)
                0x0000000000241de0                _edata = .
                0x0000000000241de0                PROVIDE (edata, .)
                0x0000000000241de0                __bss_start = .

.bss            0x0000000000241de0      0x568
 *(.dynbss)
 .dynbss        0x0000000000000000        0x0 /usr/lib/gcc/x86_64-linux-gnu/4.4.3/../../../../lib/crti.o
 *(.bss .bss.* .gnu.linkonce.b.*)
 .bss           0x0000000000241de0        0x0 /usr/lib/gcc/x86_64-linux-gnu/4.4.3/../../../../lib/crti.o
 .bss           0x0000000000241de0       0x10 /usr/lib/gcc/x86_64-linux-gnu/4.4.3/crtbeginS.o
 .bss           0x0000000000241df0        0x0 channel.o
 *fill*         0x0000000000241df0       0x10 00
 .bss           0x0000000000241e00      0x270 core.o
                0x0000000000241e00                _ZN4CUDT11s_UDTUnitedE
 *fill*         0x0000000000242070       0x10 00
 .bss           0x0000000000242080       0x90 common.o
                0x0000000000242080                _ZN6CTimer17s_ullCPUFrequencyE
                0x00000000002420a0                _ZN6CTimer11m_EventLockE
                0x00000000002420e0                _ZN6CTimer11m_EventCondE
 .bss           0x0000000000242110        0x0 packet.o
 .bss           0x0000000000242110      0x238 com_barchart_udt_SocketUDT.o
 .bss           0x0000000000242348        0x0 api.o
 .bss           0x0000000000242348        0x0 ccc.o
 .bss           0x0000000000242348        0x0 buffer.o
 .bss           0x0000000000242348        0x0 epoll.o
 .bss           0x0000000000242348        0x0 window.o
 .bss           0x0000000000242348        0x0 md5.o
 .bss           0x0000000000242348        0x0 list.o
 .bss           0x0000000000242348        0x0 cache.o
 .bss           0x0000000000242348        0x0 queue.o
 .bss           0x0000000000242348        0x0 /usr/lib/gcc/x86_64-linux-gnu/4.4.3/crtendS.o
 .bss           0x0000000000242348        0x0 /usr/lib/gcc/x86_64-linux-gnu/4.4.3/../../../../lib/crtn.o
 *(COMMON)
                0x0000000000242348                . = ALIGN ((. != 0x0)?0x8:0x1)

.lbss
 *(.dynlbss)
 *(.lbss .lbss.* .gnu.linkonce.lb.*)
 *(LARGE_COMMON)
                0x0000000000242348                . = ALIGN (0x8)

.lrodata
 *(.lrodata .lrodata.* .gnu.linkonce.lr.*)

.ldata          0x0000000000642348        0x0
 *(.ldata .ldata.* .gnu.linkonce.l.*)
                0x0000000000642348                . = ALIGN ((. != 0x0)?0x8:0x1)
                0x0000000000642348                . = ALIGN (0x8)
                0x0000000000642348                _end = .
                0x0000000000642348                PROVIDE (end, .)
                0x0000000000642348                . = DATA_SEGMENT_END (.)

.stab
 *(.stab)

.stabstr
 *(.stabstr)

.stab.excl
 *(.stab.excl)

.stab.exclstr
 *(.stab.exclstr)

.stab.index
 *(.stab.index)

.stab.indexstr
 *(.stab.indexstr)

.comment        0x0000000000000000       0x23
 *(.comment)
 .comment       0x0000000000000000       0x23 /usr/lib/gcc/x86_64-linux-gnu/4.4.3/crtbeginS.o
                                         0x24 (size before relaxing)
 .comment       0x0000000000000000       0x24 channel.o
 .comment       0x0000000000000000       0x24 core.o
 .comment       0x0000000000000000       0x24 common.o
 .comment       0x0000000000000000       0x24 packet.o
 .comment       0x0000000000000000       0x24 com_barchart_udt_SocketUDT.o
 .comment       0x0000000000000000       0x24 api.o
 .comment       0x0000000000000000       0x24 ccc.o
 .comment       0x0000000000000000       0x24 buffer.o
 .comment       0x0000000000000000       0x24 epoll.o
 .comment       0x0000000000000000       0x24 window.o
 .comment       0x0000000000000000       0x24 md5.o
 .comment       0x0000000000000000       0x24 list.o
 .comment       0x0000000000000000       0x24 cache.o
 .comment       0x0000000000000000       0x24 queue.o
 .comment       0x0000000000000000       0x24 /usr/lib/gcc/x86_64-linux-gnu/4.4.3/crtendS.o

.debug
 *(.debug)

.line
 *(.line)

.debug_srcinfo
 *(.debug_srcinfo)

.debug_sfnames
 *(.debug_sfnames)

.debug_aranges
 *(.debug_aranges)

.debug_pubnames
 *(.debug_pubnames)

.debug_info
 *(.debug_info .gnu.linkonce.wi.*)

.debug_abbrev
 *(.debug_abbrev)

.debug_line
 *(.debug_line)

.debug_frame
 *(.debug_frame)

.debug_str
 *(.debug_str)

.debug_loc
 *(.debug_loc)

.debug_macinfo
 *(.debug_macinfo)

.debug_weaknames
 *(.debug_weaknames)

.debug_funcnames
 *(.debug_funcnames)

.debug_typenames
 *(.debug_typenames)

.debug_varnames
 *(.debug_varnames)

.debug_pubtypes
 *(.debug_pubtypes)

.debug_ranges
 *(.debug_ranges)

.gnu.attributes
 *(.gnu.attributes)

/DISCARD/
 *(.note.GNU-stack)
 *(.gnu_debuglink)
 *(.gnu.lto_*)
OUTPUT(libSocketUDT-linux-x86-64.so elf64-x86-64)
