
Discarded input sections

 .note.GNU-stack
                0x0000000000000000        0x0 /usr/lib/gcc/x86_64-linux-gnu/4.3.3/../../../../lib/crti.o
 .note.GNU-stack
                0x0000000000000000        0x0 /usr/lib/gcc/x86_64-linux-gnu/4.3.3/crtbeginS.o
 DW.ref.__gxx_personality_v0
                0x0000000000000000        0x0 channel.o
 .note.GNU-stack
                0x0000000000000000        0x0 channel.o
 _ZN6CSeqNo6seqcmpERKiS1_
                0x0000000000000000        0x0 core.o
 _ZN6CSeqNo6seqlenERKiS1_
                0x0000000000000000        0x0 core.o
 _ZN6CSeqNo6seqoffERKiS1_
                0x0000000000000000        0x0 core.o
 _ZN6CSeqNo6incseqEi
                0x0000000000000000        0x0 core.o
 _ZN6CSeqNo6decseqERKi
                0x0000000000000000        0x0 core.o
 _ZN6CSeqNo6incseqERKiS1_
                0x0000000000000000        0x0 core.o
 _ZN6CAckNo6incackERKi
                0x0000000000000000        0x0 core.o
 _ZN17CCCVirtualFactoryC2Ev
                0x0000000000000000        0x0 core.o
 _ZN10CCCFactoryI6CUDTCCEC1Ev
                0x0000000000000000        0x0 core.o
 _ZN13CUDTExceptionaSERKS_
                0x0000000000000000        0x0 core.o
 _ZNSt4fposI11__mbstate_tEC1El
                0x0000000000000000        0x0 core.o
 _ZN10CCCFactoryI6CUDTCCE5cloneEv
                0x0000000000000000        0x0 core.o
 _ZN17CCCVirtualFactoryD2Ev
                0x0000000000000000        0x0 core.o
 _ZN10CCCFactoryI6CUDTCCED0Ev
                0x0000000000000000        0x0 core.o
 _ZN17CCCVirtualFactoryD0Ev
                0x0000000000000000        0x0 core.o
 _ZN17CCCVirtualFactoryD1Ev
                0x0000000000000000        0x0 core.o
 _ZN10CCCFactoryI6CUDTCCED1Ev
                0x0000000000000000        0x0 core.o
 _ZN10CCCFactoryI6CUDTCCE6createEv
                0x0000000000000000        0x0 core.o
 _ZTV10CCCFactoryI6CUDTCCE
                0x0000000000000000        0x0 core.o
 _ZTI10CCCFactoryI6CUDTCCE
                0x0000000000000000        0x0 core.o
 _ZTS10CCCFactoryI6CUDTCCE
                0x0000000000000000        0x0 core.o
 _ZTI17CCCVirtualFactory
                0x0000000000000000        0x0 core.o
 _ZTS17CCCVirtualFactory
                0x0000000000000000        0x0 core.o
 _ZTV17CCCVirtualFactory
                0x0000000000000000        0x0 core.o
 DW.ref.__gxx_personality_v0
                0x0000000000000000        0x0 core.o
 .data.DW.ref.__gxx_personality_v0
                0x0000000000000000        0x0 core.o
 .note.GNU-stack
                0x0000000000000000        0x0 core.o
 _ZTV13CUDTException
                0x0000000000000000        0x0 common.o
 _ZTS13CUDTException
                0x0000000000000000        0x0 common.o
 _ZTI13CUDTException
                0x0000000000000000        0x0 common.o
 DW.ref.__gxx_personality_v0
                0x0000000000000000        0x0 common.o
 .data.DW.ref.__gxx_personality_v0
                0x0000000000000000        0x0 common.o
 .note.GNU-stack
                0x0000000000000000        0x0 common.o
 DW.ref.__gxx_personality_v0
                0x0000000000000000        0x0 packet.o
 .data.DW.ref.__gxx_personality_v0
                0x0000000000000000        0x0 packet.o
 .note.GNU-stack
                0x0000000000000000        0x0 packet.o
 _ZN7JNIEnv_9FindClassEPKc
                0x0000000000000000        0x0 com_barchart_udt_SocketUDT.o
 _ZN7JNIEnv_5ThrowEP11_jthrowable
                0x0000000000000000        0x0 com_barchart_udt_SocketUDT.o
 _ZN7JNIEnv_8ThrowNewEP7_jclassPKc
                0x0000000000000000        0x0 com_barchart_udt_SocketUDT.o
 _ZN7JNIEnv_12NewGlobalRefEP8_jobject
                0x0000000000000000        0x0 com_barchart_udt_SocketUDT.o
 _ZN7JNIEnv_12IsSameObjectEP8_jobjectS1_
                0x0000000000000000        0x0 com_barchart_udt_SocketUDT.o
 _ZN7JNIEnv_11GetMethodIDEP7_jclassPKcS3_
                0x0000000000000000        0x0 com_barchart_udt_SocketUDT.o
 _ZN7JNIEnv_10GetFieldIDEP7_jclassPKcS3_
                0x0000000000000000        0x0 com_barchart_udt_SocketUDT.o
 _ZN7JNIEnv_14GetObjectFieldEP8_jobjectP9_jfieldID
                0x0000000000000000        0x0 com_barchart_udt_SocketUDT.o
 _ZN7JNIEnv_11GetIntFieldEP8_jobjectP9_jfieldID
                0x0000000000000000        0x0 com_barchart_udt_SocketUDT.o
 _ZN7JNIEnv_14SetObjectFieldEP8_jobjectP9_jfieldIDS1_
                0x0000000000000000        0x0 com_barchart_udt_SocketUDT.o
 _ZN7JNIEnv_15SetBooleanFieldEP8_jobjectP9_jfieldIDh
                0x0000000000000000        0x0 com_barchart_udt_SocketUDT.o
 _ZN7JNIEnv_11SetIntFieldEP8_jobjectP9_jfieldIDi
                0x0000000000000000        0x0 com_barchart_udt_SocketUDT.o
 _ZN7JNIEnv_12SetLongFieldEP8_jobjectP9_jfieldIDl
                0x0000000000000000        0x0 com_barchart_udt_SocketUDT.o
 _ZN7JNIEnv_14SetDoubleFieldEP8_jobjectP9_jfieldIDd
                0x0000000000000000        0x0 com_barchart_udt_SocketUDT.o
 _ZN7JNIEnv_12NewStringUTFEPKc
                0x0000000000000000        0x0 com_barchart_udt_SocketUDT.o
 _ZN7JNIEnv_14GetArrayLengthEP7_jarray
                0x0000000000000000        0x0 com_barchart_udt_SocketUDT.o
 _ZN7JNIEnv_21GetObjectArrayElementEP13_jobjectArrayi
                0x0000000000000000        0x0 com_barchart_udt_SocketUDT.o
 _ZN7JNIEnv_11NewIntArrayEi
                0x0000000000000000        0x0 com_barchart_udt_SocketUDT.o
 _ZN7JNIEnv_20GetByteArrayElementsEP11_jbyteArrayPh
                0x0000000000000000        0x0 com_barchart_udt_SocketUDT.o
 _ZN7JNIEnv_19GetIntArrayElementsEP10_jintArrayPh
                0x0000000000000000        0x0 com_barchart_udt_SocketUDT.o
 _ZN7JNIEnv_24ReleaseByteArrayElementsEP11_jbyteArrayPai
                0x0000000000000000        0x0 com_barchart_udt_SocketUDT.o
 _ZN7JNIEnv_23ReleaseIntArrayElementsEP10_jintArrayPii
                0x0000000000000000        0x0 com_barchart_udt_SocketUDT.o
 _ZN7JNIEnv_17GetIntArrayRegionEP10_jintArrayiiPi
                0x0000000000000000        0x0 com_barchart_udt_SocketUDT.o
 _ZN7JNIEnv_17SetIntArrayRegionEP10_jintArrayiiPKi
                0x0000000000000000        0x0 com_barchart_udt_SocketUDT.o
 _ZN7JNIEnv_22GetDirectBufferAddressEP8_jobject
                0x0000000000000000        0x0 com_barchart_udt_SocketUDT.o
 _ZN7JNIEnv_23GetDirectBufferCapacityEP8_jobject
                0x0000000000000000        0x0 com_barchart_udt_SocketUDT.o
 _ZnwmPv        0x0000000000000000        0x0 com_barchart_udt_SocketUDT.o
 _ZNKSt23_Rb_tree_const_iteratorIiEdeEv
                0x0000000000000000        0x0 com_barchart_udt_SocketUDT.o
 _ZNKSt6vectorIiSaIiEE4sizeEv
                0x0000000000000000        0x0 com_barchart_udt_SocketUDT.o
 _ZN9__gnu_cxx17__normal_iteratorIPiSt6vectorIiSaIiEEEC1Ev
                0x0000000000000000        0x0 com_barchart_udt_SocketUDT.o
 _ZNSt23_Rb_tree_const_iteratorIiEC1ERKSt17_Rb_tree_iteratorIiE
                0x0000000000000000        0x0 com_barchart_udt_SocketUDT.o
 _ZNSt4pairISt23_Rb_tree_const_iteratorIiEbEC1ERKS1_RKb
                0x0000000000000000        0x0 com_barchart_udt_SocketUDT.o
 _ZNSt8_Rb_treeIiiSt9_IdentityIiESt4lessIiESaIiEE8_M_beginEv
                0x0000000000000000        0x0 com_barchart_udt_SocketUDT.o
 _ZNKSt8_Rb_treeIiiSt9_IdentityIiESt4lessIiESaIiEE4sizeEv
                0x0000000000000000        0x0 com_barchart_udt_SocketUDT.o
 _ZNKSt3setIiSt4lessIiESaIiEE4sizeEv
                0x0000000000000000        0x0 com_barchart_udt_SocketUDT.o
 _ZNSt12_Vector_baseIiSaIiEE19_M_get_Tp_allocatorEv
                0x0000000000000000        0x0 com_barchart_udt_SocketUDT.o
 _ZN9__gnu_cxx13new_allocatorIiE9constructEPiRKi
                0x0000000000000000        0x0 com_barchart_udt_SocketUDT.o
 _ZN9__gnu_cxx17__normal_iteratorIPiSt6vectorIiSaIiEEEC1ERKS1_
                0x0000000000000000        0x0 com_barchart_udt_SocketUDT.o
 _ZNSt6vectorIiSaIiEE3endEv
                0x0000000000000000        0x0 com_barchart_udt_SocketUDT.o
 _ZNSt6vectorIiSaIiEE5beginEv
                0x0000000000000000        0x0 com_barchart_udt_SocketUDT.o
 _ZSt19__iterator_categoryIN9__gnu_cxx17__normal_iteratorIPiSt6vectorIiSaIiEEEEENSt15iterator_traitsIT_E17iterator_categoryERKS8_
                0x0000000000000000        0x0 com_barchart_udt_SocketUDT.o
 _ZNK9__gnu_cxx17__normal_iteratorIPiSt6vectorIiSaIiEEE4baseEv
                0x0000000000000000        0x0 com_barchart_udt_SocketUDT.o
 _ZN9__gnu_cxxneIPiSt6vectorIiSaIiEEEEbRKNS_17__normal_iteratorIT_T0_EESA_
                0x0000000000000000        0x0 com_barchart_udt_SocketUDT.o
 _ZNSt8_Rb_treeIiiSt9_IdentityIiESt4lessIiESaIiEE6_M_endEv
                0x0000000000000000        0x0 com_barchart_udt_SocketUDT.o
 _ZNKSt9_IdentityIiEclERKi
                0x0000000000000000        0x0 com_barchart_udt_SocketUDT.o
 _ZNKSt4lessIiEclERKiS2_
                0x0000000000000000        0x0 com_barchart_udt_SocketUDT.o
 _ZNSt8_Rb_treeIiiSt9_IdentityIiESt4lessIiESaIiEE8_S_rightEPSt18_Rb_tree_node_base
                0x0000000000000000        0x0 com_barchart_udt_SocketUDT.o
 _ZNSt8_Rb_treeIiiSt9_IdentityIiESt4lessIiESaIiEE7_S_leftEPSt18_Rb_tree_node_base
                0x0000000000000000        0x0 com_barchart_udt_SocketUDT.o
 _ZNSt17_Rb_tree_iteratorIiEC1EPSt13_Rb_tree_nodeIiE
                0x0000000000000000        0x0 com_barchart_udt_SocketUDT.o
 _ZNSt8_Rb_treeIiiSt9_IdentityIiESt4lessIiESaIiEE5beginEv
                0x0000000000000000        0x0 com_barchart_udt_SocketUDT.o
 _ZNKSt17_Rb_tree_iteratorIiEeqERKS0_
                0x0000000000000000        0x0 com_barchart_udt_SocketUDT.o
 _ZNSt4pairISt17_Rb_tree_iteratorIiEbEC1ERKS1_RKb
                0x0000000000000000        0x0 com_barchart_udt_SocketUDT.o
 _ZNSt23_Rb_tree_const_iteratorIiEC1EPKSt13_Rb_tree_nodeIiE
                0x0000000000000000        0x0 com_barchart_udt_SocketUDT.o
 _ZNKSt8_Rb_treeIiiSt9_IdentityIiESt4lessIiESaIiEE5beginEv
                0x0000000000000000        0x0 com_barchart_udt_SocketUDT.o
 _ZNKSt3setIiSt4lessIiESaIiEE5beginEv
                0x0000000000000000        0x0 com_barchart_udt_SocketUDT.o
 _ZN9__gnu_cxx13new_allocatorISt13_Rb_tree_nodeIiEED2Ev
                0x0000000000000000        0x0 com_barchart_udt_SocketUDT.o
 _ZNSaISt13_Rb_tree_nodeIiEED2Ev
                0x0000000000000000        0x0 com_barchart_udt_SocketUDT.o
 _ZNSt8_Rb_treeIiiSt9_IdentityIiESt4lessIiESaIiEE13_Rb_tree_implIS3_Lb0EED1Ev
                0x0000000000000000        0x0 com_barchart_udt_SocketUDT.o
 _ZSt8_DestroyIPiEvT_S1_
                0x0000000000000000        0x0 com_barchart_udt_SocketUDT.o
 _ZSt8_DestroyIPiiEvT_S1_RSaIT0_E
                0x0000000000000000        0x0 com_barchart_udt_SocketUDT.o
 _ZNK9__gnu_cxx17__normal_iteratorIPiSt6vectorIiSaIiEEEdeEv
                0x0000000000000000        0x0 com_barchart_udt_SocketUDT.o
 _ZN9__gnu_cxx17__normal_iteratorIPKiSt6vectorIiSaIiEEEC1ERKS2_
                0x0000000000000000        0x0 com_barchart_udt_SocketUDT.o
 _ZNKSt6vectorIiSaIiEE3endEv
                0x0000000000000000        0x0 com_barchart_udt_SocketUDT.o
 _ZNKSt6vectorIiSaIiEE5beginEv
                0x0000000000000000        0x0 com_barchart_udt_SocketUDT.o
 _ZNK9__gnu_cxx17__normal_iteratorIPKiSt6vectorIiSaIiEEE4baseEv
                0x0000000000000000        0x0 com_barchart_udt_SocketUDT.o
 _ZN9__gnu_cxxeqIPKiSt6vectorIiSaIiEEEEbRKNS_17__normal_iteratorIT_T0_EESB_
                0x0000000000000000        0x0 com_barchart_udt_SocketUDT.o
 _ZNKSt6vectorIiSaIiEE5emptyEv
                0x0000000000000000        0x0 com_barchart_udt_SocketUDT.o
 _ZN9__gnu_cxxmiIPiSt6vectorIiSaIiEEEENS_17__normal_iteratorIT_T0_E15difference_typeERKS8_SB_
                0x0000000000000000        0x0 com_barchart_udt_SocketUDT.o
 _ZN9__gnu_cxx17__normal_iteratorIPiSt6vectorIiSaIiEEEppEv
                0x0000000000000000        0x0 com_barchart_udt_SocketUDT.o
 _ZSt6__findIN9__gnu_cxx17__normal_iteratorIPiSt6vectorIiSaIiEEEEiET_S7_S7_RKT0_St26random_access_iterator_tag
                0x0000000000000000        0x0 com_barchart_udt_SocketUDT.o
 _ZSt4findIN9__gnu_cxx17__normal_iteratorIPiSt6vectorIiSaIiEEEEiET_S7_S7_RKT0_
                0x0000000000000000        0x0 com_barchart_udt_SocketUDT.o
 _ZNSt8_Rb_treeIiiSt9_IdentityIiESt4lessIiESaIiEE8_S_valueEPKSt13_Rb_tree_nodeIiE
                0x0000000000000000        0x0 com_barchart_udt_SocketUDT.o
 _ZNSt8_Rb_treeIiiSt9_IdentityIiESt4lessIiESaIiEE6_S_keyEPKSt13_Rb_tree_nodeIiE
                0x0000000000000000        0x0 com_barchart_udt_SocketUDT.o
 _ZNSt8_Rb_treeIiiSt9_IdentityIiESt4lessIiESaIiEE8_S_valueEPKSt18_Rb_tree_node_base
                0x0000000000000000        0x0 com_barchart_udt_SocketUDT.o
 _ZNSt8_Rb_treeIiiSt9_IdentityIiESt4lessIiESaIiEE6_S_keyEPKSt18_Rb_tree_node_base
                0x0000000000000000        0x0 com_barchart_udt_SocketUDT.o
 _ZNSt8_Rb_treeIiiSt9_IdentityIiESt4lessIiESaIiEE13_Rb_tree_implIS3_Lb0EE13_M_initializeEv
                0x0000000000000000        0x0 com_barchart_udt_SocketUDT.o
 _ZN9__gnu_cxx13new_allocatorIiE7destroyEPi
                0x0000000000000000        0x0 com_barchart_udt_SocketUDT.o
 _ZN9__gnu_cxx13new_allocatorIiED2Ev
                0x0000000000000000        0x0 com_barchart_udt_SocketUDT.o
 _ZNSaIiED2Ev   0x0000000000000000        0x0 com_barchart_udt_SocketUDT.o
 _ZNSt12_Vector_baseIiSaIiEE12_Vector_implD1Ev
                0x0000000000000000        0x0 com_barchart_udt_SocketUDT.o
 _ZNSaIiED1Ev   0x0000000000000000        0x0 com_barchart_udt_SocketUDT.o
 _ZNSt12__miter_baseIPiLb0EE3__bES0_
                0x0000000000000000        0x0 com_barchart_udt_SocketUDT.o
 _ZSt3maxImERKT_S2_S2_
                0x0000000000000000        0x0 com_barchart_udt_SocketUDT.o
 _ZN9__gnu_cxx13new_allocatorISt13_Rb_tree_nodeIiEEC2Ev
                0x0000000000000000        0x0 com_barchart_udt_SocketUDT.o
 _ZNSaISt13_Rb_tree_nodeIiEEC2Ev
                0x0000000000000000        0x0 com_barchart_udt_SocketUDT.o
 _ZNSt8_Rb_treeIiiSt9_IdentityIiESt4lessIiESaIiEE13_Rb_tree_implIS3_Lb0EEC1Ev
                0x0000000000000000        0x0 com_barchart_udt_SocketUDT.o
 _ZNSt8_Rb_treeIiiSt9_IdentityIiESt4lessIiESaIiEEC1Ev
                0x0000000000000000        0x0 com_barchart_udt_SocketUDT.o
 _ZNSt3setIiSt4lessIiESaIiEEC1Ev
                0x0000000000000000        0x0 com_barchart_udt_SocketUDT.o
 _ZNKSt8_Rb_treeIiiSt9_IdentityIiESt4lessIiESaIiEE21_M_get_Node_allocatorEv
                0x0000000000000000        0x0 com_barchart_udt_SocketUDT.o
 _ZN9__gnu_cxx13new_allocatorIiEC2Ev
                0x0000000000000000        0x0 com_barchart_udt_SocketUDT.o
 _ZNSaIiEC2Ev   0x0000000000000000        0x0 com_barchart_udt_SocketUDT.o
 _ZNSt12_Vector_baseIiSaIiEE12_Vector_implC1Ev
                0x0000000000000000        0x0 com_barchart_udt_SocketUDT.o
 _ZNSt12_Vector_baseIiSaIiEEC2Ev
                0x0000000000000000        0x0 com_barchart_udt_SocketUDT.o
 _ZNSt6vectorIiSaIiEEC1Ev
                0x0000000000000000        0x0 com_barchart_udt_SocketUDT.o
 _ZNSaIiEC1ISt13_Rb_tree_nodeIiEEERKSaIT_E
                0x0000000000000000        0x0 com_barchart_udt_SocketUDT.o
 _ZNKSt8_Rb_treeIiiSt9_IdentityIiESt4lessIiESaIiEE13get_allocatorEv
                0x0000000000000000        0x0 com_barchart_udt_SocketUDT.o
 _ZNSt12__niter_baseIPiLb0EE3__bES0_
                0x0000000000000000        0x0 com_barchart_udt_SocketUDT.o
 _ZNKSt12_Vector_baseIiSaIiEE19_M_get_Tp_allocatorEv
                0x0000000000000000        0x0 com_barchart_udt_SocketUDT.o
 _ZNK9__gnu_cxx13new_allocatorIiE8max_sizeEv
                0x0000000000000000        0x0 com_barchart_udt_SocketUDT.o
 _ZNKSt6vectorIiSaIiEE8max_sizeEv
                0x0000000000000000        0x0 com_barchart_udt_SocketUDT.o
 _ZNK9__gnu_cxx13new_allocatorISt13_Rb_tree_nodeIiEE8max_sizeEv
                0x0000000000000000        0x0 com_barchart_udt_SocketUDT.o
 _ZN7JNIEnv_16CallObjectMethodEP8_jobjectP10_jmethodIDz
                0x0000000000000000        0x0 com_barchart_udt_SocketUDT.o
 _ZN7JNIEnv_17CallBooleanMethodEP8_jobjectP10_jmethodIDz
                0x0000000000000000        0x0 com_barchart_udt_SocketUDT.o
 _ZN7JNIEnv_13CallIntMethodEP8_jobjectP10_jmethodIDz
                0x0000000000000000        0x0 com_barchart_udt_SocketUDT.o
 _ZN7JNIEnv_14CallLongMethodEP8_jobjectP10_jmethodIDz
                0x0000000000000000        0x0 com_barchart_udt_SocketUDT.o
 _ZN7JNIEnv_9NewObjectEP7_jclassP10_jmethodIDz
                0x0000000000000000        0x0 com_barchart_udt_SocketUDT.o
 _ZNSt20__copy_move_backwardILb0ELb1ESt26random_access_iterator_tagE13__copy_move_bIiEEPT_PKS3_S6_S4_
                0x0000000000000000        0x0 com_barchart_udt_SocketUDT.o
 _ZSt22__copy_move_backward_aILb0EPiS0_ET1_T0_S2_S1_
                0x0000000000000000        0x0 com_barchart_udt_SocketUDT.o
 _ZSt23__copy_move_backward_a2ILb0EPiS0_ET1_T0_S2_S1_
                0x0000000000000000        0x0 com_barchart_udt_SocketUDT.o
 _ZSt13copy_backwardIPiS0_ET0_T_S2_S1_
                0x0000000000000000        0x0 com_barchart_udt_SocketUDT.o
 _ZNSt11__copy_moveILb0ELb1ESt26random_access_iterator_tagE8__copy_mIiEEPT_PKS3_S6_S4_
                0x0000000000000000        0x0 com_barchart_udt_SocketUDT.o
 _ZSt13__copy_move_aILb0EPiS0_ET1_T0_S2_S1_
                0x0000000000000000        0x0 com_barchart_udt_SocketUDT.o
 _ZSt14__copy_move_a2ILb0EPiS0_ET1_T0_S2_S1_
                0x0000000000000000        0x0 com_barchart_udt_SocketUDT.o
 _ZSt4copyIPiS0_ET0_T_S2_S1_
                0x0000000000000000        0x0 com_barchart_udt_SocketUDT.o
 _ZNSt20__uninitialized_copyILb1EE18uninitialized_copyIPiS2_EET0_T_S4_S3_
                0x0000000000000000        0x0 com_barchart_udt_SocketUDT.o
 _ZSt18uninitialized_copyIPiS0_ET0_T_S2_S1_
                0x0000000000000000        0x0 com_barchart_udt_SocketUDT.o
 _ZSt22__uninitialized_copy_aIPiS0_iET0_T_S2_S1_RSaIT1_E
                0x0000000000000000        0x0 com_barchart_udt_SocketUDT.o
 _ZSt22__uninitialized_move_aIPiS0_SaIiEET0_T_S3_S2_RT1_
                0x0000000000000000        0x0 com_barchart_udt_SocketUDT.o
 _ZNKSt6vectorIiSaIiEE12_M_check_lenEmPKc
                0x0000000000000000        0x0 com_barchart_udt_SocketUDT.o
 _ZN9__gnu_cxx13new_allocatorIiE8allocateEmPKv
                0x0000000000000000        0x0 com_barchart_udt_SocketUDT.o
 _ZNSt12_Vector_baseIiSaIiEE11_M_allocateEm
                0x0000000000000000        0x0 com_barchart_udt_SocketUDT.o
 _ZN9__gnu_cxx13new_allocatorISt13_Rb_tree_nodeIiEE8allocateEmPKv
                0x0000000000000000        0x0 com_barchart_udt_SocketUDT.o
 _ZNSt8_Rb_treeIiiSt9_IdentityIiESt4lessIiESaIiEE11_M_get_nodeEv
                0x0000000000000000        0x0 com_barchart_udt_SocketUDT.o
 _ZN9__gnu_cxx13new_allocatorIiE10deallocateEPim
                0x0000000000000000        0x0 com_barchart_udt_SocketUDT.o
 _ZNSt12_Vector_baseIiSaIiEE13_M_deallocateEPim
                0x0000000000000000        0x0 com_barchart_udt_SocketUDT.o
 _ZNSt6vectorIiSaIiEE13_M_insert_auxEN9__gnu_cxx17__normal_iteratorIPiS1_EERKi
                0x0000000000000000        0x0 com_barchart_udt_SocketUDT.o
 _ZNSt6vectorIiSaIiEE9push_backERKi
                0x0000000000000000        0x0 com_barchart_udt_SocketUDT.o
 _ZNSt12_Vector_baseIiSaIiEED2Ev
                0x0000000000000000        0x0 com_barchart_udt_SocketUDT.o
 _ZNSt6vectorIiSaIiEED1Ev
                0x0000000000000000        0x0 com_barchart_udt_SocketUDT.o
 _ZN9__gnu_cxx13new_allocatorISt13_Rb_tree_nodeIiEE10deallocateEPS2_m
                0x0000000000000000        0x0 com_barchart_udt_SocketUDT.o
 _ZNSt8_Rb_treeIiiSt9_IdentityIiESt4lessIiESaIiEE11_M_put_nodeEPSt13_Rb_tree_nodeIiE
                0x0000000000000000        0x0 com_barchart_udt_SocketUDT.o
 _ZNSt8_Rb_treeIiiSt9_IdentityIiESt4lessIiESaIiEE15_M_destroy_nodeEPSt13_Rb_tree_nodeIiE
                0x0000000000000000        0x0 com_barchart_udt_SocketUDT.o
 _ZNSt8_Rb_treeIiiSt9_IdentityIiESt4lessIiESaIiEE8_M_eraseEPSt13_Rb_tree_nodeIiE
                0x0000000000000000        0x0 com_barchart_udt_SocketUDT.o
 _ZNSt8_Rb_treeIiiSt9_IdentityIiESt4lessIiESaIiEED1Ev
                0x0000000000000000        0x0 com_barchart_udt_SocketUDT.o
 _ZNSt3setIiSt4lessIiESaIiEED1Ev
                0x0000000000000000        0x0 com_barchart_udt_SocketUDT.o
 _ZNSt8_Rb_treeIiiSt9_IdentityIiESt4lessIiESaIiEE14_M_create_nodeERKi
                0x0000000000000000        0x0 com_barchart_udt_SocketUDT.o
 _ZNSt23_Rb_tree_const_iteratorIiEppEv
                0x0000000000000000        0x0 com_barchart_udt_SocketUDT.o
 _ZNSt17_Rb_tree_iteratorIiEmmEv
                0x0000000000000000        0x0 com_barchart_udt_SocketUDT.o
 _ZNSt8_Rb_treeIiiSt9_IdentityIiESt4lessIiESaIiEE10_M_insert_EPKSt18_Rb_tree_node_baseS8_RKi
                0x0000000000000000        0x0 com_barchart_udt_SocketUDT.o
 _ZNSt8_Rb_treeIiiSt9_IdentityIiESt4lessIiESaIiEE16_M_insert_uniqueERKi
                0x0000000000000000        0x0 com_barchart_udt_SocketUDT.o
 _ZNSt3setIiSt4lessIiESaIiEE6insertERKi
                0x0000000000000000        0x0 com_barchart_udt_SocketUDT.o
 DW.ref.__gxx_personality_v0
                0x0000000000000000        0x0 com_barchart_udt_SocketUDT.o
 .data.DW.ref.__gxx_personality_v0
                0x0000000000000000        0x0 com_barchart_udt_SocketUDT.o
 .note.GNU-stack
                0x0000000000000000        0x0 com_barchart_udt_SocketUDT.o
 _ZnwmPv        0x0000000000000000        0x0 api.o
 _ZNSt18_Rb_tree_node_base10_S_minimumEPS_
                0x0000000000000000        0x0 api.o
 _ZNSt18_Rb_tree_node_base10_S_maximumEPS_
                0x0000000000000000        0x0 api.o
 _ZN10CUDTUnited10TLSDestroyEPv
                0x0000000000000000        0x0 api.o
 _ZNKSt17_Rb_tree_iteratorISt4pairIKiP10CUDTSocketEEeqERKS5_
                0x0000000000000000        0x0 api.o
 _ZNKSt17_Rb_tree_iteratorISt4pairIKiP10CUDTSocketEEptEv
                0x0000000000000000        0x0 api.o
 _ZNKSt23_Rb_tree_const_iteratorIiEdeEv
                0x0000000000000000        0x0 api.o
 _ZNKSt17_Rb_tree_iteratorISt4pairIKiP10CUDTSocketEEneERKS5_
                0x0000000000000000        0x0 api.o
 _ZNKSt23_Rb_tree_const_iteratorIiEneERKS0_
                0x0000000000000000        0x0 api.o
 _ZN9__gnu_cxx17__normal_iteratorIPP10CUDTSocketSt6vectorIS2_SaIS2_EEEppEv
                0x0000000000000000        0x0 api.o
 _ZNK9__gnu_cxx17__normal_iteratorIPP10CUDTSocketSt6vectorIS2_SaIS2_EEEdeEv
                0x0000000000000000        0x0 api.o
 _ZN9__gnu_cxx17__normal_iteratorIPKiSt6vectorIiSaIiEEEppEv
                0x0000000000000000        0x0 api.o
 _ZNK9__gnu_cxx17__normal_iteratorIPKiSt6vectorIiSaIiEEEdeEv
                0x0000000000000000        0x0 api.o
 _ZN9__gnu_cxx17__normal_iteratorIP12CMultiplexerSt6vectorIS1_SaIS1_EEEC1Ev
                0x0000000000000000        0x0 api.o
 _ZN9__gnu_cxx17__normal_iteratorIP12CMultiplexerSt6vectorIS1_SaIS1_EEEppEv
                0x0000000000000000        0x0 api.o
 _ZNK9__gnu_cxx17__normal_iteratorIP12CMultiplexerSt6vectorIS1_SaIS1_EEEptEv
                0x0000000000000000        0x0 api.o
 _ZNSt8_Rb_treeIiiSt9_IdentityIiESt4lessIiESaIiEE8_M_beginEv
                0x0000000000000000        0x0 api.o
 _ZNSt8_Rb_treeIiSt4pairIKiP10CUDTSocketESt10_Select1stIS4_ESt4lessIiESaIS4_EE8_M_beginEv
                0x0000000000000000        0x0 api.o
 _ZNSt12_Vector_baseI12CMultiplexerSaIS0_EE19_M_get_Tp_allocatorEv
                0x0000000000000000        0x0 api.o
 _ZNKSt17_Rb_tree_iteratorISt4pairIKiP10CUDTSocketEEdeEv
                0x0000000000000000        0x0 api.o
 _ZNKSt4lessIiEclERKiS2_
                0x0000000000000000        0x0 api.o
 _ZNSt4pairIKiP10CUDTSocketEC1ERS0_RKS2_
                0x0000000000000000        0x0 api.o
 _ZNKSt8_Rb_treeIiiSt9_IdentityIiESt4lessIiESaIiEE4sizeEv
                0x0000000000000000        0x0 api.o
 _ZNKSt3setIiSt4lessIiESaIiEE4sizeEv
                0x0000000000000000        0x0 api.o
 _ZNSt23_Rb_tree_const_iteratorIiEC1ERKSt17_Rb_tree_iteratorIiE
                0x0000000000000000        0x0 api.o
 _ZNSt4pairISt23_Rb_tree_const_iteratorIiEbEC1ERKS1_RKb
                0x0000000000000000        0x0 api.o
 _ZNSt12_Vector_baseIP10CUDTSocketSaIS1_EE19_M_get_Tp_allocatorEv
                0x0000000000000000        0x0 api.o
 _ZN9__gnu_cxx17__normal_iteratorIPP10CUDTSocketSt6vectorIS2_SaIS2_EEEC1ERKS3_
                0x0000000000000000        0x0 api.o
 _ZNSt6vectorIP10CUDTSocketSaIS1_EE5beginEv
                0x0000000000000000        0x0 api.o
 _ZNSt6vectorIP10CUDTSocketSaIS1_EE3endEv
                0x0000000000000000        0x0 api.o
 _ZN9__gnu_cxx13new_allocatorIP10CUDTSocketE9constructEPS2_RKS2_
                0x0000000000000000        0x0 api.o
 _ZNK9__gnu_cxx17__normal_iteratorIPP10CUDTSocketSt6vectorIS2_SaIS2_EEE4baseEv
                0x0000000000000000        0x0 api.o
 _ZN9__gnu_cxxmiIPP10CUDTSocketSt6vectorIS2_SaIS2_EEEENS_17__normal_iteratorIT_T0_E15difference_typeERKSA_SD_
                0x0000000000000000        0x0 api.o
 _ZN9__gnu_cxxeqIPP10CUDTSocketSt6vectorIS2_SaIS2_EEEEbRKNS_17__normal_iteratorIT_T0_EESC_
                0x0000000000000000        0x0 api.o
 _ZN9__gnu_cxxneIPP10CUDTSocketSt6vectorIS2_SaIS2_EEEEbRKNS_17__normal_iteratorIT_T0_EESC_
                0x0000000000000000        0x0 api.o
 _ZN9__gnu_cxx17__normal_iteratorIPKiSt6vectorIiSaIiEEEC1ERKS2_
                0x0000000000000000        0x0 api.o
 _ZNKSt6vectorIiSaIiEE5beginEv
                0x0000000000000000        0x0 api.o
 _ZNKSt6vectorIiSaIiEE3endEv
                0x0000000000000000        0x0 api.o
 _ZNK9__gnu_cxx17__normal_iteratorIPKiSt6vectorIiSaIiEEE4baseEv
                0x0000000000000000        0x0 api.o
 _ZN9__gnu_cxxneIPKiSt6vectorIiSaIiEEEEbRKNS_17__normal_iteratorIT_T0_EESB_
                0x0000000000000000        0x0 api.o
 _ZN9__gnu_cxx13new_allocatorIiE9constructEPiRKi
                0x0000000000000000        0x0 api.o
 _ZN9__gnu_cxx17__normal_iteratorIP12CMultiplexerSt6vectorIS1_SaIS1_EEEC1ERKS2_
                0x0000000000000000        0x0 api.o
 _ZNSt6vectorI12CMultiplexerSaIS0_EE5beginEv
                0x0000000000000000        0x0 api.o
 _ZNSt6vectorI12CMultiplexerSaIS0_EE3endEv
                0x0000000000000000        0x0 api.o
 _ZNK9__gnu_cxx17__normal_iteratorIP12CMultiplexerSt6vectorIS1_SaIS1_EEE4baseEv
                0x0000000000000000        0x0 api.o
 _ZN9__gnu_cxxneIP12CMultiplexerSt6vectorIS1_SaIS1_EEEEbRKNS_17__normal_iteratorIT_T0_EESB_
                0x0000000000000000        0x0 api.o
 _ZN9__gnu_cxxeqIP12CMultiplexerSt6vectorIS1_SaIS1_EEEEbRKNS_17__normal_iteratorIT_T0_EESB_
                0x0000000000000000        0x0 api.o
 _ZNK9__gnu_cxx17__normal_iteratorIP12CMultiplexerSt6vectorIS1_SaIS1_EEEplERKl
                0x0000000000000000        0x0 api.o
 _ZN12CMultiplexerD1Ev
                0x0000000000000000        0x0 api.o
 _ZN9__gnu_cxx13new_allocatorI12CMultiplexerE7destroyEPS1_
                0x0000000000000000        0x0 api.o
 _ZN9__gnu_cxxmiIP12CMultiplexerSt6vectorIS1_SaIS1_EEEENS_17__normal_iteratorIT_T0_E15difference_typeERKS9_SC_
                0x0000000000000000        0x0 api.o
 _ZN9__gnu_cxx13new_allocatorI12CMultiplexerE9constructEPS1_RKS1_
                0x0000000000000000        0x0 api.o
 _ZNKSt8_Rb_treeIiSt4pairIKiP10CUDTSocketESt10_Select1stIS4_ESt4lessIiESaIS4_EE5emptyEv
                0x0000000000000000        0x0 api.o
 _ZNKSt3mapIiP10CUDTSocketSt4lessIiESaISt4pairIKiS1_EEE5emptyEv
                0x0000000000000000        0x0 api.o
 _ZN9__gnu_cxx13new_allocatorISt13_Rb_tree_nodeIiEED2Ev
                0x0000000000000000        0x0 api.o
 _ZNSaISt13_Rb_tree_nodeIiEED2Ev
                0x0000000000000000        0x0 api.o
 _ZNSt8_Rb_treeIiiSt9_IdentityIiESt4lessIiESaIiEE13_Rb_tree_implIS3_Lb0EED1Ev
                0x0000000000000000        0x0 api.o
 _ZNSt8_Rb_treeIiiSt9_IdentityIiESt4lessIiESaIiEE8_S_rightEPSt18_Rb_tree_node_base
                0x0000000000000000        0x0 api.o
 _ZNSt8_Rb_treeIiiSt9_IdentityIiESt4lessIiESaIiEE7_S_leftEPSt18_Rb_tree_node_base
                0x0000000000000000        0x0 api.o
 _ZN9__gnu_cxx13new_allocatorISt13_Rb_tree_nodeISt4pairIKiP10CUDTSocketEEED2Ev
                0x0000000000000000        0x0 api.o
 _ZNSaISt13_Rb_tree_nodeISt4pairIKiP10CUDTSocketEEED2Ev
                0x0000000000000000        0x0 api.o
 _ZNSt8_Rb_treeIiSt4pairIKiP10CUDTSocketESt10_Select1stIS4_ESt4lessIiESaIS4_EE13_Rb_tree_implIS8_Lb0EED1Ev
                0x0000000000000000        0x0 api.o
 _ZNSt8_Rb_treeIiSt4pairIKiP10CUDTSocketESt10_Select1stIS4_ESt4lessIiESaIS4_EE8_S_rightEPSt18_Rb_tree_node_base
                0x0000000000000000        0x0 api.o
 _ZNSt8_Rb_treeIiSt4pairIKiP10CUDTSocketESt10_Select1stIS4_ESt4lessIiESaIS4_EE7_S_leftEPSt18_Rb_tree_node_base
                0x0000000000000000        0x0 api.o
 _ZSt8_DestroyIP12CMultiplexerEvT_S2_
                0x0000000000000000        0x0 api.o
 _ZSt8_DestroyIP12CMultiplexerS0_EvT_S2_RSaIT0_E
                0x0000000000000000        0x0 api.o
 _ZNKSt8_Rb_treeIiSt4pairIKiP10CUDTSocketESt10_Select1stIS4_ESt4lessIiESaIS4_EE8key_compEv
                0x0000000000000000        0x0 api.o
 _ZNKSt3mapIiP10CUDTSocketSt4lessIiESaISt4pairIKiS1_EEE8key_compEv
                0x0000000000000000        0x0 api.o
 _ZNSt23_Rb_tree_const_iteratorISt4pairIKiP10CUDTSocketEEC1ERKSt17_Rb_tree_iteratorIS4_E
                0x0000000000000000        0x0 api.o
 _ZNSt8_Rb_treeIiiSt9_IdentityIiESt4lessIiESaIiEE6_M_endEv
                0x0000000000000000        0x0 api.o
 _ZNKSt9_IdentityIiEclERKi
                0x0000000000000000        0x0 api.o
 _ZNSt17_Rb_tree_iteratorIiEC1EPSt13_Rb_tree_nodeIiE
                0x0000000000000000        0x0 api.o
 _ZNSt8_Rb_treeIiiSt9_IdentityIiESt4lessIiESaIiEE5beginEv
                0x0000000000000000        0x0 api.o
 _ZNKSt17_Rb_tree_iteratorIiEeqERKS0_
                0x0000000000000000        0x0 api.o
 _ZNSt4pairISt17_Rb_tree_iteratorIiEbEC1ERKS1_RKb
                0x0000000000000000        0x0 api.o
 _ZNSt8_Rb_treeIiSt4pairIKiP10CUDTSocketESt10_Select1stIS4_ESt4lessIiESaIS4_EE6_M_endEv
                0x0000000000000000        0x0 api.o
 _ZNSt17_Rb_tree_iteratorISt4pairIKiP10CUDTSocketEEC1EPSt13_Rb_tree_nodeIS4_E
                0x0000000000000000        0x0 api.o
 _ZNSt8_Rb_treeIiSt4pairIKiP10CUDTSocketESt10_Select1stIS4_ESt4lessIiESaIS4_EE5beginEv
                0x0000000000000000        0x0 api.o
 _ZNSt3mapIiP10CUDTSocketSt4lessIiESaISt4pairIKiS1_EEE5beginEv
                0x0000000000000000        0x0 api.o
 _ZNSt8_Rb_treeIiSt4pairIKiP10CUDTSocketESt10_Select1stIS4_ESt4lessIiESaIS4_EE3endEv
                0x0000000000000000        0x0 api.o
 _ZNSt3mapIiP10CUDTSocketSt4lessIiESaISt4pairIKiS1_EEE3endEv
                0x0000000000000000        0x0 api.o
 _ZNSt23_Rb_tree_const_iteratorIiEC1EPKSt13_Rb_tree_nodeIiE
                0x0000000000000000        0x0 api.o
 _ZNKSt8_Rb_treeIiiSt9_IdentityIiESt4lessIiESaIiEE5beginEv
                0x0000000000000000        0x0 api.o
 _ZNKSt3setIiSt4lessIiESaIiEE5beginEv
                0x0000000000000000        0x0 api.o
 _ZNKSt8_Rb_treeIiiSt9_IdentityIiESt4lessIiESaIiEE3endEv
                0x0000000000000000        0x0 api.o
 _ZNKSt3setIiSt4lessIiESaIiEE3endEv
                0x0000000000000000        0x0 api.o
 _ZNSt8_Rb_treeIiiSt9_IdentityIiESt4lessIiESaIiEE12_M_rightmostEv
                0x0000000000000000        0x0 api.o
 _ZNSt8_Rb_treeIiiSt9_IdentityIiESt4lessIiESaIiEE11_M_leftmostEv
                0x0000000000000000        0x0 api.o
 _ZNSt8_Rb_treeIiiSt9_IdentityIiESt4lessIiESaIiEE8_S_rightEPKSt18_Rb_tree_node_base
                0x0000000000000000        0x0 api.o
 _ZNKSt8_Rb_treeIiSt4pairIKiP10CUDTSocketESt10_Select1stIS4_ESt4lessIiESaIS4_EE4sizeEv
                0x0000000000000000        0x0 api.o
 _ZSt8_DestroyIPP10CUDTSocketEvT_S3_
                0x0000000000000000        0x0 api.o
 _ZSt8_DestroyIPP10CUDTSocketS1_EvT_S3_RSaIT0_E
                0x0000000000000000        0x0 api.o
 _ZNKSt8_Rb_treeIiiSt9_IdentityIiESt4lessIiESaIiEE7_M_rootEv
                0x0000000000000000        0x0 api.o
 _ZNKSt8_Rb_treeIiiSt9_IdentityIiESt4lessIiESaIiEE8_M_beginEv
                0x0000000000000000        0x0 api.o
 _ZNSt8_Rb_treeIiiSt9_IdentityIiESt4lessIiESaIiEE7_M_rootEv
                0x0000000000000000        0x0 api.o
 _ZNSt8_Rb_treeIiiSt9_IdentityIiESt4lessIiESaIiEE10_S_minimumEPSt18_Rb_tree_node_base
                0x0000000000000000        0x0 api.o
 _ZNSt8_Rb_treeIiiSt9_IdentityIiESt4lessIiESaIiEE10_S_maximumEPSt18_Rb_tree_node_base
                0x0000000000000000        0x0 api.o
 _ZNSt12_Vector_baseIiSaIiEE19_M_get_Tp_allocatorEv
                0x0000000000000000        0x0 api.o
 _ZNK9__gnu_cxx17__normal_iteratorIPiSt6vectorIiSaIiEEE4baseEv
                0x0000000000000000        0x0 api.o
 _ZNK9__gnu_cxx17__normal_iteratorIPiSt6vectorIiSaIiEEEdeEv
                0x0000000000000000        0x0 api.o
 _ZN9__gnu_cxx17__normal_iteratorIPiSt6vectorIiSaIiEEEC1ERKS1_
                0x0000000000000000        0x0 api.o
 _ZNSt6vectorIiSaIiEE3endEv
                0x0000000000000000        0x0 api.o
 _ZNSt12__miter_baseIN9__gnu_cxx17__normal_iteratorIP12CMultiplexerSt6vectorIS2_SaIS2_EEEELb0EE3__bES7_
                0x0000000000000000        0x0 api.o
 _ZNK9__gnu_cxx17__normal_iteratorIP12CMultiplexerSt6vectorIS1_SaIS1_EEEdeEv
                0x0000000000000000        0x0 api.o
 _ZNSt8_Rb_treeIiSt4pairIKiP10CUDTSocketESt10_Select1stIS4_ESt4lessIiESaIS4_EE11_M_leftmostEv
                0x0000000000000000        0x0 api.o
 _ZNSt8_Rb_treeIiSt4pairIKiP10CUDTSocketESt10_Select1stIS4_ESt4lessIiESaIS4_EE7_M_rootEv
                0x0000000000000000        0x0 api.o
 _ZNSt8_Rb_treeIiSt4pairIKiP10CUDTSocketESt10_Select1stIS4_ESt4lessIiESaIS4_EE12_M_rightmostEv
                0x0000000000000000        0x0 api.o
 _ZN9__gnu_cxx13new_allocatorIiE7destroyEPi
                0x0000000000000000        0x0 api.o
 _ZNSt8_Rb_treeIiSt4pairIKiP10CUDTSocketESt10_Select1stIS4_ESt4lessIiESaIS4_EE13_Rb_tree_implIS8_Lb0EE13_M_initializeEv
                0x0000000000000000        0x0 api.o
 _ZNSt4pairIKiP10CUDTSocketED1Ev
                0x0000000000000000        0x0 api.o
 _ZN9__gnu_cxx13new_allocatorISt4pairIKiP10CUDTSocketEE7destroyEPS5_
                0x0000000000000000        0x0 api.o
 _ZN9__gnu_cxx13new_allocatorI12CMultiplexerED2Ev
                0x0000000000000000        0x0 api.o
 _ZNSaI12CMultiplexerED2Ev
                0x0000000000000000        0x0 api.o
 _ZNSt12_Vector_baseI12CMultiplexerSaIS0_EE12_Vector_implD1Ev
                0x0000000000000000        0x0 api.o
 _ZNKSt10_Select1stISt4pairIKiP10CUDTSocketEEclERKS4_
                0x0000000000000000        0x0 api.o
 _ZNSt8_Rb_treeIiSt4pairIKiP10CUDTSocketESt10_Select1stIS4_ESt4lessIiESaIS4_EE8_S_rightEPKSt18_Rb_tree_node_base
                0x0000000000000000        0x0 api.o
 _ZNSt4pairISt17_Rb_tree_iteratorIiES1_EC1ERKS1_S4_
                0x0000000000000000        0x0 api.o
 _ZNSt8_Rb_treeIiiSt9_IdentityIiESt4lessIiESaIiEE3endEv
                0x0000000000000000        0x0 api.o
 _ZNKSt17_Rb_tree_iteratorIiEneERKS0_
                0x0000000000000000        0x0 api.o
 _ZNSt8_Rb_treeIiiSt9_IdentityIiESt4lessIiESaIiEE8_S_valueEPKSt13_Rb_tree_nodeIiE
                0x0000000000000000        0x0 api.o
 _ZNSt8_Rb_treeIiiSt9_IdentityIiESt4lessIiESaIiEE6_S_keyEPKSt13_Rb_tree_nodeIiE
                0x0000000000000000        0x0 api.o
 _ZNSt8_Rb_treeIiiSt9_IdentityIiESt4lessIiESaIiEE14_M_upper_boundEPSt13_Rb_tree_nodeIiES8_RKi
                0x0000000000000000        0x0 api.o
 _ZNSt8_Rb_treeIiiSt9_IdentityIiESt4lessIiESaIiEE14_M_lower_boundEPSt13_Rb_tree_nodeIiES8_RKi
                0x0000000000000000        0x0 api.o
 _ZNSt8_Rb_treeIiiSt9_IdentityIiESt4lessIiESaIiEE11equal_rangeERKi
                0x0000000000000000        0x0 api.o
 _ZNSt8_Rb_treeIiiSt9_IdentityIiESt4lessIiESaIiEE8_S_valueEPKSt18_Rb_tree_node_base
                0x0000000000000000        0x0 api.o
 _ZNSt8_Rb_treeIiiSt9_IdentityIiESt4lessIiESaIiEE6_S_keyEPKSt18_Rb_tree_node_base
                0x0000000000000000        0x0 api.o
 _ZNSt8_Rb_treeIiSt4pairIKiP10CUDTSocketESt10_Select1stIS4_ESt4lessIiESaIS4_EE8_S_valueEPKSt18_Rb_tree_node_base
                0x0000000000000000        0x0 api.o
 _ZNSt8_Rb_treeIiSt4pairIKiP10CUDTSocketESt10_Select1stIS4_ESt4lessIiESaIS4_EE6_S_keyEPKSt18_Rb_tree_node_base
                0x0000000000000000        0x0 api.o
 _ZNSt8_Rb_treeIiiSt9_IdentityIiESt4lessIiESaIiEE13_Rb_tree_implIS3_Lb0EE13_M_initializeEv
                0x0000000000000000        0x0 api.o
 _ZNSt4pairISt17_Rb_tree_iteratorIS_IKiP10CUDTSocketEES5_EC1ERKS5_S8_
                0x0000000000000000        0x0 api.o
 _ZN9__gnu_cxx13new_allocatorIP10CUDTSocketED2Ev
                0x0000000000000000        0x0 api.o
 _ZNSaIP10CUDTSocketED2Ev
                0x0000000000000000        0x0 api.o
 _ZNSt12_Vector_baseIP10CUDTSocketSaIS1_EE12_Vector_implD1Ev
                0x0000000000000000        0x0 api.o
 _ZNSt12__miter_baseIPP10CUDTSocketLb0EE3__bES2_
                0x0000000000000000        0x0 api.o
 _ZNKSt6vectorIP10CUDTSocketSaIS1_EE4sizeEv
                0x0000000000000000        0x0 api.o
 _ZSt3maxImERKT_S2_S2_
                0x0000000000000000        0x0 api.o
 _ZNSt8_Rb_treeIiiSt9_IdentityIiESt4lessIiESaIiEE7_S_leftEPKSt18_Rb_tree_node_base
                0x0000000000000000        0x0 api.o
 _ZSt8_DestroyIPiEvT_S1_
                0x0000000000000000        0x0 api.o
 _ZSt8_DestroyIPiiEvT_S1_RSaIT0_E
                0x0000000000000000        0x0 api.o
 _ZNSt6vectorIiSaIiEE15_M_erase_at_endEPi
                0x0000000000000000        0x0 api.o
 _ZNSt6vectorIiSaIiEE5clearEv
                0x0000000000000000        0x0 api.o
 _ZNSt12__miter_baseIPiLb0EE3__bES0_
                0x0000000000000000        0x0 api.o
 _ZNKSt6vectorIiSaIiEE4sizeEv
                0x0000000000000000        0x0 api.o
 _ZNSt12__niter_baseIN9__gnu_cxx17__normal_iteratorIP12CMultiplexerSt6vectorIS2_SaIS2_EEEELb1EE3__bES7_
                0x0000000000000000        0x0 api.o
 _ZNSt12__miter_baseIP12CMultiplexerLb0EE3__bES1_
                0x0000000000000000        0x0 api.o
 _ZNKSt6vectorI12CMultiplexerSaIS0_EE4sizeEv
                0x0000000000000000        0x0 api.o
 _ZNKSt8_Rb_treeIiiSt9_IdentityIiESt4lessIiESaIiEE21_M_get_Node_allocatorEv
                0x0000000000000000        0x0 api.o
 _ZN9__gnu_cxx13new_allocatorIiED2Ev
                0x0000000000000000        0x0 api.o
 _ZNSaIiED1Ev   0x0000000000000000        0x0 api.o
 _ZN9__gnu_cxx13new_allocatorISt13_Rb_tree_nodeISt4pairIKiP10CUDTSocketEEEC2Ev
                0x0000000000000000        0x0 api.o
 _ZNSaISt13_Rb_tree_nodeISt4pairIKiP10CUDTSocketEEEC2Ev
                0x0000000000000000        0x0 api.o
 _ZNSt8_Rb_treeIiSt4pairIKiP10CUDTSocketESt10_Select1stIS4_ESt4lessIiESaIS4_EE13_Rb_tree_implIS8_Lb0EEC1Ev
                0x0000000000000000        0x0 api.o
 _ZNSt8_Rb_treeIiSt4pairIKiP10CUDTSocketESt10_Select1stIS4_ESt4lessIiESaIS4_EEC1Ev
                0x0000000000000000        0x0 api.o
 _ZNSt3mapIiP10CUDTSocketSt4lessIiESaISt4pairIKiS1_EEEC1Ev
                0x0000000000000000        0x0 api.o
 _ZNKSt8_Rb_treeIiSt4pairIKiP10CUDTSocketESt10_Select1stIS4_ESt4lessIiESaIS4_EE21_M_get_Node_allocatorEv
                0x0000000000000000        0x0 api.o
 _ZN9__gnu_cxx13new_allocatorISt4pairIKiP10CUDTSocketEED2Ev
                0x0000000000000000        0x0 api.o
 _ZNSaISt4pairIKiP10CUDTSocketEED1Ev
                0x0000000000000000        0x0 api.o
 _ZN9__gnu_cxx13new_allocatorI12CMultiplexerEC2Ev
                0x0000000000000000        0x0 api.o
 _ZNSaI12CMultiplexerEC2Ev
                0x0000000000000000        0x0 api.o
 _ZNSt12_Vector_baseI12CMultiplexerSaIS0_EE12_Vector_implC1Ev
                0x0000000000000000        0x0 api.o
 _ZNSt12_Vector_baseI12CMultiplexerSaIS0_EEC2Ev
                0x0000000000000000        0x0 api.o
 _ZNSt6vectorI12CMultiplexerSaIS0_EEC1Ev
                0x0000000000000000        0x0 api.o
 _ZNSt4pairISt17_Rb_tree_iteratorIS_IKiP10CUDTSocketEEbEC1ERKS5_RKb
                0x0000000000000000        0x0 api.o
 _ZNSt8_Rb_treeIiSt4pairIKiP10CUDTSocketESt10_Select1stIS4_ESt4lessIiESaIS4_EE8_S_valueEPKSt13_Rb_tree_nodeIS4_E
                0x0000000000000000        0x0 api.o
 _ZNSt8_Rb_treeIiSt4pairIKiP10CUDTSocketESt10_Select1stIS4_ESt4lessIiESaIS4_EE6_S_keyEPKSt13_Rb_tree_nodeIS4_E
                0x0000000000000000        0x0 api.o
 _ZNSt8_Rb_treeIiSt4pairIKiP10CUDTSocketESt10_Select1stIS4_ESt4lessIiESaIS4_EE14_M_lower_boundEPSt13_Rb_tree_nodeIS4_ESD_RS1_
                0x0000000000000000        0x0 api.o
 _ZNSt8_Rb_treeIiSt4pairIKiP10CUDTSocketESt10_Select1stIS4_ESt4lessIiESaIS4_EE11lower_boundERS1_
                0x0000000000000000        0x0 api.o
 _ZNSt3mapIiP10CUDTSocketSt4lessIiESaISt4pairIKiS1_EEE11lower_boundERS5_
                0x0000000000000000        0x0 api.o
 _ZNSt8_Rb_treeIiSt4pairIKiP10CUDTSocketESt10_Select1stIS4_ESt4lessIiESaIS4_EE4findERS1_
                0x0000000000000000        0x0 api.o
 _ZNSt3mapIiP10CUDTSocketSt4lessIiESaISt4pairIKiS1_EEE4findERS5_
                0x0000000000000000        0x0 api.o
 _ZNSt8_Rb_treeIiSt4pairIKiP10CUDTSocketESt10_Select1stIS4_ESt4lessIiESaIS4_EE14_M_upper_boundEPSt13_Rb_tree_nodeIS4_ESD_RS1_
                0x0000000000000000        0x0 api.o
 _ZNSt8_Rb_treeIiSt4pairIKiP10CUDTSocketESt10_Select1stIS4_ESt4lessIiESaIS4_EE11equal_rangeERS1_
                0x0000000000000000        0x0 api.o
 _ZN9__gnu_cxx13new_allocatorISt13_Rb_tree_nodeIiEEC2Ev
                0x0000000000000000        0x0 api.o
 _ZNSaISt13_Rb_tree_nodeIiEEC2Ev
                0x0000000000000000        0x0 api.o
 _ZNSt8_Rb_treeIiiSt9_IdentityIiESt4lessIiESaIiEE13_Rb_tree_implIS3_Lb0EEC1Ev
                0x0000000000000000        0x0 api.o
 _ZNSt8_Rb_treeIiiSt9_IdentityIiESt4lessIiESaIiEEC1Ev
                0x0000000000000000        0x0 api.o
 _ZNSt3setIiSt4lessIiESaIiEEC1Ev
                0x0000000000000000        0x0 api.o
 _ZN9__gnu_cxx13new_allocatorIP10CUDTSocketEC2Ev
                0x0000000000000000        0x0 api.o
 _ZNSaIP10CUDTSocketEC2Ev
                0x0000000000000000        0x0 api.o
 _ZNSt12_Vector_baseIP10CUDTSocketSaIS1_EE12_Vector_implC1Ev
                0x0000000000000000        0x0 api.o
 _ZNSt12_Vector_baseIP10CUDTSocketSaIS1_EEC2Ev
                0x0000000000000000        0x0 api.o
 _ZNSt6vectorIP10CUDTSocketSaIS1_EEC1Ev
                0x0000000000000000        0x0 api.o
 _ZNSt12__niter_baseIPP10CUDTSocketLb0EE3__bES2_
                0x0000000000000000        0x0 api.o
 _ZNKSt12_Vector_baseIP10CUDTSocketSaIS1_EE19_M_get_Tp_allocatorEv
                0x0000000000000000        0x0 api.o
 _ZNK9__gnu_cxx13new_allocatorIP10CUDTSocketE8max_sizeEv
                0x0000000000000000        0x0 api.o
 _ZNKSt6vectorIP10CUDTSocketSaIS1_EE8max_sizeEv
                0x0000000000000000        0x0 api.o
 _ZNSt12__niter_baseIPiLb0EE3__bES0_
                0x0000000000000000        0x0 api.o
 _ZNKSt12_Vector_baseIiSaIiEE19_M_get_Tp_allocatorEv
                0x0000000000000000        0x0 api.o
 _ZNK9__gnu_cxx13new_allocatorIiE8max_sizeEv
                0x0000000000000000        0x0 api.o
 _ZNKSt6vectorIiSaIiEE8max_sizeEv
                0x0000000000000000        0x0 api.o
 _ZNSt12__niter_baseIP12CMultiplexerLb0EE3__bES1_
                0x0000000000000000        0x0 api.o
 _ZNKSt12_Vector_baseI12CMultiplexerSaIS0_EE19_M_get_Tp_allocatorEv
                0x0000000000000000        0x0 api.o
 _ZNK9__gnu_cxx13new_allocatorI12CMultiplexerE8max_sizeEv
                0x0000000000000000        0x0 api.o
 _ZNKSt6vectorI12CMultiplexerSaIS0_EE8max_sizeEv
                0x0000000000000000        0x0 api.o
 _ZN9__gnu_cxx13new_allocatorIiEC2Ev
                0x0000000000000000        0x0 api.o
 _ZNSaIiEC1ISt13_Rb_tree_nodeIiEEERKSaIT_E
                0x0000000000000000        0x0 api.o
 _ZNKSt8_Rb_treeIiiSt9_IdentityIiESt4lessIiESaIiEE13get_allocatorEv
                0x0000000000000000        0x0 api.o
 _ZN9__gnu_cxx13new_allocatorISt4pairIKiP10CUDTSocketEEC2Ev
                0x0000000000000000        0x0 api.o
 _ZNSaISt4pairIKiP10CUDTSocketEEC1ISt13_Rb_tree_nodeIS3_EEERKSaIT_E
                0x0000000000000000        0x0 api.o
 _ZNKSt8_Rb_treeIiSt4pairIKiP10CUDTSocketESt10_Select1stIS4_ESt4lessIiESaIS4_EE13get_allocatorEv
                0x0000000000000000        0x0 api.o
 _ZN9__gnu_cxx13new_allocatorISt4pairIKiP10CUDTSocketEE9constructEPS5_RKS5_
                0x0000000000000000        0x0 api.o
 _ZNK9__gnu_cxx13new_allocatorISt13_Rb_tree_nodeIiEE8max_sizeEv
                0x0000000000000000        0x0 api.o
 _ZNK9__gnu_cxx13new_allocatorISt13_Rb_tree_nodeISt4pairIKiP10CUDTSocketEEE8max_sizeEv
                0x0000000000000000        0x0 api.o
 _ZN9__gnu_cxx13new_allocatorISt13_Rb_tree_nodeISt4pairIKiP10CUDTSocketEEE10deallocateEPS7_m
                0x0000000000000000        0x0 api.o
 _ZNSt8_Rb_treeIiSt4pairIKiP10CUDTSocketESt10_Select1stIS4_ESt4lessIiESaIS4_EE11_M_put_nodeEPSt13_Rb_tree_nodeIS4_E
                0x0000000000000000        0x0 api.o
 _ZNSt8_Rb_treeIiSt4pairIKiP10CUDTSocketESt10_Select1stIS4_ESt4lessIiESaIS4_EE15_M_destroy_nodeEPSt13_Rb_tree_nodeIS4_E
                0x0000000000000000        0x0 api.o
 _ZNSt8_Rb_treeIiSt4pairIKiP10CUDTSocketESt10_Select1stIS4_ESt4lessIiESaIS4_EE8_M_eraseEPSt13_Rb_tree_nodeIS4_E
                0x0000000000000000        0x0 api.o
 _ZNSt8_Rb_treeIiSt4pairIKiP10CUDTSocketESt10_Select1stIS4_ESt4lessIiESaIS4_EE5clearEv
                0x0000000000000000        0x0 api.o
 _ZNSt3mapIiP10CUDTSocketSt4lessIiESaISt4pairIKiS1_EEE5clearEv
                0x0000000000000000        0x0 api.o
 _ZNSt8_Rb_treeIiSt4pairIKiP10CUDTSocketESt10_Select1stIS4_ESt4lessIiESaIS4_EED1Ev
                0x0000000000000000        0x0 api.o
 _ZNSt3mapIiP10CUDTSocketSt4lessIiESaISt4pairIKiS1_EEED1Ev
                0x0000000000000000        0x0 api.o
 _ZN9__gnu_cxx13new_allocatorI12CMultiplexerE10deallocateEPS1_m
                0x0000000000000000        0x0 api.o
 _ZNSt12_Vector_baseI12CMultiplexerSaIS0_EE13_M_deallocateEPS0_m
                0x0000000000000000        0x0 api.o
 _ZNSt12_Vector_baseI12CMultiplexerSaIS0_EED2Ev
                0x0000000000000000        0x0 api.o
 _ZNSt6vectorI12CMultiplexerSaIS0_EED1Ev
                0x0000000000000000        0x0 api.o
 _ZN9__gnu_cxx13new_allocatorISt13_Rb_tree_nodeIiEE10deallocateEPS2_m
                0x0000000000000000        0x0 api.o
 _ZNSt8_Rb_treeIiiSt9_IdentityIiESt4lessIiESaIiEE11_M_put_nodeEPSt13_Rb_tree_nodeIiE
                0x0000000000000000        0x0 api.o
 _ZNSt8_Rb_treeIiiSt9_IdentityIiESt4lessIiESaIiEE15_M_destroy_nodeEPSt13_Rb_tree_nodeIiE
                0x0000000000000000        0x0 api.o
 _ZNSt8_Rb_treeIiiSt9_IdentityIiESt4lessIiESaIiEE8_M_eraseEPSt13_Rb_tree_nodeIiE
                0x0000000000000000        0x0 api.o
 _ZNSt8_Rb_treeIiiSt9_IdentityIiESt4lessIiESaIiEED1Ev
                0x0000000000000000        0x0 api.o
 _ZNSt3setIiSt4lessIiESaIiEED1Ev
                0x0000000000000000        0x0 api.o
 _ZNSt8_Rb_treeIiiSt9_IdentityIiESt4lessIiESaIiEE5clearEv
                0x0000000000000000        0x0 api.o
 _ZN9__gnu_cxx13new_allocatorIiE10deallocateEPim
                0x0000000000000000        0x0 api.o
 _ZNSt12_Vector_baseIiSaIiEE13_M_deallocateEPim
                0x0000000000000000        0x0 api.o
 _ZN9__gnu_cxx13new_allocatorIP10CUDTSocketE10deallocateEPS2_m
                0x0000000000000000        0x0 api.o
 _ZNSt12_Vector_baseIP10CUDTSocketSaIS1_EE13_M_deallocateEPS1_m
                0x0000000000000000        0x0 api.o
 _ZNSt12_Vector_baseIP10CUDTSocketSaIS1_EED2Ev
                0x0000000000000000        0x0 api.o
 _ZNSt6vectorIP10CUDTSocketSaIS1_EED1Ev
                0x0000000000000000        0x0 api.o
 _ZNSt23_Rb_tree_const_iteratorISt4pairIKiP10CUDTSocketEEmmEv
                0x0000000000000000        0x0 api.o
 _ZNSt23_Rb_tree_const_iteratorIiEmmEv
                0x0000000000000000        0x0 api.o
 _ZNSt23_Rb_tree_const_iteratorISt4pairIKiP10CUDTSocketEEppEv
                0x0000000000000000        0x0 api.o
 _ZNSt23_Rb_tree_const_iteratorIiEppEv
                0x0000000000000000        0x0 api.o
 _ZN9__gnu_cxx13new_allocatorISt13_Rb_tree_nodeISt4pairIKiP10CUDTSocketEEE8allocateEmPKv
                0x0000000000000000        0x0 api.o
 _ZNSt8_Rb_treeIiSt4pairIKiP10CUDTSocketESt10_Select1stIS4_ESt4lessIiESaIS4_EE11_M_get_nodeEv
                0x0000000000000000        0x0 api.o
 _ZNSt8_Rb_treeIiSt4pairIKiP10CUDTSocketESt10_Select1stIS4_ESt4lessIiESaIS4_EE14_M_create_nodeERKS4_
                0x0000000000000000        0x0 api.o
 _ZNSt8_Rb_treeIiSt4pairIKiP10CUDTSocketESt10_Select1stIS4_ESt4lessIiESaIS4_EE10_M_insert_EPKSt18_Rb_tree_node_baseSD_RKS4_
                0x0000000000000000        0x0 api.o
 _ZN9__gnu_cxx13new_allocatorI12CMultiplexerE8allocateEmPKv
                0x0000000000000000        0x0 api.o
 _ZNSt12_Vector_baseI12CMultiplexerSaIS0_EE11_M_allocateEm
                0x0000000000000000        0x0 api.o
 _ZN9__gnu_cxx13new_allocatorISt13_Rb_tree_nodeIiEE8allocateEmPKv
                0x0000000000000000        0x0 api.o
 _ZNSt8_Rb_treeIiiSt9_IdentityIiESt4lessIiESaIiEE11_M_get_nodeEv
                0x0000000000000000        0x0 api.o
 _ZNSt8_Rb_treeIiiSt9_IdentityIiESt4lessIiESaIiEE14_M_create_nodeERKi
                0x0000000000000000        0x0 api.o
 _ZNSt8_Rb_treeIiiSt9_IdentityIiESt4lessIiESaIiEE10_M_insert_EPKSt18_Rb_tree_node_baseS8_RKi
                0x0000000000000000        0x0 api.o
 _ZNSt8_Rb_treeIiiSt9_IdentityIiESt4lessIiESaIiEE13_M_clone_nodeEPKSt13_Rb_tree_nodeIiE
                0x0000000000000000        0x0 api.o
 _ZNSt8_Rb_treeIiiSt9_IdentityIiESt4lessIiESaIiEE7_M_copyEPKSt13_Rb_tree_nodeIiEPS7_
                0x0000000000000000        0x0 api.o
 _ZNSt8_Rb_treeIiiSt9_IdentityIiESt4lessIiESaIiEEaSERKS5_
                0x0000000000000000        0x0 api.o
 _ZNSt3setIiSt4lessIiESaIiEEaSERKS3_
                0x0000000000000000        0x0 api.o
 _ZN9__gnu_cxx13new_allocatorIiE8allocateEmPKv
                0x0000000000000000        0x0 api.o
 _ZNSt12_Vector_baseIiSaIiEE11_M_allocateEm
                0x0000000000000000        0x0 api.o
 _ZN9__gnu_cxx13new_allocatorIP10CUDTSocketE8allocateEmPKv
                0x0000000000000000        0x0 api.o
 _ZNSt12_Vector_baseIP10CUDTSocketSaIS1_EE11_M_allocateEm
                0x0000000000000000        0x0 api.o
 _ZNSt17_Rb_tree_iteratorISt4pairIKiP10CUDTSocketEEmmEv
                0x0000000000000000        0x0 api.o
 _ZNSt8_Rb_treeIiSt4pairIKiP10CUDTSocketESt10_Select1stIS4_ESt4lessIiESaIS4_EE16_M_insert_uniqueERKS4_
                0x0000000000000000        0x0 api.o
 _ZNSt8_Rb_treeIiSt4pairIKiP10CUDTSocketESt10_Select1stIS4_ESt4lessIiESaIS4_EE17_M_insert_unique_ESt23_Rb_tree_const_iteratorIS4_ERKS4_
                0x0000000000000000        0x0 api.o
 _ZNSt3mapIiP10CUDTSocketSt4lessIiESaISt4pairIKiS1_EEE6insertESt17_Rb_tree_iteratorIS6_ERKS6_
                0x0000000000000000        0x0 api.o
 _ZNSt3mapIiP10CUDTSocketSt4lessIiESaISt4pairIKiS1_EEEixERS5_
                0x0000000000000000        0x0 api.o
 _ZNSt17_Rb_tree_iteratorIiEmmEv
                0x0000000000000000        0x0 api.o
 _ZNSt8_Rb_treeIiiSt9_IdentityIiESt4lessIiESaIiEE16_M_insert_uniqueERKi
                0x0000000000000000        0x0 api.o
 _ZNSt3setIiSt4lessIiESaIiEE6insertERKi
                0x0000000000000000        0x0 api.o
 _ZNSt8_Rb_treeIiiSt9_IdentityIiESt4lessIiESaIiEE17_M_insert_unique_ESt23_Rb_tree_const_iteratorIiERKi
                0x0000000000000000        0x0 api.o
 _ZNSt3setIiSt4lessIiESaIiEE6insertESt23_Rb_tree_const_iteratorIiERKi
                0x0000000000000000        0x0 api.o
 _ZNSt17_Rb_tree_iteratorISt4pairIKiP10CUDTSocketEEppEv
                0x0000000000000000        0x0 api.o
 _ZNSt17_Rb_tree_iteratorISt4pairIKiP10CUDTSocketEEppEi
                0x0000000000000000        0x0 api.o
 _ZNSt17_Rb_tree_iteratorIiEppEi
                0x0000000000000000        0x0 api.o
 _ZNSt20__copy_move_backwardILb0ELb1ESt26random_access_iterator_tagE13__copy_move_bI12CMultiplexerEEPT_PKS4_S7_S5_
                0x0000000000000000        0x0 api.o
 _ZSt22__copy_move_backward_aILb0EP12CMultiplexerS1_ET1_T0_S3_S2_
                0x0000000000000000        0x0 api.o
 _ZSt23__copy_move_backward_a2ILb0EP12CMultiplexerS1_ET1_T0_S3_S2_
                0x0000000000000000        0x0 api.o
 _ZSt13copy_backwardIP12CMultiplexerS1_ET0_T_S3_S2_
                0x0000000000000000        0x0 api.o
 _ZNSt11__copy_moveILb0ELb1ESt26random_access_iterator_tagE8__copy_mI12CMultiplexerEEPT_PKS4_S7_S5_
                0x0000000000000000        0x0 api.o
 _ZSt13__copy_move_aILb0EP12CMultiplexerS1_ET1_T0_S3_S2_
                0x0000000000000000        0x0 api.o
 _ZSt14__copy_move_a2ILb0EP12CMultiplexerS1_ET1_T0_S3_S2_
                0x0000000000000000        0x0 api.o
 _ZSt4copyIP12CMultiplexerS1_ET0_T_S3_S2_
                0x0000000000000000        0x0 api.o
 _ZNSt20__uninitialized_copyILb1EE18uninitialized_copyIP12CMultiplexerS3_EET0_T_S5_S4_
                0x0000000000000000        0x0 api.o
 _ZSt18uninitialized_copyIP12CMultiplexerS1_ET0_T_S3_S2_
                0x0000000000000000        0x0 api.o
 _ZSt22__uninitialized_copy_aIP12CMultiplexerS1_S0_ET0_T_S3_S2_RSaIT1_E
                0x0000000000000000        0x0 api.o
 _ZSt22__uninitialized_move_aIP12CMultiplexerS1_SaIS0_EET0_T_S4_S3_RT1_
                0x0000000000000000        0x0 api.o
 _ZSt14__copy_move_a2ILb0EN9__gnu_cxx17__normal_iteratorIP12CMultiplexerSt6vectorIS2_SaIS2_EEEES7_ET1_T0_S9_S8_
                0x0000000000000000        0x0 api.o
 _ZSt4copyIN9__gnu_cxx17__normal_iteratorIP12CMultiplexerSt6vectorIS2_SaIS2_EEEES7_ET0_T_S9_S8_
                0x0000000000000000        0x0 api.o
 _ZNSt6vectorI12CMultiplexerSaIS0_EE5eraseEN9__gnu_cxx17__normal_iteratorIPS0_S2_EE
                0x0000000000000000        0x0 api.o
 _ZNSt20__copy_move_backwardILb0ELb1ESt26random_access_iterator_tagE13__copy_move_bIiEEPT_PKS3_S6_S4_
                0x0000000000000000        0x0 api.o
 _ZSt22__copy_move_backward_aILb0EPiS0_ET1_T0_S2_S1_
                0x0000000000000000        0x0 api.o
 _ZSt23__copy_move_backward_a2ILb0EPiS0_ET1_T0_S2_S1_
                0x0000000000000000        0x0 api.o
 _ZSt13copy_backwardIPiS0_ET0_T_S2_S1_
                0x0000000000000000        0x0 api.o
 _ZNSt11__copy_moveILb0ELb1ESt26random_access_iterator_tagE8__copy_mIiEEPT_PKS3_S6_S4_
                0x0000000000000000        0x0 api.o
 _ZSt13__copy_move_aILb0EPiS0_ET1_T0_S2_S1_
                0x0000000000000000        0x0 api.o
 _ZSt14__copy_move_a2ILb0EPiS0_ET1_T0_S2_S1_
                0x0000000000000000        0x0 api.o
 _ZSt4copyIPiS0_ET0_T_S2_S1_
                0x0000000000000000        0x0 api.o
 _ZNSt20__uninitialized_copyILb1EE18uninitialized_copyIPiS2_EET0_T_S4_S3_
                0x0000000000000000        0x0 api.o
 _ZSt18uninitialized_copyIPiS0_ET0_T_S2_S1_
                0x0000000000000000        0x0 api.o
 _ZSt22__uninitialized_copy_aIPiS0_iET0_T_S2_S1_RSaIT1_E
                0x0000000000000000        0x0 api.o
 _ZSt22__uninitialized_move_aIPiS0_SaIiEET0_T_S3_S2_RT1_
                0x0000000000000000        0x0 api.o
 _ZNSt20__copy_move_backwardILb0ELb1ESt26random_access_iterator_tagE13__copy_move_bIP10CUDTSocketEEPT_PKS5_S8_S6_
                0x0000000000000000        0x0 api.o
 _ZSt22__copy_move_backward_aILb0EPP10CUDTSocketS2_ET1_T0_S4_S3_
                0x0000000000000000        0x0 api.o
 _ZSt23__copy_move_backward_a2ILb0EPP10CUDTSocketS2_ET1_T0_S4_S3_
                0x0000000000000000        0x0 api.o
 _ZSt13copy_backwardIPP10CUDTSocketS2_ET0_T_S4_S3_
                0x0000000000000000        0x0 api.o
 _ZNSt11__copy_moveILb0ELb1ESt26random_access_iterator_tagE8__copy_mIP10CUDTSocketEEPT_PKS5_S8_S6_
                0x0000000000000000        0x0 api.o
 _ZSt13__copy_move_aILb0EPP10CUDTSocketS2_ET1_T0_S4_S3_
                0x0000000000000000        0x0 api.o
 _ZSt14__copy_move_a2ILb0EPP10CUDTSocketS2_ET1_T0_S4_S3_
                0x0000000000000000        0x0 api.o
 _ZSt4copyIPP10CUDTSocketS2_ET0_T_S4_S3_
                0x0000000000000000        0x0 api.o
 _ZNSt20__uninitialized_copyILb1EE18uninitialized_copyIPP10CUDTSocketS4_EET0_T_S6_S5_
                0x0000000000000000        0x0 api.o
 _ZSt18uninitialized_copyIPP10CUDTSocketS2_ET0_T_S4_S3_
                0x0000000000000000        0x0 api.o
 _ZSt22__uninitialized_copy_aIPP10CUDTSocketS2_S1_ET0_T_S4_S3_RSaIT1_E
                0x0000000000000000        0x0 api.o
 _ZSt22__uninitialized_move_aIPP10CUDTSocketS2_SaIS1_EET0_T_S5_S4_RT1_
                0x0000000000000000        0x0 api.o
 _ZNKSt6vectorI12CMultiplexerSaIS0_EE12_M_check_lenEmPKc
                0x0000000000000000        0x0 api.o
 _ZNSt6vectorI12CMultiplexerSaIS0_EE13_M_insert_auxEN9__gnu_cxx17__normal_iteratorIPS0_S2_EERKS0_
                0x0000000000000000        0x0 api.o
 _ZNSt6vectorI12CMultiplexerSaIS0_EE6insertEN9__gnu_cxx17__normal_iteratorIPS0_S2_EERKS0_
                0x0000000000000000        0x0 api.o
 _ZNKSt6vectorIiSaIiEE12_M_check_lenEmPKc
                0x0000000000000000        0x0 api.o
 _ZNSt6vectorIiSaIiEE13_M_insert_auxEN9__gnu_cxx17__normal_iteratorIPiS1_EERKi
                0x0000000000000000        0x0 api.o
 _ZNSt6vectorIiSaIiEE9push_backERKi
                0x0000000000000000        0x0 api.o
 _ZNKSt6vectorIP10CUDTSocketSaIS1_EE12_M_check_lenEmPKc
                0x0000000000000000        0x0 api.o
 _ZNSt6vectorIP10CUDTSocketSaIS1_EE13_M_insert_auxEN9__gnu_cxx17__normal_iteratorIPS1_S3_EERKS1_
                0x0000000000000000        0x0 api.o
 _ZNSt6vectorIP10CUDTSocketSaIS1_EE6insertEN9__gnu_cxx17__normal_iteratorIPS1_S3_EERKS1_
                0x0000000000000000        0x0 api.o
 _ZNSt8_Rb_treeIiSt4pairIKiP10CUDTSocketESt10_Select1stIS4_ESt4lessIiESaIS4_EE5eraseESt17_Rb_tree_iteratorIS4_E
                0x0000000000000000        0x0 api.o
 _ZNSt8_Rb_treeIiSt4pairIKiP10CUDTSocketESt10_Select1stIS4_ESt4lessIiESaIS4_EE5eraseESt17_Rb_tree_iteratorIS4_ESC_
                0x0000000000000000        0x0 api.o
 _ZNSt8_Rb_treeIiSt4pairIKiP10CUDTSocketESt10_Select1stIS4_ESt4lessIiESaIS4_EE5eraseERS1_
                0x0000000000000000        0x0 api.o
 _ZNSt3mapIiP10CUDTSocketSt4lessIiESaISt4pairIKiS1_EEE5eraseERS5_
                0x0000000000000000        0x0 api.o
 _ZNSt8_Rb_treeIiiSt9_IdentityIiESt4lessIiESaIiEE5eraseESt17_Rb_tree_iteratorIiE
                0x0000000000000000        0x0 api.o
 _ZNSt8_Rb_treeIiiSt9_IdentityIiESt4lessIiESaIiEE5eraseESt17_Rb_tree_iteratorIiES7_
                0x0000000000000000        0x0 api.o
 _ZNSt8_Rb_treeIiiSt9_IdentityIiESt4lessIiESaIiEE5eraseERKi
                0x0000000000000000        0x0 api.o
 _ZNSt3setIiSt4lessIiESaIiEE5eraseERKi
                0x0000000000000000        0x0 api.o
 _ZNSt8_Rb_treeIiiSt9_IdentityIiESt4lessIiESaIiEE5eraseESt23_Rb_tree_const_iteratorIiE
                0x0000000000000000        0x0 api.o
 _ZNSt3setIiSt4lessIiESaIiEE5eraseESt23_Rb_tree_const_iteratorIiE
                0x0000000000000000        0x0 api.o
 DW.ref._ZTI13CUDTException
                0x0000000000000000        0x0 api.o
 DW.ref._ZTISt9bad_alloc
                0x0000000000000000        0x0 api.o
 DW.ref.__gxx_personality_v0
                0x0000000000000000        0x0 api.o
 .text._ZnwmPv  0x0000000000000000        0x0 api.o
 .text._ZNKSt23_Rb_tree_const_iteratorIiEdeEv
                0x0000000000000000        0x0 api.o
 .text._ZNSt8_Rb_treeIiiSt9_IdentityIiESt4lessIiESaIiEE8_M_beginEv
                0x0000000000000000        0x0 api.o
 .text._ZNKSt4lessIiEclERKiS2_
                0x0000000000000000        0x0 api.o
 .text._ZNKSt8_Rb_treeIiiSt9_IdentityIiESt4lessIiESaIiEE4sizeEv
                0x0000000000000000        0x0 api.o
 .text._ZNKSt3setIiSt4lessIiESaIiEE4sizeEv
                0x0000000000000000        0x0 api.o
 .text._ZNSt23_Rb_tree_const_iteratorIiEC1ERKSt17_Rb_tree_iteratorIiE
                0x0000000000000000        0x0 api.o
 .text._ZNSt4pairISt23_Rb_tree_const_iteratorIiEbEC1ERKS1_RKb
                0x0000000000000000        0x0 api.o
 .text._ZN9__gnu_cxx17__normal_iteratorIPKiSt6vectorIiSaIiEEEC1ERKS2_
                0x0000000000000000        0x0 api.o
 .text._ZNKSt6vectorIiSaIiEE5beginEv
                0x0000000000000000        0x0 api.o
 .text._ZNKSt6vectorIiSaIiEE3endEv
                0x0000000000000000        0x0 api.o
 .text._ZNK9__gnu_cxx17__normal_iteratorIPKiSt6vectorIiSaIiEEE4baseEv
                0x0000000000000000        0x0 api.o
 .text._ZN9__gnu_cxx13new_allocatorIiE9constructEPiRKi
                0x0000000000000000        0x0 api.o
 .text._ZN9__gnu_cxx13new_allocatorISt13_Rb_tree_nodeIiEED2Ev
                0x0000000000000000        0x0 api.o
 .text._ZNSaISt13_Rb_tree_nodeIiEED2Ev
                0x0000000000000000        0x0 api.o
 .text._ZNSt8_Rb_treeIiiSt9_IdentityIiESt4lessIiESaIiEE13_Rb_tree_implIS3_Lb0EED1Ev
                0x0000000000000000        0x0 api.o
 .text._ZNSt8_Rb_treeIiiSt9_IdentityIiESt4lessIiESaIiEE8_S_rightEPSt18_Rb_tree_node_base
                0x0000000000000000        0x0 api.o
 .text._ZNSt8_Rb_treeIiiSt9_IdentityIiESt4lessIiESaIiEE7_S_leftEPSt18_Rb_tree_node_base
                0x0000000000000000        0x0 api.o
 .text._ZNSt8_Rb_treeIiiSt9_IdentityIiESt4lessIiESaIiEE6_M_endEv
                0x0000000000000000        0x0 api.o
 .text._ZNKSt9_IdentityIiEclERKi
                0x0000000000000000        0x0 api.o
 .text._ZNSt17_Rb_tree_iteratorIiEC1EPSt13_Rb_tree_nodeIiE
                0x0000000000000000        0x0 api.o
 .text._ZNSt8_Rb_treeIiiSt9_IdentityIiESt4lessIiESaIiEE5beginEv
                0x0000000000000000        0x0 api.o
 .text._ZNKSt17_Rb_tree_iteratorIiEeqERKS0_
                0x0000000000000000        0x0 api.o
 .text._ZNSt4pairISt17_Rb_tree_iteratorIiEbEC1ERKS1_RKb
                0x0000000000000000        0x0 api.o
 .text._ZNSt23_Rb_tree_const_iteratorIiEC1EPKSt13_Rb_tree_nodeIiE
                0x0000000000000000        0x0 api.o
 .text._ZNKSt8_Rb_treeIiiSt9_IdentityIiESt4lessIiESaIiEE5beginEv
                0x0000000000000000        0x0 api.o
 .text._ZNKSt3setIiSt4lessIiESaIiEE5beginEv
                0x0000000000000000        0x0 api.o
 .text._ZNSt12_Vector_baseIiSaIiEE19_M_get_Tp_allocatorEv
                0x0000000000000000        0x0 api.o
 .text._ZNK9__gnu_cxx17__normal_iteratorIPiSt6vectorIiSaIiEEE4baseEv
                0x0000000000000000        0x0 api.o
 .text._ZNK9__gnu_cxx17__normal_iteratorIPiSt6vectorIiSaIiEEEdeEv
                0x0000000000000000        0x0 api.o
 .text._ZN9__gnu_cxx17__normal_iteratorIPiSt6vectorIiSaIiEEEC1ERKS1_
                0x0000000000000000        0x0 api.o
 .text._ZNSt6vectorIiSaIiEE3endEv
                0x0000000000000000        0x0 api.o
 .text._ZN9__gnu_cxx13new_allocatorIiE7destroyEPi
                0x0000000000000000        0x0 api.o
 .text._ZNSt8_Rb_treeIiiSt9_IdentityIiESt4lessIiESaIiEE8_S_valueEPKSt13_Rb_tree_nodeIiE
                0x0000000000000000        0x0 api.o
 .text._ZNSt8_Rb_treeIiiSt9_IdentityIiESt4lessIiESaIiEE6_S_keyEPKSt13_Rb_tree_nodeIiE
                0x0000000000000000        0x0 api.o
 .text._ZNSt8_Rb_treeIiiSt9_IdentityIiESt4lessIiESaIiEE8_S_valueEPKSt18_Rb_tree_node_base
                0x0000000000000000        0x0 api.o
 .text._ZNSt8_Rb_treeIiiSt9_IdentityIiESt4lessIiESaIiEE6_S_keyEPKSt18_Rb_tree_node_base
                0x0000000000000000        0x0 api.o
 .text._ZNSt8_Rb_treeIiiSt9_IdentityIiESt4lessIiESaIiEE13_Rb_tree_implIS3_Lb0EE13_M_initializeEv
                0x0000000000000000        0x0 api.o
 .text._ZSt3maxImERKT_S2_S2_
                0x0000000000000000        0x0 api.o
 .text._ZSt8_DestroyIPiEvT_S1_
                0x0000000000000000        0x0 api.o
 .text._ZSt8_DestroyIPiiEvT_S1_RSaIT0_E
                0x0000000000000000        0x0 api.o
 .text._ZNSt12__miter_baseIPiLb0EE3__bES0_
                0x0000000000000000        0x0 api.o
 .text._ZNKSt6vectorIiSaIiEE4sizeEv
                0x0000000000000000        0x0 api.o
 .text._ZNKSt8_Rb_treeIiiSt9_IdentityIiESt4lessIiESaIiEE21_M_get_Node_allocatorEv
                0x0000000000000000        0x0 api.o
 .text._ZN9__gnu_cxx13new_allocatorIiED2Ev
                0x0000000000000000        0x0 api.o
 .text._ZNSaIiED1Ev
                0x0000000000000000        0x0 api.o
 .text._ZN9__gnu_cxx13new_allocatorISt13_Rb_tree_nodeIiEEC2Ev
                0x0000000000000000        0x0 api.o
 .text._ZNSaISt13_Rb_tree_nodeIiEEC2Ev
                0x0000000000000000        0x0 api.o
 .text._ZNSt8_Rb_treeIiiSt9_IdentityIiESt4lessIiESaIiEE13_Rb_tree_implIS3_Lb0EEC1Ev
                0x0000000000000000        0x0 api.o
 .text._ZNSt8_Rb_treeIiiSt9_IdentityIiESt4lessIiESaIiEEC1Ev
                0x0000000000000000        0x0 api.o
 .text._ZNSt3setIiSt4lessIiESaIiEEC1Ev
                0x0000000000000000        0x0 api.o
 .text._ZNSt12__niter_baseIPiLb0EE3__bES0_
                0x0000000000000000        0x0 api.o
 .text._ZNKSt12_Vector_baseIiSaIiEE19_M_get_Tp_allocatorEv
                0x0000000000000000        0x0 api.o
 .text._ZNK9__gnu_cxx13new_allocatorIiE8max_sizeEv
                0x0000000000000000        0x0 api.o
 .text._ZNKSt6vectorIiSaIiEE8max_sizeEv
                0x0000000000000000        0x0 api.o
 .text._ZN9__gnu_cxx13new_allocatorIiEC2Ev
                0x0000000000000000        0x0 api.o
 .text._ZNSaIiEC1ISt13_Rb_tree_nodeIiEEERKSaIT_E
                0x0000000000000000        0x0 api.o
 .text._ZNKSt8_Rb_treeIiiSt9_IdentityIiESt4lessIiESaIiEE13get_allocatorEv
                0x0000000000000000        0x0 api.o
 .text._ZNK9__gnu_cxx13new_allocatorISt13_Rb_tree_nodeIiEE8max_sizeEv
                0x0000000000000000        0x0 api.o
 .text._ZN9__gnu_cxx13new_allocatorISt13_Rb_tree_nodeIiEE10deallocateEPS2_m
                0x0000000000000000        0x0 api.o
 .text._ZNSt8_Rb_treeIiiSt9_IdentityIiESt4lessIiESaIiEE11_M_put_nodeEPSt13_Rb_tree_nodeIiE
                0x0000000000000000        0x0 api.o
 .text._ZNSt8_Rb_treeIiiSt9_IdentityIiESt4lessIiESaIiEE15_M_destroy_nodeEPSt13_Rb_tree_nodeIiE
                0x0000000000000000        0x0 api.o
 .text._ZNSt8_Rb_treeIiiSt9_IdentityIiESt4lessIiESaIiEE8_M_eraseEPSt13_Rb_tree_nodeIiE
                0x0000000000000000        0x0 api.o
 .text._ZNSt8_Rb_treeIiiSt9_IdentityIiESt4lessIiESaIiEED1Ev
                0x0000000000000000        0x0 api.o
 .text._ZNSt3setIiSt4lessIiESaIiEED1Ev
                0x0000000000000000        0x0 api.o
 .text._ZN9__gnu_cxx13new_allocatorIiE10deallocateEPim
                0x0000000000000000        0x0 api.o
 .text._ZNSt12_Vector_baseIiSaIiEE13_M_deallocateEPim
                0x0000000000000000        0x0 api.o
 .text._ZNSt23_Rb_tree_const_iteratorIiEppEv
                0x0000000000000000        0x0 api.o
 .text._ZN9__gnu_cxx13new_allocatorISt13_Rb_tree_nodeIiEE8allocateEmPKv
                0x0000000000000000        0x0 api.o
 .text._ZNSt8_Rb_treeIiiSt9_IdentityIiESt4lessIiESaIiEE11_M_get_nodeEv
                0x0000000000000000        0x0 api.o
 .text._ZNSt8_Rb_treeIiiSt9_IdentityIiESt4lessIiESaIiEE14_M_create_nodeERKi
                0x0000000000000000        0x0 api.o
 .text._ZNSt8_Rb_treeIiiSt9_IdentityIiESt4lessIiESaIiEE10_M_insert_EPKSt18_Rb_tree_node_baseS8_RKi
                0x0000000000000000        0x0 api.o
 .text._ZN9__gnu_cxx13new_allocatorIiE8allocateEmPKv
                0x0000000000000000        0x0 api.o
 .text._ZNSt12_Vector_baseIiSaIiEE11_M_allocateEm
                0x0000000000000000        0x0 api.o
 .text._ZNSt17_Rb_tree_iteratorIiEmmEv
                0x0000000000000000        0x0 api.o
 .text._ZNSt8_Rb_treeIiiSt9_IdentityIiESt4lessIiESaIiEE16_M_insert_uniqueERKi
                0x0000000000000000        0x0 api.o
 .text._ZNSt3setIiSt4lessIiESaIiEE6insertERKi
                0x0000000000000000        0x0 api.o
 .text._ZNSt20__copy_move_backwardILb0ELb1ESt26random_access_iterator_tagE13__copy_move_bIiEEPT_PKS3_S6_S4_
                0x0000000000000000        0x0 api.o
 .text._ZSt22__copy_move_backward_aILb0EPiS0_ET1_T0_S2_S1_
                0x0000000000000000        0x0 api.o
 .text._ZSt23__copy_move_backward_a2ILb0EPiS0_ET1_T0_S2_S1_
                0x0000000000000000        0x0 api.o
 .text._ZSt13copy_backwardIPiS0_ET0_T_S2_S1_
                0x0000000000000000        0x0 api.o
 .text._ZNSt11__copy_moveILb0ELb1ESt26random_access_iterator_tagE8__copy_mIiEEPT_PKS3_S6_S4_
                0x0000000000000000        0x0 api.o
 .text._ZSt13__copy_move_aILb0EPiS0_ET1_T0_S2_S1_
                0x0000000000000000        0x0 api.o
 .text._ZSt14__copy_move_a2ILb0EPiS0_ET1_T0_S2_S1_
                0x0000000000000000        0x0 api.o
 .text._ZSt4copyIPiS0_ET0_T_S2_S1_
                0x0000000000000000        0x0 api.o
 .text._ZNSt20__uninitialized_copyILb1EE18uninitialized_copyIPiS2_EET0_T_S4_S3_
                0x0000000000000000        0x0 api.o
 .text._ZSt18uninitialized_copyIPiS0_ET0_T_S2_S1_
                0x0000000000000000        0x0 api.o
 .text._ZSt22__uninitialized_copy_aIPiS0_iET0_T_S2_S1_RSaIT1_E
                0x0000000000000000        0x0 api.o
 .text._ZSt22__uninitialized_move_aIPiS0_SaIiEET0_T_S3_S2_RT1_
                0x0000000000000000        0x0 api.o
 .text._ZNKSt6vectorIiSaIiEE12_M_check_lenEmPKc
                0x0000000000000000        0x0 api.o
 .text._ZNSt6vectorIiSaIiEE13_M_insert_auxEN9__gnu_cxx17__normal_iteratorIPiS1_EERKi
                0x0000000000000000        0x0 api.o
 .text._ZNSt6vectorIiSaIiEE9push_backERKi
                0x0000000000000000        0x0 api.o
 .data.DW.ref.__gxx_personality_v0
                0x0000000000000000        0x0 api.o
 .note.GNU-stack
                0x0000000000000000        0x0 api.o
 _ZN6CSeqNo6seqcmpERKiS1_
                0x0000000000000000        0x0 ccc.o
 _ZN6CSeqNo6seqlenERKiS1_
                0x0000000000000000        0x0 ccc.o
 _ZN6CSeqNo6decseqERKi
                0x0000000000000000        0x0 ccc.o
 _ZN3CCC4initEv
                0x0000000000000000        0x0 ccc.o
 _ZN3CCC5closeEv
                0x0000000000000000        0x0 ccc.o
 _ZN3CCC5onACKERKi
                0x0000000000000000        0x0 ccc.o
 _ZN3CCC6onLossEPKiRS0_
                0x0000000000000000        0x0 ccc.o
 _ZN3CCC9onTimeoutEv
                0x0000000000000000        0x0 ccc.o
 _ZN3CCC9onPktSentEPK7CPacket
                0x0000000000000000        0x0 ccc.o
 _ZN3CCC13onPktReceivedEPK7CPacket
                0x0000000000000000        0x0 ccc.o
 _ZN3CCC16processCustomMsgEPK7CPacket
                0x0000000000000000        0x0 ccc.o
 _ZN6CUDTCCD0Ev
                0x0000000000000000        0x0 ccc.o
 _ZN6CUDTCCD1Ev
                0x0000000000000000        0x0 ccc.o
 _ZTV6CUDTCC    0x0000000000000000        0x0 ccc.o
 _ZTV3CCC       0x0000000000000000        0x0 ccc.o
 _ZTS6CUDTCC    0x0000000000000000        0x0 ccc.o
 _ZTI6CUDTCC    0x0000000000000000        0x0 ccc.o
 _ZTS3CCC       0x0000000000000000        0x0 ccc.o
 _ZTI3CCC       0x0000000000000000        0x0 ccc.o
 DW.ref.__gxx_personality_v0
                0x0000000000000000        0x0 ccc.o
 .text._ZN6CSeqNo6seqcmpERKiS1_
                0x0000000000000000        0x0 ccc.o
 .text._ZN6CSeqNo6seqlenERKiS1_
                0x0000000000000000        0x0 ccc.o
 .text._ZN6CSeqNo6decseqERKi
                0x0000000000000000        0x0 ccc.o
 .data.DW.ref.__gxx_personality_v0
                0x0000000000000000        0x0 ccc.o
 .note.GNU-stack
                0x0000000000000000        0x0 ccc.o
 DW.ref.__gxx_personality_v0
                0x0000000000000000        0x0 buffer.o
 .data.DW.ref.__gxx_personality_v0
                0x0000000000000000        0x0 buffer.o
 .note.GNU-stack
                0x0000000000000000        0x0 buffer.o
 DW.ref.__gxx_personality_v0
                0x0000000000000000        0x0 window.o
 .data.DW.ref.__gxx_personality_v0
                0x0000000000000000        0x0 window.o
 .note.GNU-stack
                0x0000000000000000        0x0 window.o
 DW.ref.__gxx_personality_v0
                0x0000000000000000        0x0 md5.o
 .data.DW.ref.__gxx_personality_v0
                0x0000000000000000        0x0 md5.o
 .note.GNU-stack
                0x0000000000000000        0x0 md5.o
 _ZN6CSeqNo6seqcmpERKiS1_
                0x0000000000000000        0x0 list.o
 _ZN6CSeqNo6seqlenERKiS1_
                0x0000000000000000        0x0 list.o
 _ZN6CSeqNo6seqoffERKiS1_
                0x0000000000000000        0x0 list.o
 _ZN6CSeqNo6incseqEi
                0x0000000000000000        0x0 list.o
 _ZN6CSeqNo6decseqERKi
                0x0000000000000000        0x0 list.o
 DW.ref.__gxx_personality_v0
                0x0000000000000000        0x0 list.o
 .text._ZN6CSeqNo6seqcmpERKiS1_
                0x0000000000000000        0x0 list.o
 .text._ZN6CSeqNo6seqlenERKiS1_
                0x0000000000000000        0x0 list.o
 .text._ZN6CSeqNo6seqoffERKiS1_
                0x0000000000000000        0x0 list.o
 .text._ZN6CSeqNo6incseqEi
                0x0000000000000000        0x0 list.o
 .text._ZN6CSeqNo6decseqERKi
                0x0000000000000000        0x0 list.o
 .data.DW.ref.__gxx_personality_v0
                0x0000000000000000        0x0 list.o
 .note.GNU-stack
                0x0000000000000000        0x0 list.o
 _ZnwmPv        0x0000000000000000        0x0 cache.o
 _ZNKSt23_Rb_tree_const_iteratorIP10CInfoBlockEneERKS2_
                0x0000000000000000        0x0 cache.o
 _ZNKSt23_Rb_tree_const_iteratorIP10CInfoBlockEdeEv
                0x0000000000000000        0x0 cache.o
 _ZNKSt23_Rb_tree_const_iteratorIP10CInfoBlockEeqERKS2_
                0x0000000000000000        0x0 cache.o
 _ZNSt8_Rb_treeIP10CInfoBlockS1_St9_IdentityIS1_E7CIPCompSaIS1_EE8_M_beginEv
                0x0000000000000000        0x0 cache.o
 _ZNSt8_Rb_treeIP10CInfoBlockS1_St9_IdentityIS1_E7CTSCompSaIS1_EE8_M_beginEv
                0x0000000000000000        0x0 cache.o
 _ZNSt23_Rb_tree_const_iteratorIP10CInfoBlockEC1ERKSt17_Rb_tree_iteratorIS1_E
                0x0000000000000000        0x0 cache.o
 _ZNSt4pairISt23_Rb_tree_const_iteratorIP10CInfoBlockEbEC1ERKS3_RKb
                0x0000000000000000        0x0 cache.o
 _ZNKSt8_Rb_treeIP10CInfoBlockS1_St9_IdentityIS1_E7CTSCompSaIS1_EE4sizeEv
                0x0000000000000000        0x0 cache.o
 _ZNKSt3setIP10CInfoBlock7CTSCompSaIS1_EE4sizeEv
                0x0000000000000000        0x0 cache.o
 _ZN9__gnu_cxx13new_allocatorISt13_Rb_tree_nodeIP10CInfoBlockEED2Ev
                0x0000000000000000        0x0 cache.o
 _ZNSaISt13_Rb_tree_nodeIP10CInfoBlockEED2Ev
                0x0000000000000000        0x0 cache.o
 _ZNSt8_Rb_treeIP10CInfoBlockS1_St9_IdentityIS1_E7CTSCompSaIS1_EE13_Rb_tree_implIS4_Lb1EED1Ev
                0x0000000000000000        0x0 cache.o
 _ZNSt8_Rb_treeIP10CInfoBlockS1_St9_IdentityIS1_E7CIPCompSaIS1_EE13_Rb_tree_implIS4_Lb1EED1Ev
                0x0000000000000000        0x0 cache.o
 _ZNSt8_Rb_treeIP10CInfoBlockS1_St9_IdentityIS1_E7CIPCompSaIS1_EE8_S_rightEPSt18_Rb_tree_node_base
                0x0000000000000000        0x0 cache.o
 _ZNSt8_Rb_treeIP10CInfoBlockS1_St9_IdentityIS1_E7CIPCompSaIS1_EE7_S_leftEPSt18_Rb_tree_node_base
                0x0000000000000000        0x0 cache.o
 _ZNSt8_Rb_treeIP10CInfoBlockS1_St9_IdentityIS1_E7CTSCompSaIS1_EE8_S_rightEPSt18_Rb_tree_node_base
                0x0000000000000000        0x0 cache.o
 _ZNSt8_Rb_treeIP10CInfoBlockS1_St9_IdentityIS1_E7CTSCompSaIS1_EE7_S_leftEPSt18_Rb_tree_node_base
                0x0000000000000000        0x0 cache.o
 _ZNSt23_Rb_tree_const_iteratorIP10CInfoBlockEC1EPKSt13_Rb_tree_nodeIS1_E
                0x0000000000000000        0x0 cache.o
 _ZNKSt8_Rb_treeIP10CInfoBlockS1_St9_IdentityIS1_E7CIPCompSaIS1_EE3endEv
                0x0000000000000000        0x0 cache.o
 _ZNKSt3setIP10CInfoBlock7CIPCompSaIS1_EE3endEv
                0x0000000000000000        0x0 cache.o
 _ZNKSt8_Rb_treeIP10CInfoBlockS1_St9_IdentityIS1_E7CTSCompSaIS1_EE5beginEv
                0x0000000000000000        0x0 cache.o
 _ZNKSt3setIP10CInfoBlock7CTSCompSaIS1_EE5beginEv
                0x0000000000000000        0x0 cache.o
 _ZNKSt8_Rb_treeIP10CInfoBlockS1_St9_IdentityIS1_E7CTSCompSaIS1_EE3endEv
                0x0000000000000000        0x0 cache.o
 _ZNKSt3setIP10CInfoBlock7CTSCompSaIS1_EE3endEv
                0x0000000000000000        0x0 cache.o
 _ZNSt8_Rb_treeIP10CInfoBlockS1_St9_IdentityIS1_E7CIPCompSaIS1_EE6_M_endEv
                0x0000000000000000        0x0 cache.o
 _ZNKSt17_Rb_tree_iteratorIP10CInfoBlockEeqERKS2_
                0x0000000000000000        0x0 cache.o
 _ZNKSt9_IdentityIP10CInfoBlockEclERKS1_
                0x0000000000000000        0x0 cache.o
 _ZNSt17_Rb_tree_iteratorIP10CInfoBlockEC1EPSt13_Rb_tree_nodeIS1_E
                0x0000000000000000        0x0 cache.o
 _ZNSt8_Rb_treeIP10CInfoBlockS1_St9_IdentityIS1_E7CIPCompSaIS1_EE3endEv
                0x0000000000000000        0x0 cache.o
 _ZNSt8_Rb_treeIP10CInfoBlockS1_St9_IdentityIS1_E7CIPCompSaIS1_EE5beginEv
                0x0000000000000000        0x0 cache.o
 _ZNSt4pairISt17_Rb_tree_iteratorIP10CInfoBlockEbEC1ERKS3_RKb
                0x0000000000000000        0x0 cache.o
 _ZNSt8_Rb_treeIP10CInfoBlockS1_St9_IdentityIS1_E7CTSCompSaIS1_EE6_M_endEv
                0x0000000000000000        0x0 cache.o
 _ZNSt8_Rb_treeIP10CInfoBlockS1_St9_IdentityIS1_E7CTSCompSaIS1_EE5beginEv
                0x0000000000000000        0x0 cache.o
 _ZNKSt8_Rb_treeIP10CInfoBlockS1_St9_IdentityIS1_E7CIPCompSaIS1_EE4sizeEv
                0x0000000000000000        0x0 cache.o
 _ZNSt8_Rb_treeIP10CInfoBlockS1_St9_IdentityIS1_E7CIPCompSaIS1_EE13_Rb_tree_implIS4_Lb1EE13_M_initializeEv
                0x0000000000000000        0x0 cache.o
 _ZN9__gnu_cxx13new_allocatorIP10CInfoBlockE7destroyEPS2_
                0x0000000000000000        0x0 cache.o
 _ZNSt8_Rb_treeIP10CInfoBlockS1_St9_IdentityIS1_E7CTSCompSaIS1_EE13_Rb_tree_implIS4_Lb1EE13_M_initializeEv
                0x0000000000000000        0x0 cache.o
 _ZNSt8_Rb_treeIP10CInfoBlockS1_St9_IdentityIS1_E7CIPCompSaIS1_EE8_S_valueEPKSt18_Rb_tree_node_base
                0x0000000000000000        0x0 cache.o
 _ZNSt8_Rb_treeIP10CInfoBlockS1_St9_IdentityIS1_E7CIPCompSaIS1_EE6_S_keyEPKSt18_Rb_tree_node_base
                0x0000000000000000        0x0 cache.o
 _ZNSt4pairISt17_Rb_tree_iteratorIP10CInfoBlockES3_EC1ERKS3_S6_
                0x0000000000000000        0x0 cache.o
 _ZNSt8_Rb_treeIP10CInfoBlockS1_St9_IdentityIS1_E7CTSCompSaIS1_EE3endEv
                0x0000000000000000        0x0 cache.o
 _ZNKSt17_Rb_tree_iteratorIP10CInfoBlockEneERKS2_
                0x0000000000000000        0x0 cache.o
 _ZNSt8_Rb_treeIP10CInfoBlockS1_St9_IdentityIS1_E7CIPCompSaIS1_EE8_S_valueEPKSt13_Rb_tree_nodeIS1_E
                0x0000000000000000        0x0 cache.o
 _ZNSt8_Rb_treeIP10CInfoBlockS1_St9_IdentityIS1_E7CIPCompSaIS1_EE6_S_keyEPKSt13_Rb_tree_nodeIS1_E
                0x0000000000000000        0x0 cache.o
 _ZNSt8_Rb_treeIP10CInfoBlockS1_St9_IdentityIS1_E7CIPCompSaIS1_EE14_M_lower_boundEPSt13_Rb_tree_nodeIS1_ES9_RKS1_
                0x0000000000000000        0x0 cache.o
 _ZNSt8_Rb_treeIP10CInfoBlockS1_St9_IdentityIS1_E7CIPCompSaIS1_EE4findERKS1_
                0x0000000000000000        0x0 cache.o
 _ZNSt3setIP10CInfoBlock7CIPCompSaIS1_EE4findERKS1_
                0x0000000000000000        0x0 cache.o
 _ZNSt8_Rb_treeIP10CInfoBlockS1_St9_IdentityIS1_E7CTSCompSaIS1_EE8_S_valueEPKSt13_Rb_tree_nodeIS1_E
                0x0000000000000000        0x0 cache.o
 _ZNSt8_Rb_treeIP10CInfoBlockS1_St9_IdentityIS1_E7CTSCompSaIS1_EE6_S_keyEPKSt13_Rb_tree_nodeIS1_E
                0x0000000000000000        0x0 cache.o
 _ZNSt8_Rb_treeIP10CInfoBlockS1_St9_IdentityIS1_E7CTSCompSaIS1_EE14_M_upper_boundEPSt13_Rb_tree_nodeIS1_ES9_RKS1_
                0x0000000000000000        0x0 cache.o
 _ZNSt8_Rb_treeIP10CInfoBlockS1_St9_IdentityIS1_E7CTSCompSaIS1_EE14_M_lower_boundEPSt13_Rb_tree_nodeIS1_ES9_RKS1_
                0x0000000000000000        0x0 cache.o
 _ZNSt8_Rb_treeIP10CInfoBlockS1_St9_IdentityIS1_E7CTSCompSaIS1_EE11equal_rangeERKS1_
                0x0000000000000000        0x0 cache.o
 _ZNSt8_Rb_treeIP10CInfoBlockS1_St9_IdentityIS1_E7CTSCompSaIS1_EE8_S_valueEPKSt18_Rb_tree_node_base
                0x0000000000000000        0x0 cache.o
 _ZNSt8_Rb_treeIP10CInfoBlockS1_St9_IdentityIS1_E7CTSCompSaIS1_EE6_S_keyEPKSt18_Rb_tree_node_base
                0x0000000000000000        0x0 cache.o
 _ZNSt8_Rb_treeIP10CInfoBlockS1_St9_IdentityIS1_E7CIPCompSaIS1_EE14_M_upper_boundEPSt13_Rb_tree_nodeIS1_ES9_RKS1_
                0x0000000000000000        0x0 cache.o
 _ZNSt8_Rb_treeIP10CInfoBlockS1_St9_IdentityIS1_E7CIPCompSaIS1_EE11equal_rangeERKS1_
                0x0000000000000000        0x0 cache.o
 _ZN9__gnu_cxx13new_allocatorISt13_Rb_tree_nodeIP10CInfoBlockEEC2Ev
                0x0000000000000000        0x0 cache.o
 _ZNSaISt13_Rb_tree_nodeIP10CInfoBlockEEC2Ev
                0x0000000000000000        0x0 cache.o
 _ZNSt8_Rb_treeIP10CInfoBlockS1_St9_IdentityIS1_E7CIPCompSaIS1_EE13_Rb_tree_implIS4_Lb1EEC1Ev
                0x0000000000000000        0x0 cache.o
 _ZNSt8_Rb_treeIP10CInfoBlockS1_St9_IdentityIS1_E7CIPCompSaIS1_EEC1Ev
                0x0000000000000000        0x0 cache.o
 _ZNSt3setIP10CInfoBlock7CIPCompSaIS1_EEC1Ev
                0x0000000000000000        0x0 cache.o
 _ZNSt8_Rb_treeIP10CInfoBlockS1_St9_IdentityIS1_E7CTSCompSaIS1_EE13_Rb_tree_implIS4_Lb1EEC1Ev
                0x0000000000000000        0x0 cache.o
 _ZNSt8_Rb_treeIP10CInfoBlockS1_St9_IdentityIS1_E7CTSCompSaIS1_EEC1Ev
                0x0000000000000000        0x0 cache.o
 _ZNSt3setIP10CInfoBlock7CTSCompSaIS1_EEC1Ev
                0x0000000000000000        0x0 cache.o
 _ZNKSt8_Rb_treeIP10CInfoBlockS1_St9_IdentityIS1_E7CIPCompSaIS1_EE21_M_get_Node_allocatorEv
                0x0000000000000000        0x0 cache.o
 _ZN9__gnu_cxx13new_allocatorIP10CInfoBlockED2Ev
                0x0000000000000000        0x0 cache.o
 _ZNSaIP10CInfoBlockED1Ev
                0x0000000000000000        0x0 cache.o
 _ZNKSt8_Rb_treeIP10CInfoBlockS1_St9_IdentityIS1_E7CTSCompSaIS1_EE21_M_get_Node_allocatorEv
                0x0000000000000000        0x0 cache.o
 _ZNSt8_Rb_treeIP10CInfoBlockS1_St9_IdentityIS1_E7CTSCompSaIS1_EE11_M_leftmostEv
                0x0000000000000000        0x0 cache.o
 _ZNSt8_Rb_treeIP10CInfoBlockS1_St9_IdentityIS1_E7CTSCompSaIS1_EE7_M_rootEv
                0x0000000000000000        0x0 cache.o
 _ZNSt8_Rb_treeIP10CInfoBlockS1_St9_IdentityIS1_E7CTSCompSaIS1_EE12_M_rightmostEv
                0x0000000000000000        0x0 cache.o
 _ZN9__gnu_cxx13new_allocatorIP10CInfoBlockE9constructEPS2_RKS2_
                0x0000000000000000        0x0 cache.o
 _ZNSt8_Rb_treeIP10CInfoBlockS1_St9_IdentityIS1_E7CIPCompSaIS1_EE11_M_leftmostEv
                0x0000000000000000        0x0 cache.o
 _ZNSt8_Rb_treeIP10CInfoBlockS1_St9_IdentityIS1_E7CIPCompSaIS1_EE7_M_rootEv
                0x0000000000000000        0x0 cache.o
 _ZNSt8_Rb_treeIP10CInfoBlockS1_St9_IdentityIS1_E7CIPCompSaIS1_EE12_M_rightmostEv
                0x0000000000000000        0x0 cache.o
 _ZN9__gnu_cxx13new_allocatorIP10CInfoBlockEC2Ev
                0x0000000000000000        0x0 cache.o
 _ZNSaIP10CInfoBlockEC1ISt13_Rb_tree_nodeIS0_EEERKSaIT_E
                0x0000000000000000        0x0 cache.o
 _ZNKSt8_Rb_treeIP10CInfoBlockS1_St9_IdentityIS1_E7CTSCompSaIS1_EE13get_allocatorEv
                0x0000000000000000        0x0 cache.o
 _ZNKSt8_Rb_treeIP10CInfoBlockS1_St9_IdentityIS1_E7CIPCompSaIS1_EE13get_allocatorEv
                0x0000000000000000        0x0 cache.o
 _ZNK9__gnu_cxx13new_allocatorISt13_Rb_tree_nodeIP10CInfoBlockEE8max_sizeEv
                0x0000000000000000        0x0 cache.o
 _ZN9__gnu_cxx13new_allocatorISt13_Rb_tree_nodeIP10CInfoBlockEE10deallocateEPS4_m
                0x0000000000000000        0x0 cache.o
 _ZNSt8_Rb_treeIP10CInfoBlockS1_St9_IdentityIS1_E7CTSCompSaIS1_EE11_M_put_nodeEPSt13_Rb_tree_nodeIS1_E
                0x0000000000000000        0x0 cache.o
 _ZNSt8_Rb_treeIP10CInfoBlockS1_St9_IdentityIS1_E7CTSCompSaIS1_EE15_M_destroy_nodeEPSt13_Rb_tree_nodeIS1_E
                0x0000000000000000        0x0 cache.o
 _ZNSt8_Rb_treeIP10CInfoBlockS1_St9_IdentityIS1_E7CTSCompSaIS1_EE8_M_eraseEPSt13_Rb_tree_nodeIS1_E
                0x0000000000000000        0x0 cache.o
 _ZNSt8_Rb_treeIP10CInfoBlockS1_St9_IdentityIS1_E7CTSCompSaIS1_EE5clearEv
                0x0000000000000000        0x0 cache.o
 _ZNSt8_Rb_treeIP10CInfoBlockS1_St9_IdentityIS1_E7CTSCompSaIS1_EED1Ev
                0x0000000000000000        0x0 cache.o
 _ZNSt3setIP10CInfoBlock7CTSCompSaIS1_EED1Ev
                0x0000000000000000        0x0 cache.o
 _ZNSt8_Rb_treeIP10CInfoBlockS1_St9_IdentityIS1_E7CIPCompSaIS1_EE11_M_put_nodeEPSt13_Rb_tree_nodeIS1_E
                0x0000000000000000        0x0 cache.o
 _ZNSt8_Rb_treeIP10CInfoBlockS1_St9_IdentityIS1_E7CIPCompSaIS1_EE15_M_destroy_nodeEPSt13_Rb_tree_nodeIS1_E
                0x0000000000000000        0x0 cache.o
 _ZNSt8_Rb_treeIP10CInfoBlockS1_St9_IdentityIS1_E7CIPCompSaIS1_EE8_M_eraseEPSt13_Rb_tree_nodeIS1_E
                0x0000000000000000        0x0 cache.o
 _ZNSt8_Rb_treeIP10CInfoBlockS1_St9_IdentityIS1_E7CIPCompSaIS1_EE5clearEv
                0x0000000000000000        0x0 cache.o
 _ZNSt8_Rb_treeIP10CInfoBlockS1_St9_IdentityIS1_E7CIPCompSaIS1_EED1Ev
                0x0000000000000000        0x0 cache.o
 _ZNSt3setIP10CInfoBlock7CIPCompSaIS1_EED1Ev
                0x0000000000000000        0x0 cache.o
 _ZNSt17_Rb_tree_iteratorIP10CInfoBlockEppEi
                0x0000000000000000        0x0 cache.o
 _ZNSt8_Rb_treeIP10CInfoBlockS1_St9_IdentityIS1_E7CTSCompSaIS1_EE5eraseESt17_Rb_tree_iteratorIS1_E
                0x0000000000000000        0x0 cache.o
 _ZNSt8_Rb_treeIP10CInfoBlockS1_St9_IdentityIS1_E7CTSCompSaIS1_EE5eraseESt17_Rb_tree_iteratorIS1_ES8_
                0x0000000000000000        0x0 cache.o
 _ZNSt8_Rb_treeIP10CInfoBlockS1_St9_IdentityIS1_E7CTSCompSaIS1_EE5eraseERKS1_
                0x0000000000000000        0x0 cache.o
 _ZNSt3setIP10CInfoBlock7CTSCompSaIS1_EE5eraseERKS1_
                0x0000000000000000        0x0 cache.o
 _ZNSt8_Rb_treeIP10CInfoBlockS1_St9_IdentityIS1_E7CIPCompSaIS1_EE5eraseESt23_Rb_tree_const_iteratorIS1_E
                0x0000000000000000        0x0 cache.o
 _ZNSt3setIP10CInfoBlock7CIPCompSaIS1_EE5eraseESt23_Rb_tree_const_iteratorIS1_E
                0x0000000000000000        0x0 cache.o
 _ZNSt8_Rb_treeIP10CInfoBlockS1_St9_IdentityIS1_E7CIPCompSaIS1_EE5eraseESt17_Rb_tree_iteratorIS1_E
                0x0000000000000000        0x0 cache.o
 _ZNSt8_Rb_treeIP10CInfoBlockS1_St9_IdentityIS1_E7CIPCompSaIS1_EE5eraseESt17_Rb_tree_iteratorIS1_ES8_
                0x0000000000000000        0x0 cache.o
 _ZNSt8_Rb_treeIP10CInfoBlockS1_St9_IdentityIS1_E7CIPCompSaIS1_EE5eraseERKS1_
                0x0000000000000000        0x0 cache.o
 _ZNSt3setIP10CInfoBlock7CIPCompSaIS1_EE5eraseERKS1_
                0x0000000000000000        0x0 cache.o
 _ZNSt8_Rb_treeIP10CInfoBlockS1_St9_IdentityIS1_E7CTSCompSaIS1_EE5eraseESt23_Rb_tree_const_iteratorIS1_E
                0x0000000000000000        0x0 cache.o
 _ZNSt3setIP10CInfoBlock7CTSCompSaIS1_EE5eraseESt23_Rb_tree_const_iteratorIS1_E
                0x0000000000000000        0x0 cache.o
 _ZNSt17_Rb_tree_iteratorIP10CInfoBlockEmmEv
                0x0000000000000000        0x0 cache.o
 _ZN9__gnu_cxx13new_allocatorISt13_Rb_tree_nodeIP10CInfoBlockEE8allocateEmPKv
                0x0000000000000000        0x0 cache.o
 _ZNSt8_Rb_treeIP10CInfoBlockS1_St9_IdentityIS1_E7CIPCompSaIS1_EE11_M_get_nodeEv
                0x0000000000000000        0x0 cache.o
 _ZNSt8_Rb_treeIP10CInfoBlockS1_St9_IdentityIS1_E7CIPCompSaIS1_EE14_M_create_nodeERKS1_
                0x0000000000000000        0x0 cache.o
 _ZNSt8_Rb_treeIP10CInfoBlockS1_St9_IdentityIS1_E7CIPCompSaIS1_EE10_M_insert_EPKSt18_Rb_tree_node_baseS9_RKS1_
                0x0000000000000000        0x0 cache.o
 _ZNSt8_Rb_treeIP10CInfoBlockS1_St9_IdentityIS1_E7CIPCompSaIS1_EE16_M_insert_uniqueERKS1_
                0x0000000000000000        0x0 cache.o
 _ZNSt3setIP10CInfoBlock7CIPCompSaIS1_EE6insertERKS1_
                0x0000000000000000        0x0 cache.o
 _ZNSt8_Rb_treeIP10CInfoBlockS1_St9_IdentityIS1_E7CTSCompSaIS1_EE11_M_get_nodeEv
                0x0000000000000000        0x0 cache.o
 _ZNSt8_Rb_treeIP10CInfoBlockS1_St9_IdentityIS1_E7CTSCompSaIS1_EE14_M_create_nodeERKS1_
                0x0000000000000000        0x0 cache.o
 _ZNSt8_Rb_treeIP10CInfoBlockS1_St9_IdentityIS1_E7CTSCompSaIS1_EE10_M_insert_EPKSt18_Rb_tree_node_baseS9_RKS1_
                0x0000000000000000        0x0 cache.o
 _ZNSt8_Rb_treeIP10CInfoBlockS1_St9_IdentityIS1_E7CTSCompSaIS1_EE16_M_insert_uniqueERKS1_
                0x0000000000000000        0x0 cache.o
 _ZNSt3setIP10CInfoBlock7CTSCompSaIS1_EE6insertERKS1_
                0x0000000000000000        0x0 cache.o
 _ZNSt23_Rb_tree_const_iteratorIP10CInfoBlockEppEv
                0x0000000000000000        0x0 cache.o
 DW.ref.__gxx_personality_v0
                0x0000000000000000        0x0 cache.o
 .text._ZnwmPv  0x0000000000000000        0x0 cache.o
 .data.DW.ref.__gxx_personality_v0
                0x0000000000000000        0x0 cache.o
 .note.GNU-stack
                0x0000000000000000        0x0 cache.o
 _ZnwmPv        0x0000000000000000        0x0 queue.o
 _ZN9__gnu_cxx17__normal_iteratorIPN16CRendezvousQueue3CRLESt6vectorIS2_SaIS2_EEEppEv
                0x0000000000000000        0x0 queue.o
 _ZNK9__gnu_cxx17__normal_iteratorIPN16CRendezvousQueue3CRLESt6vectorIS2_SaIS2_EEEptEv
                0x0000000000000000        0x0 queue.o
 _ZNKSt17_Rb_tree_iteratorISt4pairIKiP7CPacketEEneERKS5_
                0x0000000000000000        0x0 queue.o
 _ZNKSt17_Rb_tree_iteratorISt4pairIKiP7CPacketEEptEv
                0x0000000000000000        0x0 queue.o
 _ZNKSt17_Rb_tree_iteratorISt4pairIKiP7CPacketEEeqERKS5_
                0x0000000000000000        0x0 queue.o
 _ZNK9__gnu_cxx17__normal_iteratorIPP4CUDTSt6vectorIS2_SaIS2_EEEdeEv
                0x0000000000000000        0x0 queue.o
 _ZNSt12_Vector_baseIN16CRendezvousQueue3CRLESaIS1_EE19_M_get_Tp_allocatorEv
                0x0000000000000000        0x0 queue.o
 _ZN9__gnu_cxx17__normal_iteratorIPN16CRendezvousQueue3CRLESt6vectorIS2_SaIS2_EEEC1ERKS3_
                0x0000000000000000        0x0 queue.o
 _ZNSt6vectorIN16CRendezvousQueue3CRLESaIS1_EE5beginEv
                0x0000000000000000        0x0 queue.o
 _ZNSt6vectorIN16CRendezvousQueue3CRLESaIS1_EE3endEv
                0x0000000000000000        0x0 queue.o
 _ZNK9__gnu_cxx17__normal_iteratorIPN16CRendezvousQueue3CRLESt6vectorIS2_SaIS2_EEE4baseEv
                0x0000000000000000        0x0 queue.o
 _ZN9__gnu_cxxneIPN16CRendezvousQueue3CRLESt6vectorIS2_SaIS2_EEEEbRKNS_17__normal_iteratorIT_T0_EESC_
                0x0000000000000000        0x0 queue.o
 _ZN9__gnu_cxxmiIPN16CRendezvousQueue3CRLESt6vectorIS2_SaIS2_EEEENS_17__normal_iteratorIT_T0_E15difference_typeERKSA_SD_
                0x0000000000000000        0x0 queue.o
 _ZN9__gnu_cxxeqIPN16CRendezvousQueue3CRLESt6vectorIS2_SaIS2_EEEEbRKNS_17__normal_iteratorIT_T0_EESC_
                0x0000000000000000        0x0 queue.o
 _ZN9__gnu_cxx13new_allocatorIN16CRendezvousQueue3CRLEE9constructEPS2_RKS2_
                0x0000000000000000        0x0 queue.o
 _ZNK9__gnu_cxx17__normal_iteratorIPN16CRendezvousQueue3CRLESt6vectorIS2_SaIS2_EEEplERKl
                0x0000000000000000        0x0 queue.o
 _ZN16CRendezvousQueue3CRLD1Ev
                0x0000000000000000        0x0 queue.o
 _ZN9__gnu_cxx13new_allocatorIN16CRendezvousQueue3CRLEE7destroyEPS2_
                0x0000000000000000        0x0 queue.o
 _ZNSt12_Vector_baseIP4CUDTSaIS1_EE19_M_get_Tp_allocatorEv
                0x0000000000000000        0x0 queue.o
 _ZNSt8_Rb_treeIiSt4pairIKiP7CPacketESt10_Select1stIS4_ESt4lessIiESaIS4_EE8_M_beginEv
                0x0000000000000000        0x0 queue.o
 _ZN9__gnu_cxx17__normal_iteratorIPP4CUDTSt6vectorIS2_SaIS2_EEEC1ERKS3_
                0x0000000000000000        0x0 queue.o
 _ZNSt6vectorIP4CUDTSaIS1_EE5beginEv
                0x0000000000000000        0x0 queue.o
 _ZNSt6vectorIP4CUDTSaIS1_EE3endEv
                0x0000000000000000        0x0 queue.o
 _ZN9__gnu_cxx13new_allocatorIP4CUDTE9constructEPS2_RKS2_
                0x0000000000000000        0x0 queue.o
 _ZNK9__gnu_cxx17__normal_iteratorIPP4CUDTSt6vectorIS2_SaIS2_EEEplERKl
                0x0000000000000000        0x0 queue.o
 _ZN9__gnu_cxx13new_allocatorIP4CUDTE7destroyEPS2_
                0x0000000000000000        0x0 queue.o
 _ZNKSt17_Rb_tree_iteratorISt4pairIKiP7CPacketEEdeEv
                0x0000000000000000        0x0 queue.o
 _ZNKSt4lessIiEclERKiS2_
                0x0000000000000000        0x0 queue.o
 _ZNSt4pairIKiP7CPacketEC1ERS0_RKS2_
                0x0000000000000000        0x0 queue.o
 _ZSt8_DestroyIPN16CRendezvousQueue3CRLEEvT_S3_
                0x0000000000000000        0x0 queue.o
 _ZSt8_DestroyIPN16CRendezvousQueue3CRLES1_EvT_S3_RSaIT0_E
                0x0000000000000000        0x0 queue.o
 _ZNSt6vectorIN16CRendezvousQueue3CRLESaIS1_EE15_M_erase_at_endEPS1_
                0x0000000000000000        0x0 queue.o
 _ZNSt6vectorIN16CRendezvousQueue3CRLESaIS1_EE5clearEv
                0x0000000000000000        0x0 queue.o
 _ZNK9__gnu_cxx17__normal_iteratorIPN16CRendezvousQueue3CRLESt6vectorIS2_SaIS2_EEEdeEv
                0x0000000000000000        0x0 queue.o
 _ZNSt12__miter_baseIN9__gnu_cxx17__normal_iteratorIPN16CRendezvousQueue3CRLESt6vectorIS3_SaIS3_EEEELb0EE3__bES8_
                0x0000000000000000        0x0 queue.o
 _ZSt8_DestroyIPP4CUDTEvT_S3_
                0x0000000000000000        0x0 queue.o
 _ZSt8_DestroyIPP4CUDTS1_EvT_S3_RSaIT0_E
                0x0000000000000000        0x0 queue.o
 _ZN9__gnu_cxx13new_allocatorISt13_Rb_tree_nodeISt4pairIKiP7CPacketEEED2Ev
                0x0000000000000000        0x0 queue.o
 _ZNSaISt13_Rb_tree_nodeISt4pairIKiP7CPacketEEED2Ev
                0x0000000000000000        0x0 queue.o
 _ZNSt8_Rb_treeIiSt4pairIKiP7CPacketESt10_Select1stIS4_ESt4lessIiESaIS4_EE13_Rb_tree_implIS8_Lb0EED1Ev
                0x0000000000000000        0x0 queue.o
 _ZNSt8_Rb_treeIiSt4pairIKiP7CPacketESt10_Select1stIS4_ESt4lessIiESaIS4_EE8_S_rightEPSt18_Rb_tree_node_base
                0x0000000000000000        0x0 queue.o
 _ZNSt8_Rb_treeIiSt4pairIKiP7CPacketESt10_Select1stIS4_ESt4lessIiESaIS4_EE7_S_leftEPSt18_Rb_tree_node_base
                0x0000000000000000        0x0 queue.o
 _ZNSt17_Rb_tree_iteratorISt4pairIKiP7CPacketEEC1EPSt13_Rb_tree_nodeIS4_E
                0x0000000000000000        0x0 queue.o
 _ZNSt8_Rb_treeIiSt4pairIKiP7CPacketESt10_Select1stIS4_ESt4lessIiESaIS4_EE3endEv
                0x0000000000000000        0x0 queue.o
 _ZNSt3mapIiP7CPacketSt4lessIiESaISt4pairIKiS1_EEE3endEv
                0x0000000000000000        0x0 queue.o
 _ZNSt8_Rb_treeIiSt4pairIKiP7CPacketESt10_Select1stIS4_ESt4lessIiESaIS4_EE5beginEv
                0x0000000000000000        0x0 queue.o
 _ZNSt3mapIiP7CPacketSt4lessIiESaISt4pairIKiS1_EEE5beginEv
                0x0000000000000000        0x0 queue.o
 _ZNSt8_Rb_treeIiSt4pairIKiP7CPacketESt10_Select1stIS4_ESt4lessIiESaIS4_EE6_M_endEv
                0x0000000000000000        0x0 queue.o
 _ZNK9__gnu_cxx17__normal_iteratorIPP4CUDTSt6vectorIS2_SaIS2_EEE4baseEv
                0x0000000000000000        0x0 queue.o
 _ZN9__gnu_cxxneIPP4CUDTSt6vectorIS2_SaIS2_EEEEbRKNS_17__normal_iteratorIT_T0_EESC_
                0x0000000000000000        0x0 queue.o
 _ZN9__gnu_cxxmiIPP4CUDTSt6vectorIS2_SaIS2_EEEENS_17__normal_iteratorIT_T0_E15difference_typeERKSA_SD_
                0x0000000000000000        0x0 queue.o
 _ZN9__gnu_cxxeqIPP4CUDTSt6vectorIS2_SaIS2_EEEEbRKNS_17__normal_iteratorIT_T0_EESC_
                0x0000000000000000        0x0 queue.o
 _ZN9__gnu_cxx17__normal_iteratorIPKP4CUDTSt6vectorIS2_SaIS2_EEEC1ERKS4_
                0x0000000000000000        0x0 queue.o
 _ZNKSt6vectorIP4CUDTSaIS1_EE3endEv
                0x0000000000000000        0x0 queue.o
 _ZNKSt6vectorIP4CUDTSaIS1_EE5beginEv
                0x0000000000000000        0x0 queue.o
 _ZNK9__gnu_cxx17__normal_iteratorIPKP4CUDTSt6vectorIS2_SaIS2_EEE4baseEv
                0x0000000000000000        0x0 queue.o
 _ZN9__gnu_cxxeqIPKP4CUDTSt6vectorIS2_SaIS2_EEEEbRKNS_17__normal_iteratorIT_T0_EESD_
                0x0000000000000000        0x0 queue.o
 _ZNKSt6vectorIP4CUDTSaIS1_EE5emptyEv
                0x0000000000000000        0x0 queue.o
 _ZNSt12__miter_baseIN9__gnu_cxx17__normal_iteratorIPP4CUDTSt6vectorIS3_SaIS3_EEEELb0EE3__bES8_
                0x0000000000000000        0x0 queue.o
 _ZNKSt8_Rb_treeIiSt4pairIKiP7CPacketESt10_Select1stIS4_ESt4lessIiESaIS4_EE8key_compEv
                0x0000000000000000        0x0 queue.o
 _ZNKSt3mapIiP7CPacketSt4lessIiESaISt4pairIKiS1_EEE8key_compEv
                0x0000000000000000        0x0 queue.o
 _ZNSt23_Rb_tree_const_iteratorISt4pairIKiP7CPacketEEC1ERKSt17_Rb_tree_iteratorIS4_E
                0x0000000000000000        0x0 queue.o
 _ZN9__gnu_cxx13new_allocatorIN16CRendezvousQueue3CRLEED2Ev
                0x0000000000000000        0x0 queue.o
 _ZNSaIN16CRendezvousQueue3CRLEED2Ev
                0x0000000000000000        0x0 queue.o
 _ZNSt12_Vector_baseIN16CRendezvousQueue3CRLESaIS1_EE12_Vector_implD1Ev
                0x0000000000000000        0x0 queue.o
 _ZNSt12__miter_baseIPN16CRendezvousQueue3CRLELb0EE3__bES2_
                0x0000000000000000        0x0 queue.o
 _ZNKSt6vectorIN16CRendezvousQueue3CRLESaIS1_EE4sizeEv
                0x0000000000000000        0x0 queue.o
 _ZSt3maxImERKT_S2_S2_
                0x0000000000000000        0x0 queue.o
 _ZNSt12__niter_baseIN9__gnu_cxx17__normal_iteratorIPN16CRendezvousQueue3CRLESt6vectorIS3_SaIS3_EEEELb1EE3__bES8_
                0x0000000000000000        0x0 queue.o
 _ZN9__gnu_cxx13new_allocatorIP4CUDTED2Ev
                0x0000000000000000        0x0 queue.o
 _ZNSaIP4CUDTED2Ev
                0x0000000000000000        0x0 queue.o
 _ZNSt12_Vector_baseIP4CUDTSaIS1_EE12_Vector_implD1Ev
                0x0000000000000000        0x0 queue.o
 _ZNSt8_Rb_treeIiSt4pairIKiP7CPacketESt10_Select1stIS4_ESt4lessIiESaIS4_EE13_Rb_tree_implIS8_Lb0EE13_M_initializeEv
                0x0000000000000000        0x0 queue.o
 _ZNSt4pairIKiP7CPacketED1Ev
                0x0000000000000000        0x0 queue.o
 _ZN9__gnu_cxx13new_allocatorISt4pairIKiP7CPacketEE7destroyEPS5_
                0x0000000000000000        0x0 queue.o
 _ZNSt8_Rb_treeIiSt4pairIKiP7CPacketESt10_Select1stIS4_ESt4lessIiESaIS4_EE8_S_valueEPKSt18_Rb_tree_node_base
                0x0000000000000000        0x0 queue.o
 _ZNKSt10_Select1stISt4pairIKiP7CPacketEEclERKS4_
                0x0000000000000000        0x0 queue.o
 _ZNSt8_Rb_treeIiSt4pairIKiP7CPacketESt10_Select1stIS4_ESt4lessIiESaIS4_EE6_S_keyEPKSt18_Rb_tree_node_base
                0x0000000000000000        0x0 queue.o
 _ZNSt12__miter_baseIPP4CUDTLb0EE3__bES2_
                0x0000000000000000        0x0 queue.o
 _ZNKSt6vectorIP4CUDTSaIS1_EE4sizeEv
                0x0000000000000000        0x0 queue.o
 _ZNSt12__niter_baseIN9__gnu_cxx17__normal_iteratorIPP4CUDTSt6vectorIS3_SaIS3_EEEELb1EE3__bES8_
                0x0000000000000000        0x0 queue.o
 _ZNSt8_Rb_treeIiSt4pairIKiP7CPacketESt10_Select1stIS4_ESt4lessIiESaIS4_EE12_M_rightmostEv
                0x0000000000000000        0x0 queue.o
 _ZNKSt8_Rb_treeIiSt4pairIKiP7CPacketESt10_Select1stIS4_ESt4lessIiESaIS4_EE4sizeEv
                0x0000000000000000        0x0 queue.o
 _ZNSt8_Rb_treeIiSt4pairIKiP7CPacketESt10_Select1stIS4_ESt4lessIiESaIS4_EE11_M_leftmostEv
                0x0000000000000000        0x0 queue.o
 _ZNSt8_Rb_treeIiSt4pairIKiP7CPacketESt10_Select1stIS4_ESt4lessIiESaIS4_EE8_S_rightEPKSt18_Rb_tree_node_base
                0x0000000000000000        0x0 queue.o
 _ZN9__gnu_cxx13new_allocatorIN16CRendezvousQueue3CRLEEC2Ev
                0x0000000000000000        0x0 queue.o
 _ZNSaIN16CRendezvousQueue3CRLEEC2Ev
                0x0000000000000000        0x0 queue.o
 _ZNSt12_Vector_baseIN16CRendezvousQueue3CRLESaIS1_EE12_Vector_implC1Ev
                0x0000000000000000        0x0 queue.o
 _ZNSt12_Vector_baseIN16CRendezvousQueue3CRLESaIS1_EEC2Ev
                0x0000000000000000        0x0 queue.o
 _ZNSt6vectorIN16CRendezvousQueue3CRLESaIS1_EEC1Ev
                0x0000000000000000        0x0 queue.o
 _ZNSt12__niter_baseIPN16CRendezvousQueue3CRLELb0EE3__bES2_
                0x0000000000000000        0x0 queue.o
 _ZNKSt12_Vector_baseIN16CRendezvousQueue3CRLESaIS1_EE19_M_get_Tp_allocatorEv
                0x0000000000000000        0x0 queue.o
 _ZNK9__gnu_cxx13new_allocatorIN16CRendezvousQueue3CRLEE8max_sizeEv
                0x0000000000000000        0x0 queue.o
 _ZNKSt6vectorIN16CRendezvousQueue3CRLESaIS1_EE8max_sizeEv
                0x0000000000000000        0x0 queue.o
 _ZN9__gnu_cxx13new_allocatorIP4CUDTEC2Ev
                0x0000000000000000        0x0 queue.o
 _ZNSaIP4CUDTEC2Ev
                0x0000000000000000        0x0 queue.o
 _ZNSt12_Vector_baseIP4CUDTSaIS1_EE12_Vector_implC1Ev
                0x0000000000000000        0x0 queue.o
 _ZNSt12_Vector_baseIP4CUDTSaIS1_EEC2Ev
                0x0000000000000000        0x0 queue.o
 _ZNSt6vectorIP4CUDTSaIS1_EEC1Ev
                0x0000000000000000        0x0 queue.o
 _ZN9__gnu_cxx13new_allocatorISt13_Rb_tree_nodeISt4pairIKiP7CPacketEEEC2Ev
                0x0000000000000000        0x0 queue.o
 _ZNSaISt13_Rb_tree_nodeISt4pairIKiP7CPacketEEEC2Ev
                0x0000000000000000        0x0 queue.o
 _ZNSt8_Rb_treeIiSt4pairIKiP7CPacketESt10_Select1stIS4_ESt4lessIiESaIS4_EE13_Rb_tree_implIS8_Lb0EEC1Ev
                0x0000000000000000        0x0 queue.o
 _ZNSt8_Rb_treeIiSt4pairIKiP7CPacketESt10_Select1stIS4_ESt4lessIiESaIS4_EEC1Ev
                0x0000000000000000        0x0 queue.o
 _ZNSt3mapIiP7CPacketSt4lessIiESaISt4pairIKiS1_EEEC1Ev
                0x0000000000000000        0x0 queue.o
 _ZNKSt8_Rb_treeIiSt4pairIKiP7CPacketESt10_Select1stIS4_ESt4lessIiESaIS4_EE21_M_get_Node_allocatorEv
                0x0000000000000000        0x0 queue.o
 _ZN9__gnu_cxx13new_allocatorISt4pairIKiP7CPacketEED2Ev
                0x0000000000000000        0x0 queue.o
 _ZNSaISt4pairIKiP7CPacketEED1Ev
                0x0000000000000000        0x0 queue.o
 _ZNSt8_Rb_treeIiSt4pairIKiP7CPacketESt10_Select1stIS4_ESt4lessIiESaIS4_EE8_S_valueEPKSt13_Rb_tree_nodeIS4_E
                0x0000000000000000        0x0 queue.o
 _ZNSt8_Rb_treeIiSt4pairIKiP7CPacketESt10_Select1stIS4_ESt4lessIiESaIS4_EE6_S_keyEPKSt13_Rb_tree_nodeIS4_E
                0x0000000000000000        0x0 queue.o
 _ZNSt8_Rb_treeIiSt4pairIKiP7CPacketESt10_Select1stIS4_ESt4lessIiESaIS4_EE14_M_lower_boundEPSt13_Rb_tree_nodeIS4_ESD_RS1_
                0x0000000000000000        0x0 queue.o
 _ZNSt8_Rb_treeIiSt4pairIKiP7CPacketESt10_Select1stIS4_ESt4lessIiESaIS4_EE4findERS1_
                0x0000000000000000        0x0 queue.o
 _ZNSt3mapIiP7CPacketSt4lessIiESaISt4pairIKiS1_EEE4findERS5_
                0x0000000000000000        0x0 queue.o
 _ZNSt8_Rb_treeIiSt4pairIKiP7CPacketESt10_Select1stIS4_ESt4lessIiESaIS4_EE11lower_boundERS1_
                0x0000000000000000        0x0 queue.o
 _ZNSt3mapIiP7CPacketSt4lessIiESaISt4pairIKiS1_EEE11lower_boundERS5_
                0x0000000000000000        0x0 queue.o
 _ZNSt12__niter_baseIPP4CUDTLb0EE3__bES2_
                0x0000000000000000        0x0 queue.o
 _ZNKSt12_Vector_baseIP4CUDTSaIS1_EE19_M_get_Tp_allocatorEv
                0x0000000000000000        0x0 queue.o
 _ZNK9__gnu_cxx13new_allocatorIP4CUDTE8max_sizeEv
                0x0000000000000000        0x0 queue.o
 _ZNKSt6vectorIP4CUDTSaIS1_EE8max_sizeEv
                0x0000000000000000        0x0 queue.o
 _ZNSt4pairISt17_Rb_tree_iteratorIS_IKiP7CPacketEEbEC1ERKS5_RKb
                0x0000000000000000        0x0 queue.o
 _ZN9__gnu_cxx13new_allocatorISt4pairIKiP7CPacketEEC2Ev
                0x0000000000000000        0x0 queue.o
 _ZNSaISt4pairIKiP7CPacketEEC1ISt13_Rb_tree_nodeIS3_EEERKSaIT_E
                0x0000000000000000        0x0 queue.o
 _ZNKSt8_Rb_treeIiSt4pairIKiP7CPacketESt10_Select1stIS4_ESt4lessIiESaIS4_EE13get_allocatorEv
                0x0000000000000000        0x0 queue.o
 _ZN9__gnu_cxx13new_allocatorISt4pairIKiP7CPacketEE9constructEPS5_RKS5_
                0x0000000000000000        0x0 queue.o
 _ZNK9__gnu_cxx13new_allocatorISt13_Rb_tree_nodeISt4pairIKiP7CPacketEEE8max_sizeEv
                0x0000000000000000        0x0 queue.o
 _ZN5CUnitD1Ev  0x0000000000000000        0x0 queue.o
 _ZN9__gnu_cxx13new_allocatorISt13_Rb_tree_nodeISt4pairIKiP7CPacketEEE10deallocateEPS7_m
                0x0000000000000000        0x0 queue.o
 _ZNSt8_Rb_treeIiSt4pairIKiP7CPacketESt10_Select1stIS4_ESt4lessIiESaIS4_EE11_M_put_nodeEPSt13_Rb_tree_nodeIS4_E
                0x0000000000000000        0x0 queue.o
 _ZNSt8_Rb_treeIiSt4pairIKiP7CPacketESt10_Select1stIS4_ESt4lessIiESaIS4_EE15_M_destroy_nodeEPSt13_Rb_tree_nodeIS4_E
                0x0000000000000000        0x0 queue.o
 _ZNSt8_Rb_treeIiSt4pairIKiP7CPacketESt10_Select1stIS4_ESt4lessIiESaIS4_EE8_M_eraseEPSt13_Rb_tree_nodeIS4_E
                0x0000000000000000        0x0 queue.o
 _ZN9__gnu_cxx13new_allocatorIP4CUDTE10deallocateEPS2_m
                0x0000000000000000        0x0 queue.o
 _ZNSt12_Vector_baseIP4CUDTSaIS1_EE13_M_deallocateEPS1_m
                0x0000000000000000        0x0 queue.o
 _ZN9__gnu_cxx13new_allocatorIN16CRendezvousQueue3CRLEE10deallocateEPS2_m
                0x0000000000000000        0x0 queue.o
 _ZNSt12_Vector_baseIN16CRendezvousQueue3CRLESaIS1_EE13_M_deallocateEPS1_m
                0x0000000000000000        0x0 queue.o
 _ZNSt23_Rb_tree_const_iteratorISt4pairIKiP7CPacketEEmmEv
                0x0000000000000000        0x0 queue.o
 _ZNSt23_Rb_tree_const_iteratorISt4pairIKiP7CPacketEEppEv
                0x0000000000000000        0x0 queue.o
 _ZNSt8_Rb_treeIiSt4pairIKiP7CPacketESt10_Select1stIS4_ESt4lessIiESaIS4_EED1Ev
                0x0000000000000000        0x0 queue.o
 _ZNSt3mapIiP7CPacketSt4lessIiESaISt4pairIKiS1_EEED1Ev
                0x0000000000000000        0x0 queue.o
 _ZNSt12_Vector_baseIP4CUDTSaIS1_EED2Ev
                0x0000000000000000        0x0 queue.o
 _ZNSt6vectorIP4CUDTSaIS1_EED1Ev
                0x0000000000000000        0x0 queue.o
 _ZNSt12_Vector_baseIN16CRendezvousQueue3CRLESaIS1_EED2Ev
                0x0000000000000000        0x0 queue.o
 _ZNSt6vectorIN16CRendezvousQueue3CRLESaIS1_EED1Ev
                0x0000000000000000        0x0 queue.o
 _ZN9__gnu_cxx13new_allocatorISt13_Rb_tree_nodeISt4pairIKiP7CPacketEEE8allocateEmPKv
                0x0000000000000000        0x0 queue.o
 _ZNSt8_Rb_treeIiSt4pairIKiP7CPacketESt10_Select1stIS4_ESt4lessIiESaIS4_EE11_M_get_nodeEv
                0x0000000000000000        0x0 queue.o
 _ZNSt8_Rb_treeIiSt4pairIKiP7CPacketESt10_Select1stIS4_ESt4lessIiESaIS4_EE14_M_create_nodeERKS4_
                0x0000000000000000        0x0 queue.o
 _ZNSt8_Rb_treeIiSt4pairIKiP7CPacketESt10_Select1stIS4_ESt4lessIiESaIS4_EE10_M_insert_EPKSt18_Rb_tree_node_baseSD_RKS4_
                0x0000000000000000        0x0 queue.o
 _ZN9__gnu_cxx13new_allocatorIP4CUDTE8allocateEmPKv
                0x0000000000000000        0x0 queue.o
 _ZNSt12_Vector_baseIP4CUDTSaIS1_EE11_M_allocateEm
                0x0000000000000000        0x0 queue.o
 _ZN9__gnu_cxx13new_allocatorIN16CRendezvousQueue3CRLEE8allocateEmPKv
                0x0000000000000000        0x0 queue.o
 _ZNSt12_Vector_baseIN16CRendezvousQueue3CRLESaIS1_EE11_M_allocateEm
                0x0000000000000000        0x0 queue.o
 _ZNSt17_Rb_tree_iteratorISt4pairIKiP7CPacketEEmmEv
                0x0000000000000000        0x0 queue.o
 _ZNSt8_Rb_treeIiSt4pairIKiP7CPacketESt10_Select1stIS4_ESt4lessIiESaIS4_EE16_M_insert_uniqueERKS4_
                0x0000000000000000        0x0 queue.o
 _ZNSt8_Rb_treeIiSt4pairIKiP7CPacketESt10_Select1stIS4_ESt4lessIiESaIS4_EE17_M_insert_unique_ESt23_Rb_tree_const_iteratorIS4_ERKS4_
                0x0000000000000000        0x0 queue.o
 _ZNSt3mapIiP7CPacketSt4lessIiESaISt4pairIKiS1_EEE6insertESt17_Rb_tree_iteratorIS6_ERKS6_
                0x0000000000000000        0x0 queue.o
 _ZNSt3mapIiP7CPacketSt4lessIiESaISt4pairIKiS1_EEEixERS5_
                0x0000000000000000        0x0 queue.o
 _ZNSt11__copy_moveILb0ELb1ESt26random_access_iterator_tagE8__copy_mIP4CUDTEEPT_PKS5_S8_S6_
                0x0000000000000000        0x0 queue.o
 _ZSt13__copy_move_aILb0EPP4CUDTS2_ET1_T0_S4_S3_
                0x0000000000000000        0x0 queue.o
 _ZSt14__copy_move_a2ILb0EN9__gnu_cxx17__normal_iteratorIPP4CUDTSt6vectorIS3_SaIS3_EEEES8_ET1_T0_SA_S9_
                0x0000000000000000        0x0 queue.o
 _ZSt4copyIN9__gnu_cxx17__normal_iteratorIPP4CUDTSt6vectorIS3_SaIS3_EEEES8_ET0_T_SA_S9_
                0x0000000000000000        0x0 queue.o
 _ZNSt6vectorIP4CUDTSaIS1_EE5eraseEN9__gnu_cxx17__normal_iteratorIPS1_S3_EE
                0x0000000000000000        0x0 queue.o
 _ZSt14__copy_move_a2ILb0EPP4CUDTS2_ET1_T0_S4_S3_
                0x0000000000000000        0x0 queue.o
 _ZSt4copyIPP4CUDTS2_ET0_T_S4_S3_
                0x0000000000000000        0x0 queue.o
 _ZNSt20__uninitialized_copyILb1EE18uninitialized_copyIPP4CUDTS4_EET0_T_S6_S5_
                0x0000000000000000        0x0 queue.o
 _ZSt18uninitialized_copyIPP4CUDTS2_ET0_T_S4_S3_
                0x0000000000000000        0x0 queue.o
 _ZSt22__uninitialized_copy_aIPP4CUDTS2_S1_ET0_T_S4_S3_RSaIT1_E
                0x0000000000000000        0x0 queue.o
 _ZSt22__uninitialized_move_aIPP4CUDTS2_SaIS1_EET0_T_S5_S4_RT1_
                0x0000000000000000        0x0 queue.o
 _ZNSt20__copy_move_backwardILb0ELb1ESt26random_access_iterator_tagE13__copy_move_bIP4CUDTEEPT_PKS5_S8_S6_
                0x0000000000000000        0x0 queue.o
 _ZSt22__copy_move_backward_aILb0EPP4CUDTS2_ET1_T0_S4_S3_
                0x0000000000000000        0x0 queue.o
 _ZSt23__copy_move_backward_a2ILb0EPP4CUDTS2_ET1_T0_S4_S3_
                0x0000000000000000        0x0 queue.o
 _ZSt13copy_backwardIPP4CUDTS2_ET0_T_S4_S3_
                0x0000000000000000        0x0 queue.o
 _ZNSt11__copy_moveILb0ELb1ESt26random_access_iterator_tagE8__copy_mIN16CRendezvousQueue3CRLEEEPT_PKS5_S8_S6_
                0x0000000000000000        0x0 queue.o
 _ZSt13__copy_move_aILb0EPN16CRendezvousQueue3CRLES2_ET1_T0_S4_S3_
                0x0000000000000000        0x0 queue.o
 _ZSt14__copy_move_a2ILb0EN9__gnu_cxx17__normal_iteratorIPN16CRendezvousQueue3CRLESt6vectorIS3_SaIS3_EEEES8_ET1_T0_SA_S9_
                0x0000000000000000        0x0 queue.o
 _ZSt4copyIN9__gnu_cxx17__normal_iteratorIPN16CRendezvousQueue3CRLESt6vectorIS3_SaIS3_EEEES8_ET0_T_SA_S9_
                0x0000000000000000        0x0 queue.o
 _ZNSt6vectorIN16CRendezvousQueue3CRLESaIS1_EE5eraseEN9__gnu_cxx17__normal_iteratorIPS1_S3_EE
                0x0000000000000000        0x0 queue.o
 _ZSt14__copy_move_a2ILb0EPN16CRendezvousQueue3CRLES2_ET1_T0_S4_S3_
                0x0000000000000000        0x0 queue.o
 _ZSt4copyIPN16CRendezvousQueue3CRLES2_ET0_T_S4_S3_
                0x0000000000000000        0x0 queue.o
 _ZNSt20__uninitialized_copyILb1EE18uninitialized_copyIPN16CRendezvousQueue3CRLES4_EET0_T_S6_S5_
                0x0000000000000000        0x0 queue.o
 _ZSt18uninitialized_copyIPN16CRendezvousQueue3CRLES2_ET0_T_S4_S3_
                0x0000000000000000        0x0 queue.o
 _ZSt22__uninitialized_copy_aIPN16CRendezvousQueue3CRLES2_S1_ET0_T_S4_S3_RSaIT1_E
                0x0000000000000000        0x0 queue.o
 _ZSt22__uninitialized_move_aIPN16CRendezvousQueue3CRLES2_SaIS1_EET0_T_S5_S4_RT1_
                0x0000000000000000        0x0 queue.o
 _ZNSt20__copy_move_backwardILb0ELb1ESt26random_access_iterator_tagE13__copy_move_bIN16CRendezvousQueue3CRLEEEPT_PKS5_S8_S6_
                0x0000000000000000        0x0 queue.o
 _ZSt22__copy_move_backward_aILb0EPN16CRendezvousQueue3CRLES2_ET1_T0_S4_S3_
                0x0000000000000000        0x0 queue.o
 _ZSt23__copy_move_backward_a2ILb0EPN16CRendezvousQueue3CRLES2_ET1_T0_S4_S3_
                0x0000000000000000        0x0 queue.o
 _ZSt13copy_backwardIPN16CRendezvousQueue3CRLES2_ET0_T_S4_S3_
                0x0000000000000000        0x0 queue.o
 _ZNKSt6vectorIP4CUDTSaIS1_EE12_M_check_lenEmPKc
                0x0000000000000000        0x0 queue.o
 _ZNSt6vectorIP4CUDTSaIS1_EE13_M_insert_auxEN9__gnu_cxx17__normal_iteratorIPS1_S3_EERKS1_
                0x0000000000000000        0x0 queue.o
 _ZNSt6vectorIP4CUDTSaIS1_EE6insertEN9__gnu_cxx17__normal_iteratorIPS1_S3_EERKS1_
                0x0000000000000000        0x0 queue.o
 _ZNKSt6vectorIN16CRendezvousQueue3CRLESaIS1_EE12_M_check_lenEmPKc
                0x0000000000000000        0x0 queue.o
 _ZNSt6vectorIN16CRendezvousQueue3CRLESaIS1_EE13_M_insert_auxEN9__gnu_cxx17__normal_iteratorIPS1_S3_EERKS1_
                0x0000000000000000        0x0 queue.o
 _ZNSt6vectorIN16CRendezvousQueue3CRLESaIS1_EE6insertEN9__gnu_cxx17__normal_iteratorIPS1_S3_EERKS1_
                0x0000000000000000        0x0 queue.o
 _ZNSt8_Rb_treeIiSt4pairIKiP7CPacketESt10_Select1stIS4_ESt4lessIiESaIS4_EE5eraseESt17_Rb_tree_iteratorIS4_E
                0x0000000000000000        0x0 queue.o
 _ZNSt3mapIiP7CPacketSt4lessIiESaISt4pairIKiS1_EEE5eraseESt17_Rb_tree_iteratorIS6_E
                0x0000000000000000        0x0 queue.o
 _ZN5CUnitC1Ev  0x0000000000000000        0x0 queue.o
 _ZNSt17_Rb_tree_iteratorISt4pairIKiP7CPacketEEppEv
                0x0000000000000000        0x0 queue.o
 DW.ref.__gxx_personality_v0
                0x0000000000000000        0x0 queue.o
 .text._ZnwmPv  0x0000000000000000        0x0 queue.o
 .text._ZNKSt4lessIiEclERKiS2_
                0x0000000000000000        0x0 queue.o
 .text._ZSt3maxImERKT_S2_S2_
                0x0000000000000000        0x0 queue.o
 .data.DW.ref.__gxx_personality_v0
                0x0000000000000000        0x0 queue.o
 .note.GNU-stack
                0x0000000000000000        0x0 queue.o
 .note.GNU-stack
                0x0000000000000000        0x0 /usr/lib/gcc/x86_64-linux-gnu/4.3.3/crtendS.o
 .note.GNU-stack
                0x0000000000000000        0x0 /usr/lib/gcc/x86_64-linux-gnu/4.3.3/../../../../lib/crtn.o

Memory Configuration

Name             Origin             Length             Attributes
*default*        0x0000000000000000 0xffffffffffffffff

Linker script and memory map

LOAD /usr/lib/gcc/x86_64-linux-gnu/4.3.3/../../../../lib/crti.o
LOAD /usr/lib/gcc/x86_64-linux-gnu/4.3.3/crtbeginS.o
LOAD /usr/lib/gcc/x86_64-linux-gnu/4.3.3/../../../../lib/libpthread.so
START GROUP
LOAD /lib/libpthread.so.0
LOAD /usr/lib/libpthread_nonshared.a
END GROUP
LOAD channel.o
LOAD core.o
LOAD common.o
LOAD packet.o
LOAD com_barchart_udt_SocketUDT.o
LOAD api.o
LOAD ccc.o
LOAD buffer.o
LOAD window.o
LOAD md5.o
LOAD list.o
LOAD cache.o
LOAD queue.o
LOAD /usr/lib/gcc/x86_64-linux-gnu/4.3.3/libgcc.a
LOAD /usr/lib/gcc/x86_64-linux-gnu/4.3.3/libstdc++.so
LOAD /usr/lib/gcc/x86_64-linux-gnu/4.3.3/libgcc.a
LOAD /usr/lib/gcc/x86_64-linux-gnu/4.3.3/libgcc_s.so
LOAD /usr/lib/gcc/x86_64-linux-gnu/4.3.3/../../../../lib/libc.so
START GROUP
LOAD /lib/libc.so.6
LOAD /usr/lib/libc_nonshared.a
LOAD /lib/ld-linux-x86-64.so.2
END GROUP
LOAD /usr/lib/gcc/x86_64-linux-gnu/4.3.3/libgcc.a
LOAD /usr/lib/gcc/x86_64-linux-gnu/4.3.3/libgcc_s.so
LOAD /usr/lib/gcc/x86_64-linux-gnu/4.3.3/crtendS.o
LOAD /usr/lib/gcc/x86_64-linux-gnu/4.3.3/../../../../lib/crtn.o
                0x0000000000000190                . = (0x0 + SIZEOF_HEADERS)

.note.gnu.build-id
 *(.note.gnu.build-id)

.hash           0x0000000000000190     0x2440
 *(.hash)
 .hash          0x0000000000000190     0x2440 /usr/lib/gcc/x86_64-linux-gnu/4.3.3/../../../../lib/crti.o

.gnu.hash       0x00000000000025d0     0x26a8
 *(.gnu.hash)
 .gnu.hash      0x00000000000025d0     0x26a8 /usr/lib/gcc/x86_64-linux-gnu/4.3.3/../../../../lib/crti.o

.dynsym         0x0000000000004c78     0x78a8
 *(.dynsym)
 .dynsym        0x0000000000004c78     0x78a8 /usr/lib/gcc/x86_64-linux-gnu/4.3.3/../../../../lib/crti.o

.dynstr         0x000000000000c520     0xf202
 *(.dynstr)
 .dynstr        0x000000000000c520     0xf202 /usr/lib/gcc/x86_64-linux-gnu/4.3.3/../../../../lib/crti.o

.gnu.version    0x000000000001b722      0xa0e
 *(.gnu.version)
 .gnu.version   0x000000000001b722      0xa0e /usr/lib/gcc/x86_64-linux-gnu/4.3.3/../../../../lib/crti.o

.gnu.version_d  0x000000000001c130        0x0
 *(.gnu.version_d)
 .gnu.version_d
                0x0000000000000000        0x0 /usr/lib/gcc/x86_64-linux-gnu/4.3.3/../../../../lib/crti.o

.gnu.version_r  0x000000000001c130       0xc0
 *(.gnu.version_r)
 .gnu.version_r
                0x000000000001c130       0xc0 /usr/lib/gcc/x86_64-linux-gnu/4.3.3/../../../../lib/crti.o

.rel.dyn
 *(.rel.init)
 *(.rel.text .rel.text.* .rel.gnu.linkonce.t.*)
 *(.rel.fini)
 *(.rel.rodata .rel.rodata.* .rel.gnu.linkonce.r.*)
 *(.rel.data.rel.ro* .rel.gnu.linkonce.d.rel.ro.*)
 *(.rel.data .rel.data.* .rel.gnu.linkonce.d.*)
 *(.rel.tdata .rel.tdata.* .rel.gnu.linkonce.td.*)
 *(.rel.tbss .rel.tbss.* .rel.gnu.linkonce.tb.*)
 *(.rel.ctors)
 *(.rel.dtors)
 *(.rel.got)
 *(.rel.bss .rel.bss.* .rel.gnu.linkonce.b.*)
 *(.rel.ldata .rel.ldata.* .rel.gnu.linkonce.l.*)
 *(.rel.lbss .rel.lbss.* .rel.gnu.linkonce.lb.*)
 *(.rel.lrodata .rel.lrodata.* .rel.gnu.linkonce.lr.*)

.rela.dyn       0x000000000001c1f0      0x870
 *(.rela.init)
 *(.rela.text .rela.text.* .rela.gnu.linkonce.t.*)
 .rela.text     0x0000000000000000        0x0 /usr/lib/gcc/x86_64-linux-gnu/4.3.3/../../../../lib/crti.o
 *(.rela.fini)
 *(.rela.rodata .rela.rodata.* .rela.gnu.linkonce.r.*)
 *(.rela.data .rela.data.* .rela.gnu.linkonce.d.*)
 .rela.data.rel
                0x000000000001c1f0       0x18 /usr/lib/gcc/x86_64-linux-gnu/4.3.3/../../../../lib/crti.o
 .rela.data.DW.ref.__gxx_personality_v0
                0x000000000001c208       0x18 /usr/lib/gcc/x86_64-linux-gnu/4.3.3/../../../../lib/crti.o
 .rela.data.rel.ro._ZTV10CCCFactoryI6CUDTCCE
                0x000000000001c220       0x78 /usr/lib/gcc/x86_64-linux-gnu/4.3.3/../../../../lib/crti.o
 .rela.data.rel.ro._ZTI10CCCFactoryI6CUDTCCE
                0x000000000001c298       0x48 /usr/lib/gcc/x86_64-linux-gnu/4.3.3/../../../../lib/crti.o
 .rela.data.rel.ro._ZTI17CCCVirtualFactory
                0x000000000001c2e0       0x30 /usr/lib/gcc/x86_64-linux-gnu/4.3.3/../../../../lib/crti.o
 .rela.data.rel.ro._ZTV17CCCVirtualFactory
                0x000000000001c310       0x78 /usr/lib/gcc/x86_64-linux-gnu/4.3.3/../../../../lib/crti.o
 .rela.data.rel.ro._ZTV13CUDTException
                0x000000000001c388       0x90 /usr/lib/gcc/x86_64-linux-gnu/4.3.3/../../../../lib/crti.o
 .rela.data.rel.ro._ZTI13CUDTException
                0x000000000001c418       0x30 /usr/lib/gcc/x86_64-linux-gnu/4.3.3/../../../../lib/crti.o
 .rela.data.DW.ref._ZTI13CUDTException
                0x000000000001c448       0x18 /usr/lib/gcc/x86_64-linux-gnu/4.3.3/../../../../lib/crti.o
 .rela.data.DW.ref._ZTISt9bad_alloc
                0x000000000001c460       0x18 /usr/lib/gcc/x86_64-linux-gnu/4.3.3/../../../../lib/crti.o
 .rela.data.rel.ro._ZTV6CUDTCC
                0x000000000001c478      0x108 /usr/lib/gcc/x86_64-linux-gnu/4.3.3/../../../../lib/crti.o
 .rela.data.rel.ro._ZTV3CCC
                0x000000000001c580      0x108 /usr/lib/gcc/x86_64-linux-gnu/4.3.3/../../../../lib/crti.o
 .rela.data.rel.ro._ZTI6CUDTCC
                0x000000000001c688       0x48 /usr/lib/gcc/x86_64-linux-gnu/4.3.3/../../../../lib/crti.o
 .rela.data.rel.ro._ZTI3CCC
                0x000000000001c6d0       0x30 /usr/lib/gcc/x86_64-linux-gnu/4.3.3/../../../../lib/crti.o
 *(.rela.tdata .rela.tdata.* .rela.gnu.linkonce.td.*)
 *(.rela.tbss .rela.tbss.* .rela.gnu.linkonce.tb.*)
 *(.rela.ctors)
 .rela.ctors    0x000000000001c700       0x48 /usr/lib/gcc/x86_64-linux-gnu/4.3.3/../../../../lib/crti.o
 *(.rela.dtors)
 *(.rela.got)
 .rela.got      0x000000000001c748      0x318 /usr/lib/gcc/x86_64-linux-gnu/4.3.3/../../../../lib/crti.o
 *(.rela.bss .rela.bss.* .rela.gnu.linkonce.b.*)
 *(.rela.ldata .rela.ldata.* .rela.gnu.linkonce.l.*)
 *(.rela.lbss .rela.lbss.* .rela.gnu.linkonce.lb.*)
 *(.rela.lrodata .rela.lrodata.* .rela.gnu.linkonce.lr.*)
 .rela.eh_frame
                0x0000000000000000        0x0 /usr/lib/gcc/x86_64-linux-gnu/4.3.3/../../../../lib/crti.o
 .rela.gcc_except_table
                0x0000000000000000        0x0 /usr/lib/gcc/x86_64-linux-gnu/4.3.3/../../../../lib/crti.o

.rel.plt
 *(.rel.plt)

.rela.plt       0x000000000001ca60     0x63a8
 *(.rela.plt)
 .rela.plt      0x000000000001ca60     0x63a8 /usr/lib/gcc/x86_64-linux-gnu/4.3.3/../../../../lib/crti.o

.init           0x0000000000022e08       0x18
 *(.init)
 .init          0x0000000000022e08        0x9 /usr/lib/gcc/x86_64-linux-gnu/4.3.3/../../../../lib/crti.o
                0x0000000000022e08                _init
 .init          0x0000000000022e11        0x5 /usr/lib/gcc/x86_64-linux-gnu/4.3.3/crtbeginS.o
 .init          0x0000000000022e16        0x5 /usr/lib/gcc/x86_64-linux-gnu/4.3.3/crtendS.o
 .init          0x0000000000022e1b        0x5 /usr/lib/gcc/x86_64-linux-gnu/4.3.3/../../../../lib/crtn.o

.plt            0x0000000000022e20     0x4280
 *(.plt)
 .plt           0x0000000000022e20     0x4280 /usr/lib/gcc/x86_64-linux-gnu/4.3.3/../../../../lib/crti.o

.text           0x00000000000270a0    0x31cf8
 *(.text .stub .text.* .gnu.linkonce.t.*)
 .text          0x00000000000270a0       0x17 /usr/lib/gcc/x86_64-linux-gnu/4.3.3/../../../../lib/crti.o
 *fill*         0x00000000000270b7        0x9 90909090
 .text          0x00000000000270c0       0xb2 /usr/lib/gcc/x86_64-linux-gnu/4.3.3/crtbeginS.o
 *fill*         0x0000000000027172        0x2 90909090
 .text          0x0000000000027174      0xb19 channel.o
                0x00000000000277a8                _ZNK8CChannel5closeEv
                0x0000000000027764                _ZN8CChannel13getSndBufSizeEv
                0x000000000002721c                _ZN8CChannelC1ERKi
                0x0000000000027970                _ZN8CChannel4openEPK8sockaddr
                0x0000000000027174                _ZN8CChannelC2Ev
                0x0000000000027262                _ZN8CChannelD1Ev
                0x00000000000276d8                _ZNK8CChannel11getSockAddrEP8sockaddr
                0x00000000000272a4                _ZNK8CChannel8recvfromEP8sockaddrR7CPacket
                0x000000000002794c                _ZN8CChannel4openEi
                0x00000000000271e0                _ZN8CChannelC2ERKi
                0x0000000000027288                _ZN8CChannel13setRcvBufSizeERKi
                0x000000000002726c                _ZN8CChannel13setSndBufSizeERKi
                0x000000000002746a                _ZNK8CChannel6sendtoEPK8sockaddrR7CPacket
                0x0000000000027690                _ZNK8CChannel11getPeerAddrEP8sockaddr
                0x00000000000271aa                _ZN8CChannelC1Ev
                0x0000000000027720                _ZN8CChannel13getRcvBufSizeEv
                0x0000000000027258                _ZN8CChannelD2Ev
                0x00000000000277c2                _ZN8CChannel13setUDPSockOptEv
 *fill*         0x0000000000027c8d        0x3 90909090
 .text          0x0000000000027c90     0xa8fb core.o
                0x000000000002f968                _ZN4CUDTC2Ev
                0x000000000002edce                _ZN4CUDT4recvEPcRKi
                0x000000000002b8ae                _ZN4CUDT6setOptE6UDTOptPKvRKi
                0x000000000002b2ea                _ZN4CUDTC2ERKS_
                0x0000000000028082                _ZN4CUDT12releaseSynchEv
                0x000000000002b50e                _ZN4CUDT6getOptE6UDTOptPvRi
                0x0000000000030628                _ZN4CUDT7connectEPK8sockaddr
                0x0000000000029354                _ZN4CUDT11processDataEP5CUnit
                0x000000000002fb54                _ZN4CUDT7connectEPK8sockaddrP10CHandShake
                0x000000000002e6ce                _ZN4CUDT4sendEPKcRKi
                0x000000000002d8b0                _ZN4CUDT7recvmsgEPcRKi
                0x000000000002af82                _ZN4CUDT12destroySynchEv
                0x000000000002df32                _ZN4CUDT7sendmsgEPKcRKiS3_RKb
                0x0000000000031cea                _ZN4CUDT4openEv
                0x000000000002cbe2                _ZN4CUDT8recvfileERSt13basic_fstreamIcSt11char_traitsIcEERKlS6_RKi
                0x0000000000029c26                _ZN4CUDT11processCtrlER7CPacket
                0x000000000002b010                _ZN4CUDT9initSynchEv
                0x0000000000028b7c                _ZN4CUDT11checkTimersEv
                0x000000000002c4fe                _ZN4CUDT6sampleEP8CPerfMonb
                0x000000000002b0c6                _ZN4CUDTC1ERKS_
                0x00000000000323da                _ZN4CUDTD2Ev
                0x000000000002f77c                _ZN4CUDTC1Ev
                0x0000000000032228                _ZN4CUDTD1Ev
                0x0000000000028130                _ZN4CUDT8sendCtrlERKiPvS2_S1_
                0x0000000000031afa                _ZN4CUDT6listenEv
                0x0000000000029714                _ZN4CUDT8packDataER7CPacketRm
                0x000000000002d228                _ZN4CUDT8sendfileERSt13basic_fstreamIcSt11char_traitsIcEERKlS6_RKi
                0x0000000000027cee                _ZN4CUDT6listenEP8sockaddrR7CPacket
                0x000000000002f438                _ZN4CUDT5closeEv
 .text._ZN6CSeqNo6seqcmpERKiS1_
                0x000000000003258b       0x61 core.o
                0x000000000003258b                _ZN6CSeqNo6seqcmpERKiS1_
 .text._ZN6CSeqNo6seqlenERKiS1_
                0x00000000000325ec       0x5b core.o
                0x00000000000325ec                _ZN6CSeqNo6seqlenERKiS1_
 .text._ZN6CSeqNo6seqoffERKiS1_
                0x0000000000032647       0xa3 core.o
                0x0000000000032647                _ZN6CSeqNo6seqoffERKiS1_
 .text._ZN6CSeqNo6incseqEi
                0x00000000000326ea       0x2c core.o
                0x00000000000326ea                _ZN6CSeqNo6incseqEi
 .text._ZN6CSeqNo6decseqERKi
                0x0000000000032716       0x31 core.o
                0x0000000000032716                _ZN6CSeqNo6decseqERKi
 .text._ZN6CSeqNo6incseqERKiS1_
                0x0000000000032747       0x5f core.o
                0x0000000000032747                _ZN6CSeqNo6incseqERKiS1_
 .text._ZN6CAckNo6incackERKi
                0x00000000000327a6       0x35 core.o
                0x00000000000327a6                _ZN6CAckNo6incackERKi
 *fill*         0x00000000000327db        0x1 90909090
 .text._ZN17CCCVirtualFactoryC2Ev
                0x00000000000327dc       0x1c core.o
                0x00000000000327dc                _ZN17CCCVirtualFactoryC2Ev
 .text._ZN10CCCFactoryI6CUDTCCEC1Ev
                0x00000000000327f8       0x29 core.o
                0x00000000000327f8                _ZN10CCCFactoryI6CUDTCCEC1Ev
 *fill*         0x0000000000032821        0x1 90909090
 .text._ZN13CUDTExceptionaSERKS_
                0x0000000000032822       0x55 core.o
                0x0000000000032822                _ZN13CUDTExceptionaSERKS_
 *fill*         0x0000000000032877        0x1 90909090
 .text._ZNSt4fposI11__mbstate_tEC1El
                0x0000000000032878       0x25 core.o
                0x0000000000032878                _ZNSt4fposI11__mbstate_tEC1El
 *fill*         0x000000000003289d        0x1 90909090
 .text._ZN10CCCFactoryI6CUDTCCE5cloneEv
                0x000000000003289e       0x2c core.o
                0x000000000003289e                _ZN10CCCFactoryI6CUDTCCE5cloneEv
 .text._ZN17CCCVirtualFactoryD2Ev
                0x00000000000328ca       0x32 core.o
                0x00000000000328ca                _ZN17CCCVirtualFactoryD2Ev
 .text._ZN10CCCFactoryI6CUDTCCED0Ev
                0x00000000000328fc       0x3b core.o
                0x00000000000328fc                _ZN10CCCFactoryI6CUDTCCED0Ev
 *fill*         0x0000000000032937        0x1 90909090
 .text._ZN17CCCVirtualFactoryD0Ev
                0x0000000000032938       0x32 core.o
                0x0000000000032938                _ZN17CCCVirtualFactoryD0Ev
 .text._ZN17CCCVirtualFactoryD1Ev
                0x000000000003296a       0x32 core.o
                0x000000000003296a                _ZN17CCCVirtualFactoryD1Ev
 .text._ZN10CCCFactoryI6CUDTCCED1Ev
                0x000000000003299c       0x3b core.o
                0x000000000003299c                _ZN10CCCFactoryI6CUDTCCED1Ev
 *fill*         0x00000000000329d7        0x1 90909090
 .text._ZN10CCCFactoryI6CUDTCCE6createEv
                0x00000000000329d8       0x57 core.o
                0x00000000000329d8                _ZN10CCCFactoryI6CUDTCCE6createEv
 *fill*         0x0000000000032a2f        0x1 90909090
 .text          0x0000000000032a30     0x1038 common.o
                0x00000000000337da                _ZN6CTimer12triggerEventEv
                0x0000000000032a68                _ZN6CTimer15getCPUFrequencyEv
                0x000000000003337a                _ZN13CUDTExceptionD0Ev
                0x0000000000032e6a                _ZN4CMD57computeEPKcPh
                0x0000000000033572                _ZN6CGuard7enterCSER15pthread_mutex_t
                0x0000000000032ac6                _ZN10CIPAddress5ipcmpEPK8sockaddrS2_RKi
                0x0000000000032a30                _ZN6CTimer5rdtscERm
                0x0000000000032a9a                _ZN13CUDTException5clearEv
                0x0000000000033632                _ZN6CTimer12waitForEventEv
                0x0000000000033904                _ZN6CTimerD2Ev
                0x0000000000033526                _ZN6CGuardD1Ev
                0x0000000000032d00                _ZN10CIPAddress4ptonEP8sockaddrPKjRKi
                0x00000000000335c8                _ZN6CGuardC2ER15pthread_mutex_t
                0x0000000000033606                _ZN6CTimer7getTimeEv
                0x000000000003392c                _ZN6CTimerC1Ev
                0x000000000003354c                _ZN6CGuardD2Ev
                0x0000000000033828                _ZN6CTimer16readCPUFrequencyEv
                0x000000000003343a                _ZN13CUDTExceptionC1Eiii
                0x000000000003379e                _ZN6CTimer5sleepERKm
                0x0000000000032db2                _ZN13CUDTExceptionC1ERKS_
                0x00000000000336c6                _ZN6CTimer7sleeptoERKm
                0x00000000000337ec                _ZN6CTimer4tickEv
                0x0000000000033808                _ZN6CTimer9interruptEv
                0x0000000000032a78                _ZNK13CUDTException12getErrorCodeEv
                0x0000000000032ba2                _ZN10CIPAddress4ntopEPK8sockaddrPjRKi
                0x00000000000333ba                _ZN13CUDTExceptionD1Ev
                0x000000000003350e                _ZN6CGuard7leaveCSER15pthread_mutex_t
                0x00000000000334a4                _ZN13CUDTExceptionC2Eiii
                0x00000000000333fa                _ZN13CUDTExceptionD2Ev
                0x0000000000032ece                _ZN13CUDTException15getErrorMessageEv
                0x00000000000339ca                _ZN6CTimerC2Ev
                0x0000000000032e0e                _ZN13CUDTExceptionC2ERKS_
                0x00000000000338dc                _ZN6CTimerD1Ev
                0x000000000003358a                _ZN6CGuardC1ER15pthread_mutex_t
 .text          0x0000000000033a68      0x52c packet.o
                0x0000000000033e9e                _ZNK7CPacket15getMsgOrderFlagEv
                0x0000000000033b8c                _ZN7CPacketD2Ev
                0x0000000000033e78                _ZNK7CPacket11getAckSeqNoEv
                0x0000000000033eba                _ZNK7CPacket9getMsgSeqEv
                0x0000000000033a68                _ZN7CPacketC2Ev
                0x0000000000033e62                _ZNK7CPacket15getExtendedTypeEv
                0x0000000000033b96                _ZN7CPacketD1Ev
                0x0000000000033e22                _ZN7CPacket15getPacketVectorEv
                0x0000000000033e8a                _ZNK7CPacket14getMsgBoundaryEv
                0x0000000000033bd2                _ZN7CPacket4packERKiPvS2_S1_
                0x0000000000033e48                _ZNK7CPacket7getTypeEv
                0x0000000000033e34                _ZNK7CPacket7getFlagEv
                0x0000000000033afa                _ZN7CPacketC1Ev
                0x0000000000033bb2                _ZN7CPacket9setLengthERKi
                0x0000000000033ed0                _ZNK7CPacket5cloneEv
                0x0000000000033ba0                _ZNK7CPacket9getLengthEv
 .text          0x0000000000033f94     0x59cf com_barchart_udt_SocketUDT.o
                0x0000000000034714                Java_com_barchart_udt_SocketUDT_testCrashJVM0
                0x0000000000035e25                X_NewInetAddress
                0x000000000003892e                Java_com_barchart_udt_SocketUDT_initInstance0
                0x00000000000354ed                Java_com_barchart_udt_SocketUDT_testDirectBufferAccess0
                0x0000000000033fee                UDT_SetSocketID
                0x00000000000355f3                Java_com_barchart_udt_SocketUDT_getErrorMessage0
                0x0000000000033fc8                UDT_GetSocketID
                0x0000000000035851                UDT_ThrowExceptionUDT_ErrorInfo
                0x0000000000037f70                Java_com_barchart_udt_SocketUDT_listen0
                0x0000000000035b73                UDT_ThrowExceptionUDT_Message
                0x0000000000035ad9                Java_com_barchart_udt_SocketUDT_initInstance1
                0x00000000000361df                Java_com_barchart_udt_SocketUDT_selectEx1
                0x0000000000038621                Java_com_barchart_udt_SocketUDT_close0
                0x0000000000036c69                UDT_CopySetToArray
                0x0000000000034734                Java_com_barchart_udt_SocketUDT_testFillArray0
                0x00000000000396fa                Java_com_barchart_udt_SocketUDT_connect0
                0x00000000000379d7                Java_com_barchart_udt_SocketUDT_send0
                0x000000000003857f                UDT_IsSocketOpen
                0x0000000000034f99                X_InitMethodRef
                0x00000000000386ed                Java_com_barchart_udt_SocketUDT_accept0
                0x0000000000038a7d                Java_com_barchart_udt_SocketUDT_initClass0
                0x0000000000035cee                UDT_NewLingerUDT
                0x00000000000351a3                X_InitClassReference
                0x00000000000355cd                Java_com_barchart_udt_SocketUDT_clearError0
                0x0000000000035702                UDT_NewExceptionUDT
                0x000000000003503d                XXX_ThrowSocketExceptionMessage
                0x00000000000393f7                X_ConvertInetSocketAddressToSockaddr
                0x00000000000389f2                Java_com_barchart_udt_SocketUDT_stopClass0
                0x0000000000038b23                X_IsSockaddrEqualsInetSocketAddress
                0x0000000000038fc9                Java_com_barchart_udt_SocketUDT_hasLoadedLocalSocketAddress
                0x00000000000390b6                Java_com_barchart_udt_SocketUDT_hasLoadedRemoteSocketAddress
                0x0000000000036121                X_NewBoolean
                0x000000000003607a                X_NewInteger
                0x000000000003567b                Java_com_barchart_udt_SocketUDT_testIterateSet0
                0x00000000000347ab                Java_com_barchart_udt_SocketUDT_testFillBuffer0
                0x00000000000377aa                Java_com_barchart_udt_SocketUDT_send1
                0x000000000003564f                Java_com_barchart_udt_SocketUDT_getErrorCode0
                0x000000000003983e                Java_com_barchart_udt_SocketUDT_bind0
                0x0000000000035a4a                Java_com_barchart_udt_SocketUDT_testInvalidClose0
                0x0000000000035386                UDT_InitClassRefAll
                0x0000000000037dac                Java_com_barchart_udt_SocketUDT_receive0
                0x0000000000034451                UDT_InitFieldRefAll
                0x0000000000036d2c                Java_com_barchart_udt_SocketUDT_select0
                0x00000000000385eb                Java_com_barchart_udt_SocketUDT_isOpen0
                0x0000000000038012                Java_com_barchart_udt_SocketUDT_setOption0
                0x0000000000038d7f                X_NewInetSocketAddress
                0x0000000000034632                Java_com_barchart_udt_SocketUDT_testIterateArray0
                0x0000000000036ccc                UDT_CopyArrayToSet
                0x0000000000033f94                X_IsInRange
                0x00000000000346b2                Java_com_barchart_udt_SocketUDT_testGetSetArray0
                0x000000000003964c                X_InitSockAddr
                0x000000000003480c                UDT_InitMethodRefAll
                0x00000000000372cf                Java_com_barchart_udt_SocketUDT_updateMonitor0
                0x0000000000035fd1                X_NewLong
                0x0000000000037b55                Java_com_barchart_udt_SocketUDT_receive1
                0x000000000003837e                Java_com_barchart_udt_SocketUDT_getOption0
                0x0000000000034689                Java_com_barchart_udt_SocketUDT_testMakeArray0
                0x0000000000036675                Java_com_barchart_udt_SocketUDT_selectEx0
                0x000000000003401a                UDT_InitFieldMonitor
                0x0000000000034624                Java_com_barchart_udt_SocketUDT_testEmptyCall0
                0x00000000000391a3                X_ConvertSockaddrToInetSocketAddress
 *fill*         0x0000000000039963        0x1 90909090
 .text._ZN7JNIEnv_9FindClassEPKc
                0x0000000000039964       0x27 com_barchart_udt_SocketUDT.o
                0x0000000000039964                _ZN7JNIEnv_9FindClassEPKc
 *fill*         0x000000000003998b        0x1 90909090
 .text._ZN7JNIEnv_5ThrowEP11_jthrowable
                0x000000000003998c       0x27 com_barchart_udt_SocketUDT.o
                0x000000000003998c                _ZN7JNIEnv_5ThrowEP11_jthrowable
 *fill*         0x00000000000399b3        0x1 90909090
 .text._ZN7JNIEnv_8ThrowNewEP7_jclassPKc
                0x00000000000399b4       0x2f com_barchart_udt_SocketUDT.o
                0x00000000000399b4                _ZN7JNIEnv_8ThrowNewEP7_jclassPKc
 *fill*         0x00000000000399e3        0x1 90909090
 .text._ZN7JNIEnv_12NewGlobalRefEP8_jobject
                0x00000000000399e4       0x2a com_barchart_udt_SocketUDT.o
                0x00000000000399e4                _ZN7JNIEnv_12NewGlobalRefEP8_jobject
 .text._ZN7JNIEnv_12IsSameObjectEP8_jobjectS1_
                0x0000000000039a0e       0x32 com_barchart_udt_SocketUDT.o
                0x0000000000039a0e                _ZN7JNIEnv_12IsSameObjectEP8_jobjectS1_
 .text._ZN7JNIEnv_11GetMethodIDEP7_jclassPKcS3_
                0x0000000000039a40       0x3a com_barchart_udt_SocketUDT.o
                0x0000000000039a40                _ZN7JNIEnv_11GetMethodIDEP7_jclassPKcS3_
 .text._ZN7JNIEnv_10GetFieldIDEP7_jclassPKcS3_
                0x0000000000039a7a       0x3a com_barchart_udt_SocketUDT.o
                0x0000000000039a7a                _ZN7JNIEnv_10GetFieldIDEP7_jclassPKcS3_
 .text._ZN7JNIEnv_14GetObjectFieldEP8_jobjectP9_jfieldID
                0x0000000000039ab4       0x32 com_barchart_udt_SocketUDT.o
                0x0000000000039ab4                _ZN7JNIEnv_14GetObjectFieldEP8_jobjectP9_jfieldID
 .text._ZN7JNIEnv_11GetIntFieldEP8_jobjectP9_jfieldID
                0x0000000000039ae6       0x32 com_barchart_udt_SocketUDT.o
                0x0000000000039ae6                _ZN7JNIEnv_11GetIntFieldEP8_jobjectP9_jfieldID
 .text._ZN7JNIEnv_14SetObjectFieldEP8_jobjectP9_jfieldIDS1_
                0x0000000000039b18       0x3a com_barchart_udt_SocketUDT.o
                0x0000000000039b18                _ZN7JNIEnv_14SetObjectFieldEP8_jobjectP9_jfieldIDS1_
 .text._ZN7JNIEnv_15SetBooleanFieldEP8_jobjectP9_jfieldIDh
                0x0000000000039b52       0x39 com_barchart_udt_SocketUDT.o
                0x0000000000039b52                _ZN7JNIEnv_15SetBooleanFieldEP8_jobjectP9_jfieldIDh
 *fill*         0x0000000000039b8b        0x1 90909090
 .text._ZN7JNIEnv_11SetIntFieldEP8_jobjectP9_jfieldIDi
                0x0000000000039b8c       0x38 com_barchart_udt_SocketUDT.o
                0x0000000000039b8c                _ZN7JNIEnv_11SetIntFieldEP8_jobjectP9_jfieldIDi
 .text._ZN7JNIEnv_12SetLongFieldEP8_jobjectP9_jfieldIDl
                0x0000000000039bc4       0x3a com_barchart_udt_SocketUDT.o
                0x0000000000039bc4                _ZN7JNIEnv_12SetLongFieldEP8_jobjectP9_jfieldIDl
 .text._ZN7JNIEnv_14SetDoubleFieldEP8_jobjectP9_jfieldIDd
                0x0000000000039bfe       0x3c com_barchart_udt_SocketUDT.o
                0x0000000000039bfe                _ZN7JNIEnv_14SetDoubleFieldEP8_jobjectP9_jfieldIDd
 .text._ZN7JNIEnv_12NewStringUTFEPKc
                0x0000000000039c3a       0x2a com_barchart_udt_SocketUDT.o
                0x0000000000039c3a                _ZN7JNIEnv_12NewStringUTFEPKc
 .text._ZN7JNIEnv_14GetArrayLengthEP7_jarray
                0x0000000000039c64       0x2a com_barchart_udt_SocketUDT.o
                0x0000000000039c64                _ZN7JNIEnv_14GetArrayLengthEP7_jarray
 .text._ZN7JNIEnv_21GetObjectArrayElementEP13_jobjectArrayi
                0x0000000000039c8e       0x30 com_barchart_udt_SocketUDT.o
                0x0000000000039c8e                _ZN7JNIEnv_21GetObjectArrayElementEP13_jobjectArrayi
 .text._ZN7JNIEnv_11NewIntArrayEi
                0x0000000000039cbe       0x28 com_barchart_udt_SocketUDT.o
                0x0000000000039cbe                _ZN7JNIEnv_11NewIntArrayEi
 .text._ZN7JNIEnv_20GetByteArrayElementsEP11_jbyteArrayPh
                0x0000000000039ce6       0x32 com_barchart_udt_SocketUDT.o
                0x0000000000039ce6                _ZN7JNIEnv_20GetByteArrayElementsEP11_jbyteArrayPh
 .text._ZN7JNIEnv_19GetIntArrayElementsEP10_jintArrayPh
                0x0000000000039d18       0x32 com_barchart_udt_SocketUDT.o
                0x0000000000039d18                _ZN7JNIEnv_19GetIntArrayElementsEP10_jintArrayPh
 .text._ZN7JNIEnv_24ReleaseByteArrayElementsEP11_jbyteArrayPai
                0x0000000000039d4a       0x38 com_barchart_udt_SocketUDT.o
                0x0000000000039d4a                _ZN7JNIEnv_24ReleaseByteArrayElementsEP11_jbyteArrayPai
 .text._ZN7JNIEnv_23ReleaseIntArrayElementsEP10_jintArrayPii
                0x0000000000039d82       0x38 com_barchart_udt_SocketUDT.o
                0x0000000000039d82                _ZN7JNIEnv_23ReleaseIntArrayElementsEP10_jintArrayPii
 .text._ZN7JNIEnv_17GetIntArrayRegionEP10_jintArrayiiPi
                0x0000000000039dba       0x42 com_barchart_udt_SocketUDT.o
                0x0000000000039dba                _ZN7JNIEnv_17GetIntArrayRegionEP10_jintArrayiiPi
 .text._ZN7JNIEnv_17SetIntArrayRegionEP10_jintArrayiiPKi
                0x0000000000039dfc       0x42 com_barchart_udt_SocketUDT.o
                0x0000000000039dfc                _ZN7JNIEnv_17SetIntArrayRegionEP10_jintArrayiiPKi
 .text._ZN7JNIEnv_22GetDirectBufferAddressEP8_jobject
                0x0000000000039e3e       0x2a com_barchart_udt_SocketUDT.o
                0x0000000000039e3e                _ZN7JNIEnv_22GetDirectBufferAddressEP8_jobject
 .text._ZN7JNIEnv_23GetDirectBufferCapacityEP8_jobject
                0x0000000000039e68       0x2a com_barchart_udt_SocketUDT.o
                0x0000000000039e68                _ZN7JNIEnv_23GetDirectBufferCapacityEP8_jobject
 .text._ZnwmPv  0x0000000000039e92       0x12 com_barchart_udt_SocketUDT.o
                0x0000000000039e92                _ZnwmPv
 .text._ZNKSt23_Rb_tree_const_iteratorIiEdeEv
                0x0000000000039ea4       0x15 com_barchart_udt_SocketUDT.o
                0x0000000000039ea4                _ZNKSt23_Rb_tree_const_iteratorIiEdeEv
 *fill*         0x0000000000039eb9        0x1 90909090
 .text._ZNKSt6vectorIiSaIiEE4sizeEv
                0x0000000000039eba       0x29 com_barchart_udt_SocketUDT.o
                0x0000000000039eba                _ZNKSt6vectorIiSaIiEE4sizeEv
 *fill*         0x0000000000039ee3        0x1 90909090
 .text._ZN9__gnu_cxx17__normal_iteratorIPiSt6vectorIiSaIiEEEC1Ev
                0x0000000000039ee4       0x15 com_barchart_udt_SocketUDT.o
                0x0000000000039ee4                _ZN9__gnu_cxx17__normal_iteratorIPiSt6vectorIiSaIiEEEC1Ev
 *fill*         0x0000000000039ef9        0x1 90909090
 .text._ZNSt23_Rb_tree_const_iteratorIiEC1ERKSt17_Rb_tree_iteratorIiE
                0x0000000000039efa       0x1c com_barchart_udt_SocketUDT.o
                0x0000000000039efa                _ZNSt23_Rb_tree_const_iteratorIiEC1ERKSt17_Rb_tree_iteratorIiE
 .text._ZNSt4pairISt23_Rb_tree_const_iteratorIiEbEC1ERKS1_RKb
                0x0000000000039f16       0x2e com_barchart_udt_SocketUDT.o
                0x0000000000039f16                _ZNSt4pairISt23_Rb_tree_const_iteratorIiEbEC1ERKS1_RKb
 .text._ZNSt8_Rb_treeIiiSt9_IdentityIiESt4lessIiESaIiEE8_M_beginEv
                0x0000000000039f44       0x12 com_barchart_udt_SocketUDT.o
                0x0000000000039f44                _ZNSt8_Rb_treeIiiSt9_IdentityIiESt4lessIiESaIiEE8_M_beginEv
 .text._ZNKSt8_Rb_treeIiiSt9_IdentityIiESt4lessIiESaIiEE4sizeEv
                0x0000000000039f56       0x12 com_barchart_udt_SocketUDT.o
                0x0000000000039f56                _ZNKSt8_Rb_treeIiiSt9_IdentityIiESt4lessIiESaIiEE4sizeEv
 .text._ZNKSt3setIiSt4lessIiESaIiEE4sizeEv
                0x0000000000039f68       0x17 com_barchart_udt_SocketUDT.o
                0x0000000000039f68                _ZNKSt3setIiSt4lessIiESaIiEE4sizeEv
 *fill*         0x0000000000039f7f        0x1 90909090
 .text._ZNSt12_Vector_baseIiSaIiEE19_M_get_Tp_allocatorEv
                0x0000000000039f80        0xe com_barchart_udt_SocketUDT.o
                0x0000000000039f80                _ZNSt12_Vector_baseIiSaIiEE19_M_get_Tp_allocatorEv
 .text._ZN9__gnu_cxx13new_allocatorIiE9constructEPiRKi
                0x0000000000039f8e       0x3b com_barchart_udt_SocketUDT.o
                0x0000000000039f8e                _ZN9__gnu_cxx13new_allocatorIiE9constructEPiRKi
 *fill*         0x0000000000039fc9        0x1 90909090
 .text._ZN9__gnu_cxx17__normal_iteratorIPiSt6vectorIiSaIiEEEC1ERKS1_
                0x0000000000039fca       0x1c com_barchart_udt_SocketUDT.o
                0x0000000000039fca                _ZN9__gnu_cxx17__normal_iteratorIPiSt6vectorIiSaIiEEEC1ERKS1_
 .text._ZNSt6vectorIiSaIiEE3endEv
                0x0000000000039fe6       0x23 com_barchart_udt_SocketUDT.o
                0x0000000000039fe6                _ZNSt6vectorIiSaIiEE3endEv
 *fill*         0x000000000003a009        0x1 90909090
 .text._ZNSt6vectorIiSaIiEE5beginEv
                0x000000000003a00a       0x1f com_barchart_udt_SocketUDT.o
                0x000000000003a00a                _ZNSt6vectorIiSaIiEE5beginEv
 .text._ZSt19__iterator_categoryIN9__gnu_cxx17__normal_iteratorIPiSt6vectorIiSaIiEEEEENSt15iterator_traitsIT_E17iterator_categoryERKS8_
                0x000000000003a029        0xe com_barchart_udt_SocketUDT.o
                0x000000000003a029                _ZSt19__iterator_categoryIN9__gnu_cxx17__normal_iteratorIPiSt6vectorIiSaIiEEEEENSt15iterator_traitsIT_E17iterator_categoryERKS8_
 *fill*         0x000000000003a037        0x1 90909090
 .text._ZNK9__gnu_cxx17__normal_iteratorIPiSt6vectorIiSaIiEEE4baseEv
                0x000000000003a038        0xe com_barchart_udt_SocketUDT.o
                0x000000000003a038                _ZNK9__gnu_cxx17__normal_iteratorIPiSt6vectorIiSaIiEEE4baseEv
 .text._ZN9__gnu_cxxneIPiSt6vectorIiSaIiEEEEbRKNS_17__normal_iteratorIT_T0_EESA_
                0x000000000003a046       0x36 com_barchart_udt_SocketUDT.o
                0x000000000003a046                _ZN9__gnu_cxxneIPiSt6vectorIiSaIiEEEEbRKNS_17__normal_iteratorIT_T0_EESA_
 .text._ZNSt8_Rb_treeIiiSt9_IdentityIiESt4lessIiESaIiEE6_M_endEv
                0x000000000003a07c       0x12 com_barchart_udt_SocketUDT.o
                0x000000000003a07c                _ZNSt8_Rb_treeIiiSt9_IdentityIiESt4lessIiESaIiEE6_M_endEv
 .text._ZNKSt9_IdentityIiEclERKi
                0x000000000003a08e       0x12 com_barchart_udt_SocketUDT.o
                0x000000000003a08e                _ZNKSt9_IdentityIiEclERKi
 .text._ZNKSt4lessIiEclERKiS2_
                0x000000000003a0a0       0x23 com_barchart_udt_SocketUDT.o
                0x000000000003a0a0                _ZNKSt4lessIiEclERKiS2_
 .text._ZNSt8_Rb_treeIiiSt9_IdentityIiESt4lessIiESaIiEE8_S_rightEPSt18_Rb_tree_node_base
                0x000000000003a0c3       0x12 com_barchart_udt_SocketUDT.o
                0x000000000003a0c3                _ZNSt8_Rb_treeIiiSt9_IdentityIiESt4lessIiESaIiEE8_S_rightEPSt18_Rb_tree_node_base
 .text._ZNSt8_Rb_treeIiiSt9_IdentityIiESt4lessIiESaIiEE7_S_leftEPSt18_Rb_tree_node_base
                0x000000000003a0d5       0x12 com_barchart_udt_SocketUDT.o
                0x000000000003a0d5                _ZNSt8_Rb_treeIiiSt9_IdentityIiESt4lessIiESaIiEE7_S_leftEPSt18_Rb_tree_node_base
 *fill*         0x000000000003a0e7        0x1 90909090
 .text._ZNSt17_Rb_tree_iteratorIiEC1EPSt13_Rb_tree_nodeIiE
                0x000000000003a0e8       0x19 com_barchart_udt_SocketUDT.o
                0x000000000003a0e8                _ZNSt17_Rb_tree_iteratorIiEC1EPSt13_Rb_tree_nodeIiE
 *fill*         0x000000000003a101        0x1 90909090
 .text._ZNSt8_Rb_treeIiiSt9_IdentityIiESt4lessIiESaIiEE5beginEv
                0x000000000003a102       0x26 com_barchart_udt_SocketUDT.o
                0x000000000003a102                _ZNSt8_Rb_treeIiiSt9_IdentityIiESt4lessIiESaIiEE5beginEv
 .text._ZNKSt17_Rb_tree_iteratorIiEeqERKS0_
                0x000000000003a128       0x22 com_barchart_udt_SocketUDT.o
                0x000000000003a128                _ZNKSt17_Rb_tree_iteratorIiEeqERKS0_
 .text._ZNSt4pairISt17_Rb_tree_iteratorIiEbEC1ERKS1_RKb
                0x000000000003a14a       0x2e com_barchart_udt_SocketUDT.o
                0x000000000003a14a                _ZNSt4pairISt17_Rb_tree_iteratorIiEbEC1ERKS1_RKb
 .text._ZNSt23_Rb_tree_const_iteratorIiEC1EPKSt13_Rb_tree_nodeIiE
                0x000000000003a178       0x19 com_barchart_udt_SocketUDT.o
                0x000000000003a178                _ZNSt23_Rb_tree_const_iteratorIiEC1EPKSt13_Rb_tree_nodeIiE
 *fill*         0x000000000003a191        0x1 90909090
 .text._ZNKSt8_Rb_treeIiiSt9_IdentityIiESt4lessIiESaIiEE5beginEv
                0x000000000003a192       0x26 com_barchart_udt_SocketUDT.o
                0x000000000003a192                _ZNKSt8_Rb_treeIiiSt9_IdentityIiESt4lessIiESaIiEE5beginEv
 .text._ZNKSt3setIiSt4lessIiESaIiEE5beginEv
                0x000000000003a1b8       0x17 com_barchart_udt_SocketUDT.o
                0x000000000003a1b8                _ZNKSt3setIiSt4lessIiESaIiEE5beginEv
 *fill*         0x000000000003a1cf        0x1 90909090
 .text._ZN9__gnu_cxx13new_allocatorISt13_Rb_tree_nodeIiEED2Ev
                0x000000000003a1d0        0xa com_barchart_udt_SocketUDT.o
                0x000000000003a1d0                _ZN9__gnu_cxx13new_allocatorISt13_Rb_tree_nodeIiEED2Ev
 .text._ZNSaISt13_Rb_tree_nodeIiEED2Ev
                0x000000000003a1da       0x17 com_barchart_udt_SocketUDT.o
                0x000000000003a1da                _ZNSaISt13_Rb_tree_nodeIiEED2Ev
 *fill*         0x000000000003a1f1        0x1 90909090
 .text._ZNSt8_Rb_treeIiiSt9_IdentityIiESt4lessIiESaIiEE13_Rb_tree_implIS3_Lb0EED1Ev
                0x000000000003a1f2       0x17 com_barchart_udt_SocketUDT.o
                0x000000000003a1f2                _ZNSt8_Rb_treeIiiSt9_IdentityIiESt4lessIiESaIiEE13_Rb_tree_implIS3_Lb0EED1Ev
 .text._ZSt8_DestroyIPiEvT_S1_
                0x000000000003a209        0xe com_barchart_udt_SocketUDT.o
                0x000000000003a209                _ZSt8_DestroyIPiEvT_S1_
 .text._ZSt8_DestroyIPiiEvT_S1_RSaIT0_E
                0x000000000003a217       0x23 com_barchart_udt_SocketUDT.o
                0x000000000003a217                _ZSt8_DestroyIPiiEvT_S1_RSaIT0_E
 .text._ZNK9__gnu_cxx17__normal_iteratorIPiSt6vectorIiSaIiEEEdeEv
                0x000000000003a23a       0x11 com_barchart_udt_SocketUDT.o
                0x000000000003a23a                _ZNK9__gnu_cxx17__normal_iteratorIPiSt6vectorIiSaIiEEEdeEv
 *fill*         0x000000000003a24b        0x1 90909090
 .text._ZN9__gnu_cxx17__normal_iteratorIPKiSt6vectorIiSaIiEEEC1ERKS2_
                0x000000000003a24c       0x1c com_barchart_udt_SocketUDT.o
                0x000000000003a24c                _ZN9__gnu_cxx17__normal_iteratorIPKiSt6vectorIiSaIiEEEC1ERKS2_
 .text._ZNKSt6vectorIiSaIiEE3endEv
                0x000000000003a268       0x2b com_barchart_udt_SocketUDT.o
                0x000000000003a268                _ZNKSt6vectorIiSaIiEE3endEv
 *fill*         0x000000000003a293        0x1 90909090
 .text._ZNKSt6vectorIiSaIiEE5beginEv
                0x000000000003a294       0x2a com_barchart_udt_SocketUDT.o
                0x000000000003a294                _ZNKSt6vectorIiSaIiEE5beginEv
 .text._ZNK9__gnu_cxx17__normal_iteratorIPKiSt6vectorIiSaIiEEE4baseEv
                0x000000000003a2be        0xe com_barchart_udt_SocketUDT.o
                0x000000000003a2be                _ZNK9__gnu_cxx17__normal_iteratorIPKiSt6vectorIiSaIiEEE4baseEv
 .text._ZN9__gnu_cxxeqIPKiSt6vectorIiSaIiEEEEbRKNS_17__normal_iteratorIT_T0_EESB_
                0x000000000003a2cc       0x36 com_barchart_udt_SocketUDT.o
                0x000000000003a2cc                _ZN9__gnu_cxxeqIPKiSt6vectorIiSaIiEEEEbRKNS_17__normal_iteratorIT_T0_EESB_
 .text._ZNKSt6vectorIiSaIiEE5emptyEv
                0x000000000003a302       0x35 com_barchart_udt_SocketUDT.o
                0x000000000003a302                _ZNKSt6vectorIiSaIiEE5emptyEv
 .text._ZN9__gnu_cxxmiIPiSt6vectorIiSaIiEEEENS_17__normal_iteratorIT_T0_E15difference_typeERKS8_SB_
                0x000000000003a337       0x40 com_barchart_udt_SocketUDT.o
                0x000000000003a337                _ZN9__gnu_cxxmiIPiSt6vectorIiSaIiEEEENS_17__normal_iteratorIT_T0_E15difference_typeERKS8_SB_
 *fill*         0x000000000003a377        0x1 90909090
 .text._ZN9__gnu_cxx17__normal_iteratorIPiSt6vectorIiSaIiEEEppEv
                0x000000000003a378       0x20 com_barchart_udt_SocketUDT.o
                0x000000000003a378                _ZN9__gnu_cxx17__normal_iteratorIPiSt6vectorIiSaIiEEEppEv
 .text._ZSt6__findIN9__gnu_cxx17__normal_iteratorIPiSt6vectorIiSaIiEEEEiET_S7_S7_RKT0_St26random_access_iterator_tag
                0x000000000003a398      0x1be com_barchart_udt_SocketUDT.o
                0x000000000003a398                _ZSt6__findIN9__gnu_cxx17__normal_iteratorIPiSt6vectorIiSaIiEEEEiET_S7_S7_RKT0_St26random_access_iterator_tag
 .text._ZSt4findIN9__gnu_cxx17__normal_iteratorIPiSt6vectorIiSaIiEEEEiET_S7_S7_RKT0_
                0x000000000003a556       0x37 com_barchart_udt_SocketUDT.o
                0x000000000003a556                _ZSt4findIN9__gnu_cxx17__normal_iteratorIPiSt6vectorIiSaIiEEEEiET_S7_S7_RKT0_
 .text._ZNSt8_Rb_treeIiiSt9_IdentityIiESt4lessIiESaIiEE8_S_valueEPKSt13_Rb_tree_nodeIiE
                0x000000000003a58d       0x12 com_barchart_udt_SocketUDT.o
                0x000000000003a58d                _ZNSt8_Rb_treeIiiSt9_IdentityIiESt4lessIiESaIiEE8_S_valueEPKSt13_Rb_tree_nodeIiE
 .text._ZNSt8_Rb_treeIiiSt9_IdentityIiESt4lessIiESaIiEE6_S_keyEPKSt13_Rb_tree_nodeIiE
                0x000000000003a59f       0x23 com_barchart_udt_SocketUDT.o
                0x000000000003a59f                _ZNSt8_Rb_treeIiiSt9_IdentityIiESt4lessIiESaIiEE6_S_keyEPKSt13_Rb_tree_nodeIiE
 .text._ZNSt8_Rb_treeIiiSt9_IdentityIiESt4lessIiESaIiEE8_S_valueEPKSt18_Rb_tree_node_base
                0x000000000003a5c2       0x12 com_barchart_udt_SocketUDT.o
                0x000000000003a5c2                _ZNSt8_Rb_treeIiiSt9_IdentityIiESt4lessIiESaIiEE8_S_valueEPKSt18_Rb_tree_node_base
 .text._ZNSt8_Rb_treeIiiSt9_IdentityIiESt4lessIiESaIiEE6_S_keyEPKSt18_Rb_tree_node_base
                0x000000000003a5d4       0x23 com_barchart_udt_SocketUDT.o
                0x000000000003a5d4                _ZNSt8_Rb_treeIiiSt9_IdentityIiESt4lessIiESaIiEE6_S_keyEPKSt18_Rb_tree_node_base
 *fill*         0x000000000003a5f7        0x1 90909090
 .text._ZNSt8_Rb_treeIiiSt9_IdentityIiESt4lessIiESaIiEE13_Rb_tree_implIS3_Lb0EE13_M_initializeEv
                0x000000000003a5f8       0x41 com_barchart_udt_SocketUDT.o
                0x000000000003a5f8                _ZNSt8_Rb_treeIiiSt9_IdentityIiESt4lessIiESaIiEE13_Rb_tree_implIS3_Lb0EE13_M_initializeEv
 *fill*         0x000000000003a639        0x1 90909090
 .text._ZN9__gnu_cxx13new_allocatorIiE7destroyEPi
                0x000000000003a63a        0xe com_barchart_udt_SocketUDT.o
                0x000000000003a63a                _ZN9__gnu_cxx13new_allocatorIiE7destroyEPi
 .text._ZN9__gnu_cxx13new_allocatorIiED2Ev
                0x000000000003a648        0xa com_barchart_udt_SocketUDT.o
                0x000000000003a648                _ZN9__gnu_cxx13new_allocatorIiED2Ev
 .text._ZNSaIiED2Ev
                0x000000000003a652       0x17 com_barchart_udt_SocketUDT.o
                0x000000000003a652                _ZNSaIiED2Ev
 *fill*         0x000000000003a669        0x1 90909090
 .text._ZNSt12_Vector_baseIiSaIiEE12_Vector_implD1Ev
                0x000000000003a66a       0x17 com_barchart_udt_SocketUDT.o
                0x000000000003a66a                _ZNSt12_Vector_baseIiSaIiEE12_Vector_implD1Ev
 *fill*         0x000000000003a681        0x1 90909090
 .text._ZNSaIiED1Ev
                0x000000000003a682       0x17 com_barchart_udt_SocketUDT.o
                0x000000000003a682                _ZNSaIiED1Ev
 .text._ZNSt12__miter_baseIPiLb0EE3__bES0_
                0x000000000003a699        0xe com_barchart_udt_SocketUDT.o
                0x000000000003a699                _ZNSt12__miter_baseIPiLb0EE3__bES0_
 .text._ZSt3maxImERKT_S2_S2_
                0x000000000003a6a7       0x37 com_barchart_udt_SocketUDT.o
                0x000000000003a6a7                _ZSt3maxImERKT_S2_S2_
 .text._ZN9__gnu_cxx13new_allocatorISt13_Rb_tree_nodeIiEEC2Ev
                0x000000000003a6de        0xa com_barchart_udt_SocketUDT.o
                0x000000000003a6de                _ZN9__gnu_cxx13new_allocatorISt13_Rb_tree_nodeIiEEC2Ev
 .text._ZNSaISt13_Rb_tree_nodeIiEEC2Ev
                0x000000000003a6e8       0x17 com_barchart_udt_SocketUDT.o
                0x000000000003a6e8                _ZNSaISt13_Rb_tree_nodeIiEEC2Ev
 *fill*         0x000000000003a6ff        0x1 90909090
 .text._ZNSt8_Rb_treeIiiSt9_IdentityIiESt4lessIiESaIiEE13_Rb_tree_implIS3_Lb0EEC1Ev
                0x000000000003a700       0x5b com_barchart_udt_SocketUDT.o
                0x000000000003a700                _ZNSt8_Rb_treeIiiSt9_IdentityIiESt4lessIiESaIiEE13_Rb_tree_implIS3_Lb0EEC1Ev
 *fill*         0x000000000003a75b        0x1 90909090
 .text._ZNSt8_Rb_treeIiiSt9_IdentityIiESt4lessIiESaIiEEC1Ev
                0x000000000003a75c       0x17 com_barchart_udt_SocketUDT.o
                0x000000000003a75c                _ZNSt8_Rb_treeIiiSt9_IdentityIiESt4lessIiESaIiEEC1Ev
 *fill*         0x000000000003a773        0x1 90909090
 .text._ZNSt3setIiSt4lessIiESaIiEEC1Ev
                0x000000000003a774       0x17 com_barchart_udt_SocketUDT.o
                0x000000000003a774                _ZNSt3setIiSt4lessIiESaIiEEC1Ev
 *fill*         0x000000000003a78b        0x1 90909090
 .text._ZNKSt8_Rb_treeIiiSt9_IdentityIiESt4lessIiESaIiEE21_M_get_Node_allocatorEv
                0x000000000003a78c        0xe com_barchart_udt_SocketUDT.o
                0x000000000003a78c                _ZNKSt8_Rb_treeIiiSt9_IdentityIiESt4lessIiESaIiEE21_M_get_Node_allocatorEv
 .text._ZN9__gnu_cxx13new_allocatorIiEC2Ev
                0x000000000003a79a        0xa com_barchart_udt_SocketUDT.o
                0x000000000003a79a                _ZN9__gnu_cxx13new_allocatorIiEC2Ev
 .text._ZNSaIiEC2Ev
                0x000000000003a7a4       0x17 com_barchart_udt_SocketUDT.o
                0x000000000003a7a4                _ZNSaIiEC2Ev
 *fill*         0x000000000003a7bb        0x1 90909090
 .text._ZNSt12_Vector_baseIiSaIiEE12_Vector_implC1Ev
                0x000000000003a7bc       0x3a com_barchart_udt_SocketUDT.o
                0x000000000003a7bc                _ZNSt12_Vector_baseIiSaIiEE12_Vector_implC1Ev
 .text._ZNSt12_Vector_baseIiSaIiEEC2Ev
                0x000000000003a7f6       0x17 com_barchart_udt_SocketUDT.o
                0x000000000003a7f6                _ZNSt12_Vector_baseIiSaIiEEC2Ev
 *fill*         0x000000000003a80d        0x1 90909090
 .text._ZNSt6vectorIiSaIiEEC1Ev
                0x000000000003a80e       0x17 com_barchart_udt_SocketUDT.o
                0x000000000003a80e                _ZNSt6vectorIiSaIiEEC1Ev
 *fill*         0x000000000003a825        0x1 90909090
 .text._ZNSaIiEC1ISt13_Rb_tree_nodeIiEEERKSaIT_E
                0x000000000003a826       0x1b com_barchart_udt_SocketUDT.o
                0x000000000003a826                _ZNSaIiEC1ISt13_Rb_tree_nodeIiEEERKSaIT_E
 *fill*         0x000000000003a841        0x1 90909090
 .text._ZNKSt8_Rb_treeIiiSt9_IdentityIiESt4lessIiESaIiEE13get_allocatorEv
                0x000000000003a842       0x38 com_barchart_udt_SocketUDT.o
                0x000000000003a842                _ZNKSt8_Rb_treeIiiSt9_IdentityIiESt4lessIiESaIiEE13get_allocatorEv
 .text._ZNSt12__niter_baseIPiLb0EE3__bES0_
                0x000000000003a87a        0xe com_barchart_udt_SocketUDT.o
                0x000000000003a87a                _ZNSt12__niter_baseIPiLb0EE3__bES0_
 .text._ZNKSt12_Vector_baseIiSaIiEE19_M_get_Tp_allocatorEv
                0x000000000003a888        0xe com_barchart_udt_SocketUDT.o
                0x000000000003a888                _ZNKSt12_Vector_baseIiSaIiEE19_M_get_Tp_allocatorEv
 .text._ZNK9__gnu_cxx13new_allocatorIiE8max_sizeEv
                0x000000000003a896       0x14 com_barchart_udt_SocketUDT.o
                0x000000000003a896                _ZNK9__gnu_cxx13new_allocatorIiE8max_sizeEv
 .text._ZNKSt6vectorIiSaIiEE8max_sizeEv
                0x000000000003a8aa       0x1f com_barchart_udt_SocketUDT.o
                0x000000000003a8aa                _ZNKSt6vectorIiSaIiEE8max_sizeEv
 *fill*         0x000000000003a8c9        0x1 90909090
 .text._ZNK9__gnu_cxx13new_allocatorISt13_Rb_tree_nodeIiEE8max_sizeEv
                0x000000000003a8ca       0x14 com_barchart_udt_SocketUDT.o
                0x000000000003a8ca                _ZNK9__gnu_cxx13new_allocatorISt13_Rb_tree_nodeIiEE8max_sizeEv
 .text._ZN7JNIEnv_16CallObjectMethodEP8_jobjectP10_jmethodIDz
                0x000000000003a8de      0x10b com_barchart_udt_SocketUDT.o
                0x000000000003a8de                _ZN7JNIEnv_16CallObjectMethodEP8_jobjectP10_jmethodIDz
 *fill*         0x000000000003a9e9        0x1 90909090
 .text._ZN7JNIEnv_17CallBooleanMethodEP8_jobjectP10_jmethodIDz
                0x000000000003a9ea      0x10a com_barchart_udt_SocketUDT.o
                0x000000000003a9ea                _ZN7JNIEnv_17CallBooleanMethodEP8_jobjectP10_jmethodIDz
 .text._ZN7JNIEnv_13CallIntMethodEP8_jobjectP10_jmethodIDz
                0x000000000003aaf4      0x109 com_barchart_udt_SocketUDT.o
                0x000000000003aaf4                _ZN7JNIEnv_13CallIntMethodEP8_jobjectP10_jmethodIDz
 *fill*         0x000000000003abfd        0x1 90909090
 .text._ZN7JNIEnv_14CallLongMethodEP8_jobjectP10_jmethodIDz
                0x000000000003abfe      0x10b com_barchart_udt_SocketUDT.o
                0x000000000003abfe                _ZN7JNIEnv_14CallLongMethodEP8_jobjectP10_jmethodIDz
 *fill*         0x000000000003ad09        0x1 90909090
 .text._ZN7JNIEnv_9NewObjectEP7_jclassP10_jmethodIDz
                0x000000000003ad0a      0x10b com_barchart_udt_SocketUDT.o
                0x000000000003ad0a                _ZN7JNIEnv_9NewObjectEP7_jclassP10_jmethodIDz
 .text._ZNSt20__copy_move_backwardILb0ELb1ESt26random_access_iterator_tagE13__copy_move_bIiEEPT_PKS3_S6_S4_
                0x000000000003ae15       0x65 com_barchart_udt_SocketUDT.o
                0x000000000003ae15                _ZNSt20__copy_move_backwardILb0ELb1ESt26random_access_iterator_tagE13__copy_move_bIiEEPT_PKS3_S6_S4_
 .text._ZSt22__copy_move_backward_aILb0EPiS0_ET1_T0_S2_S1_
                0x000000000003ae7a       0x2b com_barchart_udt_SocketUDT.o
                0x000000000003ae7a                _ZSt22__copy_move_backward_aILb0EPiS0_ET1_T0_S2_S1_
 .text._ZSt23__copy_move_backward_a2ILb0EPiS0_ET1_T0_S2_S1_
                0x000000000003aea5       0x4f com_barchart_udt_SocketUDT.o
                0x000000000003aea5                _ZSt23__copy_move_backward_a2ILb0EPiS0_ET1_T0_S2_S1_
 .text._ZSt13copy_backwardIPiS0_ET0_T_S2_S1_
                0x000000000003aef4       0x40 com_barchart_udt_SocketUDT.o
                0x000000000003aef4                _ZSt13copy_backwardIPiS0_ET0_T_S2_S1_
 .text._ZNSt11__copy_moveILb0ELb1ESt26random_access_iterator_tagE8__copy_mIiEEPT_PKS3_S6_S4_
                0x000000000003af34       0x5d com_barchart_udt_SocketUDT.o
                0x000000000003af34                _ZNSt11__copy_moveILb0ELb1ESt26random_access_iterator_tagE8__copy_mIiEEPT_PKS3_S6_S4_
 .text._ZSt13__copy_move_aILb0EPiS0_ET1_T0_S2_S1_
                0x000000000003af91       0x2b com_barchart_udt_SocketUDT.o
                0x000000000003af91                _ZSt13__copy_move_aILb0EPiS0_ET1_T0_S2_S1_
 .text._ZSt14__copy_move_a2ILb0EPiS0_ET1_T0_S2_S1_
                0x000000000003afbc       0x4f com_barchart_udt_SocketUDT.o
                0x000000000003afbc                _ZSt14__copy_move_a2ILb0EPiS0_ET1_T0_S2_S1_
 .text._ZSt4copyIPiS0_ET0_T_S2_S1_
                0x000000000003b00b       0x40 com_barchart_udt_SocketUDT.o
                0x000000000003b00b                _ZSt4copyIPiS0_ET0_T_S2_S1_
 .text._ZNSt20__uninitialized_copyILb1EE18uninitialized_copyIPiS2_EET0_T_S4_S3_
                0x000000000003b04b       0x27 com_barchart_udt_SocketUDT.o
                0x000000000003b04b                _ZNSt20__uninitialized_copyILb1EE18uninitialized_copyIPiS2_EET0_T_S4_S3_
 .text._ZSt18uninitialized_copyIPiS0_ET0_T_S2_S1_
                0x000000000003b072       0x27 com_barchart_udt_SocketUDT.o
                0x000000000003b072                _ZSt18uninitialized_copyIPiS0_ET0_T_S2_S1_
 .text._ZSt22__uninitialized_copy_aIPiS0_iET0_T_S2_S1_RSaIT1_E
                0x000000000003b099       0x2b com_barchart_udt_SocketUDT.o
                0x000000000003b099                _ZSt22__uninitialized_copy_aIPiS0_iET0_T_S2_S1_RSaIT1_E
 .text._ZSt22__uninitialized_move_aIPiS0_SaIiEET0_T_S3_S2_RT1_
                0x000000000003b0c4       0x2f com_barchart_udt_SocketUDT.o
                0x000000000003b0c4                _ZSt22__uninitialized_move_aIPiS0_SaIiEET0_T_S3_S2_RT1_
 *fill*         0x000000000003b0f3        0x1 90909090
 .text._ZNKSt6vectorIiSaIiEE12_M_check_lenEmPKc
                0x000000000003b0f4       0xb8 com_barchart_udt_SocketUDT.o
                0x000000000003b0f4                _ZNKSt6vectorIiSaIiEE12_M_check_lenEmPKc
 .text._ZN9__gnu_cxx13new_allocatorIiE8allocateEmPKv
                0x000000000003b1ac       0x49 com_barchart_udt_SocketUDT.o
                0x000000000003b1ac                _ZN9__gnu_cxx13new_allocatorIiE8allocateEmPKv
 *fill*         0x000000000003b1f5        0x1 90909090
 .text._ZNSt12_Vector_baseIiSaIiEE11_M_allocateEm
                0x000000000003b1f6       0x40 com_barchart_udt_SocketUDT.o
                0x000000000003b1f6                _ZNSt12_Vector_baseIiSaIiEE11_M_allocateEm
 .text._ZN9__gnu_cxx13new_allocatorISt13_Rb_tree_nodeIiEE8allocateEmPKv
                0x000000000003b236       0x52 com_barchart_udt_SocketUDT.o
                0x000000000003b236                _ZN9__gnu_cxx13new_allocatorISt13_Rb_tree_nodeIiEE8allocateEmPKv
 .text._ZNSt8_Rb_treeIiiSt9_IdentityIiESt4lessIiESaIiEE11_M_get_nodeEv
                0x000000000003b288       0x24 com_barchart_udt_SocketUDT.o
                0x000000000003b288                _ZNSt8_Rb_treeIiiSt9_IdentityIiESt4lessIiESaIiEE11_M_get_nodeEv
 .text._ZN9__gnu_cxx13new_allocatorIiE10deallocateEPim
                0x000000000003b2ac       0x1f com_barchart_udt_SocketUDT.o
                0x000000000003b2ac                _ZN9__gnu_cxx13new_allocatorIiE10deallocateEPim
 *fill*         0x000000000003b2cb        0x1 90909090
 .text._ZNSt12_Vector_baseIiSaIiEE13_M_deallocateEPim
                0x000000000003b2cc       0x31 com_barchart_udt_SocketUDT.o
                0x000000000003b2cc                _ZNSt12_Vector_baseIiSaIiEE13_M_deallocateEPim
 *fill*         0x000000000003b2fd        0x1 90909090
 .text._ZNSt6vectorIiSaIiEE13_M_insert_auxEN9__gnu_cxx17__normal_iteratorIPiS1_EERKi
                0x000000000003b2fe      0x1e8 com_barchart_udt_SocketUDT.o
                0x000000000003b2fe                _ZNSt6vectorIiSaIiEE13_M_insert_auxEN9__gnu_cxx17__normal_iteratorIPiS1_EERKi
 .text._ZNSt6vectorIiSaIiEE9push_backERKi
                0x000000000003b4e6       0x6e com_barchart_udt_SocketUDT.o
                0x000000000003b4e6                _ZNSt6vectorIiSaIiEE9push_backERKi
 .text._ZNSt12_Vector_baseIiSaIiEED2Ev
                0x000000000003b554       0x49 com_barchart_udt_SocketUDT.o
                0x000000000003b554                _ZNSt12_Vector_baseIiSaIiEED2Ev
 *fill*         0x000000000003b59d        0x1 90909090
 .text._ZNSt6vectorIiSaIiEED1Ev
                0x000000000003b59e       0x37 com_barchart_udt_SocketUDT.o
                0x000000000003b59e                _ZNSt6vectorIiSaIiEED1Ev
 *fill*         0x000000000003b5d5        0x1 90909090
 .text._ZN9__gnu_cxx13new_allocatorISt13_Rb_tree_nodeIiEE10deallocateEPS2_m
                0x000000000003b5d6       0x1f com_barchart_udt_SocketUDT.o
                0x000000000003b5d6                _ZN9__gnu_cxx13new_allocatorISt13_Rb_tree_nodeIiEE10deallocateEPS2_m
 *fill*         0x000000000003b5f5        0x1 90909090
 .text._ZNSt8_Rb_treeIiiSt9_IdentityIiESt4lessIiESaIiEE11_M_put_nodeEPSt13_Rb_tree_nodeIiE
                0x000000000003b5f6       0x27 com_barchart_udt_SocketUDT.o
                0x000000000003b5f6                _ZNSt8_Rb_treeIiiSt9_IdentityIiESt4lessIiESaIiEE11_M_put_nodeEPSt13_Rb_tree_nodeIiE
 *fill*         0x000000000003b61d        0x1 90909090
 .text._ZNSt8_Rb_treeIiiSt9_IdentityIiESt4lessIiESaIiEE15_M_destroy_nodeEPSt13_Rb_tree_nodeIiE
                0x000000000003b61e       0x4f com_barchart_udt_SocketUDT.o
                0x000000000003b61e                _ZNSt8_Rb_treeIiiSt9_IdentityIiESt4lessIiESaIiEE15_M_destroy_nodeEPSt13_Rb_tree_nodeIiE
 *fill*         0x000000000003b66d        0x1 90909090
 .text._ZNSt8_Rb_treeIiiSt9_IdentityIiESt4lessIiESaIiEE8_M_eraseEPSt13_Rb_tree_nodeIiE
                0x000000000003b66e       0x52 com_barchart_udt_SocketUDT.o
                0x000000000003b66e                _ZNSt8_Rb_treeIiiSt9_IdentityIiESt4lessIiESaIiEE8_M_eraseEPSt13_Rb_tree_nodeIiE
 .text._ZNSt8_Rb_treeIiiSt9_IdentityIiESt4lessIiESaIiEED1Ev
                0x000000000003b6c0       0x6a com_barchart_udt_SocketUDT.o
                0x000000000003b6c0                _ZNSt8_Rb_treeIiiSt9_IdentityIiESt4lessIiESaIiEED1Ev
 .text._ZNSt3setIiSt4lessIiESaIiEED1Ev
                0x000000000003b72a       0x17 com_barchart_udt_SocketUDT.o
                0x000000000003b72a                _ZNSt3setIiSt4lessIiESaIiEED1Ev
 *fill*         0x000000000003b741        0x1 90909090
 .text._ZNSt8_Rb_treeIiiSt9_IdentityIiESt4lessIiESaIiEE14_M_create_nodeERKi
                0x000000000003b742       0x57 com_barchart_udt_SocketUDT.o
                0x000000000003b742                _ZNSt8_Rb_treeIiiSt9_IdentityIiESt4lessIiESaIiEE14_M_create_nodeERKi
 *fill*         0x000000000003b799        0x1 90909090
 .text._ZNSt23_Rb_tree_const_iteratorIiEppEv
                0x000000000003b79a       0x28 com_barchart_udt_SocketUDT.o
                0x000000000003b79a                _ZNSt23_Rb_tree_const_iteratorIiEppEv
 .text._ZNSt17_Rb_tree_iteratorIiEmmEv
                0x000000000003b7c2       0x28 com_barchart_udt_SocketUDT.o
                0x000000000003b7c2                _ZNSt17_Rb_tree_iteratorIiEmmEv
 .text._ZNSt8_Rb_treeIiiSt9_IdentityIiESt4lessIiESaIiEE10_M_insert_EPKSt18_Rb_tree_node_baseS8_RKi
                0x000000000003b7ea       0xc2 com_barchart_udt_SocketUDT.o
                0x000000000003b7ea                _ZNSt8_Rb_treeIiiSt9_IdentityIiESt4lessIiESaIiEE10_M_insert_EPKSt18_Rb_tree_node_baseS8_RKi
 .text._ZNSt8_Rb_treeIiiSt9_IdentityIiESt4lessIiESaIiEE16_M_insert_uniqueERKi
                0x000000000003b8ac      0x206 com_barchart_udt_SocketUDT.o
                0x000000000003b8ac                _ZNSt8_Rb_treeIiiSt9_IdentityIiESt4lessIiESaIiEE16_M_insert_uniqueERKi
 .text._ZNSt3setIiSt4lessIiESaIiEE6insertERKi
                0x000000000003bab2       0x6f com_barchart_udt_SocketUDT.o
                0x000000000003bab2                _ZNSt3setIiSt4lessIiESaIiEE6insertERKi
 *fill*         0x000000000003bb21        0x3 90909090
 .text          0x000000000003bb24     0x8d42 api.o
                0x000000000003c542                _ZN3UDT12getlasterrorEv
                0x000000000003c5a2                _ZN10CUDTUnited6locateEiPK8sockaddrRKiS4_
                0x00000000000413e8                _ZN4CUDT6acceptEiP8sockaddrPi
                0x000000000003ffec                _ZN3UDT11getpeernameEiP8sockaddrPi
                0x000000000003e276                _ZN4CUDT8recvfileEiRSt13basic_fstreamIcSt11char_traitsIcEERKlS6_RKi
                0x000000000003c490                _ZN10CUDTUnited8getErrorEv
                0x0000000000042438                _ZN4CUDT7startupEv
                0x000000000003e252                _ZN3UDT7perfmonEiP8CPerfMonb
                0x000000000003cbb2                _ZN4CUDT8selectExERKSt6vectorIiSaIiEEPS2_S5_S5_l
                0x000000000003e4fd                _ZN3UDT8recvfileEiRSt13basic_fstreamIcSt11char_traitsIcEElli
                0x000000000003bbc4                _ZN10CUDTUnited9getStatusEi
                0x00000000000401f4                _ZN4CUDT5closeEi
                0x0000000000041b0d                _ZN3UDT6listenEii
                0x000000000003e536                _ZN4CUDT8sendfileEiRSt13basic_fstreamIcSt11char_traitsIcEERKlS6_RKi
                0x00000000000403ce                _ZN3UDT5closeEi
                0x0000000000041ffa                _ZN3UDT4bindEii
                0x0000000000040c2a                _ZN4CUDT7connectEiPK8sockaddri
                0x000000000003f873                _ZN3UDT10getsockoptEii6UDTOptPvPi
                0x000000000003eb04                _ZN4CUDT7sendmsgEiPKciib
                0x000000000003e058                _ZN4CUDT7perfmonEiP8CPerfMonb
                0x000000000004244a                _ZN3UDT7startupEv
                0x000000000003f609                _ZN3UDT10setsockoptEii6UDTOptPKvi
                0x0000000000041dc4                _ZN4CUDT4bindEii
                0x000000000003f63c                _ZN4CUDT10getsockoptEii6UDTOptPvPi
                0x0000000000042106                _ZN3UDT7cleanupEv
                0x00000000000425a0                _ZN10CUDTUnitedD2Ev
                0x00000000000426ea                _ZN10CUDTUnitedC1Ev
                0x000000000003f3d2                _ZN4CUDT10setsockoptEii6UDTOptPKvi
                0x0000000000041576                _ZN3UDT6acceptEiP8sockaddrPi
                0x000000000003c948                _ZN10CUDTUnited8selectExERKSt6vectorIiSaIiEEPS2_S5_S5_l
                0x000000000003fc0a                _ZN10CUDTUnited11getpeernameEiP8sockaddrPi
                0x0000000000042016                _ZN10CUDTUnited7cleanupEv
                0x00000000000403e4                _ZN10CUDTUnited4bindEiPK8sockaddrRKi
                0x0000000000042dfa                _ZN10CUDTUnited12removeSocketEi
                0x000000000003c54e                _ZN10CUDTUnited8setErrorEP13CUDTException
                0x000000000004063e                _ZN4CUDT4bindEiPK8sockaddri
                0x000000000003e8b1                _ZN3UDT8sendfileEiRSt13basic_fstreamIcSt11char_traitsIcEElli
                0x000000000003daa8                _ZN4CUDT6selectEiPSt3setIiSt4lessIiESaIiEES5_S5_PK7timeval
                0x000000000003def2                _ZN10CUDTUnited6lookupEi
                0x000000000003fbe4                _ZN3UDT11getsocknameEiP8sockaddrPi
                0x000000000003d00c                _ZN10CUDTUnited6selectEPSt3setIiSt4lessIiESaIiEES5_S5_PK7timeval
                0x000000000003f08f                _ZN3UDT4recvEiPcii
                0x000000000003fe02                _ZN4CUDT11getpeernameEiP8sockaddrPi
                0x00000000000420f4                _ZN4CUDT7cleanupEv
                0x000000000003bb24                _ZN10CUDTUnited6locateEi
                0x0000000000040f0a                _ZN3UDT7connectEiPK8sockaddri
                0x000000000003f0b8                _ZN4CUDT4sendEiPKcii
                0x000000000004087d                _ZN3UDT4bindEiPK8sockaddri
                0x0000000000042d1e                _ZN10CUDTSocketD1Ev
                0x000000000004238a                _ZN10CUDTUnited7startupEv
                0x000000000003c530                _ZN4CUDT12getlasterrorEv
                0x0000000000040f2e                _ZN10CUDTUnited6acceptEiP8sockaddrPi
                0x0000000000044768                _ZN3UDT6socketEiii
                0x0000000000040012                _ZN10CUDTUnited5closeEi
                0x000000000003bc5e                _ZN10CUDTUnited9updateMuxEP4CUDTPK10CUDTSocket
                0x000000000004450c                _ZN4CUDT6socketEiii
                0x0000000000042a04                _ZN10CUDTUnitedC2Ev
                0x000000000003f3a8                _ZN3UDT4sendEiPKcii
                0x00000000000408a0                _ZN10CUDTUnited7connectEiPK8sockaddrRKi
                0x000000000003e8ea                _ZN4CUDT7recvmsgEiPci
                0x000000000004224e                _ZN10CUDTSocketC2Ev
                0x000000000003e01c                _ZN4CUDT12getUDTHandleEi
                0x00000000000418d6                _ZN4CUDT6listenEii
                0x0000000000041b28                _ZN10CUDTUnited4bindEii
                0x0000000000044050                _ZN10CUDTUnited9newSocketERKiS1_
                0x000000000003eae0                _ZN3UDT7recvmsgEiPci
                0x0000000000043880                _ZN10CUDTUnited14garbageCollectEPv
                0x0000000000043a34                _ZN10CUDTUnited13newConnectionEiPK8sockaddrP10CHandShake
                0x000000000003f9fa                _ZN4CUDT11getsocknameEiP8sockaddrPi
                0x0000000000043358                _ZN10CUDTUnited18checkBrokenSocketsEv
                0x000000000003deba                _ZN3UDT6selectEiPSt3setIiSt4lessIiESaIiEES5_S5_PK7timeval
                0x0000000000042112                _ZN10CUDTSocketC1Ev
                0x000000000004478a                _ZN10CUDTSocketD2Ev
                0x000000000003bd8c                _ZN10CUDTUnited9updateMuxEP4CUDTPK8sockaddrPKi
                0x000000000003cfd2                _ZN3UDT8selectExERKSt6vectorIiSaIiEEPS2_S5_S5_l
                0x000000000003ee5f                _ZN3UDT7sendmsgEiPKciib
                0x000000000003f8a8                _ZN10CUDTUnited11getsocknameEiP8sockaddrPi
                0x000000000004159c                _ZN10CUDTUnited6listenEiRKi
                0x0000000000042456                _ZN10CUDTUnitedD1Ev
                0x000000000003ee96                _ZN4CUDT4recvEiPcii
 .text._ZNSt18_Rb_tree_node_base10_S_minimumEPS_
                0x0000000000044866       0x29 api.o
                0x0000000000044866                _ZNSt18_Rb_tree_node_base10_S_minimumEPS_
 .text._ZNSt18_Rb_tree_node_base10_S_maximumEPS_
                0x000000000004488f       0x29 api.o
                0x000000000004488f                _ZNSt18_Rb_tree_node_base10_S_maximumEPS_
 .text._ZN10CUDTUnited10TLSDestroyEPv
                0x00000000000448b8       0x32 api.o
                0x00000000000448b8                _ZN10CUDTUnited10TLSDestroyEPv
 .text._ZNKSt17_Rb_tree_iteratorISt4pairIKiP10CUDTSocketEEeqERKS5_
                0x00000000000448ea       0x22 api.o
                0x00000000000448ea                _ZNKSt17_Rb_tree_iteratorISt4pairIKiP10CUDTSocketEEeqERKS5_
 .text._ZNKSt17_Rb_tree_iteratorISt4pairIKiP10CUDTSocketEEptEv
                0x000000000004490c       0x15 api.o
                0x000000000004490c                _ZNKSt17_Rb_tree_iteratorISt4pairIKiP10CUDTSocketEEptEv
 *fill*         0x0000000000044921        0x1 90909090
 .text._ZNKSt17_Rb_tree_iteratorISt4pairIKiP10CUDTSocketEEneERKS5_
                0x0000000000044922       0x22 api.o
                0x0000000000044922                _ZNKSt17_Rb_tree_iteratorISt4pairIKiP10CUDTSocketEEneERKS5_
 .text._ZNKSt23_Rb_tree_const_iteratorIiEneERKS0_
                0x0000000000044944       0x22 api.o
                0x0000000000044944                _ZNKSt23_Rb_tree_const_iteratorIiEneERKS0_
 .text._ZN9__gnu_cxx17__normal_iteratorIPP10CUDTSocketSt6vectorIS2_SaIS2_EEEppEv
                0x0000000000044966       0x20 api.o
                0x0000000000044966                _ZN9__gnu_cxx17__normal_iteratorIPP10CUDTSocketSt6vectorIS2_SaIS2_EEEppEv
 .text._ZNK9__gnu_cxx17__normal_iteratorIPP10CUDTSocketSt6vectorIS2_SaIS2_EEEdeEv
                0x0000000000044986       0x11 api.o
                0x0000000000044986                _ZNK9__gnu_cxx17__normal_iteratorIPP10CUDTSocketSt6vectorIS2_SaIS2_EEEdeEv
 *fill*         0x0000000000044997        0x1 90909090
 .text._ZN9__gnu_cxx17__normal_iteratorIPKiSt6vectorIiSaIiEEEppEv
                0x0000000000044998       0x20 api.o
                0x0000000000044998                _ZN9__gnu_cxx17__normal_iteratorIPKiSt6vectorIiSaIiEEEppEv
 .text._ZNK9__gnu_cxx17__normal_iteratorIPKiSt6vectorIiSaIiEEEdeEv
                0x00000000000449b8       0x11 api.o
                0x00000000000449b8                _ZNK9__gnu_cxx17__normal_iteratorIPKiSt6vectorIiSaIiEEEdeEv
 *fill*         0x00000000000449c9        0x1 90909090
 .text._ZN9__gnu_cxx17__normal_iteratorIP12CMultiplexerSt6vectorIS1_SaIS1_EEEC1Ev
                0x00000000000449ca       0x15 api.o
                0x00000000000449ca                _ZN9__gnu_cxx17__normal_iteratorIP12CMultiplexerSt6vectorIS1_SaIS1_EEEC1Ev
 *fill*         0x00000000000449df        0x1 90909090
 .text._ZN9__gnu_cxx17__normal_iteratorIP12CMultiplexerSt6vectorIS1_SaIS1_EEEppEv
                0x00000000000449e0       0x20 api.o
                0x00000000000449e0                _ZN9__gnu_cxx17__normal_iteratorIP12CMultiplexerSt6vectorIS1_SaIS1_EEEppEv
 .text._ZNK9__gnu_cxx17__normal_iteratorIP12CMultiplexerSt6vectorIS1_SaIS1_EEEptEv
                0x0000000000044a00       0x11 api.o
                0x0000000000044a00                _ZNK9__gnu_cxx17__normal_iteratorIP12CMultiplexerSt6vectorIS1_SaIS1_EEEptEv
 *fill*         0x0000000000044a11        0x1 90909090
 .text._ZNSt8_Rb_treeIiSt4pairIKiP10CUDTSocketESt10_Select1stIS4_ESt4lessIiESaIS4_EE8_M_beginEv
                0x0000000000044a12       0x12 api.o
                0x0000000000044a12                _ZNSt8_Rb_treeIiSt4pairIKiP10CUDTSocketESt10_Select1stIS4_ESt4lessIiESaIS4_EE8_M_beginEv
 .text._ZNSt12_Vector_baseI12CMultiplexerSaIS0_EE19_M_get_Tp_allocatorEv
                0x0000000000044a24        0xe api.o
                0x0000000000044a24                _ZNSt12_Vector_baseI12CMultiplexerSaIS0_EE19_M_get_Tp_allocatorEv
 .text._ZNKSt17_Rb_tree_iteratorISt4pairIKiP10CUDTSocketEEdeEv
                0x0000000000044a32       0x15 api.o
                0x0000000000044a32                _ZNKSt17_Rb_tree_iteratorISt4pairIKiP10CUDTSocketEEdeEv
 *fill*         0x0000000000044a47        0x1 90909090
 .text._ZNSt4pairIKiP10CUDTSocketEC1ERS0_RKS2_
                0x0000000000044a48       0x2d api.o
                0x0000000000044a48                _ZNSt4pairIKiP10CUDTSocketEC1ERS0_RKS2_
 *fill*         0x0000000000044a75        0x1 90909090
 .text._ZNSt12_Vector_baseIP10CUDTSocketSaIS1_EE19_M_get_Tp_allocatorEv
                0x0000000000044a76        0xe api.o
                0x0000000000044a76                _ZNSt12_Vector_baseIP10CUDTSocketSaIS1_EE19_M_get_Tp_allocatorEv
 .text._ZN9__gnu_cxx17__normal_iteratorIPP10CUDTSocketSt6vectorIS2_SaIS2_EEEC1ERKS3_
                0x0000000000044a84       0x1c api.o
                0x0000000000044a84                _ZN9__gnu_cxx17__normal_iteratorIPP10CUDTSocketSt6vectorIS2_SaIS2_EEEC1ERKS3_
 .text._ZNSt6vectorIP10CUDTSocketSaIS1_EE5beginEv
                0x0000000000044aa0       0x1f api.o
                0x0000000000044aa0                _ZNSt6vectorIP10CUDTSocketSaIS1_EE5beginEv
 *fill*         0x0000000000044abf        0x1 90909090
 .text._ZNSt6vectorIP10CUDTSocketSaIS1_EE3endEv
                0x0000000000044ac0       0x23 api.o
                0x0000000000044ac0                _ZNSt6vectorIP10CUDTSocketSaIS1_EE3endEv
 *fill*         0x0000000000044ae3        0x1 90909090
 .text._ZN9__gnu_cxx13new_allocatorIP10CUDTSocketE9constructEPS2_RKS2_
                0x0000000000044ae4       0x3d api.o
                0x0000000000044ae4                _ZN9__gnu_cxx13new_allocatorIP10CUDTSocketE9constructEPS2_RKS2_
 *fill*         0x0000000000044b21        0x1 90909090
 .text._ZNK9__gnu_cxx17__normal_iteratorIPP10CUDTSocketSt6vectorIS2_SaIS2_EEE4baseEv
                0x0000000000044b22        0xe api.o
                0x0000000000044b22                _ZNK9__gnu_cxx17__normal_iteratorIPP10CUDTSocketSt6vectorIS2_SaIS2_EEE4baseEv
 .text._ZN9__gnu_cxxmiIPP10CUDTSocketSt6vectorIS2_SaIS2_EEEENS_17__normal_iteratorIT_T0_E15difference_typeERKSA_SD_
                0x0000000000044b30       0x40 api.o
                0x0000000000044b30                _ZN9__gnu_cxxmiIPP10CUDTSocketSt6vectorIS2_SaIS2_EEEENS_17__normal_iteratorIT_T0_E15difference_typeERKSA_SD_
 .text._ZN9__gnu_cxxeqIPP10CUDTSocketSt6vectorIS2_SaIS2_EEEEbRKNS_17__normal_iteratorIT_T0_EESC_
                0x0000000000044b70       0x36 api.o
                0x0000000000044b70                _ZN9__gnu_cxxeqIPP10CUDTSocketSt6vectorIS2_SaIS2_EEEEbRKNS_17__normal_iteratorIT_T0_EESC_
 .text._ZN9__gnu_cxxneIPP10CUDTSocketSt6vectorIS2_SaIS2_EEEEbRKNS_17__normal_iteratorIT_T0_EESC_
                0x0000000000044ba6       0x36 api.o
                0x0000000000044ba6                _ZN9__gnu_cxxneIPP10CUDTSocketSt6vectorIS2_SaIS2_EEEEbRKNS_17__normal_iteratorIT_T0_EESC_
 .text._ZN9__gnu_cxxneIPKiSt6vectorIiSaIiEEEEbRKNS_17__normal_iteratorIT_T0_EESB_
                0x0000000000044bdc       0x36 api.o
                0x0000000000044bdc                _ZN9__gnu_cxxneIPKiSt6vectorIiSaIiEEEEbRKNS_17__normal_iteratorIT_T0_EESB_
 .text._ZN9__gnu_cxx17__normal_iteratorIP12CMultiplexerSt6vectorIS1_SaIS1_EEEC1ERKS2_
                0x0000000000044c12       0x1c api.o
                0x0000000000044c12                _ZN9__gnu_cxx17__normal_iteratorIP12CMultiplexerSt6vectorIS1_SaIS1_EEEC1ERKS2_
 .text._ZNSt6vectorI12CMultiplexerSaIS0_EE5beginEv
                0x0000000000044c2e       0x1f api.o
                0x0000000000044c2e                _ZNSt6vectorI12CMultiplexerSaIS0_EE5beginEv
 *fill*         0x0000000000044c4d        0x1 90909090
 .text._ZNSt6vectorI12CMultiplexerSaIS0_EE3endEv
                0x0000000000044c4e       0x23 api.o
                0x0000000000044c4e                _ZNSt6vectorI12CMultiplexerSaIS0_EE3endEv
 *fill*         0x0000000000044c71        0x1 90909090
 .text._ZNK9__gnu_cxx17__normal_iteratorIP12CMultiplexerSt6vectorIS1_SaIS1_EEE4baseEv
                0x0000000000044c72        0xe api.o
                0x0000000000044c72                _ZNK9__gnu_cxx17__normal_iteratorIP12CMultiplexerSt6vectorIS1_SaIS1_EEE4baseEv
 .text._ZN9__gnu_cxxneIP12CMultiplexerSt6vectorIS1_SaIS1_EEEEbRKNS_17__normal_iteratorIT_T0_EESB_
                0x0000000000044c80       0x36 api.o
                0x0000000000044c80                _ZN9__gnu_cxxneIP12CMultiplexerSt6vectorIS1_SaIS1_EEEEbRKNS_17__normal_iteratorIT_T0_EESB_
 .text._ZN9__gnu_cxxeqIP12CMultiplexerSt6vectorIS1_SaIS1_EEEEbRKNS_17__normal_iteratorIT_T0_EESB_
                0x0000000000044cb6       0x36 api.o
                0x0000000000044cb6                _ZN9__gnu_cxxeqIP12CMultiplexerSt6vectorIS1_SaIS1_EEEEbRKNS_17__normal_iteratorIT_T0_EESB_
 .text._ZNK9__gnu_cxx17__normal_iteratorIP12CMultiplexerSt6vectorIS1_SaIS1_EEEplERKl
                0x0000000000044cec       0x4c api.o
                0x0000000000044cec                _ZNK9__gnu_cxx17__normal_iteratorIP12CMultiplexerSt6vectorIS1_SaIS1_EEEplERKl
 .text._ZN12CMultiplexerD1Ev
                0x0000000000044d38        0xa api.o
                0x0000000000044d38                _ZN12CMultiplexerD1Ev
 .text._ZN9__gnu_cxx13new_allocatorI12CMultiplexerE7destroyEPS1_
                0x0000000000044d42       0x1b api.o
                0x0000000000044d42                _ZN9__gnu_cxx13new_allocatorI12CMultiplexerE7destroyEPS1_
 .text._ZN9__gnu_cxxmiIP12CMultiplexerSt6vectorIS1_SaIS1_EEEENS_17__normal_iteratorIT_T0_E15difference_typeERKS9_SC_
                0x0000000000044d5d       0x51 api.o
                0x0000000000044d5d                _ZN9__gnu_cxxmiIP12CMultiplexerSt6vectorIS1_SaIS1_EEEENS_17__normal_iteratorIT_T0_E15difference_typeERKS9_SC_
 .text._ZN9__gnu_cxx13new_allocatorI12CMultiplexerE9constructEPS1_RKS1_
                0x0000000000044dae       0x85 api.o
                0x0000000000044dae                _ZN9__gnu_cxx13new_allocatorI12CMultiplexerE9constructEPS1_RKS1_
 *fill*         0x0000000000044e33        0x1 90909090
 .text._ZNKSt8_Rb_treeIiSt4pairIKiP10CUDTSocketESt10_Select1stIS4_ESt4lessIiESaIS4_EE5emptyEv
                0x0000000000044e34       0x18 api.o
                0x0000000000044e34                _ZNKSt8_Rb_treeIiSt4pairIKiP10CUDTSocketESt10_Select1stIS4_ESt4lessIiESaIS4_EE5emptyEv
 .text._ZNKSt3mapIiP10CUDTSocketSt4lessIiESaISt4pairIKiS1_EEE5emptyEv
                0x0000000000044e4c       0x17 api.o
                0x0000000000044e4c                _ZNKSt3mapIiP10CUDTSocketSt4lessIiESaISt4pairIKiS1_EEE5emptyEv
 *fill*         0x0000000000044e63        0x1 90909090
 .text._ZN9__gnu_cxx13new_allocatorISt13_Rb_tree_nodeISt4pairIKiP10CUDTSocketEEED2Ev
                0x0000000000044e64        0xa api.o
                0x0000000000044e64                _ZN9__gnu_cxx13new_allocatorISt13_Rb_tree_nodeISt4pairIKiP10CUDTSocketEEED2Ev
 .text._ZNSaISt13_Rb_tree_nodeISt4pairIKiP10CUDTSocketEEED2Ev
                0x0000000000044e6e       0x17 api.o
                0x0000000000044e6e                _ZNSaISt13_Rb_tree_nodeISt4pairIKiP10CUDTSocketEEED2Ev
 *fill*         0x0000000000044e85        0x1 90909090
 .text._ZNSt8_Rb_treeIiSt4pairIKiP10CUDTSocketESt10_Select1stIS4_ESt4lessIiESaIS4_EE13_Rb_tree_implIS8_Lb0EED1Ev
                0x0000000000044e86       0x17 api.o
                0x0000000000044e86                _ZNSt8_Rb_treeIiSt4pairIKiP10CUDTSocketESt10_Select1stIS4_ESt4lessIiESaIS4_EE13_Rb_tree_implIS8_Lb0EED1Ev
 .text._ZNSt8_Rb_treeIiSt4pairIKiP10CUDTSocketESt10_Select1stIS4_ESt4lessIiESaIS4_EE8_S_rightEPSt18_Rb_tree_node_base
                0x0000000000044e9d       0x12 api.o
                0x0000000000044e9d                _ZNSt8_Rb_treeIiSt4pairIKiP10CUDTSocketESt10_Select1stIS4_ESt4lessIiESaIS4_EE8_S_rightEPSt18_Rb_tree_node_base
 .text._ZNSt8_Rb_treeIiSt4pairIKiP10CUDTSocketESt10_Select1stIS4_ESt4lessIiESaIS4_EE7_S_leftEPSt18_Rb_tree_node_base
                0x0000000000044eaf       0x12 api.o
                0x0000000000044eaf                _ZNSt8_Rb_treeIiSt4pairIKiP10CUDTSocketESt10_Select1stIS4_ESt4lessIiESaIS4_EE7_S_leftEPSt18_Rb_tree_node_base
 .text._ZSt8_DestroyIP12CMultiplexerEvT_S2_
                0x0000000000044ec1        0xe api.o
                0x0000000000044ec1                _ZSt8_DestroyIP12CMultiplexerEvT_S2_
 .text._ZSt8_DestroyIP12CMultiplexerS0_EvT_S2_RSaIT0_E
                0x0000000000044ecf       0x23 api.o
                0x0000000000044ecf                _ZSt8_DestroyIP12CMultiplexerS0_EvT_S2_RSaIT0_E
 .text._ZNKSt8_Rb_treeIiSt4pairIKiP10CUDTSocketESt10_Select1stIS4_ESt4lessIiESaIS4_EE8key_compEv
                0x0000000000044ef2        0xe api.o
                0x0000000000044ef2                _ZNKSt8_Rb_treeIiSt4pairIKiP10CUDTSocketESt10_Select1stIS4_ESt4lessIiESaIS4_EE8key_compEv
 .text._ZNKSt3mapIiP10CUDTSocketSt4lessIiESaISt4pairIKiS1_EEE8key_compEv
                0x0000000000044f00       0x1b api.o
                0x0000000000044f00                _ZNKSt3mapIiP10CUDTSocketSt4lessIiESaISt4pairIKiS1_EEE8key_compEv
 *fill*         0x0000000000044f1b        0x1 90909090
 .text._ZNSt23_Rb_tree_const_iteratorISt4pairIKiP10CUDTSocketEEC1ERKSt17_Rb_tree_iteratorIS4_E
                0x0000000000044f1c       0x1c api.o
                0x0000000000044f1c                _ZNSt23_Rb_tree_const_iteratorISt4pairIKiP10CUDTSocketEEC1ERKSt17_Rb_tree_iteratorIS4_E
 .text._ZNSt8_Rb_treeIiSt4pairIKiP10CUDTSocketESt10_Select1stIS4_ESt4lessIiESaIS4_EE6_M_endEv
                0x0000000000044f38       0x12 api.o
                0x0000000000044f38                _ZNSt8_Rb_treeIiSt4pairIKiP10CUDTSocketESt10_Select1stIS4_ESt4lessIiESaIS4_EE6_M_endEv
 .text._ZNSt17_Rb_tree_iteratorISt4pairIKiP10CUDTSocketEEC1EPSt13_Rb_tree_nodeIS4_E
                0x0000000000044f4a       0x19 api.o
                0x0000000000044f4a                _ZNSt17_Rb_tree_iteratorISt4pairIKiP10CUDTSocketEEC1EPSt13_Rb_tree_nodeIS4_E
 *fill*         0x0000000000044f63        0x1 90909090
 .text._ZNSt8_Rb_treeIiSt4pairIKiP10CUDTSocketESt10_Select1stIS4_ESt4lessIiESaIS4_EE5beginEv
                0x0000000000044f64       0x26 api.o
                0x0000000000044f64                _ZNSt8_Rb_treeIiSt4pairIKiP10CUDTSocketESt10_Select1stIS4_ESt4lessIiESaIS4_EE5beginEv
 .text._ZNSt3mapIiP10CUDTSocketSt4lessIiESaISt4pairIKiS1_EEE5beginEv
                0x0000000000044f8a       0x17 api.o
                0x0000000000044f8a                _ZNSt3mapIiP10CUDTSocketSt4lessIiESaISt4pairIKiS1_EEE5beginEv
 *fill*         0x0000000000044fa1        0x1 90909090
 .text._ZNSt8_Rb_treeIiSt4pairIKiP10CUDTSocketESt10_Select1stIS4_ESt4lessIiESaIS4_EE3endEv
                0x0000000000044fa2       0x26 api.o
                0x0000000000044fa2                _ZNSt8_Rb_treeIiSt4pairIKiP10CUDTSocketESt10_Select1stIS4_ESt4lessIiESaIS4_EE3endEv
 .text._ZNSt3mapIiP10CUDTSocketSt4lessIiESaISt4pairIKiS1_EEE3endEv
                0x0000000000044fc8       0x17 api.o
                0x0000000000044fc8                _ZNSt3mapIiP10CUDTSocketSt4lessIiESaISt4pairIKiS1_EEE3endEv
 *fill*         0x0000000000044fdf        0x1 90909090
 .text._ZNKSt8_Rb_treeIiiSt9_IdentityIiESt4lessIiESaIiEE3endEv
                0x0000000000044fe0       0x26 api.o
                0x0000000000044fe0                _ZNKSt8_Rb_treeIiiSt9_IdentityIiESt4lessIiESaIiEE3endEv
 .text._ZNKSt3setIiSt4lessIiESaIiEE3endEv
                0x0000000000045006       0x17 api.o
                0x0000000000045006                _ZNKSt3setIiSt4lessIiESaIiEE3endEv
 *fill*         0x000000000004501d        0x1 90909090
 .text._ZNSt8_Rb_treeIiiSt9_IdentityIiESt4lessIiESaIiEE12_M_rightmostEv
                0x000000000004501e       0x12 api.o
                0x000000000004501e                _ZNSt8_Rb_treeIiiSt9_IdentityIiESt4lessIiESaIiEE12_M_rightmostEv
 .text._ZNSt8_Rb_treeIiiSt9_IdentityIiESt4lessIiESaIiEE11_M_leftmostEv
                0x0000000000045030       0x12 api.o
                0x0000000000045030                _ZNSt8_Rb_treeIiiSt9_IdentityIiESt4lessIiESaIiEE11_M_leftmostEv
 .text._ZNSt8_Rb_treeIiiSt9_IdentityIiESt4lessIiESaIiEE8_S_rightEPKSt18_Rb_tree_node_base
                0x0000000000045042       0x12 api.o
                0x0000000000045042                _ZNSt8_Rb_treeIiiSt9_IdentityIiESt4lessIiESaIiEE8_S_rightEPKSt18_Rb_tree_node_base
 .text._ZNKSt8_Rb_treeIiSt4pairIKiP10CUDTSocketESt10_Select1stIS4_ESt4lessIiESaIS4_EE4sizeEv
                0x0000000000045054       0x12 api.o
                0x0000000000045054                _ZNKSt8_Rb_treeIiSt4pairIKiP10CUDTSocketESt10_Select1stIS4_ESt4lessIiESaIS4_EE4sizeEv
 .text._ZSt8_DestroyIPP10CUDTSocketEvT_S3_
                0x0000000000045066        0xe api.o
                0x0000000000045066                _ZSt8_DestroyIPP10CUDTSocketEvT_S3_
 .text._ZSt8_DestroyIPP10CUDTSocketS1_EvT_S3_RSaIT0_E
                0x0000000000045074       0x23 api.o
                0x0000000000045074                _ZSt8_DestroyIPP10CUDTSocketS1_EvT_S3_RSaIT0_E
 *fill*         0x0000000000045097        0x1 90909090
 .text._ZNKSt8_Rb_treeIiiSt9_IdentityIiESt4lessIiESaIiEE7_M_rootEv
                0x0000000000045098       0x12 api.o
                0x0000000000045098                _ZNKSt8_Rb_treeIiiSt9_IdentityIiESt4lessIiESaIiEE7_M_rootEv
 .text._ZNKSt8_Rb_treeIiiSt9_IdentityIiESt4lessIiESaIiEE8_M_beginEv
                0x00000000000450aa       0x12 api.o
                0x00000000000450aa                _ZNKSt8_Rb_treeIiiSt9_IdentityIiESt4lessIiESaIiEE8_M_beginEv
 .text._ZNSt8_Rb_treeIiiSt9_IdentityIiESt4lessIiESaIiEE7_M_rootEv
                0x00000000000450bc       0x12 api.o
                0x00000000000450bc                _ZNSt8_Rb_treeIiiSt9_IdentityIiESt4lessIiESaIiEE7_M_rootEv
 .text._ZNSt8_Rb_treeIiiSt9_IdentityIiESt4lessIiESaIiEE10_S_minimumEPSt18_Rb_tree_node_base
                0x00000000000450ce       0x17 api.o
                0x00000000000450ce                _ZNSt8_Rb_treeIiiSt9_IdentityIiESt4lessIiESaIiEE10_S_minimumEPSt18_Rb_tree_node_base
 .text._ZNSt8_Rb_treeIiiSt9_IdentityIiESt4lessIiESaIiEE10_S_maximumEPSt18_Rb_tree_node_base
                0x00000000000450e5       0x17 api.o
                0x00000000000450e5                _ZNSt8_Rb_treeIiiSt9_IdentityIiESt4lessIiESaIiEE10_S_maximumEPSt18_Rb_tree_node_base
 .text._ZNSt12__miter_baseIN9__gnu_cxx17__normal_iteratorIP12CMultiplexerSt6vectorIS2_SaIS2_EEEELb0EE3__bES7_
                0x00000000000450fc        0xe api.o
                0x00000000000450fc                _ZNSt12__miter_baseIN9__gnu_cxx17__normal_iteratorIP12CMultiplexerSt6vectorIS2_SaIS2_EEEELb0EE3__bES7_
 .text._ZNK9__gnu_cxx17__normal_iteratorIP12CMultiplexerSt6vectorIS1_SaIS1_EEEdeEv
                0x000000000004510a       0x11 api.o
                0x000000000004510a                _ZNK9__gnu_cxx17__normal_iteratorIP12CMultiplexerSt6vectorIS1_SaIS1_EEEdeEv
 *fill*         0x000000000004511b        0x1 90909090
 .text._ZNSt8_Rb_treeIiSt4pairIKiP10CUDTSocketESt10_Select1stIS4_ESt4lessIiESaIS4_EE11_M_leftmostEv
                0x000000000004511c       0x12 api.o
                0x000000000004511c                _ZNSt8_Rb_treeIiSt4pairIKiP10CUDTSocketESt10_Select1stIS4_ESt4lessIiESaIS4_EE11_M_leftmostEv
 .text._ZNSt8_Rb_treeIiSt4pairIKiP10CUDTSocketESt10_Select1stIS4_ESt4lessIiESaIS4_EE7_M_rootEv
                0x000000000004512e       0x12 api.o
                0x000000000004512e                _ZNSt8_Rb_treeIiSt4pairIKiP10CUDTSocketESt10_Select1stIS4_ESt4lessIiESaIS4_EE7_M_rootEv
 .text._ZNSt8_Rb_treeIiSt4pairIKiP10CUDTSocketESt10_Select1stIS4_ESt4lessIiESaIS4_EE12_M_rightmostEv
                0x0000000000045140       0x12 api.o
                0x0000000000045140                _ZNSt8_Rb_treeIiSt4pairIKiP10CUDTSocketESt10_Select1stIS4_ESt4lessIiESaIS4_EE12_M_rightmostEv
 .text._ZNSt8_Rb_treeIiSt4pairIKiP10CUDTSocketESt10_Select1stIS4_ESt4lessIiESaIS4_EE13_Rb_tree_implIS8_Lb0EE13_M_initializeEv
                0x0000000000045152       0x41 api.o
                0x0000000000045152                _ZNSt8_Rb_treeIiSt4pairIKiP10CUDTSocketESt10_Select1stIS4_ESt4lessIiESaIS4_EE13_Rb_tree_implIS8_Lb0EE13_M_initializeEv
 *fill*         0x0000000000045193        0x1 90909090
 .text._ZNSt4pairIKiP10CUDTSocketED1Ev
                0x0000000000045194        0xa api.o
                0x0000000000045194                _ZNSt4pairIKiP10CUDTSocketED1Ev
 .text._ZN9__gnu_cxx13new_allocatorISt4pairIKiP10CUDTSocketEE7destroyEPS5_
                0x000000000004519e       0x1b api.o
                0x000000000004519e                _ZN9__gnu_cxx13new_allocatorISt4pairIKiP10CUDTSocketEE7destroyEPS5_
 *fill*         0x00000000000451b9        0x1 90909090
 .text._ZN9__gnu_cxx13new_allocatorI12CMultiplexerED2Ev
                0x00000000000451ba        0xa api.o
                0x00000000000451ba                _ZN9__gnu_cxx13new_allocatorI12CMultiplexerED2Ev
 .text._ZNSaI12CMultiplexerED2Ev
                0x00000000000451c4       0x17 api.o
                0x00000000000451c4                _ZNSaI12CMultiplexerED2Ev
 *fill*         0x00000000000451db        0x1 90909090
 .text._ZNSt12_Vector_baseI12CMultiplexerSaIS0_EE12_Vector_implD1Ev
                0x00000000000451dc       0x17 api.o
                0x00000000000451dc                _ZNSt12_Vector_baseI12CMultiplexerSaIS0_EE12_Vector_implD1Ev
 *fill*         0x00000000000451f3        0x1 90909090
 .text._ZNKSt10_Select1stISt4pairIKiP10CUDTSocketEEclERKS4_
                0x00000000000451f4       0x12 api.o
                0x00000000000451f4                _ZNKSt10_Select1stISt4pairIKiP10CUDTSocketEEclERKS4_
 .text._ZNSt8_Rb_treeIiSt4pairIKiP10CUDTSocketESt10_Select1stIS4_ESt4lessIiESaIS4_EE8_S_rightEPKSt18_Rb_tree_node_base
                0x0000000000045206       0x12 api.o
                0x0000000000045206                _ZNSt8_Rb_treeIiSt4pairIKiP10CUDTSocketESt10_Select1stIS4_ESt4lessIiESaIS4_EE8_S_rightEPKSt18_Rb_tree_node_base
 .text._ZNSt4pairISt17_Rb_tree_iteratorIiES1_EC1ERKS1_S4_
                0x0000000000045218       0x2f api.o
                0x0000000000045218                _ZNSt4pairISt17_Rb_tree_iteratorIiES1_EC1ERKS1_S4_
 *fill*         0x0000000000045247        0x1 90909090
 .text._ZNSt8_Rb_treeIiiSt9_IdentityIiESt4lessIiESaIiEE3endEv
                0x0000000000045248       0x26 api.o
                0x0000000000045248                _ZNSt8_Rb_treeIiiSt9_IdentityIiESt4lessIiESaIiEE3endEv
 .text._ZNKSt17_Rb_tree_iteratorIiEneERKS0_
                0x000000000004526e       0x22 api.o
                0x000000000004526e                _ZNKSt17_Rb_tree_iteratorIiEneERKS0_
 .text._ZNSt8_Rb_treeIiiSt9_IdentityIiESt4lessIiESaIiEE14_M_upper_boundEPSt13_Rb_tree_nodeIiES8_RKi
                0x0000000000045290       0x75 api.o
                0x0000000000045290                _ZNSt8_Rb_treeIiiSt9_IdentityIiESt4lessIiESaIiEE14_M_upper_boundEPSt13_Rb_tree_nodeIiES8_RKi
 *fill*         0x0000000000045305        0x1 90909090
 .text._ZNSt8_Rb_treeIiiSt9_IdentityIiESt4lessIiESaIiEE14_M_lower_boundEPSt13_Rb_tree_nodeIiES8_RKi
                0x0000000000045306       0x78 api.o
                0x0000000000045306                _ZNSt8_Rb_treeIiiSt9_IdentityIiESt4lessIiESaIiEE14_M_lower_boundEPSt13_Rb_tree_nodeIiES8_RKi
 .text._ZNSt8_Rb_treeIiiSt9_IdentityIiESt4lessIiESaIiEE11equal_rangeERKi
                0x000000000004537e      0x1a5 api.o
                0x000000000004537e                _ZNSt8_Rb_treeIiiSt9_IdentityIiESt4lessIiESaIiEE11equal_rangeERKi
 .text._ZNSt8_Rb_treeIiSt4pairIKiP10CUDTSocketESt10_Select1stIS4_ESt4lessIiESaIS4_EE8_S_valueEPKSt18_Rb_tree_node_base
                0x0000000000045523       0x12 api.o
                0x0000000000045523                _ZNSt8_Rb_treeIiSt4pairIKiP10CUDTSocketESt10_Select1stIS4_ESt4lessIiESaIS4_EE8_S_valueEPKSt18_Rb_tree_node_base
 .text._ZNSt8_Rb_treeIiSt4pairIKiP10CUDTSocketESt10_Select1stIS4_ESt4lessIiESaIS4_EE6_S_keyEPKSt18_Rb_tree_node_base
                0x0000000000045535       0x23 api.o
                0x0000000000045535                _ZNSt8_Rb_treeIiSt4pairIKiP10CUDTSocketESt10_Select1stIS4_ESt4lessIiESaIS4_EE6_S_keyEPKSt18_Rb_tree_node_base
 .text._ZNSt4pairISt17_Rb_tree_iteratorIS_IKiP10CUDTSocketEES5_EC1ERKS5_S8_
                0x0000000000045558       0x2f api.o
                0x0000000000045558                _ZNSt4pairISt17_Rb_tree_iteratorIS_IKiP10CUDTSocketEES5_EC1ERKS5_S8_
 *fill*         0x0000000000045587        0x1 90909090
 .text._ZN9__gnu_cxx13new_allocatorIP10CUDTSocketED2Ev
                0x0000000000045588        0xa api.o
                0x0000000000045588                _ZN9__gnu_cxx13new_allocatorIP10CUDTSocketED2Ev
 .text._ZNSaIP10CUDTSocketED2Ev
                0x0000000000045592       0x17 api.o
                0x0000000000045592                _ZNSaIP10CUDTSocketED2Ev
 *fill*         0x00000000000455a9        0x1 90909090
 .text._ZNSt12_Vector_baseIP10CUDTSocketSaIS1_EE12_Vector_implD1Ev
                0x00000000000455aa       0x17 api.o
                0x00000000000455aa                _ZNSt12_Vector_baseIP10CUDTSocketSaIS1_EE12_Vector_implD1Ev
 .text._ZNSt12__miter_baseIPP10CUDTSocketLb0EE3__bES2_
                0x00000000000455c1        0xe api.o
                0x00000000000455c1                _ZNSt12__miter_baseIPP10CUDTSocketLb0EE3__bES2_
 *fill*         0x00000000000455cf        0x1 90909090
 .text._ZNKSt6vectorIP10CUDTSocketSaIS1_EE4sizeEv
                0x00000000000455d0       0x29 api.o
                0x00000000000455d0                _ZNKSt6vectorIP10CUDTSocketSaIS1_EE4sizeEv
 .text._ZNSt8_Rb_treeIiiSt9_IdentityIiESt4lessIiESaIiEE7_S_leftEPKSt18_Rb_tree_node_base
                0x00000000000455f9       0x12 api.o
                0x00000000000455f9                _ZNSt8_Rb_treeIiiSt9_IdentityIiESt4lessIiESaIiEE7_S_leftEPKSt18_Rb_tree_node_base
 *fill*         0x000000000004560b        0x1 90909090
 .text._ZNSt6vectorIiSaIiEE15_M_erase_at_endEPi
                0x000000000004560c       0x3b api.o
                0x000000000004560c                _ZNSt6vectorIiSaIiEE15_M_erase_at_endEPi
 *fill*         0x0000000000045647        0x1 90909090
 .text._ZNSt6vectorIiSaIiEE5clearEv
                0x0000000000045648       0x1e api.o
                0x0000000000045648                _ZNSt6vectorIiSaIiEE5clearEv
 .text._ZNSt12__niter_baseIN9__gnu_cxx17__normal_iteratorIP12CMultiplexerSt6vectorIS2_SaIS2_EEEELb1EE3__bES7_
                0x0000000000045666       0x1a api.o
                0x0000000000045666                _ZNSt12__niter_baseIN9__gnu_cxx17__normal_iteratorIP12CMultiplexerSt6vectorIS2_SaIS2_EEEELb1EE3__bES7_
 .text._ZNSt12__miter_baseIP12CMultiplexerLb0EE3__bES1_
                0x0000000000045680        0xe api.o
                0x0000000000045680                _ZNSt12__miter_baseIP12CMultiplexerLb0EE3__bES1_
 .text._ZNKSt6vectorI12CMultiplexerSaIS0_EE4sizeEv
                0x000000000004568e       0x3a api.o
                0x000000000004568e                _ZNKSt6vectorI12CMultiplexerSaIS0_EE4sizeEv
 .text._ZN9__gnu_cxx13new_allocatorISt13_Rb_tree_nodeISt4pairIKiP10CUDTSocketEEEC2Ev
                0x00000000000456c8        0xa api.o
                0x00000000000456c8                _ZN9__gnu_cxx13new_allocatorISt13_Rb_tree_nodeISt4pairIKiP10CUDTSocketEEEC2Ev
 .text._ZNSaISt13_Rb_tree_nodeISt4pairIKiP10CUDTSocketEEEC2Ev
                0x00000000000456d2       0x17 api.o
                0x00000000000456d2                _ZNSaISt13_Rb_tree_nodeISt4pairIKiP10CUDTSocketEEEC2Ev
 *fill*         0x00000000000456e9        0x1 90909090
 .text._ZNSt8_Rb_treeIiSt4pairIKiP10CUDTSocketESt10_Select1stIS4_ESt4lessIiESaIS4_EE13_Rb_tree_implIS8_Lb0EEC1Ev
                0x00000000000456ea       0x5b api.o
                0x00000000000456ea                _ZNSt8_Rb_treeIiSt4pairIKiP10CUDTSocketESt10_Select1stIS4_ESt4lessIiESaIS4_EE13_Rb_tree_implIS8_Lb0EEC1Ev
 *fill*         0x0000000000045745        0x1 90909090
 .text._ZNSt8_Rb_treeIiSt4pairIKiP10CUDTSocketESt10_Select1stIS4_ESt4lessIiESaIS4_EEC1Ev
                0x0000000000045746       0x17 api.o
                0x0000000000045746                _ZNSt8_Rb_treeIiSt4pairIKiP10CUDTSocketESt10_Select1stIS4_ESt4lessIiESaIS4_EEC1Ev
 *fill*         0x000000000004575d        0x1 90909090
 .text._ZNSt3mapIiP10CUDTSocketSt4lessIiESaISt4pairIKiS1_EEEC1Ev
                0x000000000004575e       0x17 api.o
                0x000000000004575e                _ZNSt3mapIiP10CUDTSocketSt4lessIiESaISt4pairIKiS1_EEEC1Ev
 *fill*         0x0000000000045775        0x1 90909090
 .text._ZNKSt8_Rb_treeIiSt4pairIKiP10CUDTSocketESt10_Select1stIS4_ESt4lessIiESaIS4_EE21_M_get_Node_allocatorEv
                0x0000000000045776        0xe api.o
                0x0000000000045776                _ZNKSt8_Rb_treeIiSt4pairIKiP10CUDTSocketESt10_Select1stIS4_ESt4lessIiESaIS4_EE21_M_get_Node_allocatorEv
 .text._ZN9__gnu_cxx13new_allocatorISt4pairIKiP10CUDTSocketEED2Ev
                0x0000000000045784        0xa api.o
                0x0000000000045784                _ZN9__gnu_cxx13new_allocatorISt4pairIKiP10CUDTSocketEED2Ev
 .text._ZNSaISt4pairIKiP10CUDTSocketEED1Ev
                0x000000000004578e       0x17 api.o
                0x000000000004578e                _ZNSaISt4pairIKiP10CUDTSocketEED1Ev
 *fill*         0x00000000000457a5        0x1 90909090
 .text._ZN9__gnu_cxx13new_allocatorI12CMultiplexerEC2Ev
                0x00000000000457a6        0xa api.o
                0x00000000000457a6                _ZN9__gnu_cxx13new_allocatorI12CMultiplexerEC2Ev
 .text._ZNSaI12CMultiplexerEC2Ev
                0x00000000000457b0       0x17 api.o
                0x00000000000457b0                _ZNSaI12CMultiplexerEC2Ev
 *fill*         0x00000000000457c7        0x1 90909090
 .text._ZNSt12_Vector_baseI12CMultiplexerSaIS0_EE12_Vector_implC1Ev
                0x00000000000457c8       0x3a api.o
                0x00000000000457c8                _ZNSt12_Vector_baseI12CMultiplexerSaIS0_EE12_Vector_implC1Ev
 .text._ZNSt12_Vector_baseI12CMultiplexerSaIS0_EEC2Ev
                0x0000000000045802       0x17 api.o
                0x0000000000045802                _ZNSt12_Vector_baseI12CMultiplexerSaIS0_EEC2Ev
 *fill*         0x0000000000045819        0x1 90909090
 .text._ZNSt6vectorI12CMultiplexerSaIS0_EEC1Ev
                0x000000000004581a       0x17 api.o
                0x000000000004581a                _ZNSt6vectorI12CMultiplexerSaIS0_EEC1Ev
 *fill*         0x0000000000045831        0x1 90909090
 .text._ZNSt4pairISt17_Rb_tree_iteratorIS_IKiP10CUDTSocketEEbEC1ERKS5_RKb
                0x0000000000045832       0x2e api.o
                0x0000000000045832                _ZNSt4pairISt17_Rb_tree_iteratorIS_IKiP10CUDTSocketEEbEC1ERKS5_RKb
 .text._ZNSt8_Rb_treeIiSt4pairIKiP10CUDTSocketESt10_Select1stIS4_ESt4lessIiESaIS4_EE8_S_valueEPKSt13_Rb_tree_nodeIS4_E
                0x0000000000045860       0x12 api.o
                0x0000000000045860                _ZNSt8_Rb_treeIiSt4pairIKiP10CUDTSocketESt10_Select1stIS4_ESt4lessIiESaIS4_EE8_S_valueEPKSt13_Rb_tree_nodeIS4_E
 .text._ZNSt8_Rb_treeIiSt4pairIKiP10CUDTSocketESt10_Select1stIS4_ESt4lessIiESaIS4_EE6_S_keyEPKSt13_Rb_tree_nodeIS4_E
                0x0000000000045872       0x23 api.o
                0x0000000000045872                _ZNSt8_Rb_treeIiSt4pairIKiP10CUDTSocketESt10_Select1stIS4_ESt4lessIiESaIS4_EE6_S_keyEPKSt13_Rb_tree_nodeIS4_E
 *fill*         0x0000000000045895        0x1 90909090
 .text._ZNSt8_Rb_treeIiSt4pairIKiP10CUDTSocketESt10_Select1stIS4_ESt4lessIiESaIS4_EE14_M_lower_boundEPSt13_Rb_tree_nodeIS4_ESD_RS1_
                0x0000000000045896       0x78 api.o
                0x0000000000045896                _ZNSt8_Rb_treeIiSt4pairIKiP10CUDTSocketESt10_Select1stIS4_ESt4lessIiESaIS4_EE14_M_lower_boundEPSt13_Rb_tree_nodeIS4_ESD_RS1_
 .text._ZNSt8_Rb_treeIiSt4pairIKiP10CUDTSocketESt10_Select1stIS4_ESt4lessIiESaIS4_EE11lower_boundERS1_
                0x000000000004590e       0x40 api.o
                0x000000000004590e                _ZNSt8_Rb_treeIiSt4pairIKiP10CUDTSocketESt10_Select1stIS4_ESt4lessIiESaIS4_EE11lower_boundERS1_
 .text._ZNSt3mapIiP10CUDTSocketSt4lessIiESaISt4pairIKiS1_EEE11lower_boundERS5_
                0x000000000004594e       0x1f api.o
                0x000000000004594e                _ZNSt3mapIiP10CUDTSocketSt4lessIiESaISt4pairIKiS1_EEE11lower_boundERS5_
 *fill*         0x000000000004596d        0x1 90909090
 .text._ZNSt8_Rb_treeIiSt4pairIKiP10CUDTSocketESt10_Select1stIS4_ESt4lessIiESaIS4_EE4findERS1_
                0x000000000004596e       0x9a api.o
                0x000000000004596e                _ZNSt8_Rb_treeIiSt4pairIKiP10CUDTSocketESt10_Select1stIS4_ESt4lessIiESaIS4_EE4findERS1_
 .text._ZNSt3mapIiP10CUDTSocketSt4lessIiESaISt4pairIKiS1_EEE4findERS5_
                0x0000000000045a08       0x1f api.o
                0x0000000000045a08                _ZNSt3mapIiP10CUDTSocketSt4lessIiESaISt4pairIKiS1_EEE4findERS5_
 *fill*         0x0000000000045a27        0x1 90909090
 .text._ZNSt8_Rb_treeIiSt4pairIKiP10CUDTSocketESt10_Select1stIS4_ESt4lessIiESaIS4_EE14_M_upper_boundEPSt13_Rb_tree_nodeIS4_ESD_RS1_
                0x0000000000045a28       0x75 api.o
                0x0000000000045a28                _ZNSt8_Rb_treeIiSt4pairIKiP10CUDTSocketESt10_Select1stIS4_ESt4lessIiESaIS4_EE14_M_upper_boundEPSt13_Rb_tree_nodeIS4_ESD_RS1_
 *fill*         0x0000000000045a9d        0x1 90909090
 .text._ZNSt8_Rb_treeIiSt4pairIKiP10CUDTSocketESt10_Select1stIS4_ESt4lessIiESaIS4_EE11equal_rangeERS1_
                0x0000000000045a9e      0x1a5 api.o
                0x0000000000045a9e                _ZNSt8_Rb_treeIiSt4pairIKiP10CUDTSocketESt10_Select1stIS4_ESt4lessIiESaIS4_EE11equal_rangeERS1_
 *fill*         0x0000000000045c43        0x1 90909090
 .text._ZN9__gnu_cxx13new_allocatorIP10CUDTSocketEC2Ev
                0x0000000000045c44        0xa api.o
                0x0000000000045c44                _ZN9__gnu_cxx13new_allocatorIP10CUDTSocketEC2Ev
 .text._ZNSaIP10CUDTSocketEC2Ev
                0x0000000000045c4e       0x17 api.o
                0x0000000000045c4e                _ZNSaIP10CUDTSocketEC2Ev
 *fill*         0x0000000000045c65        0x1 90909090
 .text._ZNSt12_Vector_baseIP10CUDTSocketSaIS1_EE12_Vector_implC1Ev
                0x0000000000045c66       0x3a api.o
                0x0000000000045c66                _ZNSt12_Vector_baseIP10CUDTSocketSaIS1_EE12_Vector_implC1Ev
 .text._ZNSt12_Vector_baseIP10CUDTSocketSaIS1_EEC2Ev
                0x0000000000045ca0       0x17 api.o
                0x0000000000045ca0                _ZNSt12_Vector_baseIP10CUDTSocketSaIS1_EEC2Ev
 *fill*         0x0000000000045cb7        0x1 90909090
 .text._ZNSt6vectorIP10CUDTSocketSaIS1_EEC1Ev
                0x0000000000045cb8       0x17 api.o
                0x0000000000045cb8                _ZNSt6vectorIP10CUDTSocketSaIS1_EEC1Ev
 .text._ZNSt12__niter_baseIPP10CUDTSocketLb0EE3__bES2_
                0x0000000000045ccf        0xe api.o
                0x0000000000045ccf                _ZNSt12__niter_baseIPP10CUDTSocketLb0EE3__bES2_
 *fill*         0x0000000000045cdd        0x1 90909090
 .text._ZNKSt12_Vector_baseIP10CUDTSocketSaIS1_EE19_M_get_Tp_allocatorEv
                0x0000000000045cde        0xe api.o
                0x0000000000045cde                _ZNKSt12_Vector_baseIP10CUDTSocketSaIS1_EE19_M_get_Tp_allocatorEv
 .text._ZNK9__gnu_cxx13new_allocatorIP10CUDTSocketE8max_sizeEv
                0x0000000000045cec       0x14 api.o
                0x0000000000045cec                _ZNK9__gnu_cxx13new_allocatorIP10CUDTSocketE8max_sizeEv
 .text._ZNKSt6vectorIP10CUDTSocketSaIS1_EE8max_sizeEv
                0x0000000000045d00       0x1f api.o
                0x0000000000045d00                _ZNKSt6vectorIP10CUDTSocketSaIS1_EE8max_sizeEv
 .text._ZNSt12__niter_baseIP12CMultiplexerLb0EE3__bES1_
                0x0000000000045d1f        0xe api.o
                0x0000000000045d1f                _ZNSt12__niter_baseIP12CMultiplexerLb0EE3__bES1_
 *fill*         0x0000000000045d2d        0x1 90909090
 .text._ZNKSt12_Vector_baseI12CMultiplexerSaIS0_EE19_M_get_Tp_allocatorEv
                0x0000000000045d2e        0xe api.o
                0x0000000000045d2e                _ZNKSt12_Vector_baseI12CMultiplexerSaIS0_EE19_M_get_Tp_allocatorEv
 .text._ZNK9__gnu_cxx13new_allocatorI12CMultiplexerE8max_sizeEv
                0x0000000000045d3c       0x14 api.o
                0x0000000000045d3c                _ZNK9__gnu_cxx13new_allocatorI12CMultiplexerE8max_sizeEv
 .text._ZNKSt6vectorI12CMultiplexerSaIS0_EE8max_sizeEv
                0x0000000000045d50       0x1f api.o
                0x0000000000045d50                _ZNKSt6vectorI12CMultiplexerSaIS0_EE8max_sizeEv
 *fill*         0x0000000000045d6f        0x1 90909090
 .text._ZN9__gnu_cxx13new_allocatorISt4pairIKiP10CUDTSocketEEC2Ev
                0x0000000000045d70        0xa api.o
                0x0000000000045d70                _ZN9__gnu_cxx13new_allocatorISt4pairIKiP10CUDTSocketEEC2Ev
 .text._ZNSaISt4pairIKiP10CUDTSocketEEC1ISt13_Rb_tree_nodeIS3_EEERKSaIT_E
                0x0000000000045d7a       0x1b api.o
                0x0000000000045d7a                _ZNSaISt4pairIKiP10CUDTSocketEEC1ISt13_Rb_tree_nodeIS3_EEERKSaIT_E
 *fill*         0x0000000000045d95        0x1 90909090
 .text._ZNKSt8_Rb_treeIiSt4pairIKiP10CUDTSocketESt10_Select1stIS4_ESt4lessIiESaIS4_EE13get_allocatorEv
                0x0000000000045d96       0x38 api.o
                0x0000000000045d96                _ZNKSt8_Rb_treeIiSt4pairIKiP10CUDTSocketESt10_Select1stIS4_ESt4lessIiESaIS4_EE13get_allocatorEv
 .text._ZN9__gnu_cxx13new_allocatorISt4pairIKiP10CUDTSocketEE9constructEPS5_RKS5_
                0x0000000000045dce       0x49 api.o
                0x0000000000045dce                _ZN9__gnu_cxx13new_allocatorISt4pairIKiP10CUDTSocketEE9constructEPS5_RKS5_
 *fill*         0x0000000000045e17        0x1 90909090
 .text._ZNK9__gnu_cxx13new_allocatorISt13_Rb_tree_nodeISt4pairIKiP10CUDTSocketEEE8max_sizeEv
                0x0000000000045e18       0x14 api.o
                0x0000000000045e18                _ZNK9__gnu_cxx13new_allocatorISt13_Rb_tree_nodeISt4pairIKiP10CUDTSocketEEE8max_sizeEv
 .text._ZN9__gnu_cxx13new_allocatorISt13_Rb_tree_nodeISt4pairIKiP10CUDTSocketEEE10deallocateEPS7_m
                0x0000000000045e2c       0x1f api.o
                0x0000000000045e2c                _ZN9__gnu_cxx13new_allocatorISt13_Rb_tree_nodeISt4pairIKiP10CUDTSocketEEE10deallocateEPS7_m
 *fill*         0x0000000000045e4b        0x1 90909090
 .text._ZNSt8_Rb_treeIiSt4pairIKiP10CUDTSocketESt10_Select1stIS4_ESt4lessIiESaIS4_EE11_M_put_nodeEPSt13_Rb_tree_nodeIS4_E
                0x0000000000045e4c       0x27 api.o
                0x0000000000045e4c                _ZNSt8_Rb_treeIiSt4pairIKiP10CUDTSocketESt10_Select1stIS4_ESt4lessIiESaIS4_EE11_M_put_nodeEPSt13_Rb_tree_nodeIS4_E
 *fill*         0x0000000000045e73        0x1 90909090
 .text._ZNSt8_Rb_treeIiSt4pairIKiP10CUDTSocketESt10_Select1stIS4_ESt4lessIiESaIS4_EE15_M_destroy_nodeEPSt13_Rb_tree_nodeIS4_E
                0x0000000000045e74       0x4f api.o
                0x0000000000045e74                _ZNSt8_Rb_treeIiSt4pairIKiP10CUDTSocketESt10_Select1stIS4_ESt4lessIiESaIS4_EE15_M_destroy_nodeEPSt13_Rb_tree_nodeIS4_E
 *fill*         0x0000000000045ec3        0x1 90909090
 .text._ZNSt8_Rb_treeIiSt4pairIKiP10CUDTSocketESt10_Select1stIS4_ESt4lessIiESaIS4_EE8_M_eraseEPSt13_Rb_tree_nodeIS4_E
                0x0000000000045ec4       0x52 api.o
                0x0000000000045ec4                _ZNSt8_Rb_treeIiSt4pairIKiP10CUDTSocketESt10_Select1stIS4_ESt4lessIiESaIS4_EE8_M_eraseEPSt13_Rb_tree_nodeIS4_E
 .text._ZNSt8_Rb_treeIiSt4pairIKiP10CUDTSocketESt10_Select1stIS4_ESt4lessIiESaIS4_EE5clearEv
                0x0000000000045f16       0x75 api.o
                0x0000000000045f16                _ZNSt8_Rb_treeIiSt4pairIKiP10CUDTSocketESt10_Select1stIS4_ESt4lessIiESaIS4_EE5clearEv
 *fill*         0x0000000000045f8b        0x1 90909090
 .text._ZNSt3mapIiP10CUDTSocketSt4lessIiESaISt4pairIKiS1_EEE5clearEv
                0x0000000000045f8c       0x17 api.o
                0x0000000000045f8c                _ZNSt3mapIiP10CUDTSocketSt4lessIiESaISt4pairIKiS1_EEE5clearEv
 *fill*         0x0000000000045fa3        0x1 90909090
 .text._ZNSt8_Rb_treeIiSt4pairIKiP10CUDTSocketESt10_Select1stIS4_ESt4lessIiESaIS4_EED1Ev
                0x0000000000045fa4       0x6a api.o
                0x0000000000045fa4                _ZNSt8_Rb_treeIiSt4pairIKiP10CUDTSocketESt10_Select1stIS4_ESt4lessIiESaIS4_EED1Ev
 .text._ZNSt3mapIiP10CUDTSocketSt4lessIiESaISt4pairIKiS1_EEED1Ev
                0x000000000004600e       0x17 api.o
                0x000000000004600e                _ZNSt3mapIiP10CUDTSocketSt4lessIiESaISt4pairIKiS1_EEED1Ev
 *fill*         0x0000000000046025        0x1 90909090
 .text._ZN9__gnu_cxx13new_allocatorI12CMultiplexerE10deallocateEPS1_m
                0x0000000000046026       0x1f api.o
                0x0000000000046026                _ZN9__gnu_cxx13new_allocatorI12CMultiplexerE10deallocateEPS1_m
 *fill*         0x0000000000046045        0x1 90909090
 .text._ZNSt12_Vector_baseI12CMultiplexerSaIS0_EE13_M_deallocateEPS0_m
                0x0000000000046046       0x31 api.o
                0x0000000000046046                _ZNSt12_Vector_baseI12CMultiplexerSaIS0_EE13_M_deallocateEPS0_m
 *fill*         0x0000000000046077        0x1 90909090
 .text._ZNSt12_Vector_baseI12CMultiplexerSaIS0_EED2Ev
                0x0000000000046078       0x5a api.o
                0x0000000000046078                _ZNSt12_Vector_baseI12CMultiplexerSaIS0_EED2Ev
 .text._ZNSt6vectorI12CMultiplexerSaIS0_EED1Ev
                0x00000000000460d2       0x37 api.o
                0x00000000000460d2                _ZNSt6vectorI12CMultiplexerSaIS0_EED1Ev
 *fill*         0x0000000000046109        0x1 90909090
 .text._ZNSt8_Rb_treeIiiSt9_IdentityIiESt4lessIiESaIiEE5clearEv
                0x000000000004610a       0x75 api.o
                0x000000000004610a                _ZNSt8_Rb_treeIiiSt9_IdentityIiESt4lessIiESaIiEE5clearEv
 *fill*         0x000000000004617f        0x1 90909090
 .text._ZN9__gnu_cxx13new_allocatorIP10CUDTSocketE10deallocateEPS2_m
                0x0000000000046180       0x1f api.o
                0x0000000000046180                _ZN9__gnu_cxx13new_allocatorIP10CUDTSocketE10deallocateEPS2_m
 *fill*         0x000000000004619f        0x1 90909090
 .text._ZNSt12_Vector_baseIP10CUDTSocketSaIS1_EE13_M_deallocateEPS1_m
                0x00000000000461a0       0x31 api.o
                0x00000000000461a0                _ZNSt12_Vector_baseIP10CUDTSocketSaIS1_EE13_M_deallocateEPS1_m
 *fill*         0x00000000000461d1        0x1 90909090
 .text._ZNSt12_Vector_baseIP10CUDTSocketSaIS1_EED2Ev
                0x00000000000461d2       0x49 api.o
                0x00000000000461d2                _ZNSt12_Vector_baseIP10CUDTSocketSaIS1_EED2Ev
 *fill*         0x000000000004621b        0x1 90909090
 .text._ZNSt6vectorIP10CUDTSocketSaIS1_EED1Ev
                0x000000000004621c       0x37 api.o
                0x000000000004621c                _ZNSt6vectorIP10CUDTSocketSaIS1_EED1Ev
 *fill*         0x0000000000046253        0x1 90909090
 .text._ZNSt23_Rb_tree_const_iteratorISt4pairIKiP10CUDTSocketEEmmEv
                0x0000000000046254       0x28 api.o
                0x0000000000046254                _ZNSt23_Rb_tree_const_iteratorISt4pairIKiP10CUDTSocketEEmmEv
 .text._ZNSt23_Rb_tree_const_iteratorIiEmmEv
                0x000000000004627c       0x28 api.o
                0x000000000004627c                _ZNSt23_Rb_tree_const_iteratorIiEmmEv
 .text._ZNSt23_Rb_tree_const_iteratorISt4pairIKiP10CUDTSocketEEppEv
                0x00000000000462a4       0x28 api.o
                0x00000000000462a4                _ZNSt23_Rb_tree_const_iteratorISt4pairIKiP10CUDTSocketEEppEv
 .text._ZN9__gnu_cxx13new_allocatorISt13_Rb_tree_nodeISt4pairIKiP10CUDTSocketEEE8allocateEmPKv
                0x00000000000462cc       0x51 api.o
                0x00000000000462cc                _ZN9__gnu_cxx13new_allocatorISt13_Rb_tree_nodeISt4pairIKiP10CUDTSocketEEE8allocateEmPKv
 *fill*         0x000000000004631d        0x1 90909090
 .text._ZNSt8_Rb_treeIiSt4pairIKiP10CUDTSocketESt10_Select1stIS4_ESt4lessIiESaIS4_EE11_M_get_nodeEv
                0x000000000004631e       0x24 api.o
                0x000000000004631e                _ZNSt8_Rb_treeIiSt4pairIKiP10CUDTSocketESt10_Select1stIS4_ESt4lessIiESaIS4_EE11_M_get_nodeEv
 .text._ZNSt8_Rb_treeIiSt4pairIKiP10CUDTSocketESt10_Select1stIS4_ESt4lessIiESaIS4_EE14_M_create_nodeERKS4_
                0x0000000000046342       0x57 api.o
                0x0000000000046342                _ZNSt8_Rb_treeIiSt4pairIKiP10CUDTSocketESt10_Select1stIS4_ESt4lessIiESaIS4_EE14_M_create_nodeERKS4_
 *fill*         0x0000000000046399        0x1 90909090
 .text._ZNSt8_Rb_treeIiSt4pairIKiP10CUDTSocketESt10_Select1stIS4_ESt4lessIiESaIS4_EE10_M_insert_EPKSt18_Rb_tree_node_baseSD_RKS4_
                0x000000000004639a       0xc2 api.o
                0x000000000004639a                _ZNSt8_Rb_treeIiSt4pairIKiP10CUDTSocketESt10_Select1stIS4_ESt4lessIiESaIS4_EE10_M_insert_EPKSt18_Rb_tree_node_baseSD_RKS4_
 .text._ZN9__gnu_cxx13new_allocatorI12CMultiplexerE8allocateEmPKv
                0x000000000004645c       0x57 api.o
                0x000000000004645c                _ZN9__gnu_cxx13new_allocatorI12CMultiplexerE8allocateEmPKv
 *fill*         0x00000000000464b3        0x1 90909090
 .text._ZNSt12_Vector_baseI12CMultiplexerSaIS0_EE11_M_allocateEm
                0x00000000000464b4       0x40 api.o
                0x00000000000464b4                _ZNSt12_Vector_baseI12CMultiplexerSaIS0_EE11_M_allocateEm
 .text._ZNSt8_Rb_treeIiiSt9_IdentityIiESt4lessIiESaIiEE13_M_clone_nodeEPKSt13_Rb_tree_nodeIiE
                0x00000000000464f4       0x4f api.o
                0x00000000000464f4                _ZNSt8_Rb_treeIiiSt9_IdentityIiESt4lessIiESaIiEE13_M_clone_nodeEPKSt13_Rb_tree_nodeIiE
 *fill*         0x0000000000046543        0x1 90909090
 .text._ZNSt8_Rb_treeIiiSt9_IdentityIiESt4lessIiESaIiEE7_M_copyEPKSt13_Rb_tree_nodeIiEPS7_
                0x0000000000046544      0x147 api.o
                0x0000000000046544                _ZNSt8_Rb_treeIiiSt9_IdentityIiESt4lessIiESaIiEE7_M_copyEPKSt13_Rb_tree_nodeIiEPS7_
 *fill*         0x000000000004668b        0x1 90909090
 .text._ZNSt8_Rb_treeIiiSt9_IdentityIiESt4lessIiESaIiEEaSERKS5_
                0x000000000004668c       0xd2 api.o
                0x000000000004668c                _ZNSt8_Rb_treeIiiSt9_IdentityIiESt4lessIiESaIiEEaSERKS5_
 .text._ZNSt3setIiSt4lessIiESaIiEEaSERKS3_
                0x000000000004675e       0x23 api.o
                0x000000000004675e                _ZNSt3setIiSt4lessIiESaIiEEaSERKS3_
 *fill*         0x0000000000046781        0x1 90909090
 .text._ZN9__gnu_cxx13new_allocatorIP10CUDTSocketE8allocateEmPKv
                0x0000000000046782       0x49 api.o
                0x0000000000046782                _ZN9__gnu_cxx13new_allocatorIP10CUDTSocketE8allocateEmPKv
 *fill*         0x00000000000467cb        0x1 90909090
 .text._ZNSt12_Vector_baseIP10CUDTSocketSaIS1_EE11_M_allocateEm
                0x00000000000467cc       0x40 api.o
                0x00000000000467cc                _ZNSt12_Vector_baseIP10CUDTSocketSaIS1_EE11_M_allocateEm
 .text._ZNSt17_Rb_tree_iteratorISt4pairIKiP10CUDTSocketEEmmEv
                0x000000000004680c       0x28 api.o
                0x000000000004680c                _ZNSt17_Rb_tree_iteratorISt4pairIKiP10CUDTSocketEEmmEv
 .text._ZNSt8_Rb_treeIiSt4pairIKiP10CUDTSocketESt10_Select1stIS4_ESt4lessIiESaIS4_EE16_M_insert_uniqueERKS4_
                0x0000000000046834      0x206 api.o
                0x0000000000046834                _ZNSt8_Rb_treeIiSt4pairIKiP10CUDTSocketESt10_Select1stIS4_ESt4lessIiESaIS4_EE16_M_insert_uniqueERKS4_
 .text._ZNSt8_Rb_treeIiSt4pairIKiP10CUDTSocketESt10_Select1stIS4_ESt4lessIiESaIS4_EE17_M_insert_unique_ESt23_Rb_tree_const_iteratorIS4_ERKS4_
                0x0000000000046a3a      0x3b6 api.o
                0x0000000000046a3a                _ZNSt8_Rb_treeIiSt4pairIKiP10CUDTSocketESt10_Select1stIS4_ESt4lessIiESaIS4_EE17_M_insert_unique_ESt23_Rb_tree_const_iteratorIS4_ERKS4_
 .text._ZNSt3mapIiP10CUDTSocketSt4lessIiESaISt4pairIKiS1_EEE6insertESt17_Rb_tree_iteratorIS6_ERKS6_
                0x0000000000046df0       0x34 api.o
                0x0000000000046df0                _ZNSt3mapIiP10CUDTSocketSt4lessIiESaISt4pairIKiS1_EEE6insertESt17_Rb_tree_iteratorIS6_ERKS6_
 .text._ZNSt3mapIiP10CUDTSocketSt4lessIiESaISt4pairIKiS1_EEEixERS5_
                0x0000000000046e24       0xbd api.o
                0x0000000000046e24                _ZNSt3mapIiP10CUDTSocketSt4lessIiESaISt4pairIKiS1_EEEixERS5_
 *fill*         0x0000000000046ee1        0x1 90909090
 .text._ZNSt8_Rb_treeIiiSt9_IdentityIiESt4lessIiESaIiEE17_M_insert_unique_ESt23_Rb_tree_const_iteratorIiERKi
                0x0000000000046ee2      0x3b6 api.o
                0x0000000000046ee2                _ZNSt8_Rb_treeIiiSt9_IdentityIiESt4lessIiESaIiEE17_M_insert_unique_ESt23_Rb_tree_const_iteratorIiERKi
 .text._ZNSt3setIiSt4lessIiESaIiEE6insertESt23_Rb_tree_const_iteratorIiERKi
                0x0000000000047298       0x3c api.o
                0x0000000000047298                _ZNSt3setIiSt4lessIiESaIiEE6insertESt23_Rb_tree_const_iteratorIiERKi
 .text._ZNSt17_Rb_tree_iteratorISt4pairIKiP10CUDTSocketEEppEv
                0x00000000000472d4       0x28 api.o
                0x00000000000472d4                _ZNSt17_Rb_tree_iteratorISt4pairIKiP10CUDTSocketEEppEv
 .text._ZNSt17_Rb_tree_iteratorISt4pairIKiP10CUDTSocketEEppEi
                0x00000000000472fc       0x36 api.o
                0x00000000000472fc                _ZNSt17_Rb_tree_iteratorISt4pairIKiP10CUDTSocketEEppEi
 .text._ZNSt17_Rb_tree_iteratorIiEppEi
                0x0000000000047332       0x36 api.o
                0x0000000000047332                _ZNSt17_Rb_tree_iteratorIiEppEi
 .text._ZNSt20__copy_move_backwardILb0ELb1ESt26random_access_iterator_tagE13__copy_move_bI12CMultiplexerEEPT_PKS4_S7_S5_
                0x0000000000047368       0xa5 api.o
                0x0000000000047368                _ZNSt20__copy_move_backwardILb0ELb1ESt26random_access_iterator_tagE13__copy_move_bI12CMultiplexerEEPT_PKS4_S7_S5_
 .text._ZSt22__copy_move_backward_aILb0EP12CMultiplexerS1_ET1_T0_S3_S2_
                0x000000000004740d       0x2b api.o
                0x000000000004740d                _ZSt22__copy_move_backward_aILb0EP12CMultiplexerS1_ET1_T0_S3_S2_
 .text._ZSt23__copy_move_backward_a2ILb0EP12CMultiplexerS1_ET1_T0_S3_S2_
                0x0000000000047438       0x4f api.o
                0x0000000000047438                _ZSt23__copy_move_backward_a2ILb0EP12CMultiplexerS1_ET1_T0_S3_S2_
 .text._ZSt13copy_backwardIP12CMultiplexerS1_ET0_T_S3_S2_
                0x0000000000047487       0x40 api.o
                0x0000000000047487                _ZSt13copy_backwardIP12CMultiplexerS1_ET0_T_S3_S2_
 .text._ZNSt11__copy_moveILb0ELb1ESt26random_access_iterator_tagE8__copy_mI12CMultiplexerEEPT_PKS4_S7_S5_
                0x00000000000474c7       0x9f api.o
                0x00000000000474c7                _ZNSt11__copy_moveILb0ELb1ESt26random_access_iterator_tagE8__copy_mI12CMultiplexerEEPT_PKS4_S7_S5_
 .text._ZSt13__copy_move_aILb0EP12CMultiplexerS1_ET1_T0_S3_S2_
                0x0000000000047566       0x2b api.o
                0x0000000000047566                _ZSt13__copy_move_aILb0EP12CMultiplexerS1_ET1_T0_S3_S2_
 .text._ZSt14__copy_move_a2ILb0EP12CMultiplexerS1_ET1_T0_S3_S2_
                0x0000000000047591       0x4f api.o
                0x0000000000047591                _ZSt14__copy_move_a2ILb0EP12CMultiplexerS1_ET1_T0_S3_S2_
 .text._ZSt4copyIP12CMultiplexerS1_ET0_T_S3_S2_
                0x00000000000475e0       0x40 api.o
                0x00000000000475e0                _ZSt4copyIP12CMultiplexerS1_ET0_T_S3_S2_
 .text._ZNSt20__uninitialized_copyILb1EE18uninitialized_copyIP12CMultiplexerS3_EET0_T_S5_S4_
                0x0000000000047620       0x27 api.o
                0x0000000000047620                _ZNSt20__uninitialized_copyILb1EE18uninitialized_copyIP12CMultiplexerS3_EET0_T_S5_S4_
 .text._ZSt18uninitialized_copyIP12CMultiplexerS1_ET0_T_S3_S2_
                0x0000000000047647       0x27 api.o
                0x0000000000047647                _ZSt18uninitialized_copyIP12CMultiplexerS1_ET0_T_S3_S2_
 .text._ZSt22__uninitialized_copy_aIP12CMultiplexerS1_S0_ET0_T_S3_S2_RSaIT1_E
                0x000000000004766e       0x2b api.o
                0x000000000004766e                _ZSt22__uninitialized_copy_aIP12CMultiplexerS1_S0_ET0_T_S3_S2_RSaIT1_E
 .text._ZSt22__uninitialized_move_aIP12CMultiplexerS1_SaIS0_EET0_T_S4_S3_RT1_
                0x0000000000047699       0x2f api.o
                0x0000000000047699                _ZSt22__uninitialized_move_aIP12CMultiplexerS1_SaIS0_EET0_T_S4_S3_RT1_
 .text._ZSt14__copy_move_a2ILb0EN9__gnu_cxx17__normal_iteratorIP12CMultiplexerSt6vectorIS2_SaIS2_EEEES7_ET1_T0_S9_S8_
                0x00000000000476c8       0x64 api.o
                0x00000000000476c8                _ZSt14__copy_move_a2ILb0EN9__gnu_cxx17__normal_iteratorIP12CMultiplexerSt6vectorIS2_SaIS2_EEEES7_ET1_T0_S9_S8_
 .text._ZSt4copyIN9__gnu_cxx17__normal_iteratorIP12CMultiplexerSt6vectorIS2_SaIS2_EEEES7_ET0_T_S9_S8_
                0x000000000004772c       0x40 api.o
                0x000000000004772c                _ZSt4copyIN9__gnu_cxx17__normal_iteratorIP12CMultiplexerSt6vectorIS2_SaIS2_EEEES7_ET0_T_S9_S8_
 .text._ZNSt6vectorI12CMultiplexerSaIS0_EE5eraseEN9__gnu_cxx17__normal_iteratorIPS0_S2_EE
                0x000000000004776c       0xab api.o
                0x000000000004776c                _ZNSt6vectorI12CMultiplexerSaIS0_EE5eraseEN9__gnu_cxx17__normal_iteratorIPS0_S2_EE
 .text._ZNSt20__copy_move_backwardILb0ELb1ESt26random_access_iterator_tagE13__copy_move_bIP10CUDTSocketEEPT_PKS5_S8_S6_
                0x0000000000047817       0x65 api.o
                0x0000000000047817                _ZNSt20__copy_move_backwardILb0ELb1ESt26random_access_iterator_tagE13__copy_move_bIP10CUDTSocketEEPT_PKS5_S8_S6_
 .text._ZSt22__copy_move_backward_aILb0EPP10CUDTSocketS2_ET1_T0_S4_S3_
                0x000000000004787c       0x2b api.o
                0x000000000004787c                _ZSt22__copy_move_backward_aILb0EPP10CUDTSocketS2_ET1_T0_S4_S3_
 .text._ZSt23__copy_move_backward_a2ILb0EPP10CUDTSocketS2_ET1_T0_S4_S3_
                0x00000000000478a7       0x4f api.o
                0x00000000000478a7                _ZSt23__copy_move_backward_a2ILb0EPP10CUDTSocketS2_ET1_T0_S4_S3_
 .text._ZSt13copy_backwardIPP10CUDTSocketS2_ET0_T_S4_S3_
                0x00000000000478f6       0x40 api.o
                0x00000000000478f6                _ZSt13copy_backwardIPP10CUDTSocketS2_ET0_T_S4_S3_
 .text._ZNSt11__copy_moveILb0ELb1ESt26random_access_iterator_tagE8__copy_mIP10CUDTSocketEEPT_PKS5_S8_S6_
                0x0000000000047936       0x5d api.o
                0x0000000000047936                _ZNSt11__copy_moveILb0ELb1ESt26random_access_iterator_tagE8__copy_mIP10CUDTSocketEEPT_PKS5_S8_S6_
 .text._ZSt13__copy_move_aILb0EPP10CUDTSocketS2_ET1_T0_S4_S3_
                0x0000000000047993       0x2b api.o
                0x0000000000047993                _ZSt13__copy_move_aILb0EPP10CUDTSocketS2_ET1_T0_S4_S3_
 .text._ZSt14__copy_move_a2ILb0EPP10CUDTSocketS2_ET1_T0_S4_S3_
                0x00000000000479be       0x4f api.o
                0x00000000000479be                _ZSt14__copy_move_a2ILb0EPP10CUDTSocketS2_ET1_T0_S4_S3_
 .text._ZSt4copyIPP10CUDTSocketS2_ET0_T_S4_S3_
                0x0000000000047a0d       0x40 api.o
                0x0000000000047a0d                _ZSt4copyIPP10CUDTSocketS2_ET0_T_S4_S3_
 .text._ZNSt20__uninitialized_copyILb1EE18uninitialized_copyIPP10CUDTSocketS4_EET0_T_S6_S5_
                0x0000000000047a4d       0x27 api.o
                0x0000000000047a4d                _ZNSt20__uninitialized_copyILb1EE18uninitialized_copyIPP10CUDTSocketS4_EET0_T_S6_S5_
 .text._ZSt18uninitialized_copyIPP10CUDTSocketS2_ET0_T_S4_S3_
                0x0000000000047a74       0x27 api.o
                0x0000000000047a74                _ZSt18uninitialized_copyIPP10CUDTSocketS2_ET0_T_S4_S3_
 .text._ZSt22__uninitialized_copy_aIPP10CUDTSocketS2_S1_ET0_T_S4_S3_RSaIT1_E
                0x0000000000047a9b       0x2b api.o
                0x0000000000047a9b                _ZSt22__uninitialized_copy_aIPP10CUDTSocketS2_S1_ET0_T_S4_S3_RSaIT1_E
 .text._ZSt22__uninitialized_move_aIPP10CUDTSocketS2_SaIS1_EET0_T_S5_S4_RT1_
                0x0000000000047ac6       0x2f api.o
                0x0000000000047ac6                _ZSt22__uninitialized_move_aIPP10CUDTSocketS2_SaIS1_EET0_T_S5_S4_RT1_
 *fill*         0x0000000000047af5        0x1 90909090
 .text._ZNKSt6vectorI12CMultiplexerSaIS0_EE12_M_check_lenEmPKc
                0x0000000000047af6       0xb8 api.o
                0x0000000000047af6                _ZNKSt6vectorI12CMultiplexerSaIS0_EE12_M_check_lenEmPKc
 .text._ZNSt6vectorI12CMultiplexerSaIS0_EE13_M_insert_auxEN9__gnu_cxx17__normal_iteratorIPS0_S2_EERKS0_
                0x0000000000047bae      0x26c api.o
                0x0000000000047bae                _ZNSt6vectorI12CMultiplexerSaIS0_EE13_M_insert_auxEN9__gnu_cxx17__normal_iteratorIPS0_S2_EERKS0_
 .text._ZNSt6vectorI12CMultiplexerSaIS0_EE6insertEN9__gnu_cxx17__normal_iteratorIPS0_S2_EERKS0_
                0x0000000000047e1a       0xf2 api.o
                0x0000000000047e1a                _ZNSt6vectorI12CMultiplexerSaIS0_EE6insertEN9__gnu_cxx17__normal_iteratorIPS0_S2_EERKS0_
 .text._ZNKSt6vectorIP10CUDTSocketSaIS1_EE12_M_check_lenEmPKc
                0x0000000000047f0c       0xb8 api.o
                0x0000000000047f0c                _ZNKSt6vectorIP10CUDTSocketSaIS1_EE12_M_check_lenEmPKc
 .text._ZNSt6vectorIP10CUDTSocketSaIS1_EE13_M_insert_auxEN9__gnu_cxx17__normal_iteratorIPS1_S3_EERKS1_
                0x0000000000047fc4      0x1ec api.o
                0x0000000000047fc4                _ZNSt6vectorIP10CUDTSocketSaIS1_EE13_M_insert_auxEN9__gnu_cxx17__normal_iteratorIPS1_S3_EERKS1_
 .text._ZNSt6vectorIP10CUDTSocketSaIS1_EE6insertEN9__gnu_cxx17__normal_iteratorIPS1_S3_EERKS1_
                0x00000000000481b0       0xe3 api.o
                0x00000000000481b0                _ZNSt6vectorIP10CUDTSocketSaIS1_EE6insertEN9__gnu_cxx17__normal_iteratorIPS1_S3_EERKS1_
 *fill*         0x0000000000048293        0x1 90909090
 .text._ZNSt8_Rb_treeIiSt4pairIKiP10CUDTSocketESt10_Select1stIS4_ESt4lessIiESaIS4_EE5eraseESt17_Rb_tree_iteratorIS4_E
                0x0000000000048294       0x48 api.o
                0x0000000000048294                _ZNSt8_Rb_treeIiSt4pairIKiP10CUDTSocketESt10_Select1stIS4_ESt4lessIiESaIS4_EE5eraseESt17_Rb_tree_iteratorIS4_E
 .text._ZNSt8_Rb_treeIiSt4pairIKiP10CUDTSocketESt10_Select1stIS4_ESt4lessIiESaIS4_EE5eraseESt17_Rb_tree_iteratorIS4_ESC_
                0x00000000000482dc       0xa0 api.o
                0x00000000000482dc                _ZNSt8_Rb_treeIiSt4pairIKiP10CUDTSocketESt10_Select1stIS4_ESt4lessIiESaIS4_EE5eraseESt17_Rb_tree_iteratorIS4_ESC_
 .text._ZNSt8_Rb_treeIiSt4pairIKiP10CUDTSocketESt10_Select1stIS4_ESt4lessIiESaIS4_EE5eraseERS1_
                0x000000000004837c       0x68 api.o
                0x000000000004837c                _ZNSt8_Rb_treeIiSt4pairIKiP10CUDTSocketESt10_Select1stIS4_ESt4lessIiESaIS4_EE5eraseERS1_
 .text._ZNSt3mapIiP10CUDTSocketSt4lessIiESaISt4pairIKiS1_EEE5eraseERS5_
                0x00000000000483e4       0x1f api.o
                0x00000000000483e4                _ZNSt3mapIiP10CUDTSocketSt4lessIiESaISt4pairIKiS1_EEE5eraseERS5_
 *fill*         0x0000000000048403        0x1 90909090
 .text._ZNSt8_Rb_treeIiiSt9_IdentityIiESt4lessIiESaIiEE5eraseESt17_Rb_tree_iteratorIiE
                0x0000000000048404       0x48 api.o
                0x0000000000048404                _ZNSt8_Rb_treeIiiSt9_IdentityIiESt4lessIiESaIiEE5eraseESt17_Rb_tree_iteratorIiE
 .text._ZNSt8_Rb_treeIiiSt9_IdentityIiESt4lessIiESaIiEE5eraseESt17_Rb_tree_iteratorIiES7_
                0x000000000004844c       0xa0 api.o
                0x000000000004844c                _ZNSt8_Rb_treeIiiSt9_IdentityIiESt4lessIiESaIiEE5eraseESt17_Rb_tree_iteratorIiES7_
 .text._ZNSt8_Rb_treeIiiSt9_IdentityIiESt4lessIiESaIiEE5eraseERKi
                0x00000000000484ec       0x68 api.o
                0x00000000000484ec                _ZNSt8_Rb_treeIiiSt9_IdentityIiESt4lessIiESaIiEE5eraseERKi
 .text._ZNSt3setIiSt4lessIiESaIiEE5eraseERKi
                0x0000000000048554       0x1f api.o
                0x0000000000048554                _ZNSt3setIiSt4lessIiESaIiEE5eraseERKi
 *fill*         0x0000000000048573        0x1 90909090
 .text._ZNSt8_Rb_treeIiiSt9_IdentityIiESt4lessIiESaIiEE5eraseESt23_Rb_tree_const_iteratorIiE
                0x0000000000048574       0x4b api.o
                0x0000000000048574                _ZNSt8_Rb_treeIiiSt9_IdentityIiESt4lessIiESaIiEE5eraseESt23_Rb_tree_const_iteratorIiE
 *fill*         0x00000000000485bf        0x1 90909090
 .text._ZNSt3setIiSt4lessIiESaIiEE5eraseESt23_Rb_tree_const_iteratorIiE
                0x00000000000485c0       0x1f api.o
                0x00000000000485c0                _ZNSt3setIiSt4lessIiESaIiEE5eraseESt23_Rb_tree_const_iteratorIiE
 *fill*         0x00000000000485df        0x1 90909090
 .text          0x00000000000485e0      0xf1d ccc.o
                0x00000000000493a4                _ZN3CCCD2Ev
                0x0000000000048938                _ZN6CUDTCCC2Ev
                0x000000000004930c                _ZN3CCCD0Ev
                0x00000000000494a4                _ZNK3CCC13sendCustomMsgER7CPacket
                0x0000000000049358                _ZN3CCCD1Ev
                0x000000000004888a                _ZN3CCC6setMSSERKi
                0x00000000000488a6                _ZN3CCC12setBandwidthERKi
                0x0000000000048866                _ZN3CCC6setRTOERKi
                0x0000000000049460                _ZN3CCC11getPerfInfoEv
                0x0000000000048e2e                _ZN6CUDTCC4initEv
                0x0000000000048ab8                _ZN6CUDTCC9onTimeoutEv
                0x00000000000488de                _ZN3CCC10setRcvRateERKi
                0x0000000000048b88                _ZN6CUDTCC6onLossEPKiRS0_
                0x00000000000489f8                _ZN6CUDTCCC1Ev
                0x0000000000048808                _ZN3CCC11setACKTimerERKi
                0x0000000000048f1e                _ZN6CUDTCC5onACKERKi
                0x00000000000485e0                _ZN3CCCC2Ev
                0x00000000000488c2                _ZN3CCC15setSndCurrSeqNoERKi
                0x000000000004891c                _ZN3CCC6setRTTERKi
                0x00000000000488fa                _ZN3CCC14setMaxCWndSizeERKi
                0x000000000004884a                _ZN3CCC14setACKIntervalERKi
                0x00000000000493f0                _ZN3CCC12setUserParamEPKcRKi
                0x00000000000486f4                _ZN3CCCC1Ev
 *fill*         0x00000000000494fd        0x1 90909090
 .text._ZN3CCC4initEv
                0x00000000000494fe        0xa ccc.o
                0x00000000000494fe                _ZN3CCC4initEv
 .text._ZN3CCC5closeEv
                0x0000000000049508        0xa ccc.o
                0x0000000000049508                _ZN3CCC5closeEv
 .text._ZN3CCC5onACKERKi
                0x0000000000049512        0xe ccc.o
                0x0000000000049512                _ZN3CCC5onACKERKi
 .text._ZN3CCC6onLossEPKiRS0_
                0x0000000000049520       0x12 ccc.o
                0x0000000000049520                _ZN3CCC6onLossEPKiRS0_
 .text._ZN3CCC9onTimeoutEv
                0x0000000000049532        0xa ccc.o
                0x0000000000049532                _ZN3CCC9onTimeoutEv
 .text._ZN3CCC9onPktSentEPK7CPacket
                0x000000000004953c        0xe ccc.o
                0x000000000004953c                _ZN3CCC9onPktSentEPK7CPacket
 .text._ZN3CCC13onPktReceivedEPK7CPacket
                0x000000000004954a        0xe ccc.o
                0x000000000004954a                _ZN3CCC13onPktReceivedEPK7CPacket
 .text._ZN3CCC16processCustomMsgEPK7CPacket
                0x0000000000049558        0xe ccc.o
                0x0000000000049558                _ZN3CCC16processCustomMsgEPK7CPacket
 .text._ZN6CUDTCCD0Ev
                0x0000000000049566       0x3b ccc.o
                0x0000000000049566                _ZN6CUDTCCD0Ev
 *fill*         0x00000000000495a1        0x1 90909090
 .text._ZN6CUDTCCD1Ev
                0x00000000000495a2       0x3b ccc.o
                0x00000000000495a2                _ZN6CUDTCCD1Ev
 *fill*         0x00000000000495dd        0x3 90909090
 .text          0x00000000000495e0     0x1d5b buffer.o
                0x000000000004a49e                _ZN10CRcvBufferC2EP10CUnitQueue
                0x000000000004a880                _ZN10CSndBuffer8readDataEPPciRiS2_
                0x000000000004a220                _ZN10CRcvBufferD2Ev
                0x0000000000049772                _ZNK10CRcvBuffer15getAvailBufSizeEv
                0x000000000004a51e                _ZN10CSndBuffer8increaseEv
                0x0000000000049f7c                _ZN10CRcvBuffer10readBufferEPcRKi
                0x0000000000049868                _ZN10CRcvBuffer7scanMsgERiS0_Rb
                0x000000000004965e                _ZNK10CSndBuffer14getCurrBufSizeEv
                0x000000000004971e                _ZNK10CRcvBuffer14getRcvDataSizeEv
                0x00000000000497a0                _ZN10CRcvBuffer7dropMsgERKi
                0x000000000004ae6a                _ZN10CSndBufferD2Ev
                0x0000000000049db6                _ZN10CRcvBuffer7readMsgEPcRKi
                0x000000000004aa0a                _ZN10CSndBuffer17addBufferFromFileERSt13basic_fstreamIcSt11char_traitsIcEERKi
                0x0000000000049670                _ZN10CRcvBuffer7addDataEP5CUniti
                0x000000000004abde                _ZN10CSndBuffer9addBufferEPKcRKiS3_RKb
                0x000000000004a364                _ZN10CRcvBufferC2ERKiP10CUnitQueue
                0x00000000000495e0                _ZN10CSndBuffer8readDataEPPcRi
                0x0000000000049bf8                _ZN10CRcvBuffer16readBufferToFileERSt13basic_fstreamIcSt11char_traitsIcEERKi
                0x000000000004a41e                _ZN10CRcvBufferC1EP10CUnitQueue
                0x000000000004b12c                _ZN10CSndBufferC2ERKiS1_
                0x000000000004a140                _ZN10CRcvBuffer7ackDataERKi
                0x000000000004adb8                _ZN10CSndBufferD1Ev
                0x000000000004af1c                _ZN10CSndBufferC1ERKiS1_
                0x0000000000049bbe                _ZN10CRcvBuffer12getRcvMsgNumEv
                0x000000000004a7e2                _ZN10CSndBuffer7ackDataERKi
                0x000000000004a2aa                _ZN10CRcvBufferC1ERKiP10CUnitQueue
                0x000000000004a196                _ZN10CRcvBufferD1Ev
 *fill*         0x000000000004b33b        0x1 90909090
 .text          0x000000000004b33c     0x116d window.o
                0x000000000004b72e                _ZN10CACKWindow5storeERKiS1_
                0x000000000004bbba                _ZN10CACKWindowD1Ev
                0x000000000004bf0e                _ZN14CPktTimeWindowC1Ev
                0x000000000004b422                _ZN14CPktTimeWindow13probe1ArrivalEv
                0x000000000004bb36                _ZN14CPktTimeWindowD1Ev
                0x000000000004c326                _ZN10CACKWindowC1Ev
                0x000000000004bc14                _ZN10CACKWindowD2Ev
                0x000000000004b4d4                _ZN10CACKWindow11acknowledgeERKiRi
                0x000000000004b39c                _ZN14CPktTimeWindow13probe2ArrivalEv
                0x000000000004b98c                _ZNK14CPktTimeWindow14getPktRcvSpeedEv
                0x000000000004b802                _ZNK14CPktTimeWindow12getBandwidthEv
                0x000000000004b33c                _ZNK14CPktTimeWindow15getMinPktSndIntEv
                0x000000000004bdbe                _ZN14CPktTimeWindowC2ERKiS1_
                0x000000000004bc6e                _ZN14CPktTimeWindowC1ERKiS1_
                0x000000000004c25e                _ZN10CACKWindowC2ERKi
                0x000000000004bb78                _ZN14CPktTimeWindowD2Ev
                0x000000000004b34e                _ZN14CPktTimeWindow9onPktSentERKi
                0x000000000004c196                _ZN10CACKWindowC1ERKi
                0x000000000004b440                _ZN14CPktTimeWindow12onPktArrivalEv
                0x000000000004c052                _ZN14CPktTimeWindowC2Ev
                0x000000000004c3e8                _ZN10CACKWindowC2Ev
 *fill*         0x000000000004c4a9        0x3 90909090
 .text          0x000000000004c4ac     0x10d7 md5.o
                0x000000000004d491                md5_finish
                0x000000000004d34b                md5_append
                0x000000000004c4ac                md5_init
 *fill*         0x000000000004d583        0x1 90909090
 .text          0x000000000004d584     0x274e list.o
                0x000000000004f962                _ZN12CSndLossListD1Ev
                0x000000000004e3d0                _ZN12CRcvLossListC1ERKi
                0x000000000004d718                _ZN12CRcvLossList12getLossArrayEPiRiRKiS3_
                0x000000000004fb82                _ZN12CSndLossListC2ERKi
                0x000000000004e35c                _ZN12CRcvLossListD2Ev
                0x000000000004e054                _ZN12CRcvLossList6insertERKiS1_
                0x000000000004d6da                _ZNK12CRcvLossList15getFirstLostSeqEv
                0x000000000004e2e8                _ZN12CRcvLossListD1Ev
                0x000000000004f9ca                _ZN12CSndLossListD2Ev
                0x000000000004e52c                _ZN12CRcvLossListC2ERKi
                0x000000000004e6c0                _ZN12CSndLossList10getLostSeqEv
                0x000000000004d87e                _ZN12CRcvLossList6removeERKi
                0x000000000004efd8                _ZN12CSndLossList6insertERKiS1_
                0x000000000004df9c                _ZN12CRcvLossList6removeERKiS1_
                0x000000000004e688                _ZN12CSndLossList13getLossLengthEv
                0x000000000004fa32                _ZN12CSndLossListC1ERKi
                0x000000000004d584                _ZNK12CRcvLossList4findERKiS1_
                0x000000000004e8f8                _ZN12CSndLossList6removeERKi
                0x000000000004d6c8                _ZNK12CRcvLossList13getLossLengthEv
 *fill*         0x000000000004fcd2        0x2 90909090
 .text          0x000000000004fcd4      0x89a cache.o
                0x000000000004fe1e                _ZN6CCache6lookupEPK8sockaddrRKiP10CInfoBlock
                0x000000000005038a                _ZN6CCacheC1ERKj
                0x0000000000050282                _ZN6CCacheD2Ev
                0x000000000005017a                _ZN6CCacheD1Ev
                0x00000000000504f8                _ZN6CCacheC2Ev
                0x000000000004fcd4                _ZNK7CIPCompclEPK10CInfoBlockS2_
                0x0000000000050482                _ZN6CCacheC1Ev
                0x000000000004fdae                _ZN6CCache7convertEPK8sockaddrRKiPj
                0x000000000004fd86                _ZNK7CTSCompclEPK10CInfoBlockS2_
                0x0000000000050406                _ZN6CCacheC2ERKj
                0x000000000004ff36                _ZN6CCache6updateEPK8sockaddrRKiP10CInfoBlock
 .text._ZNKSt23_Rb_tree_const_iteratorIP10CInfoBlockEneERKS2_
                0x000000000005056e       0x22 cache.o
                0x000000000005056e                _ZNKSt23_Rb_tree_const_iteratorIP10CInfoBlockEneERKS2_
 .text._ZNKSt23_Rb_tree_const_iteratorIP10CInfoBlockEdeEv
                0x0000000000050590       0x15 cache.o
                0x0000000000050590                _ZNKSt23_Rb_tree_const_iteratorIP10CInfoBlockEdeEv
 *fill*         0x00000000000505a5        0x1 90909090
 .text._ZNKSt23_Rb_tree_const_iteratorIP10CInfoBlockEeqERKS2_
                0x00000000000505a6       0x22 cache.o
                0x00000000000505a6                _ZNKSt23_Rb_tree_const_iteratorIP10CInfoBlockEeqERKS2_
 .text._ZNSt8_Rb_treeIP10CInfoBlockS1_St9_IdentityIS1_E7CIPCompSaIS1_EE8_M_beginEv
                0x00000000000505c8       0x12 cache.o
                0x00000000000505c8                _ZNSt8_Rb_treeIP10CInfoBlockS1_St9_IdentityIS1_E7CIPCompSaIS1_EE8_M_beginEv
 .text._ZNSt8_Rb_treeIP10CInfoBlockS1_St9_IdentityIS1_E7CTSCompSaIS1_EE8_M_beginEv
                0x00000000000505da       0x12 cache.o
                0x00000000000505da                _ZNSt8_Rb_treeIP10CInfoBlockS1_St9_IdentityIS1_E7CTSCompSaIS1_EE8_M_beginEv
 .text._ZNSt23_Rb_tree_const_iteratorIP10CInfoBlockEC1ERKSt17_Rb_tree_iteratorIS1_E
                0x00000000000505ec       0x1c cache.o
                0x00000000000505ec                _ZNSt23_Rb_tree_const_iteratorIP10CInfoBlockEC1ERKSt17_Rb_tree_iteratorIS1_E
 .text._ZNSt4pairISt23_Rb_tree_const_iteratorIP10CInfoBlockEbEC1ERKS3_RKb
                0x0000000000050608       0x2e cache.o
                0x0000000000050608                _ZNSt4pairISt23_Rb_tree_const_iteratorIP10CInfoBlockEbEC1ERKS3_RKb
 .text._ZNKSt8_Rb_treeIP10CInfoBlockS1_St9_IdentityIS1_E7CTSCompSaIS1_EE4sizeEv
                0x0000000000050636       0x12 cache.o
                0x0000000000050636                _ZNKSt8_Rb_treeIP10CInfoBlockS1_St9_IdentityIS1_E7CTSCompSaIS1_EE4sizeEv
 .text._ZNKSt3setIP10CInfoBlock7CTSCompSaIS1_EE4sizeEv
                0x0000000000050648       0x17 cache.o
                0x0000000000050648                _ZNKSt3setIP10CInfoBlock7CTSCompSaIS1_EE4sizeEv
 *fill*         0x000000000005065f        0x1 90909090
 .text._ZN9__gnu_cxx13new_allocatorISt13_Rb_tree_nodeIP10CInfoBlockEED2Ev
                0x0000000000050660        0xa cache.o
                0x0000000000050660                _ZN9__gnu_cxx13new_allocatorISt13_Rb_tree_nodeIP10CInfoBlockEED2Ev
 .text._ZNSaISt13_Rb_tree_nodeIP10CInfoBlockEED2Ev
                0x000000000005066a       0x17 cache.o
                0x000000000005066a                _ZNSaISt13_Rb_tree_nodeIP10CInfoBlockEED2Ev
 *fill*         0x0000000000050681        0x1 90909090
 .text._ZNSt8_Rb_treeIP10CInfoBlockS1_St9_IdentityIS1_E7CTSCompSaIS1_EE13_Rb_tree_implIS4_Lb1EED1Ev
                0x0000000000050682       0x17 cache.o
                0x0000000000050682                _ZNSt8_Rb_treeIP10CInfoBlockS1_St9_IdentityIS1_E7CTSCompSaIS1_EE13_Rb_tree_implIS4_Lb1EED1Ev
 *fill*         0x0000000000050699        0x1 90909090
 .text._ZNSt8_Rb_treeIP10CInfoBlockS1_St9_IdentityIS1_E7CIPCompSaIS1_EE13_Rb_tree_implIS4_Lb1EED1Ev
                0x000000000005069a       0x17 cache.o
                0x000000000005069a                _ZNSt8_Rb_treeIP10CInfoBlockS1_St9_IdentityIS1_E7CIPCompSaIS1_EE13_Rb_tree_implIS4_Lb1EED1Ev
 .text._ZNSt8_Rb_treeIP10CInfoBlockS1_St9_IdentityIS1_E7CIPCompSaIS1_EE8_S_rightEPSt18_Rb_tree_node_base
                0x00000000000506b1       0x12 cache.o
                0x00000000000506b1                _ZNSt8_Rb_treeIP10CInfoBlockS1_St9_IdentityIS1_E7CIPCompSaIS1_EE8_S_rightEPSt18_Rb_tree_node_base
 .text._ZNSt8_Rb_treeIP10CInfoBlockS1_St9_IdentityIS1_E7CIPCompSaIS1_EE7_S_leftEPSt18_Rb_tree_node_base
                0x00000000000506c3       0x12 cache.o
                0x00000000000506c3                _ZNSt8_Rb_treeIP10CInfoBlockS1_St9_IdentityIS1_E7CIPCompSaIS1_EE7_S_leftEPSt18_Rb_tree_node_base
 .text._ZNSt8_Rb_treeIP10CInfoBlockS1_St9_IdentityIS1_E7CTSCompSaIS1_EE8_S_rightEPSt18_Rb_tree_node_base
                0x00000000000506d5       0x12 cache.o
                0x00000000000506d5                _ZNSt8_Rb_treeIP10CInfoBlockS1_St9_IdentityIS1_E7CTSCompSaIS1_EE8_S_rightEPSt18_Rb_tree_node_base
 .text._ZNSt8_Rb_treeIP10CInfoBlockS1_St9_IdentityIS1_E7CTSCompSaIS1_EE7_S_leftEPSt18_Rb_tree_node_base
                0x00000000000506e7       0x12 cache.o
                0x00000000000506e7                _ZNSt8_Rb_treeIP10CInfoBlockS1_St9_IdentityIS1_E7CTSCompSaIS1_EE7_S_leftEPSt18_Rb_tree_node_base
 *fill*         0x00000000000506f9        0x1 90909090
 .text._ZNSt23_Rb_tree_const_iteratorIP10CInfoBlockEC1EPKSt13_Rb_tree_nodeIS1_E
                0x00000000000506fa       0x19 cache.o
                0x00000000000506fa                _ZNSt23_Rb_tree_const_iteratorIP10CInfoBlockEC1EPKSt13_Rb_tree_nodeIS1_E
 *fill*         0x0000000000050713        0x1 90909090
 .text._ZNKSt8_Rb_treeIP10CInfoBlockS1_St9_IdentityIS1_E7CIPCompSaIS1_EE3endEv
                0x0000000000050714       0x26 cache.o
                0x0000000000050714                _ZNKSt8_Rb_treeIP10CInfoBlockS1_St9_IdentityIS1_E7CIPCompSaIS1_EE3endEv
 .text._ZNKSt3setIP10CInfoBlock7CIPCompSaIS1_EE3endEv
                0x000000000005073a       0x17 cache.o
                0x000000000005073a                _ZNKSt3setIP10CInfoBlock7CIPCompSaIS1_EE3endEv
 *fill*         0x0000000000050751        0x1 90909090
 .text._ZNKSt8_Rb_treeIP10CInfoBlockS1_St9_IdentityIS1_E7CTSCompSaIS1_EE5beginEv
                0x0000000000050752       0x26 cache.o
                0x0000000000050752                _ZNKSt8_Rb_treeIP10CInfoBlockS1_St9_IdentityIS1_E7CTSCompSaIS1_EE5beginEv
 .text._ZNKSt3setIP10CInfoBlock7CTSCompSaIS1_EE5beginEv
                0x0000000000050778       0x17 cache.o
                0x0000000000050778                _ZNKSt3setIP10CInfoBlock7CTSCompSaIS1_EE5beginEv
 *fill*         0x000000000005078f        0x1 90909090
 .text._ZNKSt8_Rb_treeIP10CInfoBlockS1_St9_IdentityIS1_E7CTSCompSaIS1_EE3endEv
                0x0000000000050790       0x26 cache.o
                0x0000000000050790                _ZNKSt8_Rb_treeIP10CInfoBlockS1_St9_IdentityIS1_E7CTSCompSaIS1_EE3endEv
 .text._ZNKSt3setIP10CInfoBlock7CTSCompSaIS1_EE3endEv
                0x00000000000507b6       0x17 cache.o
                0x00000000000507b6                _ZNKSt3setIP10CInfoBlock7CTSCompSaIS1_EE3endEv
 *fill*         0x00000000000507cd        0x1 90909090
 .text._ZNSt8_Rb_treeIP10CInfoBlockS1_St9_IdentityIS1_E7CIPCompSaIS1_EE6_M_endEv
                0x00000000000507ce       0x12 cache.o
                0x00000000000507ce                _ZNSt8_Rb_treeIP10CInfoBlockS1_St9_IdentityIS1_E7CIPCompSaIS1_EE6_M_endEv
 .text._ZNKSt17_Rb_tree_iteratorIP10CInfoBlockEeqERKS2_
                0x00000000000507e0       0x22 cache.o
                0x00000000000507e0                _ZNKSt17_Rb_tree_iteratorIP10CInfoBlockEeqERKS2_
 .text._ZNKSt9_IdentityIP10CInfoBlockEclERKS1_
                0x0000000000050802       0x12 cache.o
                0x0000000000050802                _ZNKSt9_IdentityIP10CInfoBlockEclERKS1_
 .text._ZNSt17_Rb_tree_iteratorIP10CInfoBlockEC1EPSt13_Rb_tree_nodeIS1_E
                0x0000000000050814       0x19 cache.o
                0x0000000000050814                _ZNSt17_Rb_tree_iteratorIP10CInfoBlockEC1EPSt13_Rb_tree_nodeIS1_E
 *fill*         0x000000000005082d        0x1 90909090
 .text._ZNSt8_Rb_treeIP10CInfoBlockS1_St9_IdentityIS1_E7CIPCompSaIS1_EE3endEv
                0x000000000005082e       0x26 cache.o
                0x000000000005082e                _ZNSt8_Rb_treeIP10CInfoBlockS1_St9_IdentityIS1_E7CIPCompSaIS1_EE3endEv
 .text._ZNSt8_Rb_treeIP10CInfoBlockS1_St9_IdentityIS1_E7CIPCompSaIS1_EE5beginEv
                0x0000000000050854       0x26 cache.o
                0x0000000000050854                _ZNSt8_Rb_treeIP10CInfoBlockS1_St9_IdentityIS1_E7CIPCompSaIS1_EE5beginEv
 .text._ZNSt4pairISt17_Rb_tree_iteratorIP10CInfoBlockEbEC1ERKS3_RKb
                0x000000000005087a       0x2e cache.o
                0x000000000005087a                _ZNSt4pairISt17_Rb_tree_iteratorIP10CInfoBlockEbEC1ERKS3_RKb
 .text._ZNSt8_Rb_treeIP10CInfoBlockS1_St9_IdentityIS1_E7CTSCompSaIS1_EE6_M_endEv
                0x00000000000508a8       0x12 cache.o
                0x00000000000508a8                _ZNSt8_Rb_treeIP10CInfoBlockS1_St9_IdentityIS1_E7CTSCompSaIS1_EE6_M_endEv
 .text._ZNSt8_Rb_treeIP10CInfoBlockS1_St9_IdentityIS1_E7CTSCompSaIS1_EE5beginEv
                0x00000000000508ba       0x26 cache.o
                0x00000000000508ba                _ZNSt8_Rb_treeIP10CInfoBlockS1_St9_IdentityIS1_E7CTSCompSaIS1_EE5beginEv
 .text._ZNKSt8_Rb_treeIP10CInfoBlockS1_St9_IdentityIS1_E7CIPCompSaIS1_EE4sizeEv
                0x00000000000508e0       0x12 cache.o
                0x00000000000508e0                _ZNKSt8_Rb_treeIP10CInfoBlockS1_St9_IdentityIS1_E7CIPCompSaIS1_EE4sizeEv
 .text._ZNSt8_Rb_treeIP10CInfoBlockS1_St9_IdentityIS1_E7CIPCompSaIS1_EE13_Rb_tree_implIS4_Lb1EE13_M_initializeEv
                0x00000000000508f2       0x41 cache.o
                0x00000000000508f2                _ZNSt8_Rb_treeIP10CInfoBlockS1_St9_IdentityIS1_E7CIPCompSaIS1_EE13_Rb_tree_implIS4_Lb1EE13_M_initializeEv
 *fill*         0x0000000000050933        0x1 90909090
 .text._ZN9__gnu_cxx13new_allocatorIP10CInfoBlockE7destroyEPS2_
                0x0000000000050934        0xe cache.o
                0x0000000000050934                _ZN9__gnu_cxx13new_allocatorIP10CInfoBlockE7destroyEPS2_
 .text._ZNSt8_Rb_treeIP10CInfoBlockS1_St9_IdentityIS1_E7CTSCompSaIS1_EE13_Rb_tree_implIS4_Lb1EE13_M_initializeEv
                0x0000000000050942       0x41 cache.o
                0x0000000000050942                _ZNSt8_Rb_treeIP10CInfoBlockS1_St9_IdentityIS1_E7CTSCompSaIS1_EE13_Rb_tree_implIS4_Lb1EE13_M_initializeEv
 .text._ZNSt8_Rb_treeIP10CInfoBlockS1_St9_IdentityIS1_E7CIPCompSaIS1_EE8_S_valueEPKSt18_Rb_tree_node_base
                0x0000000000050983       0x12 cache.o
                0x0000000000050983                _ZNSt8_Rb_treeIP10CInfoBlockS1_St9_IdentityIS1_E7CIPCompSaIS1_EE8_S_valueEPKSt18_Rb_tree_node_base
 .text._ZNSt8_Rb_treeIP10CInfoBlockS1_St9_IdentityIS1_E7CIPCompSaIS1_EE6_S_keyEPKSt18_Rb_tree_node_base
                0x0000000000050995       0x23 cache.o
                0x0000000000050995                _ZNSt8_Rb_treeIP10CInfoBlockS1_St9_IdentityIS1_E7CIPCompSaIS1_EE6_S_keyEPKSt18_Rb_tree_node_base
 .text._ZNSt4pairISt17_Rb_tree_iteratorIP10CInfoBlockES3_EC1ERKS3_S6_
                0x00000000000509b8       0x2f cache.o
                0x00000000000509b8                _ZNSt4pairISt17_Rb_tree_iteratorIP10CInfoBlockES3_EC1ERKS3_S6_
 *fill*         0x00000000000509e7        0x1 90909090
 .text._ZNSt8_Rb_treeIP10CInfoBlockS1_St9_IdentityIS1_E7CTSCompSaIS1_EE3endEv
                0x00000000000509e8       0x26 cache.o
                0x00000000000509e8                _ZNSt8_Rb_treeIP10CInfoBlockS1_St9_IdentityIS1_E7CTSCompSaIS1_EE3endEv
 .text._ZNKSt17_Rb_tree_iteratorIP10CInfoBlockEneERKS2_
                0x0000000000050a0e       0x22 cache.o
                0x0000000000050a0e                _ZNKSt17_Rb_tree_iteratorIP10CInfoBlockEneERKS2_
 .text._ZNSt8_Rb_treeIP10CInfoBlockS1_St9_IdentityIS1_E7CIPCompSaIS1_EE8_S_valueEPKSt13_Rb_tree_nodeIS1_E
                0x0000000000050a30       0x12 cache.o
                0x0000000000050a30                _ZNSt8_Rb_treeIP10CInfoBlockS1_St9_IdentityIS1_E7CIPCompSaIS1_EE8_S_valueEPKSt13_Rb_tree_nodeIS1_E
 .text._ZNSt8_Rb_treeIP10CInfoBlockS1_St9_IdentityIS1_E7CIPCompSaIS1_EE6_S_keyEPKSt13_Rb_tree_nodeIS1_E
                0x0000000000050a42       0x23 cache.o
                0x0000000000050a42                _ZNSt8_Rb_treeIP10CInfoBlockS1_St9_IdentityIS1_E7CIPCompSaIS1_EE6_S_keyEPKSt13_Rb_tree_nodeIS1_E
 *fill*         0x0000000000050a65        0x1 90909090
 .text._ZNSt8_Rb_treeIP10CInfoBlockS1_St9_IdentityIS1_E7CIPCompSaIS1_EE14_M_lower_boundEPSt13_Rb_tree_nodeIS1_ES9_RKS1_
                0x0000000000050a66       0x84 cache.o
                0x0000000000050a66                _ZNSt8_Rb_treeIP10CInfoBlockS1_St9_IdentityIS1_E7CIPCompSaIS1_EE14_M_lower_boundEPSt13_Rb_tree_nodeIS1_ES9_RKS1_
 .text._ZNSt8_Rb_treeIP10CInfoBlockS1_St9_IdentityIS1_E7CIPCompSaIS1_EE4findERKS1_
                0x0000000000050aea       0x9d cache.o
                0x0000000000050aea                _ZNSt8_Rb_treeIP10CInfoBlockS1_St9_IdentityIS1_E7CIPCompSaIS1_EE4findERKS1_
 *fill*         0x0000000000050b87        0x1 90909090
 .text._ZNSt3setIP10CInfoBlock7CIPCompSaIS1_EE4findERKS1_
                0x0000000000050b88       0x34 cache.o
                0x0000000000050b88                _ZNSt3setIP10CInfoBlock7CIPCompSaIS1_EE4findERKS1_
 .text._ZNSt8_Rb_treeIP10CInfoBlockS1_St9_IdentityIS1_E7CTSCompSaIS1_EE8_S_valueEPKSt13_Rb_tree_nodeIS1_E
                0x0000000000050bbc       0x12 cache.o
                0x0000000000050bbc                _ZNSt8_Rb_treeIP10CInfoBlockS1_St9_IdentityIS1_E7CTSCompSaIS1_EE8_S_valueEPKSt13_Rb_tree_nodeIS1_E
 .text._ZNSt8_Rb_treeIP10CInfoBlockS1_St9_IdentityIS1_E7CTSCompSaIS1_EE6_S_keyEPKSt13_Rb_tree_nodeIS1_E
                0x0000000000050bce       0x23 cache.o
                0x0000000000050bce                _ZNSt8_Rb_treeIP10CInfoBlockS1_St9_IdentityIS1_E7CTSCompSaIS1_EE6_S_keyEPKSt13_Rb_tree_nodeIS1_E
 *fill*         0x0000000000050bf1        0x1 90909090
 .text._ZNSt8_Rb_treeIP10CInfoBlockS1_St9_IdentityIS1_E7CTSCompSaIS1_EE14_M_upper_boundEPSt13_Rb_tree_nodeIS1_ES9_RKS1_
                0x0000000000050bf2       0x78 cache.o
                0x0000000000050bf2                _ZNSt8_Rb_treeIP10CInfoBlockS1_St9_IdentityIS1_E7CTSCompSaIS1_EE14_M_upper_boundEPSt13_Rb_tree_nodeIS1_ES9_RKS1_
 .text._ZNSt8_Rb_treeIP10CInfoBlockS1_St9_IdentityIS1_E7CTSCompSaIS1_EE14_M_lower_boundEPSt13_Rb_tree_nodeIS1_ES9_RKS1_
                0x0000000000050c6a       0x84 cache.o
                0x0000000000050c6a                _ZNSt8_Rb_treeIP10CInfoBlockS1_St9_IdentityIS1_E7CTSCompSaIS1_EE14_M_lower_boundEPSt13_Rb_tree_nodeIS1_ES9_RKS1_
 .text._ZNSt8_Rb_treeIP10CInfoBlockS1_St9_IdentityIS1_E7CTSCompSaIS1_EE11equal_rangeERKS1_
                0x0000000000050cee      0x1c0 cache.o
                0x0000000000050cee                _ZNSt8_Rb_treeIP10CInfoBlockS1_St9_IdentityIS1_E7CTSCompSaIS1_EE11equal_rangeERKS1_
 .text._ZNSt8_Rb_treeIP10CInfoBlockS1_St9_IdentityIS1_E7CTSCompSaIS1_EE8_S_valueEPKSt18_Rb_tree_node_base
                0x0000000000050eae       0x12 cache.o
                0x0000000000050eae                _ZNSt8_Rb_treeIP10CInfoBlockS1_St9_IdentityIS1_E7CTSCompSaIS1_EE8_S_valueEPKSt18_Rb_tree_node_base
 .text._ZNSt8_Rb_treeIP10CInfoBlockS1_St9_IdentityIS1_E7CTSCompSaIS1_EE6_S_keyEPKSt18_Rb_tree_node_base
                0x0000000000050ec0       0x23 cache.o
                0x0000000000050ec0                _ZNSt8_Rb_treeIP10CInfoBlockS1_St9_IdentityIS1_E7CTSCompSaIS1_EE6_S_keyEPKSt18_Rb_tree_node_base
 *fill*         0x0000000000050ee3        0x1 90909090
 .text._ZNSt8_Rb_treeIP10CInfoBlockS1_St9_IdentityIS1_E7CIPCompSaIS1_EE14_M_upper_boundEPSt13_Rb_tree_nodeIS1_ES9_RKS1_
                0x0000000000050ee4       0x78 cache.o
                0x0000000000050ee4                _ZNSt8_Rb_treeIP10CInfoBlockS1_St9_IdentityIS1_E7CIPCompSaIS1_EE14_M_upper_boundEPSt13_Rb_tree_nodeIS1_ES9_RKS1_
 .text._ZNSt8_Rb_treeIP10CInfoBlockS1_St9_IdentityIS1_E7CIPCompSaIS1_EE11equal_rangeERKS1_
                0x0000000000050f5c      0x1c0 cache.o
                0x0000000000050f5c                _ZNSt8_Rb_treeIP10CInfoBlockS1_St9_IdentityIS1_E7CIPCompSaIS1_EE11equal_rangeERKS1_
 .text._ZN9__gnu_cxx13new_allocatorISt13_Rb_tree_nodeIP10CInfoBlockEEC2Ev
                0x000000000005111c        0xa cache.o
                0x000000000005111c                _ZN9__gnu_cxx13new_allocatorISt13_Rb_tree_nodeIP10CInfoBlockEEC2Ev
 .text._ZNSaISt13_Rb_tree_nodeIP10CInfoBlockEEC2Ev
                0x0000000000051126       0x17 cache.o
                0x0000000000051126                _ZNSaISt13_Rb_tree_nodeIP10CInfoBlockEEC2Ev
 *fill*         0x000000000005113d        0x1 90909090
 .text._ZNSt8_Rb_treeIP10CInfoBlockS1_St9_IdentityIS1_E7CIPCompSaIS1_EE13_Rb_tree_implIS4_Lb1EEC1Ev
                0x000000000005113e       0x5b cache.o
                0x000000000005113e                _ZNSt8_Rb_treeIP10CInfoBlockS1_St9_IdentityIS1_E7CIPCompSaIS1_EE13_Rb_tree_implIS4_Lb1EEC1Ev
 *fill*         0x0000000000051199        0x1 90909090
 .text._ZNSt8_Rb_treeIP10CInfoBlockS1_St9_IdentityIS1_E7CIPCompSaIS1_EEC1Ev
                0x000000000005119a       0x17 cache.o
                0x000000000005119a                _ZNSt8_Rb_treeIP10CInfoBlockS1_St9_IdentityIS1_E7CIPCompSaIS1_EEC1Ev
 *fill*         0x00000000000511b1        0x1 90909090
 .text._ZNSt3setIP10CInfoBlock7CIPCompSaIS1_EEC1Ev
                0x00000000000511b2       0x17 cache.o
                0x00000000000511b2                _ZNSt3setIP10CInfoBlock7CIPCompSaIS1_EEC1Ev
 *fill*         0x00000000000511c9        0x1 90909090
 .text._ZNSt8_Rb_treeIP10CInfoBlockS1_St9_IdentityIS1_E7CTSCompSaIS1_EE13_Rb_tree_implIS4_Lb1EEC1Ev
                0x00000000000511ca       0x5b cache.o
                0x00000000000511ca                _ZNSt8_Rb_treeIP10CInfoBlockS1_St9_IdentityIS1_E7CTSCompSaIS1_EE13_Rb_tree_implIS4_Lb1EEC1Ev
 *fill*         0x0000000000051225        0x1 90909090
 .text._ZNSt8_Rb_treeIP10CInfoBlockS1_St9_IdentityIS1_E7CTSCompSaIS1_EEC1Ev
                0x0000000000051226       0x17 cache.o
                0x0000000000051226                _ZNSt8_Rb_treeIP10CInfoBlockS1_St9_IdentityIS1_E7CTSCompSaIS1_EEC1Ev
 *fill*         0x000000000005123d        0x1 90909090
 .text._ZNSt3setIP10CInfoBlock7CTSCompSaIS1_EEC1Ev
                0x000000000005123e       0x17 cache.o
                0x000000000005123e                _ZNSt3setIP10CInfoBlock7CTSCompSaIS1_EEC1Ev
 *fill*         0x0000000000051255        0x1 90909090
 .text._ZNKSt8_Rb_treeIP10CInfoBlockS1_St9_IdentityIS1_E7CIPCompSaIS1_EE21_M_get_Node_allocatorEv
                0x0000000000051256        0xe cache.o
                0x0000000000051256                _ZNKSt8_Rb_treeIP10CInfoBlockS1_St9_IdentityIS1_E7CIPCompSaIS1_EE21_M_get_Node_allocatorEv
 .text._ZN9__gnu_cxx13new_allocatorIP10CInfoBlockED2Ev
                0x0000000000051264        0xa cache.o
                0x0000000000051264                _ZN9__gnu_cxx13new_allocatorIP10CInfoBlockED2Ev
 .text._ZNSaIP10CInfoBlockED1Ev
                0x000000000005126e       0x17 cache.o
                0x000000000005126e                _ZNSaIP10CInfoBlockED1Ev
 *fill*         0x0000000000051285        0x1 90909090
 .text._ZNKSt8_Rb_treeIP10CInfoBlockS1_St9_IdentityIS1_E7CTSCompSaIS1_EE21_M_get_Node_allocatorEv
                0x0000000000051286        0xe cache.o
                0x0000000000051286                _ZNKSt8_Rb_treeIP10CInfoBlockS1_St9_IdentityIS1_E7CTSCompSaIS1_EE21_M_get_Node_allocatorEv
 .text._ZNSt8_Rb_treeIP10CInfoBlockS1_St9_IdentityIS1_E7CTSCompSaIS1_EE11_M_leftmostEv
                0x0000000000051294       0x12 cache.o
                0x0000000000051294                _ZNSt8_Rb_treeIP10CInfoBlockS1_St9_IdentityIS1_E7CTSCompSaIS1_EE11_M_leftmostEv
 .text._ZNSt8_Rb_treeIP10CInfoBlockS1_St9_IdentityIS1_E7CTSCompSaIS1_EE7_M_rootEv
                0x00000000000512a6       0x12 cache.o
                0x00000000000512a6                _ZNSt8_Rb_treeIP10CInfoBlockS1_St9_IdentityIS1_E7CTSCompSaIS1_EE7_M_rootEv
 .text._ZNSt8_Rb_treeIP10CInfoBlockS1_St9_IdentityIS1_E7CTSCompSaIS1_EE12_M_rightmostEv
                0x00000000000512b8       0x12 cache.o
                0x00000000000512b8                _ZNSt8_Rb_treeIP10CInfoBlockS1_St9_IdentityIS1_E7CTSCompSaIS1_EE12_M_rightmostEv
 .text._ZN9__gnu_cxx13new_allocatorIP10CInfoBlockE9constructEPS2_RKS2_
                0x00000000000512ca       0x3d cache.o
                0x00000000000512ca                _ZN9__gnu_cxx13new_allocatorIP10CInfoBlockE9constructEPS2_RKS2_
 *fill*         0x0000000000051307        0x1 90909090
 .text._ZNSt8_Rb_treeIP10CInfoBlockS1_St9_IdentityIS1_E7CIPCompSaIS1_EE11_M_leftmostEv
                0x0000000000051308       0x12 cache.o
                0x0000000000051308                _ZNSt8_Rb_treeIP10CInfoBlockS1_St9_IdentityIS1_E7CIPCompSaIS1_EE11_M_leftmostEv
 .text._ZNSt8_Rb_treeIP10CInfoBlockS1_St9_IdentityIS1_E7CIPCompSaIS1_EE7_M_rootEv
                0x000000000005131a       0x12 cache.o
                0x000000000005131a                _ZNSt8_Rb_treeIP10CInfoBlockS1_St9_IdentityIS1_E7CIPCompSaIS1_EE7_M_rootEv
 .text._ZNSt8_Rb_treeIP10CInfoBlockS1_St9_IdentityIS1_E7CIPCompSaIS1_EE12_M_rightmostEv
                0x000000000005132c       0x12 cache.o
                0x000000000005132c                _ZNSt8_Rb_treeIP10CInfoBlockS1_St9_IdentityIS1_E7CIPCompSaIS1_EE12_M_rightmostEv
 .text._ZN9__gnu_cxx13new_allocatorIP10CInfoBlockEC2Ev
                0x000000000005133e        0xa cache.o
                0x000000000005133e                _ZN9__gnu_cxx13new_allocatorIP10CInfoBlockEC2Ev
 .text._ZNSaIP10CInfoBlockEC1ISt13_Rb_tree_nodeIS0_EEERKSaIT_E
                0x0000000000051348       0x1b cache.o
                0x0000000000051348                _ZNSaIP10CInfoBlockEC1ISt13_Rb_tree_nodeIS0_EEERKSaIT_E
 *fill*         0x0000000000051363        0x1 90909090
 .text._ZNKSt8_Rb_treeIP10CInfoBlockS1_St9_IdentityIS1_E7CTSCompSaIS1_EE13get_allocatorEv
                0x0000000000051364       0x38 cache.o
                0x0000000000051364                _ZNKSt8_Rb_treeIP10CInfoBlockS1_St9_IdentityIS1_E7CTSCompSaIS1_EE13get_allocatorEv
 .text._ZNKSt8_Rb_treeIP10CInfoBlockS1_St9_IdentityIS1_E7CIPCompSaIS1_EE13get_allocatorEv
                0x000000000005139c       0x38 cache.o
                0x000000000005139c                _ZNKSt8_Rb_treeIP10CInfoBlockS1_St9_IdentityIS1_E7CIPCompSaIS1_EE13get_allocatorEv
 .text._ZNK9__gnu_cxx13new_allocatorISt13_Rb_tree_nodeIP10CInfoBlockEE8max_sizeEv
                0x00000000000513d4       0x14 cache.o
                0x00000000000513d4                _ZNK9__gnu_cxx13new_allocatorISt13_Rb_tree_nodeIP10CInfoBlockEE8max_sizeEv
 .text._ZN9__gnu_cxx13new_allocatorISt13_Rb_tree_nodeIP10CInfoBlockEE10deallocateEPS4_m
                0x00000000000513e8       0x1f cache.o
                0x00000000000513e8                _ZN9__gnu_cxx13new_allocatorISt13_Rb_tree_nodeIP10CInfoBlockEE10deallocateEPS4_m
 *fill*         0x0000000000051407        0x1 90909090
 .text._ZNSt8_Rb_treeIP10CInfoBlockS1_St9_IdentityIS1_E7CTSCompSaIS1_EE11_M_put_nodeEPSt13_Rb_tree_nodeIS1_E
                0x0000000000051408       0x27 cache.o
                0x0000000000051408                _ZNSt8_Rb_treeIP10CInfoBlockS1_St9_IdentityIS1_E7CTSCompSaIS1_EE11_M_put_nodeEPSt13_Rb_tree_nodeIS1_E
 *fill*         0x000000000005142f        0x1 90909090
 .text._ZNSt8_Rb_treeIP10CInfoBlockS1_St9_IdentityIS1_E7CTSCompSaIS1_EE15_M_destroy_nodeEPSt13_Rb_tree_nodeIS1_E
                0x0000000000051430       0x4f cache.o
                0x0000000000051430                _ZNSt8_Rb_treeIP10CInfoBlockS1_St9_IdentityIS1_E7CTSCompSaIS1_EE15_M_destroy_nodeEPSt13_Rb_tree_nodeIS1_E
 *fill*         0x000000000005147f        0x1 90909090
 .text._ZNSt8_Rb_treeIP10CInfoBlockS1_St9_IdentityIS1_E7CTSCompSaIS1_EE8_M_eraseEPSt13_Rb_tree_nodeIS1_E
                0x0000000000051480       0x52 cache.o
                0x0000000000051480                _ZNSt8_Rb_treeIP10CInfoBlockS1_St9_IdentityIS1_E7CTSCompSaIS1_EE8_M_eraseEPSt13_Rb_tree_nodeIS1_E
 .text._ZNSt8_Rb_treeIP10CInfoBlockS1_St9_IdentityIS1_E7CTSCompSaIS1_EE5clearEv
                0x00000000000514d2       0x75 cache.o
                0x00000000000514d2                _ZNSt8_Rb_treeIP10CInfoBlockS1_St9_IdentityIS1_E7CTSCompSaIS1_EE5clearEv
 *fill*         0x0000000000051547        0x1 90909090
 .text._ZNSt8_Rb_treeIP10CInfoBlockS1_St9_IdentityIS1_E7CTSCompSaIS1_EED1Ev
                0x0000000000051548       0x6a cache.o
                0x0000000000051548                _ZNSt8_Rb_treeIP10CInfoBlockS1_St9_IdentityIS1_E7CTSCompSaIS1_EED1Ev
 .text._ZNSt3setIP10CInfoBlock7CTSCompSaIS1_EED1Ev
                0x00000000000515b2       0x17 cache.o
                0x00000000000515b2                _ZNSt3setIP10CInfoBlock7CTSCompSaIS1_EED1Ev
 *fill*         0x00000000000515c9        0x1 90909090
 .text._ZNSt8_Rb_treeIP10CInfoBlockS1_St9_IdentityIS1_E7CIPCompSaIS1_EE11_M_put_nodeEPSt13_Rb_tree_nodeIS1_E
                0x00000000000515ca       0x27 cache.o
                0x00000000000515ca                _ZNSt8_Rb_treeIP10CInfoBlockS1_St9_IdentityIS1_E7CIPCompSaIS1_EE11_M_put_nodeEPSt13_Rb_tree_nodeIS1_E
 *fill*         0x00000000000515f1        0x1 90909090
 .text._ZNSt8_Rb_treeIP10CInfoBlockS1_St9_IdentityIS1_E7CIPCompSaIS1_EE15_M_destroy_nodeEPSt13_Rb_tree_nodeIS1_E
                0x00000000000515f2       0x4f cache.o
                0x00000000000515f2                _ZNSt8_Rb_treeIP10CInfoBlockS1_St9_IdentityIS1_E7CIPCompSaIS1_EE15_M_destroy_nodeEPSt13_Rb_tree_nodeIS1_E
 *fill*         0x0000000000051641        0x1 90909090
 .text._ZNSt8_Rb_treeIP10CInfoBlockS1_St9_IdentityIS1_E7CIPCompSaIS1_EE8_M_eraseEPSt13_Rb_tree_nodeIS1_E
                0x0000000000051642       0x52 cache.o
                0x0000000000051642                _ZNSt8_Rb_treeIP10CInfoBlockS1_St9_IdentityIS1_E7CIPCompSaIS1_EE8_M_eraseEPSt13_Rb_tree_nodeIS1_E
 .text._ZNSt8_Rb_treeIP10CInfoBlockS1_St9_IdentityIS1_E7CIPCompSaIS1_EE5clearEv
                0x0000000000051694       0x75 cache.o
                0x0000000000051694                _ZNSt8_Rb_treeIP10CInfoBlockS1_St9_IdentityIS1_E7CIPCompSaIS1_EE5clearEv
 *fill*         0x0000000000051709        0x1 90909090
 .text._ZNSt8_Rb_treeIP10CInfoBlockS1_St9_IdentityIS1_E7CIPCompSaIS1_EED1Ev
                0x000000000005170a       0x6a cache.o
                0x000000000005170a                _ZNSt8_Rb_treeIP10CInfoBlockS1_St9_IdentityIS1_E7CIPCompSaIS1_EED1Ev
 .text._ZNSt3setIP10CInfoBlock7CIPCompSaIS1_EED1Ev
                0x0000000000051774       0x17 cache.o
                0x0000000000051774                _ZNSt3setIP10CInfoBlock7CIPCompSaIS1_EED1Ev
 *fill*         0x000000000005178b        0x1 90909090
 .text._ZNSt17_Rb_tree_iteratorIP10CInfoBlockEppEi
                0x000000000005178c       0x36 cache.o
                0x000000000005178c                _ZNSt17_Rb_tree_iteratorIP10CInfoBlockEppEi
 .text._ZNSt8_Rb_treeIP10CInfoBlockS1_St9_IdentityIS1_E7CTSCompSaIS1_EE5eraseESt17_Rb_tree_iteratorIS1_E
                0x00000000000517c2       0x48 cache.o
                0x00000000000517c2                _ZNSt8_Rb_treeIP10CInfoBlockS1_St9_IdentityIS1_E7CTSCompSaIS1_EE5eraseESt17_Rb_tree_iteratorIS1_E
 .text._ZNSt8_Rb_treeIP10CInfoBlockS1_St9_IdentityIS1_E7CTSCompSaIS1_EE5eraseESt17_Rb_tree_iteratorIS1_ES8_
                0x000000000005180a       0xa0 cache.o
                0x000000000005180a                _ZNSt8_Rb_treeIP10CInfoBlockS1_St9_IdentityIS1_E7CTSCompSaIS1_EE5eraseESt17_Rb_tree_iteratorIS1_ES8_
 .text._ZNSt8_Rb_treeIP10CInfoBlockS1_St9_IdentityIS1_E7CTSCompSaIS1_EE5eraseERKS1_
                0x00000000000518aa       0x68 cache.o
                0x00000000000518aa                _ZNSt8_Rb_treeIP10CInfoBlockS1_St9_IdentityIS1_E7CTSCompSaIS1_EE5eraseERKS1_
 .text._ZNSt3setIP10CInfoBlock7CTSCompSaIS1_EE5eraseERKS1_
                0x0000000000051912       0x1f cache.o
                0x0000000000051912                _ZNSt3setIP10CInfoBlock7CTSCompSaIS1_EE5eraseERKS1_
 *fill*         0x0000000000051931        0x1 90909090
 .text._ZNSt8_Rb_treeIP10CInfoBlockS1_St9_IdentityIS1_E7CIPCompSaIS1_EE5eraseESt23_Rb_tree_const_iteratorIS1_E
                0x0000000000051932       0x4b cache.o
                0x0000000000051932                _ZNSt8_Rb_treeIP10CInfoBlockS1_St9_IdentityIS1_E7CIPCompSaIS1_EE5eraseESt23_Rb_tree_const_iteratorIS1_E
 *fill*         0x000000000005197d        0x1 90909090
 .text._ZNSt3setIP10CInfoBlock7CIPCompSaIS1_EE5eraseESt23_Rb_tree_const_iteratorIS1_E
                0x000000000005197e       0x1f cache.o
                0x000000000005197e                _ZNSt3setIP10CInfoBlock7CIPCompSaIS1_EE5eraseESt23_Rb_tree_const_iteratorIS1_E
 *fill*         0x000000000005199d        0x1 90909090
 .text._ZNSt8_Rb_treeIP10CInfoBlockS1_St9_IdentityIS1_E7CIPCompSaIS1_EE5eraseESt17_Rb_tree_iteratorIS1_E
                0x000000000005199e       0x48 cache.o
                0x000000000005199e                _ZNSt8_Rb_treeIP10CInfoBlockS1_St9_IdentityIS1_E7CIPCompSaIS1_EE5eraseESt17_Rb_tree_iteratorIS1_E
 .text._ZNSt8_Rb_treeIP10CInfoBlockS1_St9_IdentityIS1_E7CIPCompSaIS1_EE5eraseESt17_Rb_tree_iteratorIS1_ES8_
                0x00000000000519e6       0xa0 cache.o
                0x00000000000519e6                _ZNSt8_Rb_treeIP10CInfoBlockS1_St9_IdentityIS1_E7CIPCompSaIS1_EE5eraseESt17_Rb_tree_iteratorIS1_ES8_
 .text._ZNSt8_Rb_treeIP10CInfoBlockS1_St9_IdentityIS1_E7CIPCompSaIS1_EE5eraseERKS1_
                0x0000000000051a86       0x68 cache.o
                0x0000000000051a86                _ZNSt8_Rb_treeIP10CInfoBlockS1_St9_IdentityIS1_E7CIPCompSaIS1_EE5eraseERKS1_
 .text._ZNSt3setIP10CInfoBlock7CIPCompSaIS1_EE5eraseERKS1_
                0x0000000000051aee       0x1f cache.o
                0x0000000000051aee                _ZNSt3setIP10CInfoBlock7CIPCompSaIS1_EE5eraseERKS1_
 *fill*         0x0000000000051b0d        0x1 90909090
 .text._ZNSt8_Rb_treeIP10CInfoBlockS1_St9_IdentityIS1_E7CTSCompSaIS1_EE5eraseESt23_Rb_tree_const_iteratorIS1_E
                0x0000000000051b0e       0x4b cache.o
                0x0000000000051b0e                _ZNSt8_Rb_treeIP10CInfoBlockS1_St9_IdentityIS1_E7CTSCompSaIS1_EE5eraseESt23_Rb_tree_const_iteratorIS1_E
 *fill*         0x0000000000051b59        0x1 90909090
 .text._ZNSt3setIP10CInfoBlock7CTSCompSaIS1_EE5eraseESt23_Rb_tree_const_iteratorIS1_E
                0x0000000000051b5a       0x1f cache.o
                0x0000000000051b5a                _ZNSt3setIP10CInfoBlock7CTSCompSaIS1_EE5eraseESt23_Rb_tree_const_iteratorIS1_E
 *fill*         0x0000000000051b79        0x1 90909090
 .text._ZNSt17_Rb_tree_iteratorIP10CInfoBlockEmmEv
                0x0000000000051b7a       0x28 cache.o
                0x0000000000051b7a                _ZNSt17_Rb_tree_iteratorIP10CInfoBlockEmmEv
 .text._ZN9__gnu_cxx13new_allocatorISt13_Rb_tree_nodeIP10CInfoBlockEE8allocateEmPKv
                0x0000000000051ba2       0x52 cache.o
                0x0000000000051ba2                _ZN9__gnu_cxx13new_allocatorISt13_Rb_tree_nodeIP10CInfoBlockEE8allocateEmPKv
 .text._ZNSt8_Rb_treeIP10CInfoBlockS1_St9_IdentityIS1_E7CIPCompSaIS1_EE11_M_get_nodeEv
                0x0000000000051bf4       0x24 cache.o
                0x0000000000051bf4                _ZNSt8_Rb_treeIP10CInfoBlockS1_St9_IdentityIS1_E7CIPCompSaIS1_EE11_M_get_nodeEv
 .text._ZNSt8_Rb_treeIP10CInfoBlockS1_St9_IdentityIS1_E7CIPCompSaIS1_EE14_M_create_nodeERKS1_
                0x0000000000051c18       0x57 cache.o
                0x0000000000051c18                _ZNSt8_Rb_treeIP10CInfoBlockS1_St9_IdentityIS1_E7CIPCompSaIS1_EE14_M_create_nodeERKS1_
 *fill*         0x0000000000051c6f        0x1 90909090
 .text._ZNSt8_Rb_treeIP10CInfoBlockS1_St9_IdentityIS1_E7CIPCompSaIS1_EE10_M_insert_EPKSt18_Rb_tree_node_baseS9_RKS1_
                0x0000000000051c70       0xc2 cache.o
                0x0000000000051c70                _ZNSt8_Rb_treeIP10CInfoBlockS1_St9_IdentityIS1_E7CIPCompSaIS1_EE10_M_insert_EPKSt18_Rb_tree_node_baseS9_RKS1_
 .text._ZNSt8_Rb_treeIP10CInfoBlockS1_St9_IdentityIS1_E7CIPCompSaIS1_EE16_M_insert_uniqueERKS1_
                0x0000000000051d32      0x206 cache.o
                0x0000000000051d32                _ZNSt8_Rb_treeIP10CInfoBlockS1_St9_IdentityIS1_E7CIPCompSaIS1_EE16_M_insert_uniqueERKS1_
 .text._ZNSt3setIP10CInfoBlock7CIPCompSaIS1_EE6insertERKS1_
                0x0000000000051f38       0x6f cache.o
                0x0000000000051f38                _ZNSt3setIP10CInfoBlock7CIPCompSaIS1_EE6insertERKS1_
 *fill*         0x0000000000051fa7        0x1 90909090
 .text._ZNSt8_Rb_treeIP10CInfoBlockS1_St9_IdentityIS1_E7CTSCompSaIS1_EE11_M_get_nodeEv
                0x0000000000051fa8       0x24 cache.o
                0x0000000000051fa8                _ZNSt8_Rb_treeIP10CInfoBlockS1_St9_IdentityIS1_E7CTSCompSaIS1_EE11_M_get_nodeEv
 .text._ZNSt8_Rb_treeIP10CInfoBlockS1_St9_IdentityIS1_E7CTSCompSaIS1_EE14_M_create_nodeERKS1_
                0x0000000000051fcc       0x57 cache.o
                0x0000000000051fcc                _ZNSt8_Rb_treeIP10CInfoBlockS1_St9_IdentityIS1_E7CTSCompSaIS1_EE14_M_create_nodeERKS1_
 *fill*         0x0000000000052023        0x1 90909090
 .text._ZNSt8_Rb_treeIP10CInfoBlockS1_St9_IdentityIS1_E7CTSCompSaIS1_EE10_M_insert_EPKSt18_Rb_tree_node_baseS9_RKS1_
                0x0000000000052024       0xc2 cache.o
                0x0000000000052024                _ZNSt8_Rb_treeIP10CInfoBlockS1_St9_IdentityIS1_E7CTSCompSaIS1_EE10_M_insert_EPKSt18_Rb_tree_node_baseS9_RKS1_
 .text._ZNSt8_Rb_treeIP10CInfoBlockS1_St9_IdentityIS1_E7CTSCompSaIS1_EE16_M_insert_uniqueERKS1_
                0x00000000000520e6      0x206 cache.o
                0x00000000000520e6                _ZNSt8_Rb_treeIP10CInfoBlockS1_St9_IdentityIS1_E7CTSCompSaIS1_EE16_M_insert_uniqueERKS1_
 .text._ZNSt3setIP10CInfoBlock7CTSCompSaIS1_EE6insertERKS1_
                0x00000000000522ec       0x6f cache.o
                0x00000000000522ec                _ZNSt3setIP10CInfoBlock7CTSCompSaIS1_EE6insertERKS1_
 *fill*         0x000000000005235b        0x1 90909090
 .text._ZNSt23_Rb_tree_const_iteratorIP10CInfoBlockEppEv
                0x000000000005235c       0x28 cache.o
                0x000000000005235c                _ZNSt23_Rb_tree_const_iteratorIP10CInfoBlockEppEv
 .text          0x0000000000052384     0x3dc8 queue.o
                0x000000000005294a                _ZN5CHashD1Ev
                0x000000000005323e                _ZN9CRcvQueue11setNewEntryEP4CUDT
                0x000000000005315a                _ZN16CRendezvousQueue6removeERKi
                0x0000000000054a2e                _ZN16CRendezvousQueueD2Ev
                0x000000000005605a                _ZN9CSndUList6updateEPK4CUDTRKb
                0x00000000000526ae                _ZN9CRcvUList6removeEPK4CUDT
                0x0000000000054ee8                _ZN9CRcvQueueD2Ev
                0x0000000000054c70                _ZN9CRcvQueueD1Ev
                0x0000000000055614                _ZN9CSndUListC2Ev
                0x0000000000052448                _ZN9CSndUList7remove_EPK4CUDT
                0x0000000000054b3c                _ZN9CSndQueueD1Ev
                0x0000000000054b08                _ZN9CSndUListD2Ev
                0x00000000000553b4                _ZN16CRendezvousQueueC2Ev
                0x00000000000558de                _ZN9CRcvQueueC2Ev
                0x0000000000054988                _ZN16CRendezvousQueueD1Ev
                0x00000000000526a4                _ZN9CRcvUListD1Ev
                0x0000000000055d2a                _ZN9CSndUList3popERP8sockaddrR7CPacket
                0x00000000000554bc                _ZN9CSndQueue4initEPK8CChannelPK6CTimer
                0x0000000000052872                _ZN5CHash6removeERKi
                0x000000000005389e                _ZN10CUnitQueue8increaseEv
                0x0000000000052656                _ZN9CRcvUListC2Ev
                0x00000000000527b0                _ZN5CHashC1Ev
                0x00000000000529ca                _ZN5CHashD2Ev
                0x0000000000053e70                _ZN10CUnitQueue4initERKiS1_S1_
                0x0000000000055160                _ZN16CRendezvousQueueC1Ev
                0x00000000000536f8                _ZN5CHash4initERKi
                0x000000000005269a                _ZN9CRcvUListD2Ev
                0x000000000005376a                _ZN9CSndUList6insertERKlPK4CUDT
                0x00000000000527d0                _ZN5CHash6lookupERKi
                0x00000000000532c2                _ZN16CRendezvousQueue6insertERKiS1_PK8sockaddr
                0x0000000000052678                _ZN9CRcvUListC1Ev
                0x0000000000052d98                _ZN5CHash6insertERKiPK4CUDT
                0x0000000000054ad4                _ZN9CSndUListD1Ev
                0x0000000000052f4e                _ZN9CRcvQueue14removeListenerEPK4CUDT
                0x000000000005434c                _ZN9CRcvUList6updateEPK4CUDT
                0x0000000000052b2c                _ZN10CUnitQueueD2Ev
                0x000000000005442c                _ZN9CRcvUList6insertEPK4CUDT
                0x00000000000523de                _ZN10CUnitQueueC1Ev
                0x0000000000054234                _ZN16CRendezvousQueue8retrieveEPK8sockaddrRi
                0x0000000000055cf6                _ZN9CSndQueue6sendtoEPK8sockaddrR7CPacket
                0x0000000000052e44                _ZN9CRcvQueue8storePktERKiP7CPacket
                0x00000000000530be                _ZN9CRcvQueue11getNewEntryEv
                0x0000000000052fa0                _ZN9CRcvQueue11setListenerEPK4CUDT
                0x0000000000052a4a                _ZN10CUnitQueueD1Ev
                0x0000000000052790                _ZN5CHashC2Ev
                0x00000000000556c6                _ZN9CRcvQueueC1Ev
                0x0000000000054bd6                _ZN9CSndQueueD2Ev
                0x0000000000055af6                _ZN9CSndQueueC1Ev
                0x00000000000551b6                _ZN9CRcvQueue4initERKiS1_S1_S1_PK8CChannelPK6CTimer
                0x000000000005540a                _ZN9CSndUListC1Ev
                0x0000000000053002                _ZN9CSndUList15getNextProcTimeEv
                0x0000000000055bf6                _ZN9CSndQueueC2Ev
                0x0000000000055e5a                _ZN9CSndQueue6workerEPv
                0x0000000000053056                _ZN9CSndUList6removeEPK4CUDT
                0x0000000000052438                _ZN10CUnitQueue6shrinkEv
                0x00000000000544de                _ZN9CRcvQueue6workerEPv
                0x0000000000052384                _ZN10CUnitQueueC2Ev
                0x0000000000052850                _ZN9CRcvQueue10ifNewEntryEv
                0x0000000000052c0e                _ZN9CSndUList7insert_ERKlPK4CUDT
                0x00000000000533ae                _ZN9CRcvQueue8recvfromERKiR7CPacket
                0x0000000000053d0c                _ZN10CUnitQueue16getNextAvailUnitEv
 .text._ZN9__gnu_cxx17__normal_iteratorIPN16CRendezvousQueue3CRLESt6vectorIS2_SaIS2_EEEppEv
                0x000000000005614c       0x20 queue.o
                0x000000000005614c                _ZN9__gnu_cxx17__normal_iteratorIPN16CRendezvousQueue3CRLESt6vectorIS2_SaIS2_EEEppEv
 .text._ZNK9__gnu_cxx17__normal_iteratorIPN16CRendezvousQueue3CRLESt6vectorIS2_SaIS2_EEEptEv
                0x000000000005616c       0x11 queue.o
                0x000000000005616c                _ZNK9__gnu_cxx17__normal_iteratorIPN16CRendezvousQueue3CRLESt6vectorIS2_SaIS2_EEEptEv
 *fill*         0x000000000005617d        0x1 90909090
 .text._ZNKSt17_Rb_tree_iteratorISt4pairIKiP7CPacketEEneERKS5_
                0x000000000005617e       0x22 queue.o
                0x000000000005617e                _ZNKSt17_Rb_tree_iteratorISt4pairIKiP7CPacketEEneERKS5_
 .text._ZNKSt17_Rb_tree_iteratorISt4pairIKiP7CPacketEEptEv
                0x00000000000561a0       0x15 queue.o
                0x00000000000561a0                _ZNKSt17_Rb_tree_iteratorISt4pairIKiP7CPacketEEptEv
 *fill*         0x00000000000561b5        0x1 90909090
 .text._ZNKSt17_Rb_tree_iteratorISt4pairIKiP7CPacketEEeqERKS5_
                0x00000000000561b6       0x22 queue.o
                0x00000000000561b6                _ZNKSt17_Rb_tree_iteratorISt4pairIKiP7CPacketEEeqERKS5_
 .text._ZNK9__gnu_cxx17__normal_iteratorIPP4CUDTSt6vectorIS2_SaIS2_EEEdeEv
                0x00000000000561d8       0x11 queue.o
                0x00000000000561d8                _ZNK9__gnu_cxx17__normal_iteratorIPP4CUDTSt6vectorIS2_SaIS2_EEEdeEv
 *fill*         0x00000000000561e9        0x1 90909090
 .text._ZNSt12_Vector_baseIN16CRendezvousQueue3CRLESaIS1_EE19_M_get_Tp_allocatorEv
                0x00000000000561ea        0xe queue.o
                0x00000000000561ea                _ZNSt12_Vector_baseIN16CRendezvousQueue3CRLESaIS1_EE19_M_get_Tp_allocatorEv
 .text._ZN9__gnu_cxx17__normal_iteratorIPN16CRendezvousQueue3CRLESt6vectorIS2_SaIS2_EEEC1ERKS3_
                0x00000000000561f8       0x1c queue.o
                0x00000000000561f8                _ZN9__gnu_cxx17__normal_iteratorIPN16CRendezvousQueue3CRLESt6vectorIS2_SaIS2_EEEC1ERKS3_
 .text._ZNSt6vectorIN16CRendezvousQueue3CRLESaIS1_EE5beginEv
                0x0000000000056214       0x1f queue.o
                0x0000000000056214                _ZNSt6vectorIN16CRendezvousQueue3CRLESaIS1_EE5beginEv
 *fill*         0x0000000000056233        0x1 90909090
 .text._ZNSt6vectorIN16CRendezvousQueue3CRLESaIS1_EE3endEv
                0x0000000000056234       0x23 queue.o
                0x0000000000056234                _ZNSt6vectorIN16CRendezvousQueue3CRLESaIS1_EE3endEv
 *fill*         0x0000000000056257        0x1 90909090
 .text._ZNK9__gnu_cxx17__normal_iteratorIPN16CRendezvousQueue3CRLESt6vectorIS2_SaIS2_EEE4baseEv
                0x0000000000056258        0xe queue.o
                0x0000000000056258                _ZNK9__gnu_cxx17__normal_iteratorIPN16CRendezvousQueue3CRLESt6vectorIS2_SaIS2_EEE4baseEv
 .text._ZN9__gnu_cxxneIPN16CRendezvousQueue3CRLESt6vectorIS2_SaIS2_EEEEbRKNS_17__normal_iteratorIT_T0_EESC_
                0x0000000000056266       0x36 queue.o
                0x0000000000056266                _ZN9__gnu_cxxneIPN16CRendezvousQueue3CRLESt6vectorIS2_SaIS2_EEEEbRKNS_17__normal_iteratorIT_T0_EESC_
 .text._ZN9__gnu_cxxmiIPN16CRendezvousQueue3CRLESt6vectorIS2_SaIS2_EEEENS_17__normal_iteratorIT_T0_E15difference_typeERKSA_SD_
                0x000000000005629c       0x40 queue.o
                0x000000000005629c                _ZN9__gnu_cxxmiIPN16CRendezvousQueue3CRLESt6vectorIS2_SaIS2_EEEENS_17__normal_iteratorIT_T0_E15difference_typeERKSA_SD_
 .text._ZN9__gnu_cxxeqIPN16CRendezvousQueue3CRLESt6vectorIS2_SaIS2_EEEEbRKNS_17__normal_iteratorIT_T0_EESC_
                0x00000000000562dc       0x36 queue.o
                0x00000000000562dc                _ZN9__gnu_cxxeqIPN16CRendezvousQueue3CRLESt6vectorIS2_SaIS2_EEEEbRKNS_17__normal_iteratorIT_T0_EESC_
 .text._ZN9__gnu_cxx13new_allocatorIN16CRendezvousQueue3CRLEE9constructEPS2_RKS2_
                0x0000000000056312       0x49 queue.o
                0x0000000000056312                _ZN9__gnu_cxx13new_allocatorIN16CRendezvousQueue3CRLEE9constructEPS2_RKS2_
 *fill*         0x000000000005635b        0x1 90909090
 .text._ZNK9__gnu_cxx17__normal_iteratorIPN16CRendezvousQueue3CRLESt6vectorIS2_SaIS2_EEEplERKl
                0x000000000005635c       0x3d queue.o
                0x000000000005635c                _ZNK9__gnu_cxx17__normal_iteratorIPN16CRendezvousQueue3CRLESt6vectorIS2_SaIS2_EEEplERKl
 *fill*         0x0000000000056399        0x1 90909090
 .text._ZN16CRendezvousQueue3CRLD1Ev
                0x000000000005639a        0xa queue.o
                0x000000000005639a                _ZN16CRendezvousQueue3CRLD1Ev
 .text._ZN9__gnu_cxx13new_allocatorIN16CRendezvousQueue3CRLEE7destroyEPS2_
                0x00000000000563a4       0x1b queue.o
                0x00000000000563a4                _ZN9__gnu_cxx13new_allocatorIN16CRendezvousQueue3CRLEE7destroyEPS2_
 *fill*         0x00000000000563bf        0x1 90909090
 .text._ZNSt12_Vector_baseIP4CUDTSaIS1_EE19_M_get_Tp_allocatorEv
                0x00000000000563c0        0xe queue.o
                0x00000000000563c0                _ZNSt12_Vector_baseIP4CUDTSaIS1_EE19_M_get_Tp_allocatorEv
 .text._ZNSt8_Rb_treeIiSt4pairIKiP7CPacketESt10_Select1stIS4_ESt4lessIiESaIS4_EE8_M_beginEv
                0x00000000000563ce       0x12 queue.o
                0x00000000000563ce                _ZNSt8_Rb_treeIiSt4pairIKiP7CPacketESt10_Select1stIS4_ESt4lessIiESaIS4_EE8_M_beginEv
 .text._ZN9__gnu_cxx17__normal_iteratorIPP4CUDTSt6vectorIS2_SaIS2_EEEC1ERKS3_
                0x00000000000563e0       0x1c queue.o
                0x00000000000563e0                _ZN9__gnu_cxx17__normal_iteratorIPP4CUDTSt6vectorIS2_SaIS2_EEEC1ERKS3_
 .text._ZNSt6vectorIP4CUDTSaIS1_EE5beginEv
                0x00000000000563fc       0x1f queue.o
                0x00000000000563fc                _ZNSt6vectorIP4CUDTSaIS1_EE5beginEv
 *fill*         0x000000000005641b        0x1 90909090
 .text._ZNSt6vectorIP4CUDTSaIS1_EE3endEv
                0x000000000005641c       0x23 queue.o
                0x000000000005641c                _ZNSt6vectorIP4CUDTSaIS1_EE3endEv
 *fill*         0x000000000005643f        0x1 90909090
 .text._ZN9__gnu_cxx13new_allocatorIP4CUDTE9constructEPS2_RKS2_
                0x0000000000056440       0x3d queue.o
                0x0000000000056440                _ZN9__gnu_cxx13new_allocatorIP4CUDTE9constructEPS2_RKS2_
 *fill*         0x000000000005647d        0x1 90909090
 .text._ZNK9__gnu_cxx17__normal_iteratorIPP4CUDTSt6vectorIS2_SaIS2_EEEplERKl
                0x000000000005647e       0x3d queue.o
                0x000000000005647e                _ZNK9__gnu_cxx17__normal_iteratorIPP4CUDTSt6vectorIS2_SaIS2_EEEplERKl
 *fill*         0x00000000000564bb        0x1 90909090
 .text._ZN9__gnu_cxx13new_allocatorIP4CUDTE7destroyEPS2_
                0x00000000000564bc        0xe queue.o
                0x00000000000564bc                _ZN9__gnu_cxx13new_allocatorIP4CUDTE7destroyEPS2_
 .text._ZNKSt17_Rb_tree_iteratorISt4pairIKiP7CPacketEEdeEv
                0x00000000000564ca       0x15 queue.o
                0x00000000000564ca                _ZNKSt17_Rb_tree_iteratorISt4pairIKiP7CPacketEEdeEv
 *fill*         0x00000000000564df        0x1 90909090
 .text._ZNSt4pairIKiP7CPacketEC1ERS0_RKS2_
                0x00000000000564e0       0x2d queue.o
                0x00000000000564e0                _ZNSt4pairIKiP7CPacketEC1ERS0_RKS2_
 .text._ZSt8_DestroyIPN16CRendezvousQueue3CRLEEvT_S3_
                0x000000000005650d        0xe queue.o
                0x000000000005650d                _ZSt8_DestroyIPN16CRendezvousQueue3CRLEEvT_S3_
 .text._ZSt8_DestroyIPN16CRendezvousQueue3CRLES1_EvT_S3_RSaIT0_E
                0x000000000005651b       0x23 queue.o
                0x000000000005651b                _ZSt8_DestroyIPN16CRendezvousQueue3CRLES1_EvT_S3_RSaIT0_E
 .text._ZNSt6vectorIN16CRendezvousQueue3CRLESaIS1_EE15_M_erase_at_endEPS1_
                0x000000000005653e       0x3b queue.o
                0x000000000005653e                _ZNSt6vectorIN16CRendezvousQueue3CRLESaIS1_EE15_M_erase_at_endEPS1_
 *fill*         0x0000000000056579        0x1 90909090
 .text._ZNSt6vectorIN16CRendezvousQueue3CRLESaIS1_EE5clearEv
                0x000000000005657a       0x1e queue.o
                0x000000000005657a                _ZNSt6vectorIN16CRendezvousQueue3CRLESaIS1_EE5clearEv
 .text._ZNK9__gnu_cxx17__normal_iteratorIPN16CRendezvousQueue3CRLESt6vectorIS2_SaIS2_EEEdeEv
                0x0000000000056598       0x11 queue.o
                0x0000000000056598                _ZNK9__gnu_cxx17__normal_iteratorIPN16CRendezvousQueue3CRLESt6vectorIS2_SaIS2_EEEdeEv
 .text._ZNSt12__miter_baseIN9__gnu_cxx17__normal_iteratorIPN16CRendezvousQueue3CRLESt6vectorIS3_SaIS3_EEEELb0EE3__bES8_
                0x00000000000565a9        0xe queue.o
                0x00000000000565a9                _ZNSt12__miter_baseIN9__gnu_cxx17__normal_iteratorIPN16CRendezvousQueue3CRLESt6vectorIS3_SaIS3_EEEELb0EE3__bES8_
 .text._ZSt8_DestroyIPP4CUDTEvT_S3_
                0x00000000000565b7        0xe queue.o
                0x00000000000565b7                _ZSt8_DestroyIPP4CUDTEvT_S3_
 .text._ZSt8_DestroyIPP4CUDTS1_EvT_S3_RSaIT0_E
                0x00000000000565c5       0x23 queue.o
                0x00000000000565c5                _ZSt8_DestroyIPP4CUDTS1_EvT_S3_RSaIT0_E
 .text._ZN9__gnu_cxx13new_allocatorISt13_Rb_tree_nodeISt4pairIKiP7CPacketEEED2Ev
                0x00000000000565e8        0xa queue.o
                0x00000000000565e8                _ZN9__gnu_cxx13new_allocatorISt13_Rb_tree_nodeISt4pairIKiP7CPacketEEED2Ev
 .text._ZNSaISt13_Rb_tree_nodeISt4pairIKiP7CPacketEEED2Ev
                0x00000000000565f2       0x17 queue.o
                0x00000000000565f2                _ZNSaISt13_Rb_tree_nodeISt4pairIKiP7CPacketEEED2Ev
 *fill*         0x0000000000056609        0x1 90909090
 .text._ZNSt8_Rb_treeIiSt4pairIKiP7CPacketESt10_Select1stIS4_ESt4lessIiESaIS4_EE13_Rb_tree_implIS8_Lb0EED1Ev
                0x000000000005660a       0x17 queue.o
                0x000000000005660a                _ZNSt8_Rb_treeIiSt4pairIKiP7CPacketESt10_Select1stIS4_ESt4lessIiESaIS4_EE13_Rb_tree_implIS8_Lb0EED1Ev
 .text._ZNSt8_Rb_treeIiSt4pairIKiP7CPacketESt10_Select1stIS4_ESt4lessIiESaIS4_EE8_S_rightEPSt18_Rb_tree_node_base
                0x0000000000056621       0x12 queue.o
                0x0000000000056621                _ZNSt8_Rb_treeIiSt4pairIKiP7CPacketESt10_Select1stIS4_ESt4lessIiESaIS4_EE8_S_rightEPSt18_Rb_tree_node_base
 .text._ZNSt8_Rb_treeIiSt4pairIKiP7CPacketESt10_Select1stIS4_ESt4lessIiESaIS4_EE7_S_leftEPSt18_Rb_tree_node_base
                0x0000000000056633       0x12 queue.o
                0x0000000000056633                _ZNSt8_Rb_treeIiSt4pairIKiP7CPacketESt10_Select1stIS4_ESt4lessIiESaIS4_EE7_S_leftEPSt18_Rb_tree_node_base
 *fill*         0x0000000000056645        0x1 90909090
 .text._ZNSt17_Rb_tree_iteratorISt4pairIKiP7CPacketEEC1EPSt13_Rb_tree_nodeIS4_E
                0x0000000000056646       0x19 queue.o
                0x0000000000056646                _ZNSt17_Rb_tree_iteratorISt4pairIKiP7CPacketEEC1EPSt13_Rb_tree_nodeIS4_E
 *fill*         0x000000000005665f        0x1 90909090
 .text._ZNSt8_Rb_treeIiSt4pairIKiP7CPacketESt10_Select1stIS4_ESt4lessIiESaIS4_EE3endEv
                0x0000000000056660       0x26 queue.o
                0x0000000000056660                _ZNSt8_Rb_treeIiSt4pairIKiP7CPacketESt10_Select1stIS4_ESt4lessIiESaIS4_EE3endEv
 .text._ZNSt3mapIiP7CPacketSt4lessIiESaISt4pairIKiS1_EEE3endEv
                0x0000000000056686       0x17 queue.o
                0x0000000000056686                _ZNSt3mapIiP7CPacketSt4lessIiESaISt4pairIKiS1_EEE3endEv
 *fill*         0x000000000005669d        0x1 90909090
 .text._ZNSt8_Rb_treeIiSt4pairIKiP7CPacketESt10_Select1stIS4_ESt4lessIiESaIS4_EE5beginEv
                0x000000000005669e       0x26 queue.o
                0x000000000005669e                _ZNSt8_Rb_treeIiSt4pairIKiP7CPacketESt10_Select1stIS4_ESt4lessIiESaIS4_EE5beginEv
 .text._ZNSt3mapIiP7CPacketSt4lessIiESaISt4pairIKiS1_EEE5beginEv
                0x00000000000566c4       0x17 queue.o
                0x00000000000566c4                _ZNSt3mapIiP7CPacketSt4lessIiESaISt4pairIKiS1_EEE5beginEv
 *fill*         0x00000000000566db        0x1 90909090
 .text._ZNSt8_Rb_treeIiSt4pairIKiP7CPacketESt10_Select1stIS4_ESt4lessIiESaIS4_EE6_M_endEv
                0x00000000000566dc       0x12 queue.o
                0x00000000000566dc                _ZNSt8_Rb_treeIiSt4pairIKiP7CPacketESt10_Select1stIS4_ESt4lessIiESaIS4_EE6_M_endEv
 .text._ZNK9__gnu_cxx17__normal_iteratorIPP4CUDTSt6vectorIS2_SaIS2_EEE4baseEv
                0x00000000000566ee        0xe queue.o
                0x00000000000566ee                _ZNK9__gnu_cxx17__normal_iteratorIPP4CUDTSt6vectorIS2_SaIS2_EEE4baseEv
 .text._ZN9__gnu_cxxneIPP4CUDTSt6vectorIS2_SaIS2_EEEEbRKNS_17__normal_iteratorIT_T0_EESC_
                0x00000000000566fc       0x36 queue.o
                0x00000000000566fc                _ZN9__gnu_cxxneIPP4CUDTSt6vectorIS2_SaIS2_EEEEbRKNS_17__normal_iteratorIT_T0_EESC_
 .text._ZN9__gnu_cxxmiIPP4CUDTSt6vectorIS2_SaIS2_EEEENS_17__normal_iteratorIT_T0_E15difference_typeERKSA_SD_
                0x0000000000056732       0x40 queue.o
                0x0000000000056732                _ZN9__gnu_cxxmiIPP4CUDTSt6vectorIS2_SaIS2_EEEENS_17__normal_iteratorIT_T0_E15difference_typeERKSA_SD_
 .text._ZN9__gnu_cxxeqIPP4CUDTSt6vectorIS2_SaIS2_EEEEbRKNS_17__normal_iteratorIT_T0_EESC_
                0x0000000000056772       0x36 queue.o
                0x0000000000056772                _ZN9__gnu_cxxeqIPP4CUDTSt6vectorIS2_SaIS2_EEEEbRKNS_17__normal_iteratorIT_T0_EESC_
 .text._ZN9__gnu_cxx17__normal_iteratorIPKP4CUDTSt6vectorIS2_SaIS2_EEEC1ERKS4_
                0x00000000000567a8       0x1c queue.o
                0x00000000000567a8                _ZN9__gnu_cxx17__normal_iteratorIPKP4CUDTSt6vectorIS2_SaIS2_EEEC1ERKS4_
 .text._ZNKSt6vectorIP4CUDTSaIS1_EE3endEv
                0x00000000000567c4       0x2b queue.o
                0x00000000000567c4                _ZNKSt6vectorIP4CUDTSaIS1_EE3endEv
 *fill*         0x00000000000567ef        0x1 90909090
 .text._ZNKSt6vectorIP4CUDTSaIS1_EE5beginEv
                0x00000000000567f0       0x2a queue.o
                0x00000000000567f0                _ZNKSt6vectorIP4CUDTSaIS1_EE5beginEv
 .text._ZNK9__gnu_cxx17__normal_iteratorIPKP4CUDTSt6vectorIS2_SaIS2_EEE4baseEv
                0x000000000005681a        0xe queue.o
                0x000000000005681a                _ZNK9__gnu_cxx17__normal_iteratorIPKP4CUDTSt6vectorIS2_SaIS2_EEE4baseEv
 .text._ZN9__gnu_cxxeqIPKP4CUDTSt6vectorIS2_SaIS2_EEEEbRKNS_17__normal_iteratorIT_T0_EESD_
                0x0000000000056828       0x36 queue.o
                0x0000000000056828                _ZN9__gnu_cxxeqIPKP4CUDTSt6vectorIS2_SaIS2_EEEEbRKNS_17__normal_iteratorIT_T0_EESD_
 .text._ZNKSt6vectorIP4CUDTSaIS1_EE5emptyEv
                0x000000000005685e       0x35 queue.o
                0x000000000005685e                _ZNKSt6vectorIP4CUDTSaIS1_EE5emptyEv
 .text._ZNSt12__miter_baseIN9__gnu_cxx17__normal_iteratorIPP4CUDTSt6vectorIS3_SaIS3_EEEELb0EE3__bES8_
                0x0000000000056893        0xe queue.o
                0x0000000000056893                _ZNSt12__miter_baseIN9__gnu_cxx17__normal_iteratorIPP4CUDTSt6vectorIS3_SaIS3_EEEELb0EE3__bES8_
 *fill*         0x00000000000568a1        0x1 90909090
 .text._ZNKSt8_Rb_treeIiSt4pairIKiP7CPacketESt10_Select1stIS4_ESt4lessIiESaIS4_EE8key_compEv
                0x00000000000568a2        0xe queue.o
                0x00000000000568a2                _ZNKSt8_Rb_treeIiSt4pairIKiP7CPacketESt10_Select1stIS4_ESt4lessIiESaIS4_EE8key_compEv
 .text._ZNKSt3mapIiP7CPacketSt4lessIiESaISt4pairIKiS1_EEE8key_compEv
                0x00000000000568b0       0x1b queue.o
                0x00000000000568b0                _ZNKSt3mapIiP7CPacketSt4lessIiESaISt4pairIKiS1_EEE8key_compEv
 *fill*         0x00000000000568cb        0x1 90909090
 .text._ZNSt23_Rb_tree_const_iteratorISt4pairIKiP7CPacketEEC1ERKSt17_Rb_tree_iteratorIS4_E
                0x00000000000568cc       0x1c queue.o
                0x00000000000568cc                _ZNSt23_Rb_tree_const_iteratorISt4pairIKiP7CPacketEEC1ERKSt17_Rb_tree_iteratorIS4_E
 .text._ZN9__gnu_cxx13new_allocatorIN16CRendezvousQueue3CRLEED2Ev
                0x00000000000568e8        0xa queue.o
                0x00000000000568e8                _ZN9__gnu_cxx13new_allocatorIN16CRendezvousQueue3CRLEED2Ev
 .text._ZNSaIN16CRendezvousQueue3CRLEED2Ev
                0x00000000000568f2       0x17 queue.o
                0x00000000000568f2                _ZNSaIN16CRendezvousQueue3CRLEED2Ev
 *fill*         0x0000000000056909        0x1 90909090
 .text._ZNSt12_Vector_baseIN16CRendezvousQueue3CRLESaIS1_EE12_Vector_implD1Ev
                0x000000000005690a       0x17 queue.o
                0x000000000005690a                _ZNSt12_Vector_baseIN16CRendezvousQueue3CRLESaIS1_EE12_Vector_implD1Ev
 .text._ZNSt12__miter_baseIPN16CRendezvousQueue3CRLELb0EE3__bES2_
                0x0000000000056921        0xe queue.o
                0x0000000000056921                _ZNSt12__miter_baseIPN16CRendezvousQueue3CRLELb0EE3__bES2_
 *fill*         0x000000000005692f        0x1 90909090
 .text._ZNKSt6vectorIN16CRendezvousQueue3CRLESaIS1_EE4sizeEv
                0x0000000000056930       0x29 queue.o
                0x0000000000056930                _ZNKSt6vectorIN16CRendezvousQueue3CRLESaIS1_EE4sizeEv
 .text._ZNSt12__niter_baseIN9__gnu_cxx17__normal_iteratorIPN16CRendezvousQueue3CRLESt6vectorIS3_SaIS3_EEEELb1EE3__bES8_
                0x0000000000056959       0x1a queue.o
                0x0000000000056959                _ZNSt12__niter_baseIN9__gnu_cxx17__normal_iteratorIPN16CRendezvousQueue3CRLESt6vectorIS3_SaIS3_EEEELb1EE3__bES8_
 *fill*         0x0000000000056973        0x1 90909090
 .text._ZN9__gnu_cxx13new_allocatorIP4CUDTED2Ev
                0x0000000000056974        0xa queue.o
                0x0000000000056974                _ZN9__gnu_cxx13new_allocatorIP4CUDTED2Ev
 .text._ZNSaIP4CUDTED2Ev
                0x000000000005697e       0x17 queue.o
                0x000000000005697e                _ZNSaIP4CUDTED2Ev
 *fill*         0x0000000000056995        0x1 90909090
 .text._ZNSt12_Vector_baseIP4CUDTSaIS1_EE12_Vector_implD1Ev
                0x0000000000056996       0x17 queue.o
                0x0000000000056996                _ZNSt12_Vector_baseIP4CUDTSaIS1_EE12_Vector_implD1Ev
 *fill*         0x00000000000569ad        0x1 90909090
 .text._ZNSt8_Rb_treeIiSt4pairIKiP7CPacketESt10_Select1stIS4_ESt4lessIiESaIS4_EE13_Rb_tree_implIS8_Lb0EE13_M_initializeEv
                0x00000000000569ae       0x41 queue.o
                0x00000000000569ae                _ZNSt8_Rb_treeIiSt4pairIKiP7CPacketESt10_Select1stIS4_ESt4lessIiESaIS4_EE13_Rb_tree_implIS8_Lb0EE13_M_initializeEv
 *fill*         0x00000000000569ef        0x1 90909090
 .text._ZNSt4pairIKiP7CPacketED1Ev
                0x00000000000569f0        0xa queue.o
                0x00000000000569f0                _ZNSt4pairIKiP7CPacketED1Ev
 .text._ZN9__gnu_cxx13new_allocatorISt4pairIKiP7CPacketEE7destroyEPS5_
                0x00000000000569fa       0x1b queue.o
                0x00000000000569fa                _ZN9__gnu_cxx13new_allocatorISt4pairIKiP7CPacketEE7destroyEPS5_
 .text._ZNSt8_Rb_treeIiSt4pairIKiP7CPacketESt10_Select1stIS4_ESt4lessIiESaIS4_EE8_S_valueEPKSt18_Rb_tree_node_base
                0x0000000000056a15       0x12 queue.o
                0x0000000000056a15                _ZNSt8_Rb_treeIiSt4pairIKiP7CPacketESt10_Select1stIS4_ESt4lessIiESaIS4_EE8_S_valueEPKSt18_Rb_tree_node_base
 *fill*         0x0000000000056a27        0x1 90909090
 .text._ZNKSt10_Select1stISt4pairIKiP7CPacketEEclERKS4_
                0x0000000000056a28       0x12 queue.o
                0x0000000000056a28                _ZNKSt10_Select1stISt4pairIKiP7CPacketEEclERKS4_
 .text._ZNSt8_Rb_treeIiSt4pairIKiP7CPacketESt10_Select1stIS4_ESt4lessIiESaIS4_EE6_S_keyEPKSt18_Rb_tree_node_base
                0x0000000000056a3a       0x23 queue.o
                0x0000000000056a3a                _ZNSt8_Rb_treeIiSt4pairIKiP7CPacketESt10_Select1stIS4_ESt4lessIiESaIS4_EE6_S_keyEPKSt18_Rb_tree_node_base
 .text._ZNSt12__miter_baseIPP4CUDTLb0EE3__bES2_
                0x0000000000056a5d        0xe queue.o
                0x0000000000056a5d                _ZNSt12__miter_baseIPP4CUDTLb0EE3__bES2_
 *fill*         0x0000000000056a6b        0x1 90909090
 .text._ZNKSt6vectorIP4CUDTSaIS1_EE4sizeEv
                0x0000000000056a6c       0x29 queue.o
                0x0000000000056a6c                _ZNKSt6vectorIP4CUDTSaIS1_EE4sizeEv
 .text._ZNSt12__niter_baseIN9__gnu_cxx17__normal_iteratorIPP4CUDTSt6vectorIS3_SaIS3_EEEELb1EE3__bES8_
                0x0000000000056a95       0x1a queue.o
                0x0000000000056a95                _ZNSt12__niter_baseIN9__gnu_cxx17__normal_iteratorIPP4CUDTSt6vectorIS3_SaIS3_EEEELb1EE3__bES8_
 *fill*         0x0000000000056aaf        0x1 90909090
 .text._ZNSt8_Rb_treeIiSt4pairIKiP7CPacketESt10_Select1stIS4_ESt4lessIiESaIS4_EE12_M_rightmostEv
                0x0000000000056ab0       0x12 queue.o
                0x0000000000056ab0                _ZNSt8_Rb_treeIiSt4pairIKiP7CPacketESt10_Select1stIS4_ESt4lessIiESaIS4_EE12_M_rightmostEv
 .text._ZNKSt8_Rb_treeIiSt4pairIKiP7CPacketESt10_Select1stIS4_ESt4lessIiESaIS4_EE4sizeEv
                0x0000000000056ac2       0x12 queue.o
                0x0000000000056ac2                _ZNKSt8_Rb_treeIiSt4pairIKiP7CPacketESt10_Select1stIS4_ESt4lessIiESaIS4_EE4sizeEv
 .text._ZNSt8_Rb_treeIiSt4pairIKiP7CPacketESt10_Select1stIS4_ESt4lessIiESaIS4_EE11_M_leftmostEv
                0x0000000000056ad4       0x12 queue.o
                0x0000000000056ad4                _ZNSt8_Rb_treeIiSt4pairIKiP7CPacketESt10_Select1stIS4_ESt4lessIiESaIS4_EE11_M_leftmostEv
 .text._ZNSt8_Rb_treeIiSt4pairIKiP7CPacketESt10_Select1stIS4_ESt4lessIiESaIS4_EE8_S_rightEPKSt18_Rb_tree_node_base
                0x0000000000056ae6       0x12 queue.o
                0x0000000000056ae6                _ZNSt8_Rb_treeIiSt4pairIKiP7CPacketESt10_Select1stIS4_ESt4lessIiESaIS4_EE8_S_rightEPKSt18_Rb_tree_node_base
 .text._ZN9__gnu_cxx13new_allocatorIN16CRendezvousQueue3CRLEEC2Ev
                0x0000000000056af8        0xa queue.o
                0x0000000000056af8                _ZN9__gnu_cxx13new_allocatorIN16CRendezvousQueue3CRLEEC2Ev
 .text._ZNSaIN16CRendezvousQueue3CRLEEC2Ev
                0x0000000000056b02       0x17 queue.o
                0x0000000000056b02                _ZNSaIN16CRendezvousQueue3CRLEEC2Ev
 *fill*         0x0000000000056b19        0x1 90909090
 .text._ZNSt12_Vector_baseIN16CRendezvousQueue3CRLESaIS1_EE12_Vector_implC1Ev
                0x0000000000056b1a       0x3a queue.o
                0x0000000000056b1a                _ZNSt12_Vector_baseIN16CRendezvousQueue3CRLESaIS1_EE12_Vector_implC1Ev
 .text._ZNSt12_Vector_baseIN16CRendezvousQueue3CRLESaIS1_EEC2Ev
                0x0000000000056b54       0x17 queue.o
                0x0000000000056b54                _ZNSt12_Vector_baseIN16CRendezvousQueue3CRLESaIS1_EEC2Ev
 *fill*         0x0000000000056b6b        0x1 90909090
 .text._ZNSt6vectorIN16CRendezvousQueue3CRLESaIS1_EEC1Ev
                0x0000000000056b6c       0x17 queue.o
                0x0000000000056b6c                _ZNSt6vectorIN16CRendezvousQueue3CRLESaIS1_EEC1Ev
 .text._ZNSt12__niter_baseIPN16CRendezvousQueue3CRLELb0EE3__bES2_
                0x0000000000056b83        0xe queue.o
                0x0000000000056b83                _ZNSt12__niter_baseIPN16CRendezvousQueue3CRLELb0EE3__bES2_
 *fill*         0x0000000000056b91        0x1 90909090
 .text._ZNKSt12_Vector_baseIN16CRendezvousQueue3CRLESaIS1_EE19_M_get_Tp_allocatorEv
                0x0000000000056b92        0xe queue.o
                0x0000000000056b92                _ZNKSt12_Vector_baseIN16CRendezvousQueue3CRLESaIS1_EE19_M_get_Tp_allocatorEv
 .text._ZNK9__gnu_cxx13new_allocatorIN16CRendezvousQueue3CRLEE8max_sizeEv
                0x0000000000056ba0       0x14 queue.o
                0x0000000000056ba0                _ZNK9__gnu_cxx13new_allocatorIN16CRendezvousQueue3CRLEE8max_sizeEv
 .text._ZNKSt6vectorIN16CRendezvousQueue3CRLESaIS1_EE8max_sizeEv
                0x0000000000056bb4       0x1f queue.o
                0x0000000000056bb4                _ZNKSt6vectorIN16CRendezvousQueue3CRLESaIS1_EE8max_sizeEv
 *fill*         0x0000000000056bd3        0x1 90909090
 .text._ZN9__gnu_cxx13new_allocatorIP4CUDTEC2Ev
                0x0000000000056bd4        0xa queue.o
                0x0000000000056bd4                _ZN9__gnu_cxx13new_allocatorIP4CUDTEC2Ev
 .text._ZNSaIP4CUDTEC2Ev
                0x0000000000056bde       0x17 queue.o
                0x0000000000056bde                _ZNSaIP4CUDTEC2Ev
 *fill*         0x0000000000056bf5        0x1 90909090
 .text._ZNSt12_Vector_baseIP4CUDTSaIS1_EE12_Vector_implC1Ev
                0x0000000000056bf6       0x3a queue.o
                0x0000000000056bf6                _ZNSt12_Vector_baseIP4CUDTSaIS1_EE12_Vector_implC1Ev
 .text._ZNSt12_Vector_baseIP4CUDTSaIS1_EEC2Ev
                0x0000000000056c30       0x17 queue.o
                0x0000000000056c30                _ZNSt12_Vector_baseIP4CUDTSaIS1_EEC2Ev
 *fill*         0x0000000000056c47        0x1 90909090
 .text._ZNSt6vectorIP4CUDTSaIS1_EEC1Ev
                0x0000000000056c48       0x17 queue.o
                0x0000000000056c48                _ZNSt6vectorIP4CUDTSaIS1_EEC1Ev
 *fill*         0x0000000000056c5f        0x1 90909090
 .text._ZN9__gnu_cxx13new_allocatorISt13_Rb_tree_nodeISt4pairIKiP7CPacketEEEC2Ev
                0x0000000000056c60        0xa queue.o
                0x0000000000056c60                _ZN9__gnu_cxx13new_allocatorISt13_Rb_tree_nodeISt4pairIKiP7CPacketEEEC2Ev
 .text._ZNSaISt13_Rb_tree_nodeISt4pairIKiP7CPacketEEEC2Ev
                0x0000000000056c6a       0x17 queue.o
                0x0000000000056c6a                _ZNSaISt13_Rb_tree_nodeISt4pairIKiP7CPacketEEEC2Ev
 *fill*         0x0000000000056c81        0x1 90909090
 .text._ZNSt8_Rb_treeIiSt4pairIKiP7CPacketESt10_Select1stIS4_ESt4lessIiESaIS4_EE13_Rb_tree_implIS8_Lb0EEC1Ev
                0x0000000000056c82       0x5b queue.o
                0x0000000000056c82                _ZNSt8_Rb_treeIiSt4pairIKiP7CPacketESt10_Select1stIS4_ESt4lessIiESaIS4_EE13_Rb_tree_implIS8_Lb0EEC1Ev
 *fill*         0x0000000000056cdd        0x1 90909090
 .text._ZNSt8_Rb_treeIiSt4pairIKiP7CPacketESt10_Select1stIS4_ESt4lessIiESaIS4_EEC1Ev
                0x0000000000056cde       0x17 queue.o
                0x0000000000056cde                _ZNSt8_Rb_treeIiSt4pairIKiP7CPacketESt10_Select1stIS4_ESt4lessIiESaIS4_EEC1Ev
 *fill*         0x0000000000056cf5        0x1 90909090
 .text._ZNSt3mapIiP7CPacketSt4lessIiESaISt4pairIKiS1_EEEC1Ev
                0x0000000000056cf6       0x17 queue.o
                0x0000000000056cf6                _ZNSt3mapIiP7CPacketSt4lessIiESaISt4pairIKiS1_EEEC1Ev
 *fill*         0x0000000000056d0d        0x1 90909090
 .text._ZNKSt8_Rb_treeIiSt4pairIKiP7CPacketESt10_Select1stIS4_ESt4lessIiESaIS4_EE21_M_get_Node_allocatorEv
                0x0000000000056d0e        0xe queue.o
                0x0000000000056d0e                _ZNKSt8_Rb_treeIiSt4pairIKiP7CPacketESt10_Select1stIS4_ESt4lessIiESaIS4_EE21_M_get_Node_allocatorEv
 .text._ZN9__gnu_cxx13new_allocatorISt4pairIKiP7CPacketEED2Ev
                0x0000000000056d1c        0xa queue.o
                0x0000000000056d1c                _ZN9__gnu_cxx13new_allocatorISt4pairIKiP7CPacketEED2Ev
 .text._ZNSaISt4pairIKiP7CPacketEED1Ev
                0x0000000000056d26       0x17 queue.o
                0x0000000000056d26                _ZNSaISt4pairIKiP7CPacketEED1Ev
 .text._ZNSt8_Rb_treeIiSt4pairIKiP7CPacketESt10_Select1stIS4_ESt4lessIiESaIS4_EE8_S_valueEPKSt13_Rb_tree_nodeIS4_E
                0x0000000000056d3d       0x12 queue.o
                0x0000000000056d3d                _ZNSt8_Rb_treeIiSt4pairIKiP7CPacketESt10_Select1stIS4_ESt4lessIiESaIS4_EE8_S_valueEPKSt13_Rb_tree_nodeIS4_E
 .text._ZNSt8_Rb_treeIiSt4pairIKiP7CPacketESt10_Select1stIS4_ESt4lessIiESaIS4_EE6_S_keyEPKSt13_Rb_tree_nodeIS4_E
                0x0000000000056d4f       0x23 queue.o
                0x0000000000056d4f                _ZNSt8_Rb_treeIiSt4pairIKiP7CPacketESt10_Select1stIS4_ESt4lessIiESaIS4_EE6_S_keyEPKSt13_Rb_tree_nodeIS4_E
 .text._ZNSt8_Rb_treeIiSt4pairIKiP7CPacketESt10_Select1stIS4_ESt4lessIiESaIS4_EE14_M_lower_boundEPSt13_Rb_tree_nodeIS4_ESD_RS1_
                0x0000000000056d72       0x78 queue.o
                0x0000000000056d72                _ZNSt8_Rb_treeIiSt4pairIKiP7CPacketESt10_Select1stIS4_ESt4lessIiESaIS4_EE14_M_lower_boundEPSt13_Rb_tree_nodeIS4_ESD_RS1_
 .text._ZNSt8_Rb_treeIiSt4pairIKiP7CPacketESt10_Select1stIS4_ESt4lessIiESaIS4_EE4findERS1_
                0x0000000000056dea       0x9a queue.o
                0x0000000000056dea                _ZNSt8_Rb_treeIiSt4pairIKiP7CPacketESt10_Select1stIS4_ESt4lessIiESaIS4_EE4findERS1_
 .text._ZNSt3mapIiP7CPacketSt4lessIiESaISt4pairIKiS1_EEE4findERS5_
                0x0000000000056e84       0x1f queue.o
                0x0000000000056e84                _ZNSt3mapIiP7CPacketSt4lessIiESaISt4pairIKiS1_EEE4findERS5_
 *fill*         0x0000000000056ea3        0x1 90909090
 .text._ZNSt8_Rb_treeIiSt4pairIKiP7CPacketESt10_Select1stIS4_ESt4lessIiESaIS4_EE11lower_boundERS1_
                0x0000000000056ea4       0x40 queue.o
                0x0000000000056ea4                _ZNSt8_Rb_treeIiSt4pairIKiP7CPacketESt10_Select1stIS4_ESt4lessIiESaIS4_EE11lower_boundERS1_
 .text._ZNSt3mapIiP7CPacketSt4lessIiESaISt4pairIKiS1_EEE11lower_boundERS5_
                0x0000000000056ee4       0x1f queue.o
                0x0000000000056ee4                _ZNSt3mapIiP7CPacketSt4lessIiESaISt4pairIKiS1_EEE11lower_boundERS5_
 .text._ZNSt12__niter_baseIPP4CUDTLb0EE3__bES2_
                0x0000000000056f03        0xe queue.o
                0x0000000000056f03                _ZNSt12__niter_baseIPP4CUDTLb0EE3__bES2_
 *fill*         0x0000000000056f11        0x1 90909090
 .text._ZNKSt12_Vector_baseIP4CUDTSaIS1_EE19_M_get_Tp_allocatorEv
                0x0000000000056f12        0xe queue.o
                0x0000000000056f12                _ZNKSt12_Vector_baseIP4CUDTSaIS1_EE19_M_get_Tp_allocatorEv
 .text._ZNK9__gnu_cxx13new_allocatorIP4CUDTE8max_sizeEv
                0x0000000000056f20       0x14 queue.o
                0x0000000000056f20                _ZNK9__gnu_cxx13new_allocatorIP4CUDTE8max_sizeEv
 .text._ZNKSt6vectorIP4CUDTSaIS1_EE8max_sizeEv
                0x0000000000056f34       0x1f queue.o
                0x0000000000056f34                _ZNKSt6vectorIP4CUDTSaIS1_EE8max_sizeEv
 *fill*         0x0000000000056f53        0x1 90909090
 .text._ZNSt4pairISt17_Rb_tree_iteratorIS_IKiP7CPacketEEbEC1ERKS5_RKb
                0x0000000000056f54       0x2e queue.o
                0x0000000000056f54                _ZNSt4pairISt17_Rb_tree_iteratorIS_IKiP7CPacketEEbEC1ERKS5_RKb
 .text._ZN9__gnu_cxx13new_allocatorISt4pairIKiP7CPacketEEC2Ev
                0x0000000000056f82        0xa queue.o
                0x0000000000056f82                _ZN9__gnu_cxx13new_allocatorISt4pairIKiP7CPacketEEC2Ev
 .text._ZNSaISt4pairIKiP7CPacketEEC1ISt13_Rb_tree_nodeIS3_EEERKSaIT_E
                0x0000000000056f8c       0x1b queue.o
                0x0000000000056f8c                _ZNSaISt4pairIKiP7CPacketEEC1ISt13_Rb_tree_nodeIS3_EEERKSaIT_E
 *fill*         0x0000000000056fa7        0x1 90909090
 .text._ZNKSt8_Rb_treeIiSt4pairIKiP7CPacketESt10_Select1stIS4_ESt4lessIiESaIS4_EE13get_allocatorEv
                0x0000000000056fa8       0x38 queue.o
                0x0000000000056fa8                _ZNKSt8_Rb_treeIiSt4pairIKiP7CPacketESt10_Select1stIS4_ESt4lessIiESaIS4_EE13get_allocatorEv
 .text._ZN9__gnu_cxx13new_allocatorISt4pairIKiP7CPacketEE9constructEPS5_RKS5_
                0x0000000000056fe0       0x49 queue.o
                0x0000000000056fe0                _ZN9__gnu_cxx13new_allocatorISt4pairIKiP7CPacketEE9constructEPS5_RKS5_
 *fill*         0x0000000000057029        0x1 90909090
 .text._ZNK9__gnu_cxx13new_allocatorISt13_Rb_tree_nodeISt4pairIKiP7CPacketEEE8max_sizeEv
                0x000000000005702a       0x14 queue.o
                0x000000000005702a                _ZNK9__gnu_cxx13new_allocatorISt13_Rb_tree_nodeISt4pairIKiP7CPacketEEE8max_sizeEv
 .text._ZN5CUnitD1Ev
                0x000000000005703e       0x17 queue.o
                0x000000000005703e                _ZN5CUnitD1Ev
 *fill*         0x0000000000057055        0x1 90909090
 .text._ZN9__gnu_cxx13new_allocatorISt13_Rb_tree_nodeISt4pairIKiP7CPacketEEE10deallocateEPS7_m
                0x0000000000057056       0x1f queue.o
                0x0000000000057056                _ZN9__gnu_cxx13new_allocatorISt13_Rb_tree_nodeISt4pairIKiP7CPacketEEE10deallocateEPS7_m
 *fill*         0x0000000000057075        0x1 90909090
 .text._ZNSt8_Rb_treeIiSt4pairIKiP7CPacketESt10_Select1stIS4_ESt4lessIiESaIS4_EE11_M_put_nodeEPSt13_Rb_tree_nodeIS4_E
                0x0000000000057076       0x27 queue.o
                0x0000000000057076                _ZNSt8_Rb_treeIiSt4pairIKiP7CPacketESt10_Select1stIS4_ESt4lessIiESaIS4_EE11_M_put_nodeEPSt13_Rb_tree_nodeIS4_E
 *fill*         0x000000000005709d        0x1 90909090
 .text._ZNSt8_Rb_treeIiSt4pairIKiP7CPacketESt10_Select1stIS4_ESt4lessIiESaIS4_EE15_M_destroy_nodeEPSt13_Rb_tree_nodeIS4_E
                0x000000000005709e       0x4f queue.o
                0x000000000005709e                _ZNSt8_Rb_treeIiSt4pairIKiP7CPacketESt10_Select1stIS4_ESt4lessIiESaIS4_EE15_M_destroy_nodeEPSt13_Rb_tree_nodeIS4_E
 *fill*         0x00000000000570ed        0x1 90909090
 .text._ZNSt8_Rb_treeIiSt4pairIKiP7CPacketESt10_Select1stIS4_ESt4lessIiESaIS4_EE8_M_eraseEPSt13_Rb_tree_nodeIS4_E
                0x00000000000570ee       0x52 queue.o
                0x00000000000570ee                _ZNSt8_Rb_treeIiSt4pairIKiP7CPacketESt10_Select1stIS4_ESt4lessIiESaIS4_EE8_M_eraseEPSt13_Rb_tree_nodeIS4_E
 .text._ZN9__gnu_cxx13new_allocatorIP4CUDTE10deallocateEPS2_m
                0x0000000000057140       0x1f queue.o
                0x0000000000057140                _ZN9__gnu_cxx13new_allocatorIP4CUDTE10deallocateEPS2_m
 *fill*         0x000000000005715f        0x1 90909090
 .text._ZNSt12_Vector_baseIP4CUDTSaIS1_EE13_M_deallocateEPS1_m
                0x0000000000057160       0x31 queue.o
                0x0000000000057160                _ZNSt12_Vector_baseIP4CUDTSaIS1_EE13_M_deallocateEPS1_m
 *fill*         0x0000000000057191        0x1 90909090
 .text._ZN9__gnu_cxx13new_allocatorIN16CRendezvousQueue3CRLEE10deallocateEPS2_m
                0x0000000000057192       0x1f queue.o
                0x0000000000057192                _ZN9__gnu_cxx13new_allocatorIN16CRendezvousQueue3CRLEE10deallocateEPS2_m
 *fill*         0x00000000000571b1        0x1 90909090
 .text._ZNSt12_Vector_baseIN16CRendezvousQueue3CRLESaIS1_EE13_M_deallocateEPS1_m
                0x00000000000571b2       0x31 queue.o
                0x00000000000571b2                _ZNSt12_Vector_baseIN16CRendezvousQueue3CRLESaIS1_EE13_M_deallocateEPS1_m
 *fill*         0x00000000000571e3        0x1 90909090
 .text._ZNSt23_Rb_tree_const_iteratorISt4pairIKiP7CPacketEEmmEv
                0x00000000000571e4       0x28 queue.o
                0x00000000000571e4                _ZNSt23_Rb_tree_const_iteratorISt4pairIKiP7CPacketEEmmEv
 .text._ZNSt23_Rb_tree_const_iteratorISt4pairIKiP7CPacketEEppEv
                0x000000000005720c       0x28 queue.o
                0x000000000005720c                _ZNSt23_Rb_tree_const_iteratorISt4pairIKiP7CPacketEEppEv
 .text._ZNSt8_Rb_treeIiSt4pairIKiP7CPacketESt10_Select1stIS4_ESt4lessIiESaIS4_EED1Ev
                0x0000000000057234       0x6a queue.o
                0x0000000000057234                _ZNSt8_Rb_treeIiSt4pairIKiP7CPacketESt10_Select1stIS4_ESt4lessIiESaIS4_EED1Ev
 .text._ZNSt3mapIiP7CPacketSt4lessIiESaISt4pairIKiS1_EEED1Ev
                0x000000000005729e       0x17 queue.o
                0x000000000005729e                _ZNSt3mapIiP7CPacketSt4lessIiESaISt4pairIKiS1_EEED1Ev
 *fill*         0x00000000000572b5        0x1 90909090
 .text._ZNSt12_Vector_baseIP4CUDTSaIS1_EED2Ev
                0x00000000000572b6       0x49 queue.o
                0x00000000000572b6                _ZNSt12_Vector_baseIP4CUDTSaIS1_EED2Ev
 *fill*         0x00000000000572ff        0x1 90909090
 .text._ZNSt6vectorIP4CUDTSaIS1_EED1Ev
                0x0000000000057300       0x37 queue.o
                0x0000000000057300                _ZNSt6vectorIP4CUDTSaIS1_EED1Ev
 *fill*         0x0000000000057337        0x1 90909090
 .text._ZNSt12_Vector_baseIN16CRendezvousQueue3CRLESaIS1_EED2Ev
                0x0000000000057338       0x49 queue.o
                0x0000000000057338                _ZNSt12_Vector_baseIN16CRendezvousQueue3CRLESaIS1_EED2Ev
 *fill*         0x0000000000057381        0x1 90909090
 .text._ZNSt6vectorIN16CRendezvousQueue3CRLESaIS1_EED1Ev
                0x0000000000057382       0x37 queue.o
                0x0000000000057382                _ZNSt6vectorIN16CRendezvousQueue3CRLESaIS1_EED1Ev
 *fill*         0x00000000000573b9        0x1 90909090
 .text._ZN9__gnu_cxx13new_allocatorISt13_Rb_tree_nodeISt4pairIKiP7CPacketEEE8allocateEmPKv
                0x00000000000573ba       0x51 queue.o
                0x00000000000573ba                _ZN9__gnu_cxx13new_allocatorISt13_Rb_tree_nodeISt4pairIKiP7CPacketEEE8allocateEmPKv
 *fill*         0x000000000005740b        0x1 90909090
 .text._ZNSt8_Rb_treeIiSt4pairIKiP7CPacketESt10_Select1stIS4_ESt4lessIiESaIS4_EE11_M_get_nodeEv
                0x000000000005740c       0x24 queue.o
                0x000000000005740c                _ZNSt8_Rb_treeIiSt4pairIKiP7CPacketESt10_Select1stIS4_ESt4lessIiESaIS4_EE11_M_get_nodeEv
 .text._ZNSt8_Rb_treeIiSt4pairIKiP7CPacketESt10_Select1stIS4_ESt4lessIiESaIS4_EE14_M_create_nodeERKS4_
                0x0000000000057430       0x57 queue.o
                0x0000000000057430                _ZNSt8_Rb_treeIiSt4pairIKiP7CPacketESt10_Select1stIS4_ESt4lessIiESaIS4_EE14_M_create_nodeERKS4_
 *fill*         0x0000000000057487        0x1 90909090
 .text._ZNSt8_Rb_treeIiSt4pairIKiP7CPacketESt10_Select1stIS4_ESt4lessIiESaIS4_EE10_M_insert_EPKSt18_Rb_tree_node_baseSD_RKS4_
                0x0000000000057488       0xc2 queue.o
                0x0000000000057488                _ZNSt8_Rb_treeIiSt4pairIKiP7CPacketESt10_Select1stIS4_ESt4lessIiESaIS4_EE10_M_insert_EPKSt18_Rb_tree_node_baseSD_RKS4_
 .text._ZN9__gnu_cxx13new_allocatorIP4CUDTE8allocateEmPKv
                0x000000000005754a       0x49 queue.o
                0x000000000005754a                _ZN9__gnu_cxx13new_allocatorIP4CUDTE8allocateEmPKv
 *fill*         0x0000000000057593        0x1 90909090
 .text._ZNSt12_Vector_baseIP4CUDTSaIS1_EE11_M_allocateEm
                0x0000000000057594       0x40 queue.o
                0x0000000000057594                _ZNSt12_Vector_baseIP4CUDTSaIS1_EE11_M_allocateEm
 .text._ZN9__gnu_cxx13new_allocatorIN16CRendezvousQueue3CRLEE8allocateEmPKv
                0x00000000000575d4       0x48 queue.o
                0x00000000000575d4                _ZN9__gnu_cxx13new_allocatorIN16CRendezvousQueue3CRLEE8allocateEmPKv
 .text._ZNSt12_Vector_baseIN16CRendezvousQueue3CRLESaIS1_EE11_M_allocateEm
                0x000000000005761c       0x40 queue.o
                0x000000000005761c                _ZNSt12_Vector_baseIN16CRendezvousQueue3CRLESaIS1_EE11_M_allocateEm
 .text._ZNSt17_Rb_tree_iteratorISt4pairIKiP7CPacketEEmmEv
                0x000000000005765c       0x28 queue.o
                0x000000000005765c                _ZNSt17_Rb_tree_iteratorISt4pairIKiP7CPacketEEmmEv
 .text._ZNSt8_Rb_treeIiSt4pairIKiP7CPacketESt10_Select1stIS4_ESt4lessIiESaIS4_EE16_M_insert_uniqueERKS4_
                0x0000000000057684      0x206 queue.o
                0x0000000000057684                _ZNSt8_Rb_treeIiSt4pairIKiP7CPacketESt10_Select1stIS4_ESt4lessIiESaIS4_EE16_M_insert_uniqueERKS4_
 .text._ZNSt8_Rb_treeIiSt4pairIKiP7CPacketESt10_Select1stIS4_ESt4lessIiESaIS4_EE17_M_insert_unique_ESt23_Rb_tree_const_iteratorIS4_ERKS4_
                0x000000000005788a      0x3b6 queue.o
                0x000000000005788a                _ZNSt8_Rb_treeIiSt4pairIKiP7CPacketESt10_Select1stIS4_ESt4lessIiESaIS4_EE17_M_insert_unique_ESt23_Rb_tree_const_iteratorIS4_ERKS4_
 .text._ZNSt3mapIiP7CPacketSt4lessIiESaISt4pairIKiS1_EEE6insertESt17_Rb_tree_iteratorIS6_ERKS6_
                0x0000000000057c40       0x34 queue.o
                0x0000000000057c40                _ZNSt3mapIiP7CPacketSt4lessIiESaISt4pairIKiS1_EEE6insertESt17_Rb_tree_iteratorIS6_ERKS6_
 .text._ZNSt3mapIiP7CPacketSt4lessIiESaISt4pairIKiS1_EEEixERS5_
                0x0000000000057c74       0xbd queue.o
                0x0000000000057c74                _ZNSt3mapIiP7CPacketSt4lessIiESaISt4pairIKiS1_EEEixERS5_
 .text._ZNSt11__copy_moveILb0ELb1ESt26random_access_iterator_tagE8__copy_mIP4CUDTEEPT_PKS5_S8_S6_
                0x0000000000057d31       0x5d queue.o
                0x0000000000057d31                _ZNSt11__copy_moveILb0ELb1ESt26random_access_iterator_tagE8__copy_mIP4CUDTEEPT_PKS5_S8_S6_
 .text._ZSt13__copy_move_aILb0EPP4CUDTS2_ET1_T0_S4_S3_
                0x0000000000057d8e       0x2b queue.o
                0x0000000000057d8e                _ZSt13__copy_move_aILb0EPP4CUDTS2_ET1_T0_S4_S3_
 .text._ZSt14__copy_move_a2ILb0EN9__gnu_cxx17__normal_iteratorIPP4CUDTSt6vectorIS3_SaIS3_EEEES8_ET1_T0_SA_S9_
                0x0000000000057db9       0x64 queue.o
                0x0000000000057db9                _ZSt14__copy_move_a2ILb0EN9__gnu_cxx17__normal_iteratorIPP4CUDTSt6vectorIS3_SaIS3_EEEES8_ET1_T0_SA_S9_
 .text._ZSt4copyIN9__gnu_cxx17__normal_iteratorIPP4CUDTSt6vectorIS3_SaIS3_EEEES8_ET0_T_SA_S9_
                0x0000000000057e1d       0x40 queue.o
                0x0000000000057e1d                _ZSt4copyIN9__gnu_cxx17__normal_iteratorIPP4CUDTSt6vectorIS3_SaIS3_EEEES8_ET0_T_SA_S9_
 *fill*         0x0000000000057e5d        0x1 90909090
 .text._ZNSt6vectorIP4CUDTSaIS1_EE5eraseEN9__gnu_cxx17__normal_iteratorIPS1_S3_EE
                0x0000000000057e5e       0xab queue.o
                0x0000000000057e5e                _ZNSt6vectorIP4CUDTSaIS1_EE5eraseEN9__gnu_cxx17__normal_iteratorIPS1_S3_EE
 .text._ZSt14__copy_move_a2ILb0EPP4CUDTS2_ET1_T0_S4_S3_
                0x0000000000057f09       0x4f queue.o
                0x0000000000057f09                _ZSt14__copy_move_a2ILb0EPP4CUDTS2_ET1_T0_S4_S3_
 .text._ZSt4copyIPP4CUDTS2_ET0_T_S4_S3_
                0x0000000000057f58       0x40 queue.o
                0x0000000000057f58                _ZSt4copyIPP4CUDTS2_ET0_T_S4_S3_
 .text._ZNSt20__uninitialized_copyILb1EE18uninitialized_copyIPP4CUDTS4_EET0_T_S6_S5_
                0x0000000000057f98       0x27 queue.o
                0x0000000000057f98                _ZNSt20__uninitialized_copyILb1EE18uninitialized_copyIPP4CUDTS4_EET0_T_S6_S5_
 .text._ZSt18uninitialized_copyIPP4CUDTS2_ET0_T_S4_S3_
                0x0000000000057fbf       0x27 queue.o
                0x0000000000057fbf                _ZSt18uninitialized_copyIPP4CUDTS2_ET0_T_S4_S3_
 .text._ZSt22__uninitialized_copy_aIPP4CUDTS2_S1_ET0_T_S4_S3_RSaIT1_E
                0x0000000000057fe6       0x2b queue.o
                0x0000000000057fe6                _ZSt22__uninitialized_copy_aIPP4CUDTS2_S1_ET0_T_S4_S3_RSaIT1_E
 .text._ZSt22__uninitialized_move_aIPP4CUDTS2_SaIS1_EET0_T_S5_S4_RT1_
                0x0000000000058011       0x2f queue.o
                0x0000000000058011                _ZSt22__uninitialized_move_aIPP4CUDTS2_SaIS1_EET0_T_S5_S4_RT1_
 .text._ZNSt20__copy_move_backwardILb0ELb1ESt26random_access_iterator_tagE13__copy_move_bIP4CUDTEEPT_PKS5_S8_S6_
                0x0000000000058040       0x65 queue.o
                0x0000000000058040                _ZNSt20__copy_move_backwardILb0ELb1ESt26random_access_iterator_tagE13__copy_move_bIP4CUDTEEPT_PKS5_S8_S6_
 .text._ZSt22__copy_move_backward_aILb0EPP4CUDTS2_ET1_T0_S4_S3_
                0x00000000000580a5       0x2b queue.o
                0x00000000000580a5                _ZSt22__copy_move_backward_aILb0EPP4CUDTS2_ET1_T0_S4_S3_
 .text._ZSt23__copy_move_backward_a2ILb0EPP4CUDTS2_ET1_T0_S4_S3_
                0x00000000000580d0       0x4f queue.o
                0x00000000000580d0                _ZSt23__copy_move_backward_a2ILb0EPP4CUDTS2_ET1_T0_S4_S3_
 .text._ZSt13copy_backwardIPP4CUDTS2_ET0_T_S4_S3_
                0x000000000005811f       0x40 queue.o
                0x000000000005811f                _ZSt13copy_backwardIPP4CUDTS2_ET0_T_S4_S3_
 .text._ZNSt11__copy_moveILb0ELb1ESt26random_access_iterator_tagE8__copy_mIN16CRendezvousQueue3CRLEEEPT_PKS5_S8_S6_
                0x000000000005815f       0x5c queue.o
                0x000000000005815f                _ZNSt11__copy_moveILb0ELb1ESt26random_access_iterator_tagE8__copy_mIN16CRendezvousQueue3CRLEEEPT_PKS5_S8_S6_
 .text._ZSt13__copy_move_aILb0EPN16CRendezvousQueue3CRLES2_ET1_T0_S4_S3_
                0x00000000000581bb       0x2b queue.o
                0x00000000000581bb                _ZSt13__copy_move_aILb0EPN16CRendezvousQueue3CRLES2_ET1_T0_S4_S3_
 .text._ZSt14__copy_move_a2ILb0EN9__gnu_cxx17__normal_iteratorIPN16CRendezvousQueue3CRLESt6vectorIS3_SaIS3_EEEES8_ET1_T0_SA_S9_
                0x00000000000581e6       0x64 queue.o
                0x00000000000581e6                _ZSt14__copy_move_a2ILb0EN9__gnu_cxx17__normal_iteratorIPN16CRendezvousQueue3CRLESt6vectorIS3_SaIS3_EEEES8_ET1_T0_SA_S9_
 .text._ZSt4copyIN9__gnu_cxx17__normal_iteratorIPN16CRendezvousQueue3CRLESt6vectorIS3_SaIS3_EEEES8_ET0_T_SA_S9_
                0x000000000005824a       0x40 queue.o
                0x000000000005824a                _ZSt4copyIN9__gnu_cxx17__normal_iteratorIPN16CRendezvousQueue3CRLESt6vectorIS3_SaIS3_EEEES8_ET0_T_SA_S9_
 .text._ZNSt6vectorIN16CRendezvousQueue3CRLESaIS1_EE5eraseEN9__gnu_cxx17__normal_iteratorIPS1_S3_EE
                0x000000000005828a       0xab queue.o
                0x000000000005828a                _ZNSt6vectorIN16CRendezvousQueue3CRLESaIS1_EE5eraseEN9__gnu_cxx17__normal_iteratorIPS1_S3_EE
 .text._ZSt14__copy_move_a2ILb0EPN16CRendezvousQueue3CRLES2_ET1_T0_S4_S3_
                0x0000000000058335       0x4f queue.o
                0x0000000000058335                _ZSt14__copy_move_a2ILb0EPN16CRendezvousQueue3CRLES2_ET1_T0_S4_S3_
 .text._ZSt4copyIPN16CRendezvousQueue3CRLES2_ET0_T_S4_S3_
                0x0000000000058384       0x40 queue.o
                0x0000000000058384                _ZSt4copyIPN16CRendezvousQueue3CRLES2_ET0_T_S4_S3_
 .text._ZNSt20__uninitialized_copyILb1EE18uninitialized_copyIPN16CRendezvousQueue3CRLES4_EET0_T_S6_S5_
                0x00000000000583c4       0x27 queue.o
                0x00000000000583c4                _ZNSt20__uninitialized_copyILb1EE18uninitialized_copyIPN16CRendezvousQueue3CRLES4_EET0_T_S6_S5_
 .text._ZSt18uninitialized_copyIPN16CRendezvousQueue3CRLES2_ET0_T_S4_S3_
                0x00000000000583eb       0x27 queue.o
                0x00000000000583eb                _ZSt18uninitialized_copyIPN16CRendezvousQueue3CRLES2_ET0_T_S4_S3_
 .text._ZSt22__uninitialized_copy_aIPN16CRendezvousQueue3CRLES2_S1_ET0_T_S4_S3_RSaIT1_E
                0x0000000000058412       0x2b queue.o
                0x0000000000058412                _ZSt22__uninitialized_copy_aIPN16CRendezvousQueue3CRLES2_S1_ET0_T_S4_S3_RSaIT1_E
 .text._ZSt22__uninitialized_move_aIPN16CRendezvousQueue3CRLES2_SaIS1_EET0_T_S5_S4_RT1_
                0x000000000005843d       0x2f queue.o
                0x000000000005843d                _ZSt22__uninitialized_move_aIPN16CRendezvousQueue3CRLES2_SaIS1_EET0_T_S5_S4_RT1_
 .text._ZNSt20__copy_move_backwardILb0ELb1ESt26random_access_iterator_tagE13__copy_move_bIN16CRendezvousQueue3CRLEEEPT_PKS5_S8_S6_
                0x000000000005846c       0x64 queue.o
                0x000000000005846c                _ZNSt20__copy_move_backwardILb0ELb1ESt26random_access_iterator_tagE13__copy_move_bIN16CRendezvousQueue3CRLEEEPT_PKS5_S8_S6_
 .text._ZSt22__copy_move_backward_aILb0EPN16CRendezvousQueue3CRLES2_ET1_T0_S4_S3_
                0x00000000000584d0       0x2b queue.o
                0x00000000000584d0                _ZSt22__copy_move_backward_aILb0EPN16CRendezvousQueue3CRLES2_ET1_T0_S4_S3_
 .text._ZSt23__copy_move_backward_a2ILb0EPN16CRendezvousQueue3CRLES2_ET1_T0_S4_S3_
                0x00000000000584fb       0x4f queue.o
                0x00000000000584fb                _ZSt23__copy_move_backward_a2ILb0EPN16CRendezvousQueue3CRLES2_ET1_T0_S4_S3_
 .text._ZSt13copy_backwardIPN16CRendezvousQueue3CRLES2_ET0_T_S4_S3_
                0x000000000005854a       0x40 queue.o
                0x000000000005854a                _ZSt13copy_backwardIPN16CRendezvousQueue3CRLES2_ET0_T_S4_S3_
 .text._ZNKSt6vectorIP4CUDTSaIS1_EE12_M_check_lenEmPKc
                0x000000000005858a       0xb8 queue.o
                0x000000000005858a                _ZNKSt6vectorIP4CUDTSaIS1_EE12_M_check_lenEmPKc
 .text._ZNSt6vectorIP4CUDTSaIS1_EE13_M_insert_auxEN9__gnu_cxx17__normal_iteratorIPS1_S3_EERKS1_
                0x0000000000058642      0x1ec queue.o
                0x0000000000058642                _ZNSt6vectorIP4CUDTSaIS1_EE13_M_insert_auxEN9__gnu_cxx17__normal_iteratorIPS1_S3_EERKS1_
 .text._ZNSt6vectorIP4CUDTSaIS1_EE6insertEN9__gnu_cxx17__normal_iteratorIPS1_S3_EERKS1_
                0x000000000005882e       0xe3 queue.o
                0x000000000005882e                _ZNSt6vectorIP4CUDTSaIS1_EE6insertEN9__gnu_cxx17__normal_iteratorIPS1_S3_EERKS1_
 *fill*         0x0000000000058911        0x1 90909090
 .text._ZNKSt6vectorIN16CRendezvousQueue3CRLESaIS1_EE12_M_check_lenEmPKc
                0x0000000000058912       0xb8 queue.o
                0x0000000000058912                _ZNKSt6vectorIN16CRendezvousQueue3CRLESaIS1_EE12_M_check_lenEmPKc
 .text._ZNSt6vectorIN16CRendezvousQueue3CRLESaIS1_EE13_M_insert_auxEN9__gnu_cxx17__normal_iteratorIPS1_S3_EERKS1_
                0x00000000000589ca      0x1fc queue.o
                0x00000000000589ca                _ZNSt6vectorIN16CRendezvousQueue3CRLESaIS1_EE13_M_insert_auxEN9__gnu_cxx17__normal_iteratorIPS1_S3_EERKS1_
 .text._ZNSt6vectorIN16CRendezvousQueue3CRLESaIS1_EE6insertEN9__gnu_cxx17__normal_iteratorIPS1_S3_EERKS1_
                0x0000000000058bc6       0xe3 queue.o
                0x0000000000058bc6                _ZNSt6vectorIN16CRendezvousQueue3CRLESaIS1_EE6insertEN9__gnu_cxx17__normal_iteratorIPS1_S3_EERKS1_
 *fill*         0x0000000000058ca9        0x1 90909090
 .text._ZNSt8_Rb_treeIiSt4pairIKiP7CPacketESt10_Select1stIS4_ESt4lessIiESaIS4_EE5eraseESt17_Rb_tree_iteratorIS4_E
                0x0000000000058caa       0x48 queue.o
                0x0000000000058caa                _ZNSt8_Rb_treeIiSt4pairIKiP7CPacketESt10_Select1stIS4_ESt4lessIiESaIS4_EE5eraseESt17_Rb_tree_iteratorIS4_E
 .text._ZNSt3mapIiP7CPacketSt4lessIiESaISt4pairIKiS1_EEE5eraseESt17_Rb_tree_iteratorIS6_E
                0x0000000000058cf2       0x1f queue.o
                0x0000000000058cf2                _ZNSt3mapIiP7CPacketSt4lessIiESaISt4pairIKiS1_EEE5eraseESt17_Rb_tree_iteratorIS6_E
 *fill*         0x0000000000058d11        0x1 90909090
 .text._ZN5CUnitC1Ev
                0x0000000000058d12       0x17 queue.o
                0x0000000000058d12                _ZN5CUnitC1Ev
 *fill*         0x0000000000058d29        0x1 90909090
 .text._ZNSt17_Rb_tree_iteratorISt4pairIKiP7CPacketEEppEv
                0x0000000000058d2a       0x28 queue.o
                0x0000000000058d2a                _ZNSt17_Rb_tree_iteratorISt4pairIKiP7CPacketEEppEv
 *fill*         0x0000000000058d52        0xe 90909090
 .text          0x0000000000058d60       0x36 /usr/lib/gcc/x86_64-linux-gnu/4.3.3/crtendS.o
 *fill*         0x0000000000058d96        0x2 90909090
 .text          0x0000000000058d98        0x0 /usr/lib/gcc/x86_64-linux-gnu/4.3.3/../../../../lib/crtn.o
 *(.gnu.warning)

.fini           0x0000000000058d98        0xe
 *(.fini)
 .fini          0x0000000000058d98        0x4 /usr/lib/gcc/x86_64-linux-gnu/4.3.3/../../../../lib/crti.o
                0x0000000000058d98                _fini
 .fini          0x0000000000058d9c        0x5 /usr/lib/gcc/x86_64-linux-gnu/4.3.3/crtbeginS.o
 .fini          0x0000000000058da1        0x5 /usr/lib/gcc/x86_64-linux-gnu/4.3.3/../../../../lib/crtn.o
                0x0000000000058da6                PROVIDE (__etext, .)
                0x0000000000058da6                PROVIDE (_etext, .)
                0x0000000000058da6                PROVIDE (etext, .)

.rodata         0x0000000000058dc0     0x15e8
 *(.rodata .rodata.* .gnu.linkonce.r.*)
 .rodata        0x0000000000058dc0        0x2 channel.o
 *fill*         0x0000000000058dc2        0x6 00
 .rodata        0x0000000000058dc8      0x120 core.o
                0x0000000000058e98                _ZN6CMsgNo10m_iMsgNoTHE
                0x0000000000058e80                _ZN4CUDT5ERRORE
                0x0000000000058e8c                _ZN6CSeqNo10m_iSeqNoTHE
                0x0000000000058ea0                _ZN4CUDT10m_iVersionE
                0x0000000000058e88                _ZN3UDT5ERRORE
                0x0000000000058e9c                _ZN6CMsgNo11m_iMaxMsgNoE
                0x0000000000058e90                _ZN6CSeqNo11m_iMaxSeqNoE
                0x0000000000058ea8                _ZN4CUDT20m_iSelfClockIntervalE
                0x0000000000058e7c                _ZN4CUDT12INVALID_SOCKE
                0x0000000000058e94                _ZN6CAckNo14m_iMaxAckSeqNoE
                0x0000000000058ea4                _ZN4CUDT14m_iSYNIntervalE
                0x0000000000058e84                _ZN3UDT12INVALID_SOCKE
 *fill*         0x0000000000058ee8        0x8 00
 .rodata._ZTS10CCCFactoryI6CUDTCCE
                0x0000000000058ef0       0x16 core.o
                0x0000000000058ef0                _ZTS10CCCFactoryI6CUDTCCE
 *fill*         0x0000000000058f06        0xa 00
 .rodata._ZTS17CCCVirtualFactory
                0x0000000000058f10       0x14 core.o
                0x0000000000058f10                _ZTS17CCCVirtualFactory
 *fill*         0x0000000000058f24        0x4 00
 .rodata        0x0000000000058f28      0x55c common.o
                0x00000000000593fc                _ZN13CUDTException7SUCCESSE
                0x0000000000059434                _ZN13CUDTException7ERDPERME
                0x0000000000059468                _ZN13CUDTException9EDGRAMILLE
                0x0000000000059428                _ZN13CUDTException6ENOBUFE
                0x000000000005947c                _ZN13CUDTException9EASYNCRCVE
                0x0000000000059450                _ZN13CUDTException8EINVSOCKE
                0x0000000000059458                _ZN13CUDTException9ENOLISTENE
                0x0000000000059448                _ZN13CUDTException9ECONNSOCKE
                0x000000000005944c                _ZN13CUDTException9EINVPARAME
                0x0000000000059474                _ZN13CUDTException10EASYNCFAILE
                0x000000000005942c                _ZN13CUDTException5EFILEE
                0x0000000000059410                _ZN13CUDTException8ESECFAILE
                0x0000000000059424                _ZN13CUDTException7ETHREADE
                0x0000000000059470                _ZN13CUDTException9ELARGEMSGE
                0x000000000005945c                _ZN13CUDTException10ERDVNOSERVE
                0x0000000000059414                _ZN13CUDTException9ECONNFAILE
                0x000000000005943c                _ZN13CUDTException7EWRPERME
                0x0000000000059454                _ZN13CUDTException12EUNBOUNDSOCKE
                0x0000000000059418                _ZN13CUDTException9ECONNLOSTE
                0x0000000000059438                _ZN13CUDTException9EINVWROFFE
                0x0000000000059420                _ZN13CUDTException9ERESOURCEE
                0x000000000005946c                _ZN13CUDTException10EDUPLISTENE
                0x0000000000059460                _ZN13CUDTException11ERDVUNBOUNDE
                0x0000000000059404                _ZN13CUDTException9ENOSERVERE
                0x0000000000059464                _ZN13CUDTException10ESTREAMILLE
                0x0000000000059444                _ZN13CUDTException10EBOUNDSOCKE
                0x0000000000059478                _ZN13CUDTException9EASYNCSNDE
                0x0000000000059430                _ZN13CUDTException9EINVRDOFFE
                0x000000000005941c                _ZN13CUDTException7ENOCONNE
                0x0000000000059400                _ZN13CUDTException10ECONNSETUPE
                0x0000000000059480                _ZN13CUDTException8EUNKNOWNE
                0x000000000005940c                _ZN13CUDTException9ESOCKFAILE
                0x0000000000059440                _ZN13CUDTException6EINVOPE
                0x0000000000059408                _ZN13CUDTException8ECONNREJE
 *fill*         0x0000000000059484        0xc 00
 .rodata._ZTS13CUDTException
                0x0000000000059490       0x10 common.o
                0x0000000000059490                _ZTS13CUDTException
 .rodata        0x00000000000594a0        0x4 packet.o
                0x00000000000594a0                _ZN7CPacket13m_iPktHdrSizeE
 *fill*         0x00000000000594a4       0x1c 00
 .rodata        0x00000000000594c0      0xdd5 com_barchart_udt_SocketUDT.o
 *fill*         0x000000000005a295        0x3 00
 .rodata        0x000000000005a298       0x28 api.o
 .rodata._ZTS6CUDTCC
                0x000000000005a2c0        0x8 ccc.o
                0x000000000005a2c0                _ZTS6CUDTCC
 .rodata._ZTS3CCC
                0x000000000005a2c8        0x5 ccc.o
                0x000000000005a2c8                _ZTS3CCC
 *fill*         0x000000000005a2cd        0x3 00
 .rodata        0x000000000005a2d0       0x50 ccc.o
 .rodata        0x000000000005a320        0x8 window.o
 *fill*         0x000000000005a328       0x18 00
 .rodata        0x000000000005a340       0x44 md5.o
 *fill*         0x000000000005a384        0x4 00
 .rodata        0x000000000005a388       0x20 queue.o

.rodata1
 *(.rodata1)

.eh_frame_hdr   0x000000000005a3a8     0x2304
 *(.eh_frame_hdr)
 .eh_frame_hdr  0x000000000005a3a8     0x2304 channel.o

.eh_frame       0x000000000005c6b0     0x906c
 *(.eh_frame)
 .eh_frame      0x000000000005c6b0      0x270 channel.o
 .eh_frame      0x000000000005c920      0x6b0 core.o
                                        0x6d0 (size before relaxing)
 .eh_frame      0x000000000005cfd0      0x4a0 common.o
 .eh_frame      0x000000000005d470      0x208 packet.o
                                        0x228 (size before relaxing)
 .eh_frame      0x000000000005d678     0x1a48 com_barchart_udt_SocketUDT.o
                                       0x1a68 (size before relaxing)
 .eh_frame      0x000000000005f0c0     0x2850 api.o
                                       0x3418 (size before relaxing)
 .eh_frame      0x0000000000061910      0x420 ccc.o
                                        0x4a0 (size before relaxing)
 .eh_frame      0x0000000000061d30      0x378 buffer.o
                                        0x398 (size before relaxing)
 .eh_frame      0x00000000000620a8      0x2a0 window.o
                                        0x2c0 (size before relaxing)
 .eh_frame      0x0000000000062348       0x80 md5.o
                                         0xa0 (size before relaxing)
 .eh_frame      0x00000000000623c8      0x260 list.o
                                        0x320 (size before relaxing)
 .eh_frame      0x0000000000062628     0x1080 cache.o
                                       0x10c0 (size before relaxing)
 .eh_frame      0x00000000000636a8     0x2070 queue.o
                                       0x20f0 (size before relaxing)
 .eh_frame      0x0000000000065718        0x4 /usr/lib/gcc/x86_64-linux-gnu/4.3.3/crtendS.o

.gcc_except_table
                0x000000000006571c     0x17fb
 *(.gcc_except_table .gcc_except_table.*)
 .gcc_except_table
                0x000000000006571c       0x4a channel.o
 *fill*         0x0000000000065766        0x2 00
 .gcc_except_table
                0x0000000000065768      0x5d4 core.o
 .gcc_except_table
                0x0000000000065d3c       0x11 packet.o
 .gcc_except_table
                0x0000000000065d4d      0x224 com_barchart_udt_SocketUDT.o
 *fill*         0x0000000000065f71        0x3 00
 .gcc_except_table
                0x0000000000065f74      0xcf8 api.o
 .gcc_except_table
                0x0000000000066c6c       0x5f buffer.o
 .gcc_except_table
                0x0000000000066ccb       0x72 cache.o
 *fill*         0x0000000000066d3d        0x3 00
 .gcc_except_table
                0x0000000000066d40      0x1d7 queue.o
                0x0000000000066f17                . = (ALIGN (0x200000) - ((0x200000 - .) & 0x1fffff))
                0x0000000000267ac7                . = (0x200000 DATA_SEGMENT_ALIGN 0x1000)

.eh_frame
 *(.eh_frame)

.gcc_except_table
 *(.gcc_except_table .gcc_except_table.*)

.tdata
 *(.tdata .tdata.* .gnu.linkonce.td.*)

.tbss
 *(.tbss .tbss.* .gnu.linkonce.tb.*)
 *(.tcommon)

.preinit_array
 *(.preinit_array)

.init_array
 *(SORT(.init_array.*))
 *(.init_array)

.fini_array
 *(.fini_array)
 *(SORT(.fini_array.*))

.ctors          0x0000000000267ac8       0x28
 *crtbegin.o(.ctors)
 *crtbegin?.o(.ctors)
 .ctors         0x0000000000267ac8        0x8 /usr/lib/gcc/x86_64-linux-gnu/4.3.3/crtbeginS.o
 *(EXCLUDE_FILE(*crtend?.o *crtend.o) .ctors)
 .ctors         0x0000000000267ad0        0x8 core.o
 .ctors         0x0000000000267ad8        0x8 common.o
 .ctors         0x0000000000267ae0        0x8 com_barchart_udt_SocketUDT.o
 *(SORT(.ctors.*))
 *(.ctors)
 .ctors         0x0000000000267ae8        0x8 /usr/lib/gcc/x86_64-linux-gnu/4.3.3/crtendS.o

.dtors          0x0000000000267af0       0x10
 *crtbegin.o(.dtors)
 *crtbegin?.o(.dtors)
 .dtors         0x0000000000267af0        0x8 /usr/lib/gcc/x86_64-linux-gnu/4.3.3/crtbeginS.o
 *(EXCLUDE_FILE(*crtend?.o *crtend.o) .dtors)
 *(SORT(.dtors.*))
 *(.dtors)
 .dtors         0x0000000000267af8        0x8 /usr/lib/gcc/x86_64-linux-gnu/4.3.3/crtendS.o
                0x0000000000267af8                __DTOR_END__

.jcr            0x0000000000267b00        0x8
 *(.jcr)
 .jcr           0x0000000000267b00        0x0 /usr/lib/gcc/x86_64-linux-gnu/4.3.3/crtbeginS.o
 .jcr           0x0000000000267b00        0x8 /usr/lib/gcc/x86_64-linux-gnu/4.3.3/crtendS.o

.data.rel.ro    0x0000000000267b20      0x1f0
 *(.data.rel.ro.local* .gnu.linkonce.d.rel.ro.local.*)
 *(.data.rel.ro* .gnu.linkonce.d.rel.ro.*)
 .data.rel.ro._ZTV10CCCFactoryI6CUDTCCE
                0x0000000000267b20       0x30 core.o
                0x0000000000267b20                _ZTV10CCCFactoryI6CUDTCCE
 .data.rel.ro._ZTI10CCCFactoryI6CUDTCCE
                0x0000000000267b50       0x18 core.o
                0x0000000000267b50                _ZTI10CCCFactoryI6CUDTCCE
 *fill*         0x0000000000267b68        0x8 00
 .data.rel.ro._ZTI17CCCVirtualFactory
                0x0000000000267b70       0x10 core.o
                0x0000000000267b70                _ZTI17CCCVirtualFactory
 .data.rel.ro._ZTV17CCCVirtualFactory
                0x0000000000267b80       0x30 core.o
                0x0000000000267b80                _ZTV17CCCVirtualFactory
 *fill*         0x0000000000267bb0       0x10 00
 .data.rel.ro._ZTV13CUDTException
                0x0000000000267bc0       0x38 common.o
                0x0000000000267bc0                _ZTV13CUDTException
 *fill*         0x0000000000267bf8        0x8 00
 .data.rel.ro._ZTI13CUDTException
                0x0000000000267c00       0x10 common.o
                0x0000000000267c00                _ZTI13CUDTException
 *fill*         0x0000000000267c10       0x10 00
 .data.rel.ro._ZTV6CUDTCC
                0x0000000000267c20       0x60 ccc.o
                0x0000000000267c20                _ZTV6CUDTCC
 .data.rel.ro._ZTV3CCC
                0x0000000000267c80       0x60 ccc.o
                0x0000000000267c80                _ZTV3CCC
 .data.rel.ro._ZTI6CUDTCC
                0x0000000000267ce0       0x18 ccc.o
                0x0000000000267ce0                _ZTI6CUDTCC
 *fill*         0x0000000000267cf8        0x8 00
 .data.rel.ro._ZTI3CCC
                0x0000000000267d00       0x10 ccc.o
                0x0000000000267d00                _ZTI3CCC

.dynamic        0x0000000000267d10      0x1c0
 *(.dynamic)
 .dynamic       0x0000000000267d10      0x1c0 /usr/lib/gcc/x86_64-linux-gnu/4.3.3/../../../../lib/crti.o
                0x0000000000267d10                _DYNAMIC

.got            0x0000000000267ed0      0x108
 *(.got)
 .got           0x0000000000267ed0      0x108 /usr/lib/gcc/x86_64-linux-gnu/4.3.3/../../../../lib/crti.o
                0x0000000000267fe8                . = (. DATA_SEGMENT_RELRO_END 0x18)

.got.plt        0x0000000000267fe8     0x2150
 *(.got.plt)
 .got.plt       0x0000000000267fe8     0x2150 /usr/lib/gcc/x86_64-linux-gnu/4.3.3/../../../../lib/crti.o
                0x0000000000267fe8                _GLOBAL_OFFSET_TABLE_

.data           0x000000000026a138       0x20
 *(.data .data.* .gnu.linkonce.d.*)
 .data          0x000000000026a138        0x0 /usr/lib/gcc/x86_64-linux-gnu/4.3.3/../../../../lib/crti.o
 .data          0x000000000026a138        0x0 /usr/lib/gcc/x86_64-linux-gnu/4.3.3/crtbeginS.o
 .data.rel      0x000000000026a138        0x8 /usr/lib/gcc/x86_64-linux-gnu/4.3.3/crtbeginS.o
                0x000000000026a138                __dso_handle
 .data          0x000000000026a140        0x0 channel.o
 .data.DW.ref.__gxx_personality_v0
                0x000000000026a140        0x8 channel.o
                0x000000000026a140                DW.ref.__gxx_personality_v0
 .data          0x000000000026a148        0x0 core.o
 .data          0x000000000026a148        0x0 common.o
 .data          0x000000000026a148        0x0 packet.o
 .data          0x000000000026a148        0x0 com_barchart_udt_SocketUDT.o
 .data          0x000000000026a148        0x0 api.o
 .data.DW.ref._ZTI13CUDTException
                0x000000000026a148        0x8 api.o
                0x000000000026a148                DW.ref._ZTI13CUDTException
 .data.DW.ref._ZTISt9bad_alloc
                0x000000000026a150        0x8 api.o
                0x000000000026a150                DW.ref._ZTISt9bad_alloc
 .data          0x000000000026a158        0x0 ccc.o
 .data          0x000000000026a158        0x0 buffer.o
 .data          0x000000000026a158        0x0 window.o
 .data          0x000000000026a158        0x0 md5.o
 .data          0x000000000026a158        0x0 list.o
 .data          0x000000000026a158        0x0 cache.o
 .data          0x000000000026a158        0x0 queue.o
 .data          0x000000000026a158        0x0 /usr/lib/gcc/x86_64-linux-gnu/4.3.3/crtendS.o
 .data          0x000000000026a158        0x0 /usr/lib/gcc/x86_64-linux-gnu/4.3.3/../../../../lib/crtn.o

.data1
 *(.data1)
                0x000000000026a158                _edata = .
                0x000000000026a158                PROVIDE (edata, .)
                0x000000000026a158                __bss_start = .

.bss            0x000000000026a160      0x490
 *(.dynbss)
 .dynbss        0x0000000000000000        0x0 /usr/lib/gcc/x86_64-linux-gnu/4.3.3/../../../../lib/crti.o
 *(.bss .bss.* .gnu.linkonce.b.*)
 .bss           0x000000000026a160        0x0 /usr/lib/gcc/x86_64-linux-gnu/4.3.3/../../../../lib/crti.o
 .bss           0x000000000026a160       0x10 /usr/lib/gcc/x86_64-linux-gnu/4.3.3/crtbeginS.o
 .bss           0x000000000026a170        0x0 channel.o
 *fill*         0x000000000026a170       0x10 00
 .bss           0x000000000026a180      0x198 core.o
                0x000000000026a180                _ZN4CUDT11s_UDTUnitedE
 *fill*         0x000000000026a318        0x8 00
 .bss           0x000000000026a320       0x90 common.o
                0x000000000026a340                _ZN6CTimer11m_EventLockE
                0x000000000026a320                _ZN6CTimer17s_ullCPUFrequencyE
                0x000000000026a380                _ZN6CTimer11m_EventCondE
 .bss           0x000000000026a3b0        0x0 packet.o
 .bss           0x000000000026a3b0      0x240 com_barchart_udt_SocketUDT.o
 .bss           0x000000000026a5f0        0x0 api.o
 .bss           0x000000000026a5f0        0x0 ccc.o
 .bss           0x000000000026a5f0        0x0 buffer.o
 .bss           0x000000000026a5f0        0x0 window.o
 .bss           0x000000000026a5f0        0x0 md5.o
 .bss           0x000000000026a5f0        0x0 list.o
 .bss           0x000000000026a5f0        0x0 cache.o
 .bss           0x000000000026a5f0        0x0 queue.o
 .bss           0x000000000026a5f0        0x0 /usr/lib/gcc/x86_64-linux-gnu/4.3.3/crtendS.o
 .bss           0x000000000026a5f0        0x0 /usr/lib/gcc/x86_64-linux-gnu/4.3.3/../../../../lib/crtn.o
 *(COMMON)
                0x000000000026a5f0                . = ALIGN ((. != 0x0)?0x8:0x1)

.lbss
 *(.dynlbss)
 *(.lbss .lbss.* .gnu.linkonce.lb.*)
 *(LARGE_COMMON)
                0x000000000026a5f0                . = ALIGN (0x8)

.lrodata
 *(.lrodata .lrodata.* .gnu.linkonce.lr.*)

.ldata          0x000000000066a5f0        0x0
 *(.ldata .ldata.* .gnu.linkonce.l.*)
                0x000000000066a5f0                . = ALIGN ((. != 0x0)?0x8:0x1)
                0x000000000066a5f0                . = ALIGN (0x8)
                0x000000000066a5f0                _end = .
                0x000000000066a5f0                PROVIDE (end, .)
                0x000000000066a5f0                . = DATA_SEGMENT_END (.)

.stab
 *(.stab)

.stabstr
 *(.stabstr)

.stab.excl
 *(.stab.excl)

.stab.exclstr
 *(.stab.exclstr)

.stab.index
 *(.stab.index)

.stab.indexstr
 *(.stab.indexstr)

.comment        0x0000000000000000      0x264
 *(.comment)
 .comment       0x0000000000000000       0x24 /usr/lib/gcc/x86_64-linux-gnu/4.3.3/../../../../lib/crti.o
 .comment       0x0000000000000024       0x24 /usr/lib/gcc/x86_64-linux-gnu/4.3.3/crtbeginS.o
 .comment       0x0000000000000048       0x24 channel.o
 .comment       0x000000000000006c       0x24 core.o
 .comment       0x0000000000000090       0x24 common.o
 .comment       0x00000000000000b4       0x24 packet.o
 .comment       0x00000000000000d8       0x24 com_barchart_udt_SocketUDT.o
 .comment       0x00000000000000fc       0x24 api.o
 .comment       0x0000000000000120       0x24 ccc.o
 .comment       0x0000000000000144       0x24 buffer.o
 .comment       0x0000000000000168       0x24 window.o
 .comment       0x000000000000018c       0x24 md5.o
 .comment       0x00000000000001b0       0x24 list.o
 .comment       0x00000000000001d4       0x24 cache.o
 .comment       0x00000000000001f8       0x24 queue.o
 .comment       0x000000000000021c       0x24 /usr/lib/gcc/x86_64-linux-gnu/4.3.3/crtendS.o
 .comment       0x0000000000000240       0x24 /usr/lib/gcc/x86_64-linux-gnu/4.3.3/../../../../lib/crtn.o

.debug
 *(.debug)

.line
 *(.line)

.debug_srcinfo
 *(.debug_srcinfo)

.debug_sfnames
 *(.debug_sfnames)

.debug_aranges  0x0000000000000000       0x90
 *(.debug_aranges)
 .debug_aranges
                0x0000000000000000       0x50 /usr/lib/gcc/x86_64-linux-gnu/4.3.3/../../../../lib/crti.o
 .debug_aranges
                0x0000000000000050       0x40 /usr/lib/gcc/x86_64-linux-gnu/4.3.3/../../../../lib/crtn.o

.debug_pubnames
 *(.debug_pubnames)

.debug_info     0x0000000000000000       0xf2
 *(.debug_info .gnu.linkonce.wi.*)
 .debug_info    0x0000000000000000       0x79 /usr/lib/gcc/x86_64-linux-gnu/4.3.3/../../../../lib/crti.o
 .debug_info    0x0000000000000079       0x79 /usr/lib/gcc/x86_64-linux-gnu/4.3.3/../../../../lib/crtn.o

.debug_abbrev   0x0000000000000000       0x24
 *(.debug_abbrev)
 .debug_abbrev  0x0000000000000000       0x12 /usr/lib/gcc/x86_64-linux-gnu/4.3.3/../../../../lib/crti.o
 .debug_abbrev  0x0000000000000012       0x12 /usr/lib/gcc/x86_64-linux-gnu/4.3.3/../../../../lib/crtn.o

.debug_line     0x0000000000000000      0x118
 *(.debug_line)
 .debug_line    0x0000000000000000       0x99 /usr/lib/gcc/x86_64-linux-gnu/4.3.3/../../../../lib/crti.o
 .debug_line    0x0000000000000099       0x7f /usr/lib/gcc/x86_64-linux-gnu/4.3.3/../../../../lib/crtn.o

.debug_frame
 *(.debug_frame)

.debug_str
 *(.debug_str)

.debug_loc
 *(.debug_loc)

.debug_macinfo
 *(.debug_macinfo)

.debug_weaknames
 *(.debug_weaknames)

.debug_funcnames
 *(.debug_funcnames)

.debug_typenames
 *(.debug_typenames)

.debug_varnames
 *(.debug_varnames)

.debug_pubtypes
 *(.debug_pubtypes)

.debug_ranges   0x0000000000000000       0x90
 *(.debug_ranges)
 .debug_ranges  0x0000000000000000       0x50 /usr/lib/gcc/x86_64-linux-gnu/4.3.3/../../../../lib/crti.o
 .debug_ranges  0x0000000000000050       0x40 /usr/lib/gcc/x86_64-linux-gnu/4.3.3/../../../../lib/crtn.o

.gnu.attributes
 *(.gnu.attributes)

/DISCARD/
 *(.note.GNU-stack)
 *(.gnu_debuglink)
OUTPUT(libSocketUDT-linux-x86-64.so elf64-x86-64)
