# Path: libSocketUDT-macosx-x86-64.so
# Arch: x86_64
# UUID:  0  0  0  0  0  0  0  0  0  0  0  0  0  0  0  0 
# Object files:
[  0] linker synthesized
[  1] channel.o
[  2] core.o
[  3] common.o
[  4] packet.o
[  5] com_barchart_udt_SocketUDT.o
[  6] api.o
[  7] ccc.o
[  8] buffer.o
[  9] window.o
[ 10] md5.o
[ 11] list.o
[ 12] cache.o
[ 13] queue.o
# Sections:
# Address	Size    	Segment	Section
0x00001470	0x0001EAA0	__TEXT	__text
0x0001FF10	0x0000087C	__TEXT	__symbol_stub1
0x0002078C	0x00000CEA	__TEXT	__stub_helper
0x00021478	0x0000121A	__TEXT	__cstring
0x000226A0	0x000001C4	__TEXT	__const
0x00022864	0x000032E4	__TEXT	__gcc_except_tab
0x00025B50	0x000008C8	__TEXT	__unwind_info
0x00026418	0x00006BE0	__TEXT	__eh_frame
0x0002D000	0x000000B0	__DATA	__nl_symbol_ptr
0x0002D0B0	0x00000B50	__DATA	__la_symbol_ptr
0x0002DC00	0x00000010	__DATA	__mod_init_func
0x0002DC20	0x000001F0	__DATA	__const
0x0002DE20	0x00000070	__DATA	__data
0x0002DEA0	0x00000220	__DATA	__common
0x0002E0C0	0x00000238	__DATA	__bss
# Symbols:
# Address	Size    	File  Name
0x00001470	0x00000040	[  2] __Z41__static_initialization_and_destruction_0ii
0x000014B0	0x00000014	[  2] __GLOBAL__I__ZN4CUDT11s_UDTUnitedE
0x000014D0	0x00000030	[  3] __ZN6CTimer7getTimeEv
0x00001500	0x00000030	[  3] __Z41__static_initialization_and_destruction_0ii
0x00001530	0x00000014	[  3] __GLOBAL__I__ZN6CTimer17s_ullCPUFrequencyE
0x00001550	0x00000220	[  6] __ZN10CUDTUnitedC2Ev
0x00001770	0x00000010	[  6] __ZN10CUDTUnitedC1Ev
0x00001780	0x000001E0	[  6] __ZNSt8_Rb_treeIiSt4pairIKiP10CUDTSocketESt10_Select1stIS4_ESt4lessIiESaIS4_EE8_M_eraseEPSt13_Rb_tree_nodeIS4_E
0x00001960	0x000000B0	[ 12] __ZN6CCacheC2Ev
0x00001A10	0x00000010	[ 12] __ZN6CCacheC1Ev
0x00001A20	0x000001E0	[ 12] __ZNSt8_Rb_treeIP10CInfoBlockS1_St9_IdentityIS1_E7CIPCompSaIS1_EE8_M_eraseEPSt13_Rb_tree_nodeIS1_E
0x00001C00	0x000001E0	[ 12] __ZNSt8_Rb_treeIP10CInfoBlockS1_St9_IdentityIS1_E7CTSCompSaIS1_EE8_M_eraseEPSt13_Rb_tree_nodeIS1_E
0x00001DE0	0x00000030	[  1] __ZN8CChannelC2Ev
0x00001E10	0x00000030	[  1] __ZN8CChannelC1Ev
0x00001E40	0x00000020	[  1] __ZN8CChannelC2ERKi
0x00001E60	0x00000020	[  1] __ZN8CChannelC1ERKi
0x00001E80	0x00000010	[  1] __ZN8CChannelD2Ev
0x00001E90	0x00000010	[  1] __ZN8CChannelD1Ev
0x00001EA0	0x00000010	[  1] __ZN8CChannel13setSndBufSizeERKi
0x00001EB0	0x00000010	[  1] __ZN8CChannel13setRcvBufSizeERKi
0x00001EC0	0x00000030	[  1] __ZNK8CChannel11getPeerAddrEP8sockaddr
0x00001EF0	0x00000030	[  1] __ZNK8CChannel11getSockAddrEP8sockaddr
0x00001F20	0x00000040	[  1] __ZN8CChannel13getRcvBufSizeEv
0x00001F60	0x00000040	[  1] __ZN8CChannel13getSndBufSizeEv
0x00001FA0	0x00000010	[  1] __ZNK8CChannel5closeEv
0x00001FB0	0x00000110	[  1] __ZN8CChannel13setUDPSockOptEv
0x000020C0	0x00000010	[  1] __ZN8CChannel4openEi
0x000020D0	0x000001B0	[  1] __ZN8CChannel4openEPK8sockaddr
0x00002280	0x00000120	[  1] __ZNK8CChannel8recvfromEP8sockaddrR7CPacket
0x000023A0	0x0000016F	[  1] __ZNK8CChannel6sendtoEPK8sockaddrR7CPacket
0x00002510	0x00000280	[  2] __ZN4CUDT6listenEP8sockaddrR7CPacket
0x00002790	0x00000090	[  2] __ZN4CUDT12releaseSynchEv
0x00002820	0x00000700	[  2] __ZN4CUDT8sendCtrlERKiPvS2_S1_
0x00002F20	0x00000080	[  2] __ZN4CUDT12destroySynchEv
0x00002FA0	0x00000090	[  2] __ZN4CUDT9initSynchEv
0x00003030	0x00000160	[  2] __ZN4CUDTC1ERKS_
0x00003190	0x00000160	[  2] __ZN4CUDTC2ERKS_
0x000032F0	0x000002C0	[  2] __ZN4CUDT6getOptE6UDTOptPvRi
0x000035B0	0x00000660	[  2] __ZN4CUDT6setOptE6UDTOptPKvRKi
0x00003C10	0x00000470	[  2] __ZN4CUDT6sampleEP8CPerfMonb
0x00004080	0x00000440	[  2] __ZN4CUDT8sendfileERSt13basic_fstreamIcSt11char_traitsIcEERKxS6_RKi
0x000044C0	0x00000390	[  2] __ZN4CUDT7recvmsgEPcRKi
0x00004850	0x000003E0	[  2] __ZN4CUDT7sendmsgEPKcRKiS3_RKb
0x00004C30	0x000003C0	[  2] __ZN4CUDT4sendEPKcRKi
0x00004FF0	0x000003B0	[  2] __ZN4CUDT4recvEPcRKi
0x000053A0	0x00000220	[  2] __ZN4CUDT5closeEv
0x000055C0	0x00000150	[  2] __ZN4CUDTC2Ev
0x00005710	0x000004F0	[  2] __ZN4CUDT7connectEPK8sockaddrP10CHandShake
0x00005C00	0x00000170	[  2] __ZN4CUDT6listenEv
0x00005D70	0x00000310	[  2] __ZN4CUDT4openEv
0x00006080	0x00000130	[  2] __ZN4CUDTD2Ev
0x000061B0	0x00000010	[  2] __ZN4CUDTD1Ev
0x000061C0	0x000004E0	[  2] __ZN4CUDT11checkTimersEv
0x000066A0	0x00000300	[  2] __ZN4CUDT11processDataEP5CUnit
0x000069A0	0x00000400	[  2] __ZN4CUDT8packDataER7CPacketRy
0x00006DA0	0x00000BC0	[  2] __ZN4CUDT11processCtrlER7CPacket
0x00007960	0x00000C30	[  2] __ZN4CUDT7connectEPK8sockaddr
0x00008590	0x000003F0	[  2] __ZN4CUDT8recvfileERSt13basic_fstreamIcSt11char_traitsIcEERKxS6_RKi
0x00008980	0x00000145	[  2] __ZN4CUDTC1Ev
0x00008AD0	0x00000020	[  2] __ZN10CCCFactoryI6CUDTCCE5cloneEv
0x00008AF0	0x00000020	[  2] __ZN10CCCFactoryI6CUDTCCED0Ev
0x00008B10	0x00000020	[  2] __ZN10CCCFactoryI6CUDTCCED1Ev
0x00008B30	0x00000020	[  2] __ZN17CCCVirtualFactoryD0Ev
0x00008B50	0x00000020	[  2] __ZN17CCCVirtualFactoryD1Ev
0x00008B70	0x00000046	[  2] __ZN10CCCFactoryI6CUDTCCE6createEv
0x00008BC0	0x00000010	[  3] __ZN6CTimer16readCPUFrequencyEv
0x00008BD0	0x00000010	[  3] __ZN6CTimer15getCPUFrequencyEv
0x00008BE0	0x00000010	[  3] __ZNK13CUDTException12getErrorCodeEv
0x00008BF0	0x00000020	[  3] __ZN13CUDTException5clearEv
0x00008C10	0x000000F0	[  3] __ZN10CIPAddress5ipcmpEPK8sockaddrS2_RKi
0x00008D00	0x000000B0	[  3] __ZN10CIPAddress4ntopEPK8sockaddrPjRKi
0x00008DB0	0x00000090	[  3] __ZN10CIPAddress4ptonEP8sockaddrPKjRKi
0x00008E40	0x00000080	[  3] __ZN4CMD57computeEPKcPh
0x00008EC0	0x00000010	[  3] __ZN6CGuard7leaveCSER23_opaque_pthread_mutex_t
0x00008ED0	0x00000020	[  3] __ZN6CGuardD1Ev
0x00008EF0	0x00000020	[  3] __ZN6CGuardD2Ev
0x00008F10	0x00000010	[  3] __ZN6CGuard7enterCSER23_opaque_pthread_mutex_t
0x00008F20	0x00000030	[  3] __ZN6CGuardC1ER23_opaque_pthread_mutex_t
0x00008F50	0x00000030	[  3] __ZN6CGuardC2ER23_opaque_pthread_mutex_t
0x00008F80	0x00000030	[  3] __ZN6CTimer5rdtscERy
0x00008FB0	0x00000090	[  3] __ZN6CTimer12waitForEventEv
0x00009040	0x00000020	[  3] __ZN6CTimer12triggerEventEv
0x00009060	0x00000010	[  3] __ZN6CTimer4tickEv
0x00009070	0x00000030	[  3] __ZN6CTimerD1Ev
0x000090A0	0x00000030	[  3] __ZN6CTimerD2Ev
0x000090D0	0x00000050	[  3] __ZN6CTimerC1Ev
0x00009120	0x00000050	[  3] __ZN6CTimerC2Ev
0x00009170	0x00000040	[  3] __ZN13CUDTExceptionC1ERKS_
0x000091B0	0x00000040	[  3] __ZN13CUDTExceptionC2ERKS_
0x000091F0	0x00000040	[  3] __ZN6CTimer9interruptEv
0x00009230	0x00000100	[  3] __ZN6CTimer7sleeptoERKy
0x00009330	0x00000050	[  3] __ZN6CTimer5sleepERKy
0x00009380	0x00000090	[  3] __ZN13CUDTExceptionC2Eiii
0x00009410	0x00000090	[  3] __ZN13CUDTExceptionC1Eiii
0x000094A0	0x00000060	[  3] __ZN13CUDTExceptionD0Ev
0x00009500	0x00000050	[  3] __ZN13CUDTExceptionD1Ev
0x00009550	0x00000050	[  3] __ZN13CUDTExceptionD2Ev
0x000095A0	0x00000596	[  3] __ZN13CUDTException15getErrorMessageEv
0x00009B40	0x00000040	[  4] __ZN7CPacketC2Ev
0x00009B80	0x00000040	[  4] __ZN7CPacketC1Ev
0x00009BC0	0x00000010	[  4] __ZN7CPacketD2Ev
0x00009BD0	0x00000010	[  4] __ZN7CPacketD1Ev
0x00009BE0	0x00000010	[  4] __ZNK7CPacket9getLengthEv
0x00009BF0	0x00000010	[  4] __ZN7CPacket9setLengthERKi
0x00009C00	0x000000D0	[  4] __ZN7CPacket4packERKiPvS2_S1_
0x00009CD0	0x00000010	[  4] __ZN7CPacket15getPacketVectorEv
0x00009CE0	0x00000010	[  4] __ZNK7CPacket7getFlagEv
0x00009CF0	0x00000010	[  4] __ZNK7CPacket7getTypeEv
0x00009D00	0x00000010	[  4] __ZNK7CPacket15getExtendedTypeEv
0x00009D10	0x00000010	[  4] __ZNK7CPacket11getAckSeqNoEv
0x00009D20	0x00000010	[  4] __ZNK7CPacket14getMsgBoundaryEv
0x00009D30	0x00000010	[  4] __ZNK7CPacket15getMsgOrderFlagEv
0x00009D40	0x00000010	[  4] __ZNK7CPacket9getMsgSeqEv
0x00009D50	0x0000009B	[  4] __ZNK7CPacket5cloneEv
0x00009DF0	0x00000020	[  5] _UDT_GetSocketID
0x00009E10	0x00000020	[  5] _UDT_SetSocketID
0x00009E30	0x00000470	[  5] _UDT_InitFieldMonitor
0x0000A2A0	0x00000200	[  5] _UDT_InitFieldRefAll
0x0000A4A0	0x00000010	[  5] _Java_com_barchart_udt_SocketUDT_getSignatureJNI0
0x0000A4B0	0x00000010	[  5] _Java_com_barchart_udt_SocketUDT_testEmptyCall0
0x0000A4C0	0x00000020	[  5] _Java_com_barchart_udt_SocketUDT_testMakeArray0
0x0000A4E0	0x00000020	[  5] _Java_com_barchart_udt_SocketUDT_testCrashJVM0
0x0000A500	0x00000300	[  5] _UDT_InitMethodRefAll
0x0000A800	0x00000070	[  5] _X_InitMethodRef
0x0000A870	0x00000060	[  5] _XXX_ThrowSocketExceptionMessage
0x0000A8D0	0x000000B0	[  5] _X_InitClassReference
0x0000A980	0x00000160	[  5] _UDT_InitClassRefAll
0x0000AAE0	0x00000020	[  5] _Java_com_barchart_udt_SocketUDT_clearError0
0x0000AB00	0x00000020	[  5] _Java_com_barchart_udt_SocketUDT_getErrorCode0
0x0000AB20	0x00000060	[  5] _Java_com_barchart_udt_SocketUDT_testIterateSet0
0x0000AB80	0x000000C0	[  5] _UDT_NewExceptionUDT
0x0000AC40	0x00000060	[  5] _UDT_NewLingerUDT
0x0000ACA0	0x000000C0	[  5] _X_NewInetAddress
0x0000AD60	0x00000050	[  5] _X_NewLong
0x0000ADB0	0x00000050	[  5] _X_NewInteger
0x0000AE00	0x00000050	[  5] _X_NewBoolean
0x0000AE50	0x00000050	[  5] _UDT_CopySetToArray
0x0000AEA0	0x000000B0	[  5] _UDT_CopyArrayToSet
0x0000AF50	0x00000110	[  5] _X_IsSockaddrEqualsInetSocketAddress
0x0000B060	0x000000C0	[  5] _X_NewInetSocketAddress
0x0000B120	0x000000F0	[  5] _X_ConvertInetSocketAddressToSockaddr
0x0000B210	0x00000050	[  5] _X_InitSockAddr
0x0000B260	0x000000E0	[  5] _X_ConvertSockaddrToInetSocketAddress
0x0000B340	0x00000080	[  5] _Java_com_barchart_udt_SocketUDT_testGetSetArray0
0x0000B3C0	0x00000070	[  5] _Java_com_barchart_udt_SocketUDT_testFillArray0
0x0000B430	0x00000060	[  5] _Java_com_barchart_udt_SocketUDT_testIterateArray0
0x0000B490	0x00000060	[  5] _Java_com_barchart_udt_SocketUDT_testFillBuffer0
0x0000B4F0	0x00000070	[  5] _Java_com_barchart_udt_SocketUDT_testDirectIntBufferAccess0
0x0000B560	0x00000070	[  5] _Java_com_barchart_udt_SocketUDT_testDirectByteBufferAccess0
0x0000B5D0	0x00000050	[  5] _Java_com_barchart_udt_SocketUDT_getErrorMessage0
0x0000B620	0x00000050	[  5] _UDT_IsSocketOpen
0x0000B670	0x000000F0	[  5] _Java_com_barchart_udt_SocketUDT_hasLoadedLocalSocketAddress
0x0000B760	0x000000F0	[  5] _Java_com_barchart_udt_SocketUDT_hasLoadedRemoteSocketAddress
0x0000B850	0x00000050	[  5] _Java_com_barchart_udt_SocketUDT_isOpen0
0x0000B8A0	0x00000130	[  5] _UDT_ThrowExceptionUDT_ErrorInfo
0x0000B9D0	0x00000090	[  5] _Java_com_barchart_udt_SocketUDT_testInvalidClose0
0x0000BA60	0x00000540	[  5] _Java_com_barchart_udt_SocketUDT_select1
0x0000BFA0	0x00000480	[  5] _Java_com_barchart_udt_SocketUDT_updateMonitor0
0x0000C420	0x00000090	[  5] _UDT_ReturnSendError
0x0000C4B0	0x00000090	[  5] _UDT_ReturnReceiveError
0x0000C540	0x000000B0	[  5] _Java_com_barchart_udt_SocketUDT_listen0
0x0000C5F0	0x00000190	[  5] _Java_com_barchart_udt_SocketUDT_accept0
0x0000C780	0x00000090	[  5] _Java_com_barchart_udt_SocketUDT_initInstance1
0x0000C810	0x000000C0	[  5] _Java_com_barchart_udt_SocketUDT_initInstance0
0x0000C8D0	0x00000080	[  5] _Java_com_barchart_udt_SocketUDT_stopClass0
0x0000C950	0x000000A0	[  5] _Java_com_barchart_udt_SocketUDT_initClass0
0x0000C9F0	0x000000D0	[  5] _UDT_ThrowExceptionUDT_Message
0x0000CAC0	0x00000750	[  5] _Java_com_barchart_udt_SocketUDT_select0
0x0000D210	0x00000120	[  5] _Java_com_barchart_udt_SocketUDT_send0
0x0000D330	0x00000140	[  5] _Java_com_barchart_udt_SocketUDT_receive0
0x0000D470	0x00000060	[  5] _X_IsValidRange
0x0000D4D0	0x000002B0	[  5] _Java_com_barchart_udt_SocketUDT_setOption0
0x0000D780	0x00000220	[  5] _Java_com_barchart_udt_SocketUDT_getOption0
0x0000D9A0	0x00000140	[  5] _Java_com_barchart_udt_SocketUDT_connect0
0x0000DAE0	0x00000110	[  5] _Java_com_barchart_udt_SocketUDT_close0
0x0000DBF0	0x00000120	[  5] _Java_com_barchart_udt_SocketUDT_bind0
0x0000DD10	0x00000180	[  5] _Java_com_barchart_udt_SocketUDT_send2
0x0000DE90	0x000001E0	[  5] _Java_com_barchart_udt_SocketUDT_send1
0x0000E070	0x00000170	[  5] _Java_com_barchart_udt_SocketUDT_receive2
0x0000E1E0	0x00000200	[  5] _Java_com_barchart_udt_SocketUDT_receive1
0x0000E3E0	0x00000260	[  5] _Java_com_barchart_udt_SocketUDT_selectEx1
0x0000E640	0x00000601	[  5] _Java_com_barchart_udt_SocketUDT_selectEx0
0x0000EC50	0x000000A0	[  5] __ZN7JNIEnv_14CallLongMethodEP8_jobjectP10_jmethodIDz
0x0000ECF0	0x000000A0	[  5] __ZN7JNIEnv_13CallIntMethodEP8_jobjectP10_jmethodIDz
0x0000ED90	0x000000A0	[  5] __ZN7JNIEnv_17CallBooleanMethodEP8_jobjectP10_jmethodIDz
0x0000EE30	0x000000A0	[  5] __ZN7JNIEnv_16CallObjectMethodEP8_jobjectP10_jmethodIDz
0x0000EED0	0x000000A0	[  5] __ZN7JNIEnv_9NewObjectEP7_jclassP10_jmethodIDz
0x0000EF70	0x000000A0	[  5] __ZNSt8_Rb_treeIiiSt9_IdentityIiESt4lessIiESaIiEE9_M_insertEPSt18_Rb_tree_node_baseS7_RKi
0x0000F010	0x000000D0	[  5] __ZNSt8_Rb_treeIiiSt9_IdentityIiESt4lessIiESaIiEE16_M_insert_uniqueERKi
0x0000F0E0	0x00000180	[  5] __ZNSt6vectorIiSaIiEE13_M_insert_auxEN9__gnu_cxx17__normal_iteratorIPiS1_EERKi
0x0000F260	0x000001D2	[  5] __ZNSt8_Rb_treeIiiSt9_IdentityIiESt4lessIiESaIiEE8_M_eraseEPSt13_Rb_tree_nodeIiE
0x0000F440	0x000000A0	[  6] __ZN10CUDTUnited6locateEi
0x0000F4E0	0x000000A0	[  6] __ZN10CUDTUnited9updateMuxEP4CUDTPK10CUDTSocket
0x0000F580	0x000003A0	[  6] __ZN10CUDTUnited9updateMuxEP4CUDTPK8sockaddrPKi
0x0000F920	0x00000090	[  6] __ZN10CUDTUnited8getErrorEv
0x0000F9B0	0x00000020	[  6] __ZN4CUDT12getlasterrorEv
0x0000F9D0	0x00000050	[  6] __ZN10CUDTUnited8setErrorEP13CUDTException
0x0000FA20	0x000000D0	[  6] __ZN10CUDTUnited11getsocknameEiP8sockaddrPi
0x0000FAF0	0x00000160	[  6] __ZN10CUDTUnited4bindEiPK8sockaddrRKi
0x0000FC50	0x00000230	[  6] __ZN10CUDTUnited7connectEiPK8sockaddrRKi
0x0000FE80	0x000001A0	[  6] __ZN10CUDTUnited4bindEii
0x00010020	0x000000A0	[  6] __ZN10CUDTUnited7cleanupEv
0x000100C0	0x00000020	[  6] __ZN4CUDT7cleanupEv
0x000100E0	0x000000B0	[  6] __ZN10CUDTSocketC1Ev
0x00010190	0x000000B0	[  6] __ZN10CUDTSocketC2Ev
0x00010240	0x000000B0	[  6] __ZN10CUDTUnited7startupEv
0x000102F0	0x00000020	[  6] __ZN4CUDT7startupEv
0x00010310	0x00000020	[  6] __ZN3UDT7startupEv
0x00010330	0x00000020	[  6] __ZN3UDT7cleanupEv
0x00010350	0x00000020	[  6] __ZN3UDT12getlasterrorEv
0x00010370	0x000000F0	[  6] __ZN10CUDTUnited6lookupEi
0x00010460	0x00000030	[  6] __ZN4CUDT12getUDTHandleEi
0x00010490	0x000000A0	[  6] __ZN10CUDTUnited9getStatusEi
0x00010530	0x00000160	[  6] __ZN10CUDTUnited11getpeernameEiP8sockaddrPi
0x00010690	0x00000270	[  6] __ZN10CUDTUnited6locateEiPK8sockaddrRKiS4_
0x00010900	0x00000260	[  6] __ZN10CUDTUnited8selectExERKSt6vectorIiSaIiEEPS2_S5_S5_x
0x00010B60	0x00000220	[  6] __ZN10CUDTUnited6listenEiRKi
0x00010D80	0x000000C0	[  6] __ZN10CUDTSocketD2Ev
0x00010E40	0x00000010	[  6] __ZN10CUDTSocketD1Ev
0x00010E50	0x000000E0	[  6] __ZN10CUDTUnitedD2Ev
0x00010F30	0x00000010	[  6] __ZN10CUDTUnitedD1Ev
0x00010F40	0x00000380	[  6] __ZN10CUDTUnited9newSocketERKiS1_
0x000112C0	0x000001F0	[  6] __ZN10CUDTUnited5closeEi
0x000114B0	0x00000520	[  6] __ZN10CUDTUnited13newConnectionEiPK8sockaddrP10CHandShake
0x000119D0	0x00000740	[  6] __ZN10CUDTUnited12removeSocketEi
0x00012110	0x00000440	[  6] __ZN10CUDTUnited18checkBrokenSocketsEv
0x00012550	0x000001F0	[  6] __ZN10CUDTUnited14garbageCollectEPv
0x00012740	0x00000B60	[  6] __ZN10CUDTUnited6selectEPSt3setIiSt4lessIiESaIiEES5_S5_PK7timeval
0x000132A0	0x000002D0	[  6] __ZN10CUDTUnited6acceptEiP8sockaddrPi
0x00013570	0x00000180	[  6] __ZN4CUDT7perfmonEiP8CPerfMonb
0x000136F0	0x00000010	[  6] __ZN3UDT7perfmonEiP8CPerfMonb
0x00013700	0x00000270	[  6] __ZN4CUDT8selectExERKSt6vectorIiSaIiEEPS2_S5_S5_x
0x00013970	0x00000010	[  6] __ZN3UDT8selectExERKSt6vectorIiSaIiEEPS2_S5_S5_x
0x00013980	0x00000260	[  6] __ZN4CUDT6selectEiPSt3setIiSt4lessIiESaIiEES5_S5_PK7timeval
0x00013BE0	0x00000010	[  6] __ZN3UDT6selectEiPSt3setIiSt4lessIiESaIiEES5_S5_PK7timeval
0x00013BF0	0x000001A0	[  6] __ZN4CUDT8recvfileEiRSt13basic_fstreamIcSt11char_traitsIcEERKxS6_RKi
0x00013D90	0x00000030	[  6] __ZN3UDT8recvfileEiRSt13basic_fstreamIcSt11char_traitsIcEExxi
0x00013DC0	0x00000210	[  6] __ZN4CUDT8sendfileEiRSt13basic_fstreamIcSt11char_traitsIcEERKxS6_RKi
0x00013FD0	0x00000030	[  6] __ZN3UDT8sendfileEiRSt13basic_fstreamIcSt11char_traitsIcEExxi
0x00014000	0x00000190	[  6] __ZN4CUDT7recvmsgEiPci
0x00014190	0x00000010	[  6] __ZN3UDT7recvmsgEiPci
0x000141A0	0x00000210	[  6] __ZN4CUDT7sendmsgEiPKciib
0x000143B0	0x00000010	[  6] __ZN3UDT7sendmsgEiPKciib
0x000143C0	0x00000190	[  6] __ZN4CUDT4recvEiPcii
0x00014550	0x00000010	[  6] __ZN3UDT4recvEiPcii
0x00014560	0x00000200	[  6] __ZN4CUDT4sendEiPKcii
0x00014760	0x00000010	[  6] __ZN3UDT4sendEiPKcii
0x00014770	0x00000190	[  6] __ZN4CUDT10setsockoptEii6UDTOptPKvi
0x00014900	0x00000010	[  6] __ZN3UDT10setsockoptEii6UDTOptPKvi
0x00014910	0x00000190	[  6] __ZN4CUDT10getsockoptEii6UDTOptPvPi
0x00014AA0	0x00000010	[  6] __ZN3UDT10getsockoptEii6UDTOptPvPi
0x00014AB0	0x00000180	[  6] __ZN4CUDT11getsocknameEiP8sockaddrPi
0x00014C30	0x00000010	[  6] __ZN3UDT11getsocknameEiP8sockaddrPi
0x00014C40	0x00000180	[  6] __ZN4CUDT11getpeernameEiP8sockaddrPi
0x00014DC0	0x00000010	[  6] __ZN3UDT11getpeernameEiP8sockaddrPi
0x00014DD0	0x00000170	[  6] __ZN4CUDT5closeEi
0x00014F40	0x00000010	[  6] __ZN3UDT5closeEi
0x00014F50	0x000001E0	[  6] __ZN4CUDT7connectEiPK8sockaddri
0x00015130	0x00000010	[  6] __ZN3UDT7connectEiPK8sockaddri
0x00015140	0x00000120	[  6] __ZN4CUDT6acceptEiP8sockaddrPi
0x00015260	0x00000010	[  6] __ZN3UDT6acceptEiP8sockaddrPi
0x00015270	0x00000180	[  6] __ZN4CUDT6listenEii
0x000153F0	0x00000010	[  6] __ZN3UDT6listenEii
0x00015400	0x00000180	[  6] __ZN4CUDT4bindEii
0x00015580	0x00000010	[  6] __ZN3UDT4bindEii
0x00015590	0x00000190	[  6] __ZN4CUDT4bindEiPK8sockaddri
0x00015720	0x00000010	[  6] __ZN3UDT4bindEiPK8sockaddri
0x00015730	0x000001A0	[  6] __ZN4CUDT6socketEiii
0x000158D0	0x0000000A	[  6] __ZN3UDT6socketEiii
0x000158E0	0x00000030	[  6] __ZN10CUDTUnited10TLSDestroyEPv
0x00015910	0x000000B0	[  6] __ZNSt8_Rb_treeIiSt4pairIKiP10CUDTSocketESt10_Select1stIS4_ESt4lessIiESaIS4_EE9_M_insertEPSt18_Rb_tree_node_baseSC_RKS4_
0x000159C0	0x000002E0	[  6] __ZNSt6vectorI12CMultiplexerSaIS0_EE13_M_insert_auxEN9__gnu_cxx17__normal_iteratorIPS0_S2_EERKS0_
0x00015CA0	0x000000D0	[  6] __ZNSt8_Rb_treeIiSt4pairIKiP10CUDTSocketESt10_Select1stIS4_ESt4lessIiESaIS4_EE16_M_insert_uniqueERKS4_
0x00015D70	0x00000180	[  6] __ZNSt6vectorIP10CUDTSocketSaIS1_EE13_M_insert_auxEN9__gnu_cxx17__normal_iteratorIPS1_S3_EERKS1_
0x00015EF0	0x00000190	[  6] __ZNSt8_Rb_treeIiSt4pairIKiP10CUDTSocketESt10_Select1stIS4_ESt4lessIiESaIS4_EE16_M_insert_uniqueESt17_Rb_tree_iteratorIS4_ERKS4_
0x00016080	0x00000140	[  6] __ZNSt8_Rb_treeIiSt4pairIKiP10CUDTSocketESt10_Select1stIS4_ESt4lessIiESaIS4_EE5eraseERS1_
0x000161C0	0x00000140	[  6] __ZNSt8_Rb_treeIiiSt9_IdentityIiESt4lessIiESaIiEE5eraseERKi
0x00016300	0x00000140	[  6] __ZNSt8_Rb_treeIiiSt9_IdentityIiESt4lessIiESaIiEE7_M_copyEPKSt13_Rb_tree_nodeIiEPS7_
0x00016440	0x000002F9	[  6] __ZNSt8_Rb_treeIiiSt9_IdentityIiESt4lessIiESaIiEE16_M_insert_uniqueESt23_Rb_tree_const_iteratorIiERKi
0x00016740	0x000000B0	[  7] __ZN3CCCC2Ev
0x000167F0	0x000000B0	[  7] __ZN3CCCC1Ev
0x000168A0	0x00000020	[  7] __ZN3CCC11setACKTimerERKi
0x000168C0	0x00000010	[  7] __ZN3CCC14setACKIntervalERKi
0x000168D0	0x00000010	[  7] __ZN3CCC6setRTOERKi
0x000168E0	0x00000010	[  7] __ZN3CCC6setMSSERKi
0x000168F0	0x00000010	[  7] __ZN3CCC12setBandwidthERKi
0x00016900	0x00000010	[  7] __ZN3CCC15setSndCurrSeqNoERKi
0x00016910	0x00000010	[  7] __ZN3CCC10setRcvRateERKi
0x00016920	0x00000010	[  7] __ZN3CCC14setMaxCWndSizeERKi
0x00016930	0x00000010	[  7] __ZN3CCC6setRTTERKi
0x00016940	0x00000060	[  7] __ZN6CUDTCC9onTimeoutEv
0x000169A0	0x000001D0	[  7] __ZN6CUDTCC6onLossEPKiRS0_
0x00016B70	0x00000290	[  7] __ZN6CUDTCC5onACKERKi
0x00016E00	0x00000040	[  7] __ZN3CCCD0Ev
0x00016E40	0x00000030	[  7] __ZN3CCCD1Ev
0x00016E70	0x00000030	[  7] __ZN3CCCD2Ev
0x00016EA0	0x00000060	[  7] __ZN3CCC12setUserParamEPKcRKi
0x00016F00	0x00000040	[  7] __ZN3CCC11getPerfInfoEv
0x00016F40	0x00000060	[  7] __ZNK3CCC13sendCustomMsgER7CPacket
0x00016FA0	0x000000C0	[  7] __ZN6CUDTCC4initEv
0x00017060	0x00000120	[  7] __ZN6CUDTCCC1Ev
0x00017180	0x00000119	[  7] __ZN6CUDTCCC2Ev
0x000172A0	0x00000010	[  7] __ZN3CCC4initEv
0x000172B0	0x00000010	[  7] __ZN3CCC5closeEv
0x000172C0	0x00000010	[  7] __ZN3CCC5onACKERKi
0x000172D0	0x00000010	[  7] __ZN3CCC6onLossEPKiRS0_
0x000172E0	0x00000010	[  7] __ZN3CCC9onTimeoutEv
0x000172F0	0x00000010	[  7] __ZN3CCC9onPktSentEPK7CPacket
0x00017300	0x00000010	[  7] __ZN3CCC13onPktReceivedEPK7CPacket
0x00017310	0x00000010	[  7] __ZN3CCC16processCustomMsgEPK7CPacket
0x00017320	0x00000040	[  7] __ZN6CUDTCCD0Ev
0x00017360	0x00000022	[  7] __ZN6CUDTCCD1Ev
0x00017390	0x00000040	[  8] __ZN10CSndBuffer8readDataEPPcRi
0x000173D0	0x00000010	[  8] __ZNK10CSndBuffer14getCurrBufSizeEv
0x000173E0	0x00000060	[  8] __ZN10CRcvBuffer7addDataEP5CUniti
0x00017440	0x00000020	[  8] __ZNK10CRcvBuffer14getRcvDataSizeEv
0x00017460	0x00000060	[  8] __ZN10CRcvBuffer7dropMsgERKi
0x000174C0	0x00000230	[  8] __ZN10CRcvBuffer7scanMsgERiS0_Rb
0x000176F0	0x00000020	[  8] __ZN10CRcvBuffer12getRcvMsgNumEv
0x00017710	0x00000190	[  8] __ZN10CRcvBuffer16readBufferToFileERSt13basic_fstreamIcSt11char_traitsIcEERKi
0x000178A0	0x00000130	[  8] __ZN10CRcvBuffer7readMsgEPcRKi
0x000179D0	0x000001A0	[  8] __ZN10CRcvBuffer10readBufferEPcRKi
0x00017B70	0x00000020	[  8] __ZN10CRcvBuffer7ackDataERKi
0x00017B90	0x00000060	[  8] __ZN10CRcvBufferD1Ev
0x00017BF0	0x00000060	[  8] __ZN10CRcvBufferD2Ev
0x00017C50	0x00000070	[  8] __ZN10CRcvBufferC1ERKiP10CUnitQueue
0x00017CC0	0x00000080	[  8] __ZN10CRcvBufferC2ERKiP10CUnitQueue
0x00017D40	0x00000050	[  8] __ZN10CRcvBufferC1EP10CUnitQueue
0x00017D90	0x00000050	[  8] __ZN10CRcvBufferC2EP10CUnitQueue
0x00017DE0	0x000001E0	[  8] __ZN10CSndBuffer8increaseEv
0x00017FC0	0x00000070	[  8] __ZN10CSndBuffer7ackDataERKi
0x00018030	0x00000120	[  8] __ZN10CSndBuffer8readDataEPPciRiS2_
0x00018150	0x00000130	[  8] __ZN10CSndBuffer17addBufferFromFileERSt13basic_fstreamIcSt11char_traitsIcEERKi
0x00018280	0x00000150	[  8] __ZN10CSndBuffer9addBufferEPKcRKiS3_RKb
0x000183D0	0x00000080	[  8] __ZN10CSndBufferD2Ev
0x00018450	0x00000010	[  8] __ZN10CSndBufferD1Ev
0x00018460	0x00000160	[  8] __ZN10CSndBufferC2ERKiS1_
0x000185C0	0x00000010	[  8] __ZN10CSndBufferC1ERKiS1_
0x000185D0	0x0000001B	[  8] __ZNK10CRcvBuffer15getAvailBufSizeEv
0x000185F0	0x00000010	[  9] __ZNK14CPktTimeWindow15getMinPktSndIntEv
0x00018600	0x00000020	[  9] __ZN14CPktTimeWindow9onPktSentERKi
0x00018620	0x00000040	[  9] __ZN14CPktTimeWindow13probe2ArrivalEv
0x00018660	0x00000020	[  9] __ZN14CPktTimeWindow13probe1ArrivalEv
0x00018680	0x00000050	[  9] __ZN14CPktTimeWindow12onPktArrivalEv
0x000186D0	0x00000170	[  9] __ZN10CACKWindow11acknowledgeERKiRi
0x00018840	0x00000070	[  9] __ZN10CACKWindow5storeERKiS1_
0x000188B0	0x000000F0	[  9] __ZNK14CPktTimeWindow12getBandwidthEv
0x000189A0	0x000000E0	[  9] __ZNK14CPktTimeWindow14getPktRcvSpeedEv
0x00018A80	0x00000040	[  9] __ZN14CPktTimeWindowD1Ev
0x00018AC0	0x00000040	[  9] __ZN14CPktTimeWindowD2Ev
0x00018B00	0x00000050	[  9] __ZN10CACKWindowD1Ev
0x00018B50	0x00000050	[  9] __ZN10CACKWindowD2Ev
0x00018BA0	0x000000D0	[  9] __ZN14CPktTimeWindowC1ERKiS1_
0x00018C70	0x000000D0	[  9] __ZN14CPktTimeWindowC2ERKiS1_
0x00018D40	0x000000E0	[  9] __ZN14CPktTimeWindowC1Ev
0x00018E20	0x000000F0	[  9] __ZN14CPktTimeWindowC2Ev
0x00018F10	0x00000080	[  9] __ZN10CACKWindowC1ERKi
0x00018F90	0x00000080	[  9] __ZN10CACKWindowC2ERKi
0x00019010	0x00000080	[  9] __ZN10CACKWindowC1Ev
0x00019090	0x00000077	[  9] __ZN10CACKWindowC2Ev
0x00019110	0x00000030	[ 10] _md5_init
0x00019140	0x00000A90	[ 10] __ZL11md5_processP11md5_state_sPKh
0x00019BD0	0x00000120	[ 10] _md5_append
0x00019CF0	0x00000132	[ 10] _md5_finish
0x00019E30	0x00000010	[ 11] __ZNK12CRcvLossList13getLossLengthEv
0x00019E40	0x00000020	[ 11] __ZNK12CRcvLossList15getFirstLostSeqEv
0x00019E60	0x000000D0	[ 11] __ZN12CRcvLossList12getLossArrayEPiRiRKiS3_
0x00019F30	0x00000400	[ 11] __ZN12CRcvLossList6removeERKi
0x0001A330	0x000000D0	[ 11] __ZN12CRcvLossList6removeERKiS1_
0x0001A400	0x00000060	[ 11] __ZN12CRcvLossListD1Ev
0x0001A460	0x00000060	[ 11] __ZN12CRcvLossListD2Ev
0x0001A4C0	0x000000D0	[ 11] __ZN12CRcvLossListC2ERKi
0x0001A590	0x00000010	[ 11] __ZN12CRcvLossListC1ERKi
0x0001A5A0	0x00000040	[ 11] __ZN12CSndLossList13getLossLengthEv
0x0001A5E0	0x00000050	[ 11] __ZN12CSndLossListD1Ev
0x0001A630	0x00000050	[ 11] __ZN12CSndLossListD2Ev
0x0001A680	0x000000E0	[ 11] __ZN12CSndLossListC2ERKi
0x0001A760	0x00000010	[ 11] __ZN12CSndLossListC1ERKi
0x0001A770	0x00000120	[ 11] __ZNK12CRcvLossList4findERKiS1_
0x0001A890	0x00000420	[ 11] __ZN12CSndLossList6removeERKi
0x0001ACB0	0x00000150	[ 11] __ZN12CSndLossList10getLostSeqEv
0x0001AE00	0x00000660	[ 11] __ZN12CSndLossList6insertERKiS1_
0x0001B460	0x000001EB	[ 11] __ZN12CRcvLossList6insertERKiS1_
0x0001B650	0x00000070	[ 12] __ZNK7CIPCompclEPK10CInfoBlockS2_
0x0001B6C0	0x00000020	[ 12] __ZNK7CTSCompclEPK10CInfoBlockS2_
0x0001B6E0	0x00000040	[ 12] __ZN6CCache7convertEPK8sockaddrRKiPj
0x0001B720	0x000001D0	[ 12] __ZN6CCache6lookupEPK8sockaddrRKiP10CInfoBlock
0x0001B8F0	0x000000F0	[ 12] __ZN6CCacheC2ERKj
0x0001B9E0	0x00000010	[ 12] __ZN6CCacheC1ERKj
0x0001B9F0	0x000000E0	[ 12] __ZN6CCacheD2Ev
0x0001BAD0	0x00000010	[ 12] __ZN6CCacheD1Ev
0x0001BAE0	0x000002D0	[ 12] __ZN6CCache6updateEPK8sockaddrRKiP10CInfoBlock
0x0001BDB0	0x00000100	[ 12] __ZNSt8_Rb_treeIP10CInfoBlockS1_St9_IdentityIS1_E7CIPCompSaIS1_EE9_M_insertEPSt18_Rb_tree_node_baseS8_RKS1_
0x0001BEB0	0x000001B0	[ 12] __ZNSt8_Rb_treeIP10CInfoBlockS1_St9_IdentityIS1_E7CIPCompSaIS1_EE16_M_insert_uniqueERKS1_
0x0001C060	0x000000B0	[ 12] __ZNSt8_Rb_treeIP10CInfoBlockS1_St9_IdentityIS1_E7CTSCompSaIS1_EE9_M_insertEPSt18_Rb_tree_node_baseS8_RKS1_
0x0001C110	0x000000E0	[ 12] __ZNSt8_Rb_treeIP10CInfoBlockS1_St9_IdentityIS1_E7CTSCompSaIS1_EE16_M_insert_uniqueERKS1_
0x0001C1F0	0x00000250	[ 12] __ZNSt8_Rb_treeIP10CInfoBlockS1_St9_IdentityIS1_E7CIPCompSaIS1_EE5eraseERKS1_
0x0001C440	0x00000163	[ 12] __ZNSt8_Rb_treeIP10CInfoBlockS1_St9_IdentityIS1_E7CTSCompSaIS1_EE5eraseERKS1_
0x0001C5B0	0x00000040	[ 13] __ZN10CUnitQueueC2Ev
0x0001C5F0	0x00000040	[ 13] __ZN10CUnitQueueC1Ev
0x0001C630	0x00000010	[ 13] __ZN10CUnitQueue6shrinkEv
0x0001C640	0x00000120	[ 13] __ZN9CSndUList7remove_EPK4CUDT
0x0001C760	0x00000020	[ 13] __ZN9CRcvUListC2Ev
0x0001C780	0x00000020	[ 13] __ZN9CRcvUListC1Ev
0x0001C7A0	0x00000010	[ 13] __ZN9CRcvUListD2Ev
0x0001C7B0	0x00000010	[ 13] __ZN9CRcvUListD1Ev
0x0001C7C0	0x00000080	[ 13] __ZN9CRcvUList6removeEPK4CUDT
0x0001C840	0x00000020	[ 13] __ZN5CHashC2Ev
0x0001C860	0x00000020	[ 13] __ZN5CHashC1Ev
0x0001C880	0x00000050	[ 13] __ZN5CHash6lookupERKi
0x0001C8D0	0x00000020	[ 13] __ZN9CRcvQueue10ifNewEntryEv
0x0001C8F0	0x00000060	[ 13] __ZN5CHash6removeERKi
0x0001C950	0x00000080	[ 13] __ZN5CHashD1Ev
0x0001C9D0	0x00000080	[ 13] __ZN5CHashD2Ev
0x0001CA50	0x000000B0	[ 13] __ZN10CUnitQueueD1Ev
0x0001CB00	0x000000B0	[ 13] __ZN10CUnitQueueD2Ev
0x0001CBB0	0x000000F0	[ 13] __ZN9CSndUList7insert_ERKxPK4CUDT
0x0001CCA0	0x00000080	[ 13] __ZN5CHash6insertERKiPK4CUDT
0x0001CD20	0x00000060	[ 13] __ZN9CRcvQueue14removeListenerEPK4CUDT
0x0001CD80	0x00000070	[ 13] __ZN9CRcvQueue11setListenerEPK4CUDT
0x0001CDF0	0x00000060	[ 13] __ZN9CSndUList15getNextProcTimeEv
0x0001CE50	0x00000100	[ 13] __ZN16CRendezvousQueue6insertERKiS1_PK8sockaddr
0x0001CF50	0x00000060	[ 13] __ZN5CHash4initERKi
0x0001CFB0	0x000000D0	[ 13] __ZN9CSndUList6insertERKxPK4CUDT
0x0001D080	0x00000240	[ 13] __ZN10CUnitQueue8increaseEv
0x0001D2C0	0x000000C0	[ 13] __ZN10CUnitQueue16getNextAvailUnitEv
0x0001D380	0x00000210	[ 13] __ZN10CUnitQueue4initERKiS1_S1_
0x0001D590	0x000000B0	[ 13] __ZN16CRendezvousQueue8retrieveEPK8sockaddrRi
0x0001D640	0x00000090	[ 13] __ZN9CRcvUList6updateEPK4CUDT
0x0001D6D0	0x00000080	[ 13] __ZN9CRcvUList6insertEPK4CUDT
0x0001D750	0x00000030	[ 13] __ZN9CSndUListD1Ev
0x0001D780	0x00000030	[ 13] __ZN9CSndUListD2Ev
0x0001D7B0	0x00000070	[ 13] __ZN9CSndUListC1Ev
0x0001D820	0x00000070	[ 13] __ZN9CSndUListC2Ev
0x0001D890	0x00000080	[ 13] __ZN9CSndQueueC1Ev
0x0001D910	0x00000080	[ 13] __ZN9CSndQueueC2Ev
0x0001D990	0x00000030	[ 13] __ZN9CSndQueue6sendtoEPK8sockaddrR7CPacket
0x0001D9C0	0x000000D0	[ 13] __ZN16CRendezvousQueue6removeERKi
0x0001DA90	0x00000150	[ 13] __ZN9CRcvQueue8storePktERKiP7CPacket
0x0001DBE0	0x00000280	[ 13] __ZN9CRcvQueue8recvfromERKiR7CPacket
0x0001DE60	0x00000090	[ 13] __ZN9CRcvQueue11setNewEntryEP4CUDT
0x0001DEF0	0x00000080	[ 13] __ZN9CRcvQueue11getNewEntryEv
0x0001DF70	0x000000B0	[ 13] __ZN9CSndQueueD2Ev
0x0001E020	0x00000010	[ 13] __ZN9CSndQueueD1Ev
0x0001E030	0x00000690	[ 13] __ZN9CRcvQueue6workerEPv
0x0001E6C0	0x00000140	[ 13] __ZN9CSndQueue4initEPK8CChannelPK6CTimer
0x0001E800	0x00000070	[ 13] __ZN16CRendezvousQueueC1Ev
0x0001E870	0x00000070	[ 13] __ZN16CRendezvousQueueC2Ev
0x0001E8E0	0x00000150	[ 13] __ZN9CRcvQueue4initERKiS1_S1_S1_PK8CChannelPK6CTimer
0x0001EA30	0x00000080	[ 13] __ZN16CRendezvousQueueD2Ev
0x0001EAB0	0x00000010	[ 13] __ZN16CRendezvousQueueD1Ev
0x0001EAC0	0x00000210	[ 13] __ZN9CSndUList3popERP8sockaddrR7CPacket
0x0001ECD0	0x000001C0	[ 13] __ZN9CSndQueue6workerEPv
0x0001EE90	0x000001A0	[ 13] __ZN9CSndUList6updateEPK4CUDTRKb
0x0001F030	0x00000150	[ 13] __ZN9CSndUList6removeEPK4CUDT
0x0001F180	0x00000210	[ 13] __ZN9CRcvQueueC2Ev
0x0001F390	0x00000010	[ 13] __ZN9CRcvQueueC1Ev
0x0001F3A0	0x00000300	[ 13] __ZN9CRcvQueueD2Ev
0x0001F6A0	0x0000000A	[ 13] __ZN9CRcvQueueD1Ev
0x0001F6B0	0x000000B0	[ 13] __ZNSt8_Rb_treeIiSt4pairIKiP7CPacketESt10_Select1stIS4_ESt4lessIiESaIS4_EE9_M_insertEPSt18_Rb_tree_node_baseSC_RKS4_
0x0001F760	0x000000D0	[ 13] __ZNSt8_Rb_treeIiSt4pairIKiP7CPacketESt10_Select1stIS4_ESt4lessIiESaIS4_EE16_M_insert_uniqueERKS4_
0x0001F830	0x000001D0	[ 13] __ZNSt6vectorIN16CRendezvousQueue3CRLESaIS1_EE13_M_insert_auxEN9__gnu_cxx17__normal_iteratorIPS1_S3_EERKS1_
0x0001FA00	0x00000190	[ 13] __ZNSt8_Rb_treeIiSt4pairIKiP7CPacketESt10_Select1stIS4_ESt4lessIiESaIS4_EE16_M_insert_uniqueESt17_Rb_tree_iteratorIS4_ERKS4_
0x0001FB90	0x00000180	[ 13] __ZNSt6vectorIP4CUDTSaIS1_EE13_M_insert_auxEN9__gnu_cxx17__normal_iteratorIPS1_S3_EERKS1_
0x0001FD10	0x000001D2	[ 13] __ZNSt8_Rb_treeIiSt4pairIKiP7CPacketESt10_Select1stIS4_ESt4lessIiESaIS4_EE8_M_eraseEPSt13_Rb_tree_nodeIS4_E
0x0001FEF0	0x00000020	[  2] ___tcf_0
0x0001FF10	0x00000006	[  0] _UDT_InitClassRefAll$stub
0x0001FF16	0x00000006	[  0] _UDT_InitFieldMonitor$stub
0x0001FF1C	0x00000006	[  0] _UDT_InitFieldRefAll$stub
0x0001FF22	0x00000006	[  0] _UDT_InitMethodRefAll$stub
0x0001FF28	0x00000006	[  0] _UDT_ReturnReceiveError$stub
0x0001FF2E	0x00000006	[  0] _UDT_ReturnSendError$stub
0x0001FF34	0x00000006	[  0] _UDT_ThrowExceptionUDT_ErrorInfo$stub
0x0001FF3A	0x00000006	[  0] _UDT_ThrowExceptionUDT_Message$stub
0x0001FF40	0x00000006	[  0] _X_ConvertInetSocketAddressToSockaddr$stub
0x0001FF46	0x00000006	[  0] _X_InitClassReference$stub
0x0001FF4C	0x00000006	[  0] _X_IsSockaddrEqualsInetSocketAddress$stub
0x0001FF52	0x00000006	[  0] _X_NewInetAddress$stub
0x0001FF58	0x00000006	[  0] _X_NewInetSocketAddress$stub
0x0001FF5E	0x00000006	[  0] __Unwind_Resume$stub
0x0001FF64	0x00000006	[  0] __ZN10CACKWindow11acknowledgeERKiRi$stub
0x0001FF6A	0x00000006	[  0] __ZN10CACKWindow5storeERKiS1_$stub
0x0001FF70	0x00000006	[  0] __ZN10CACKWindowC1ERKi$stub
0x0001FF76	0x00000006	[  0] __ZN10CACKWindowD1Ev$stub
0x0001FF7C	0x00000006	[  0] __ZN10CIPAddress4ntopEPK8sockaddrPjRKi$stub
0x0001FF82	0x00000006	[  0] __ZN10CIPAddress4ptonEP8sockaddrPKjRKi$stub
0x0001FF88	0x00000006	[  0] __ZN10CIPAddress5ipcmpEPK8sockaddrS2_RKi$stub
0x0001FF8E	0x00000006	[  0] __ZN10CRcvBuffer10readBufferEPcRKi$stub
0x0001FF94	0x00000006	[  0] __ZN10CRcvBuffer12getRcvMsgNumEv$stub
0x0001FF9A	0x00000006	[  0] __ZN10CRcvBuffer16readBufferToFileERSt13basic_fstreamIcSt11char_traitsIcEERKi$stub
0x0001FFA0	0x00000006	[  0] __ZN10CRcvBuffer7ackDataERKi$stub
0x0001FFA6	0x00000006	[  0] __ZN10CRcvBuffer7addDataEP5CUniti$stub
0x0001FFAC	0x00000006	[  0] __ZN10CRcvBuffer7dropMsgERKi$stub
0x0001FFB2	0x00000006	[  0] __ZN10CRcvBuffer7readMsgEPcRKi$stub
0x0001FFB8	0x00000006	[  0] __ZN10CRcvBuffer7scanMsgERiS0_Rb$stub
0x0001FFBE	0x00000006	[  0] __ZN10CRcvBufferC1ERKiP10CUnitQueue$stub
0x0001FFC4	0x00000006	[  0] __ZN10CRcvBufferD1Ev$stub
0x0001FFCA	0x00000006	[  0] __ZN10CSndBuffer17addBufferFromFileERSt13basic_fstreamIcSt11char_traitsIcEERKi$stub
0x0001FFD0	0x00000006	[  0] __ZN10CSndBuffer7ackDataERKi$stub
0x0001FFD6	0x00000006	[  0] __ZN10CSndBuffer8increaseEv$stub
0x0001FFDC	0x00000006	[  0] __ZN10CSndBuffer8readDataEPPcRi$stub
0x0001FFE2	0x00000006	[  0] __ZN10CSndBuffer8readDataEPPciRiS2_$stub
0x0001FFE8	0x00000006	[  0] __ZN10CSndBuffer9addBufferEPKcRKiS3_RKb$stub
0x0001FFEE	0x00000006	[  0] __ZN10CSndBufferC1ERKiS1_$stub
0x0001FFF4	0x00000006	[  0] __ZN10CSndBufferC2ERKiS1_$stub
0x0001FFFA	0x00000006	[  0] __ZN10CSndBufferD1Ev$stub
0x00020000	0x00000006	[  0] __ZN10CSndBufferD2Ev$stub
0x00020006	0x00000006	[  0] __ZN10CUDTSocketD2Ev$stub
0x0002000C	0x00000006	[  0] __ZN10CUDTUnited11getpeernameEiP8sockaddrPi$stub
0x00020012	0x00000006	[  0] __ZN10CUDTUnited11getsocknameEiP8sockaddrPi$stub
0x00020018	0x00000006	[  0] __ZN10CUDTUnited12removeSocketEi$stub
0x0002001E	0x00000006	[  0] __ZN10CUDTUnited13newConnectionEiPK8sockaddrP10CHandShake$stub
0x00020024	0x00000006	[  0] __ZN10CUDTUnited18checkBrokenSocketsEv$stub
0x0002002A	0x00000006	[  0] __ZN10CUDTUnited4bindEiPK8sockaddrRKi$stub
0x00020030	0x00000006	[  0] __ZN10CUDTUnited4bindEii$stub
0x00020036	0x00000006	[  0] __ZN10CUDTUnited5closeEi$stub
0x0002003C	0x00000006	[  0] __ZN10CUDTUnited6acceptEiP8sockaddrPi$stub
0x00020042	0x00000006	[  0] __ZN10CUDTUnited6listenEiRKi$stub
0x00020048	0x00000006	[  0] __ZN10CUDTUnited6locateEi$stub
0x0002004E	0x00000006	[  0] __ZN10CUDTUnited6locateEiPK8sockaddrRKiS4_$stub
0x00020054	0x00000006	[  0] __ZN10CUDTUnited6lookupEi$stub
0x0002005A	0x00000006	[  0] __ZN10CUDTUnited6selectEPSt3setIiSt4lessIiESaIiEES5_S5_PK7timeval$stub
0x00020060	0x00000006	[  0] __ZN10CUDTUnited7cleanupEv$stub
0x00020066	0x00000006	[  0] __ZN10CUDTUnited7connectEiPK8sockaddrRKi$stub
0x0002006C	0x00000006	[  0] __ZN10CUDTUnited7startupEv$stub
0x00020072	0x00000006	[  0] __ZN10CUDTUnited8getErrorEv$stub
0x00020078	0x00000006	[  0] __ZN10CUDTUnited8selectExERKSt6vectorIiSaIiEEPS2_S5_S5_x$stub
0x0002007E	0x00000006	[  0] __ZN10CUDTUnited9getStatusEi$stub
0x00020084	0x00000006	[  0] __ZN10CUDTUnited9newSocketERKiS1_$stub
0x0002008A	0x00000006	[  0] __ZN10CUDTUnited9updateMuxEP4CUDTPK10CUDTSocket$stub
0x00020090	0x00000006	[  0] __ZN10CUDTUnited9updateMuxEP4CUDTPK8sockaddrPKi$stub
0x00020096	0x00000006	[  0] __ZN10CUDTUnitedC1Ev$stub
0x0002009C	0x00000006	[  0] __ZN10CUDTUnitedC2Ev$stub
0x000200A2	0x00000006	[  0] __ZN10CUDTUnitedD1Ev$stub
0x000200A8	0x00000006	[  0] __ZN10CUDTUnitedD2Ev$stub
0x000200AE	0x00000006	[  0] __ZN10CUnitQueue4initERKiS1_S1_$stub
0x000200B4	0x00000006	[  0] __ZN10CUnitQueue8increaseEv$stub
0x000200BA	0x00000006	[  0] __ZN12CRcvLossList12getLossArrayEPiRiRKiS3_$stub
0x000200C0	0x00000006	[  0] __ZN12CRcvLossList6insertERKiS1_$stub
0x000200C6	0x00000006	[  0] __ZN12CRcvLossList6removeERKi$stub
0x000200CC	0x00000006	[  0] __ZN12CRcvLossList6removeERKiS1_$stub
0x000200D2	0x00000006	[  0] __ZN12CRcvLossListC1ERKi$stub
0x000200D8	0x00000006	[  0] __ZN12CRcvLossListC2ERKi$stub
0x000200DE	0x00000006	[  0] __ZN12CRcvLossListD1Ev$stub
0x000200E4	0x00000006	[  0] __ZN12CSndLossList10getLostSeqEv$stub
0x000200EA	0x00000006	[  0] __ZN12CSndLossList6insertERKiS1_$stub
0x000200F0	0x00000006	[  0] __ZN12CSndLossList6removeERKi$stub
0x000200F6	0x00000006	[  0] __ZN12CSndLossListC1ERKi$stub
0x000200FC	0x00000006	[  0] __ZN12CSndLossListC2ERKi$stub
0x00020102	0x00000006	[  0] __ZN12CSndLossListD1Ev$stub
0x00020108	0x00000006	[  0] __ZN13CUDTExceptionC1ERKS_$stub
0x0002010E	0x00000006	[  0] __ZN13CUDTExceptionC1Eiii$stub
0x00020114	0x00000006	[  0] __ZN13CUDTExceptionD1Ev$stub
0x0002011A	0x00000006	[  0] __ZN14CPktTimeWindow12onPktArrivalEv$stub
0x00020120	0x00000006	[  0] __ZN14CPktTimeWindow13probe1ArrivalEv$stub
0x00020126	0x00000006	[  0] __ZN14CPktTimeWindow13probe2ArrivalEv$stub
0x0002012C	0x00000006	[  0] __ZN14CPktTimeWindow9onPktSentERKi$stub
0x00020132	0x00000006	[  0] __ZN14CPktTimeWindowC1ERKiS1_$stub
0x00020138	0x00000006	[  0] __ZN14CPktTimeWindowC1Ev$stub
0x0002013E	0x00000006	[  0] __ZN14CPktTimeWindowD1Ev$stub
0x00020144	0x00000006	[  0] __ZN16CRendezvousQueue6insertERKiS1_PK8sockaddr$stub
0x0002014A	0x00000006	[  0] __ZN16CRendezvousQueue6removeERKi$stub
0x00020150	0x00000006	[  0] __ZN16CRendezvousQueue8retrieveEPK8sockaddrRi$stub
0x00020156	0x00000006	[  0] __ZN16CRendezvousQueueC2Ev$stub
0x0002015C	0x00000006	[  0] __ZN16CRendezvousQueueD2Ev$stub
0x00020162	0x00000006	[  0] __ZN3CCC10setRcvRateERKi$stub
0x00020168	0x00000006	[  0] __ZN3CCC12setBandwidthERKi$stub
0x0002016E	0x00000006	[  0] __ZN3CCC12setUserParamEPKcRKi$stub
0x00020174	0x00000006	[  0] __ZN3CCC14setMaxCWndSizeERKi$stub
0x0002017A	0x00000006	[  0] __ZN3CCC15setSndCurrSeqNoERKi$stub
0x00020180	0x00000006	[  0] __ZN3CCC6setMSSERKi$stub
0x00020186	0x00000006	[  0] __ZN3CCC6setRTTERKi$stub
0x0002018C	0x00000006	[  0] __ZN3UDT10getsockoptEii6UDTOptPvPi$stub
0x00020192	0x00000006	[  0] __ZN3UDT10setsockoptEii6UDTOptPKvi$stub
0x00020198	0x00000006	[  0] __ZN3UDT11getpeernameEiP8sockaddrPi$stub
0x0002019E	0x00000006	[  0] __ZN3UDT11getsocknameEiP8sockaddrPi$stub
0x000201A4	0x00000006	[  0] __ZN3UDT12getlasterrorEv$stub
0x000201AA	0x00000006	[  0] __ZN3UDT4bindEiPK8sockaddri$stub
0x000201B0	0x00000006	[  0] __ZN3UDT4recvEiPcii$stub
0x000201B6	0x00000006	[  0] __ZN3UDT4sendEiPKcii$stub
0x000201BC	0x00000006	[  0] __ZN3UDT5closeEi$stub
0x000201C2	0x00000006	[  0] __ZN3UDT6acceptEiP8sockaddrPi$stub
0x000201C8	0x00000006	[  0] __ZN3UDT6listenEii$stub
0x000201CE	0x00000006	[  0] __ZN3UDT6selectEiPSt3setIiSt4lessIiESaIiEES5_S5_PK7timeval$stub
0x000201D4	0x00000006	[  0] __ZN3UDT6socketEiii$stub
0x000201DA	0x00000006	[  0] __ZN3UDT7cleanupEv$stub
0x000201E0	0x00000006	[  0] __ZN3UDT7connectEiPK8sockaddri$stub
0x000201E6	0x00000006	[  0] __ZN3UDT7perfmonEiP8CPerfMonb$stub
0x000201EC	0x00000006	[  0] __ZN3UDT7recvmsgEiPci$stub
0x000201F2	0x00000006	[  0] __ZN3UDT7sendmsgEiPKciib$stub
0x000201F8	0x00000006	[  0] __ZN3UDT7startupEv$stub
0x000201FE	0x00000006	[  0] __ZN3UDT8selectExERKSt6vectorIiSaIiEEPS2_S5_S5_x$stub
0x00020204	0x00000006	[  0] __ZN4CMD57computeEPKcPh$stub
0x0002020A	0x00000006	[  0] __ZN4CUDT10getsockoptEii6UDTOptPvPi$stub
0x00020210	0x00000006	[  0] __ZN4CUDT10setsockoptEii6UDTOptPKvi$stub
0x00020216	0x00000006	[  0] __ZN4CUDT11checkTimersEv$stub
0x0002021C	0x00000006	[  0] __ZN4CUDT11getpeernameEiP8sockaddrPi$stub
0x00020222	0x00000006	[  0] __ZN4CUDT11getsocknameEiP8sockaddrPi$stub
0x00020228	0x00000006	[  0] __ZN4CUDT11processCtrlER7CPacket$stub
0x0002022E	0x00000006	[  0] __ZN4CUDT11processDataEP5CUnit$stub
0x00020234	0x00000006	[  0] __ZN4CUDT12destroySynchEv$stub
0x0002023A	0x00000006	[  0] __ZN4CUDT12getUDTHandleEi$stub
0x00020240	0x00000006	[  0] __ZN4CUDT12releaseSynchEv$stub
0x00020246	0x00000006	[  0] __ZN4CUDT4bindEiPK8sockaddri$stub
0x0002024C	0x00000006	[  0] __ZN4CUDT4bindEii$stub
0x00020252	0x00000006	[  0] __ZN4CUDT4openEv$stub
0x00020258	0x00000006	[  0] __ZN4CUDT4recvEPcRKi$stub
0x0002025E	0x00000006	[  0] __ZN4CUDT4recvEiPcii$stub
0x00020264	0x00000006	[  0] __ZN4CUDT4sendEPKcRKi$stub
0x0002026A	0x00000006	[  0] __ZN4CUDT4sendEiPKcii$stub
0x00020270	0x00000006	[  0] __ZN4CUDT5closeEi$stub
0x00020276	0x00000006	[  0] __ZN4CUDT5closeEv$stub
0x0002027C	0x00000006	[  0] __ZN4CUDT6acceptEiP8sockaddrPi$stub
0x00020282	0x00000006	[  0] __ZN4CUDT6getOptE6UDTOptPvRi$stub
0x00020288	0x00000006	[  0] __ZN4CUDT6listenEP8sockaddrR7CPacket$stub
0x0002028E	0x00000006	[  0] __ZN4CUDT6listenEii$stub
0x00020294	0x00000006	[  0] __ZN4CUDT6listenEv$stub
0x0002029A	0x00000006	[  0] __ZN4CUDT6sampleEP8CPerfMonb$stub
0x000202A0	0x00000006	[  0] __ZN4CUDT6selectEiPSt3setIiSt4lessIiESaIiEES5_S5_PK7timeval$stub
0x000202A6	0x00000006	[  0] __ZN4CUDT6setOptE6UDTOptPKvRKi$stub
0x000202AC	0x00000006	[  0] __ZN4CUDT6socketEiii$stub
0x000202B2	0x00000006	[  0] __ZN4CUDT7connectEPK8sockaddr$stub
0x000202B8	0x00000006	[  0] __ZN4CUDT7connectEPK8sockaddrP10CHandShake$stub
0x000202BE	0x00000006	[  0] __ZN4CUDT7connectEiPK8sockaddri$stub
0x000202C4	0x00000006	[  0] __ZN4CUDT7perfmonEiP8CPerfMonb$stub
0x000202CA	0x00000006	[  0] __ZN4CUDT7recvmsgEPcRKi$stub
0x000202D0	0x00000006	[  0] __ZN4CUDT7recvmsgEiPci$stub
0x000202D6	0x00000006	[  0] __ZN4CUDT7sendmsgEPKcRKiS3_RKb$stub
0x000202DC	0x00000006	[  0] __ZN4CUDT7sendmsgEiPKciib$stub
0x000202E2	0x00000006	[  0] __ZN4CUDT8packDataER7CPacketRy$stub
0x000202E8	0x00000006	[  0] __ZN4CUDT8recvfileERSt13basic_fstreamIcSt11char_traitsIcEERKxS6_RKi$stub
0x000202EE	0x00000006	[  0] __ZN4CUDT8recvfileEiRSt13basic_fstreamIcSt11char_traitsIcEERKxS6_RKi$stub
0x000202F4	0x00000006	[  0] __ZN4CUDT8selectExERKSt6vectorIiSaIiEEPS2_S5_S5_x$stub
0x000202FA	0x00000006	[  0] __ZN4CUDT8sendCtrlERKiPvS2_S1_$stub
0x00020300	0x00000006	[  0] __ZN4CUDT8sendfileERSt13basic_fstreamIcSt11char_traitsIcEERKxS6_RKi$stub
0x00020306	0x00000006	[  0] __ZN4CUDT8sendfileEiRSt13basic_fstreamIcSt11char_traitsIcEERKxS6_RKi$stub
0x0002030C	0x00000006	[  0] __ZN4CUDT9initSynchEv$stub
0x00020312	0x00000006	[  0] __ZN4CUDTC1ERKS_$stub
0x00020318	0x00000006	[  0] __ZN4CUDTC1Ev$stub
0x0002031E	0x00000006	[  0] __ZN4CUDTD1Ev$stub
0x00020324	0x00000006	[  0] __ZN4CUDTD2Ev$stub
0x0002032A	0x00000006	[  0] __ZN6CCache6lookupEPK8sockaddrRKiP10CInfoBlock$stub
0x00020330	0x00000006	[  0] __ZN6CCache6updateEPK8sockaddrRKiP10CInfoBlock$stub
0x00020336	0x00000006	[  0] __ZN6CCacheC1Ev$stub
0x0002033C	0x00000006	[  0] __ZN6CCacheC2ERKj$stub
0x00020342	0x00000006	[  0] __ZN6CCacheC2Ev$stub
0x00020348	0x00000006	[  0] __ZN6CCacheD1Ev$stub
0x0002034E	0x00000006	[  0] __ZN6CCacheD2Ev$stub
0x00020354	0x00000006	[  0] __ZN6CGuard7enterCSER23_opaque_pthread_mutex_t$stub
0x0002035A	0x00000006	[  0] __ZN6CGuard7leaveCSER23_opaque_pthread_mutex_t$stub
0x00020360	0x00000006	[  0] __ZN6CGuardC1ER23_opaque_pthread_mutex_t$stub
0x00020366	0x00000006	[  0] __ZN6CGuardD1Ev$stub
0x0002036C	0x00000006	[  0] __ZN6CTimer12triggerEventEv$stub
0x00020372	0x00000006	[  0] __ZN6CTimer12waitForEventEv$stub
0x00020378	0x00000006	[  0] __ZN6CTimer15getCPUFrequencyEv$stub
0x0002037E	0x00000006	[  0] __ZN6CTimer4tickEv$stub
0x00020384	0x00000006	[  0] __ZN6CTimer5rdtscERy$stub
0x0002038A	0x00000006	[  0] __ZN6CTimer7getTimeEv$stub
0x00020390	0x00000006	[  0] __ZN6CTimer7sleeptoERKy$stub
0x00020396	0x00000006	[  0] __ZN6CTimer9interruptEv$stub
0x0002039C	0x00000006	[  0] __ZN6CTimerC1Ev$stub
0x000203A2	0x00000006	[  0] __ZN6CTimerD1Ev$stub
0x000203A8	0x00000006	[  0] __ZN6CUDTCCC1Ev$stub
0x000203AE	0x00000006	[  0] __ZN7CPacket4packERKiPvS2_S1_$stub
0x000203B4	0x00000006	[  0] __ZN7CPacket9setLengthERKi$stub
0x000203BA	0x00000006	[  0] __ZN7CPacketC1Ev$stub
0x000203C0	0x00000006	[  0] __ZN7CPacketD1Ev$stub
0x000203C6	0x00000006	[  0] __ZN7JNIEnv_13CallIntMethodEP8_jobjectP10_jmethodIDz$stub
0x000203CC	0x00000006	[  0] __ZN7JNIEnv_14CallLongMethodEP8_jobjectP10_jmethodIDz$stub
0x000203D2	0x00000006	[  0] __ZN7JNIEnv_16CallObjectMethodEP8_jobjectP10_jmethodIDz$stub
0x000203D8	0x00000006	[  0] __ZN7JNIEnv_17CallBooleanMethodEP8_jobjectP10_jmethodIDz$stub
0x000203DE	0x00000006	[  0] __ZN7JNIEnv_9NewObjectEP7_jclassP10_jmethodIDz$stub
0x000203E4	0x00000006	[  0] __ZN8CChannel13setRcvBufSizeERKi$stub
0x000203EA	0x00000006	[  0] __ZN8CChannel13setSndBufSizeERKi$stub
0x000203F0	0x00000006	[  0] __ZN8CChannel13setUDPSockOptEv$stub
0x000203F6	0x00000006	[  0] __ZN8CChannel4openEPK8sockaddr$stub
0x000203FC	0x00000006	[  0] __ZN8CChannel4openEi$stub
0x00020402	0x00000006	[  0] __ZN8CChannelC1ERKi$stub
0x00020408	0x00000006	[  0] __ZN8CChannelD1Ev$stub
0x0002040E	0x00000006	[  0] __ZN9CRcvQueue11getNewEntryEv$stub
0x00020414	0x00000006	[  0] __ZN9CRcvQueue11setListenerEPK4CUDT$stub
0x0002041A	0x00000006	[  0] __ZN9CRcvQueue11setNewEntryEP4CUDT$stub
0x00020420	0x00000006	[  0] __ZN9CRcvQueue14removeListenerEPK4CUDT$stub
0x00020426	0x00000006	[  0] __ZN9CRcvQueue4initERKiS1_S1_S1_PK8CChannelPK6CTimer$stub
0x0002042C	0x00000006	[  0] __ZN9CRcvQueue8recvfromERKiR7CPacket$stub
0x00020432	0x00000006	[  0] __ZN9CRcvQueue8storePktERKiP7CPacket$stub
0x00020438	0x00000006	[  0] __ZN9CRcvQueueC1Ev$stub
0x0002043E	0x00000006	[  0] __ZN9CRcvQueueC2Ev$stub
0x00020444	0x00000006	[  0] __ZN9CRcvQueueD1Ev$stub
0x0002044A	0x00000006	[  0] __ZN9CRcvQueueD2Ev$stub
0x00020450	0x00000006	[  0] __ZN9CSndQueue4initEPK8CChannelPK6CTimer$stub
0x00020456	0x00000006	[  0] __ZN9CSndQueue6sendtoEPK8sockaddrR7CPacket$stub
0x0002045C	0x00000006	[  0] __ZN9CSndQueueC1Ev$stub
0x00020462	0x00000006	[  0] __ZN9CSndQueueD1Ev$stub
0x00020468	0x00000006	[  0] __ZN9CSndQueueD2Ev$stub
0x0002046E	0x00000006	[  0] __ZN9CSndUList3popERP8sockaddrR7CPacket$stub
0x00020474	0x00000006	[  0] __ZN9CSndUList6removeEPK4CUDT$stub
0x0002047A	0x00000006	[  0] __ZN9CSndUList6updateEPK4CUDTRKb$stub
0x00020480	0x00000006	[  0] __ZN9CSndUList7insert_ERKxPK4CUDT$stub
0x00020486	0x00000006	[  0] __ZNK10CRcvBuffer14getRcvDataSizeEv$stub
0x0002048C	0x00000006	[  0] __ZNK10CRcvBuffer15getAvailBufSizeEv$stub
0x00020492	0x00000006	[  0] __ZNK10CSndBuffer14getCurrBufSizeEv$stub
0x00020498	0x00000006	[  0] __ZNK12CRcvLossList13getLossLengthEv$stub
0x0002049E	0x00000006	[  0] __ZNK12CRcvLossList15getFirstLostSeqEv$stub
0x000204A4	0x00000006	[  0] __ZNK13CUDTException12getErrorCodeEv$stub
0x000204AA	0x00000006	[  0] __ZNK14CPktTimeWindow12getBandwidthEv$stub
0x000204B0	0x00000006	[  0] __ZNK14CPktTimeWindow14getPktRcvSpeedEv$stub
0x000204B6	0x00000006	[  0] __ZNK14CPktTimeWindow15getMinPktSndIntEv$stub
0x000204BC	0x00000006	[  0] __ZNK7CPacket11getAckSeqNoEv$stub
0x000204C2	0x00000006	[  0] __ZNK7CPacket14getMsgBoundaryEv$stub
0x000204C8	0x00000006	[  0] __ZNK7CPacket15getMsgOrderFlagEv$stub
0x000204CE	0x00000006	[  0] __ZNK7CPacket5cloneEv$stub
0x000204D4	0x00000006	[  0] __ZNK7CPacket7getFlagEv$stub
0x000204DA	0x00000006	[  0] __ZNK7CPacket7getTypeEv$stub
0x000204E0	0x00000006	[  0] __ZNK7CPacket9getLengthEv$stub
0x000204E6	0x00000006	[  0] __ZNK7CPacket9getMsgSeqEv$stub
0x000204EC	0x00000006	[  0] __ZNK8CChannel11getSockAddrEP8sockaddr$stub
0x000204F2	0x00000006	[  0] __ZNK8CChannel5closeEv$stub
0x000204F8	0x00000006	[  0] __ZNK8CChannel6sendtoEPK8sockaddrR7CPacket$stub
0x000204FE	0x00000006	[  0] __ZNK8CChannel8recvfromEP8sockaddrR7CPacket$stub
0x00020504	0x00000006	[  0] __ZNSi4readEPcl$stub
0x0002050A	0x00000006	[  0] __ZNSi5seekgESt4fposI11__mbstate_tE$stub
0x00020510	0x00000006	[  0] __ZNSo5seekpESt4fposI11__mbstate_tE$stub
0x00020516	0x00000006	[  0] __ZNSo5writeEPKcl$stub
0x0002051C	0x00000006	[  0] __ZNSs4_Rep10_M_destroyERKSaIcE$stub
0x00020522	0x00000006	[  0] __ZNSs6appendEPKcm$stub
0x00020528	0x00000006	[  0] __ZNSs6assignEPKcm$stub
0x0002052E	0x00000006	[  0] __ZNSs6assignERKSs$stub
0x00020534	0x00000006	[  0] __ZNSt6vectorI12CMultiplexerSaIS0_EE13_M_insert_auxEN9__gnu_cxx17__normal_iteratorIPS0_S2_EERKS0_$stub
0x0002053A	0x00000006	[  0] __ZNSt6vectorIN16CRendezvousQueue3CRLESaIS1_EE13_M_insert_auxEN9__gnu_cxx17__normal_iteratorIPS1_S3_EERKS1_$stub
0x00020540	0x00000006	[  0] __ZNSt6vectorIP10CUDTSocketSaIS1_EE13_M_insert_auxEN9__gnu_cxx17__normal_iteratorIPS1_S3_EERKS1_$stub
0x00020546	0x00000006	[  0] __ZNSt6vectorIP4CUDTSaIS1_EE13_M_insert_auxEN9__gnu_cxx17__normal_iteratorIPS1_S3_EERKS1_$stub
0x0002054C	0x00000006	[  0] __ZNSt6vectorIiSaIiEE13_M_insert_auxEN9__gnu_cxx17__normal_iteratorIPiS1_EERKi$stub
0x00020552	0x00000006	[  0] __ZNSt8_Rb_treeIP10CInfoBlockS1_St9_IdentityIS1_E7CIPCompSaIS1_EE16_M_insert_uniqueERKS1_$stub
0x00020558	0x00000006	[  0] __ZNSt8_Rb_treeIP10CInfoBlockS1_St9_IdentityIS1_E7CIPCompSaIS1_EE5eraseERKS1_$stub
0x0002055E	0x00000006	[  0] __ZNSt8_Rb_treeIP10CInfoBlockS1_St9_IdentityIS1_E7CIPCompSaIS1_EE8_M_eraseEPSt13_Rb_tree_nodeIS1_E$stub
0x00020564	0x00000006	[  0] __ZNSt8_Rb_treeIP10CInfoBlockS1_St9_IdentityIS1_E7CIPCompSaIS1_EE9_M_insertEPSt18_Rb_tree_node_baseS8_RKS1_$stub
0x0002056A	0x00000006	[  0] __ZNSt8_Rb_treeIP10CInfoBlockS1_St9_IdentityIS1_E7CTSCompSaIS1_EE16_M_insert_uniqueERKS1_$stub
0x00020570	0x00000006	[  0] __ZNSt8_Rb_treeIP10CInfoBlockS1_St9_IdentityIS1_E7CTSCompSaIS1_EE5eraseERKS1_$stub
0x00020576	0x00000006	[  0] __ZNSt8_Rb_treeIP10CInfoBlockS1_St9_IdentityIS1_E7CTSCompSaIS1_EE8_M_eraseEPSt13_Rb_tree_nodeIS1_E$stub
0x0002057C	0x00000006	[  0] __ZNSt8_Rb_treeIP10CInfoBlockS1_St9_IdentityIS1_E7CTSCompSaIS1_EE9_M_insertEPSt18_Rb_tree_node_baseS8_RKS1_$stub
0x00020582	0x00000006	[  0] __ZNSt8_Rb_treeIiSt4pairIKiP10CUDTSocketESt10_Select1stIS4_ESt4lessIiESaIS4_EE16_M_insert_uniqueERKS4_$stub
0x00020588	0x00000006	[  0] __ZNSt8_Rb_treeIiSt4pairIKiP10CUDTSocketESt10_Select1stIS4_ESt4lessIiESaIS4_EE16_M_insert_uniqueESt17_Rb_tree_iteratorIS4_ERKS4_$stub
0x0002058E	0x00000006	[  0] __ZNSt8_Rb_treeIiSt4pairIKiP10CUDTSocketESt10_Select1stIS4_ESt4lessIiESaIS4_EE5eraseERS1_$stub
0x00020594	0x00000006	[  0] __ZNSt8_Rb_treeIiSt4pairIKiP10CUDTSocketESt10_Select1stIS4_ESt4lessIiESaIS4_EE8_M_eraseEPSt13_Rb_tree_nodeIS4_E$stub
0x0002059A	0x00000006	[  0] __ZNSt8_Rb_treeIiSt4pairIKiP10CUDTSocketESt10_Select1stIS4_ESt4lessIiESaIS4_EE9_M_insertEPSt18_Rb_tree_node_baseSC_RKS4_$stub
0x000205A0	0x00000006	[  0] __ZNSt8_Rb_treeIiSt4pairIKiP7CPacketESt10_Select1stIS4_ESt4lessIiESaIS4_EE16_M_insert_uniqueERKS4_$stub
0x000205A6	0x00000006	[  0] __ZNSt8_Rb_treeIiSt4pairIKiP7CPacketESt10_Select1stIS4_ESt4lessIiESaIS4_EE16_M_insert_uniqueESt17_Rb_tree_iteratorIS4_ERKS4_$stub
0x000205AC	0x00000006	[  0] __ZNSt8_Rb_treeIiSt4pairIKiP7CPacketESt10_Select1stIS4_ESt4lessIiESaIS4_EE8_M_eraseEPSt13_Rb_tree_nodeIS4_E$stub
0x000205B2	0x00000006	[  0] __ZNSt8_Rb_treeIiSt4pairIKiP7CPacketESt10_Select1stIS4_ESt4lessIiESaIS4_EE9_M_insertEPSt18_Rb_tree_node_baseSC_RKS4_$stub
0x000205B8	0x00000006	[  0] __ZNSt8_Rb_treeIiiSt9_IdentityIiESt4lessIiESaIiEE16_M_insert_uniqueERKi$stub
0x000205BE	0x00000006	[  0] __ZNSt8_Rb_treeIiiSt9_IdentityIiESt4lessIiESaIiEE16_M_insert_uniqueESt23_Rb_tree_const_iteratorIiERKi$stub
0x000205C4	0x00000006	[  0] __ZNSt8_Rb_treeIiiSt9_IdentityIiESt4lessIiESaIiEE5eraseERKi$stub
0x000205CA	0x00000006	[  0] __ZNSt8_Rb_treeIiiSt9_IdentityIiESt4lessIiESaIiEE7_M_copyEPKSt13_Rb_tree_nodeIiEPS7_$stub
0x000205D0	0x00000006	[  0] __ZNSt8_Rb_treeIiiSt9_IdentityIiESt4lessIiESaIiEE8_M_eraseEPSt13_Rb_tree_nodeIiE$stub
0x000205D6	0x00000006	[  0] __ZNSt8_Rb_treeIiiSt9_IdentityIiESt4lessIiESaIiEE9_M_insertEPSt18_Rb_tree_node_baseS7_RKi$stub
0x000205DC	0x00000006	[  0] __ZSt17__throw_bad_allocv$stub
0x000205E2	0x00000006	[  0] __ZSt18_Rb_tree_decrementPKSt18_Rb_tree_node_base$stub
0x000205E8	0x00000006	[  0] __ZSt18_Rb_tree_decrementPSt18_Rb_tree_node_base$stub
0x000205EE	0x00000006	[  0] __ZSt18_Rb_tree_incrementPKSt18_Rb_tree_node_base$stub
0x000205F4	0x00000006	[  0] __ZSt18_Rb_tree_incrementPSt18_Rb_tree_node_base$stub
0x000205FA	0x00000006	[  0] __ZSt20__throw_length_errorPKc$stub
0x00020600	0x00000006	[  0] __ZSt28_Rb_tree_rebalance_for_erasePSt18_Rb_tree_node_baseRS_$stub
0x00020606	0x00000006	[  0] __ZSt29_Rb_tree_insert_and_rebalancebPSt18_Rb_tree_node_baseS0_RS_$stub
0x0002060C	0x00000006	[  0] __ZSt9terminatev$stub
0x00020612	0x00000006	[  0] __ZdaPv$stub
0x00020618	0x00000006	[  0] __ZdlPv$stub
0x0002061E	0x00000006	[  0] __Znam$stub
0x00020624	0x00000006	[  0] __Znwm$stub
0x0002062A	0x00000006	[  0] ___cxa_allocate_exception$stub
0x00020630	0x00000006	[  0] ___cxa_atexit$stub
0x00020636	0x00000006	[  0] ___cxa_begin_catch$stub
0x0002063C	0x00000006	[  0] ___cxa_end_catch$stub
0x00020642	0x00000006	[  0] ___cxa_free_exception$stub
0x00020648	0x00000006	[  0] ___cxa_get_exception_ptr$stub
0x0002064E	0x00000006	[  0] ___cxa_rethrow$stub
0x00020654	0x00000006	[  0] ___cxa_throw$stub
0x0002065A	0x00000006	[  0] ___error$stub
0x00020660	0x00000006	[  0] ___stack_chk_fail$stub
0x00020666	0x00000006	[  0] _bind$stub
0x0002066C	0x00000006	[  0] _ceil$stub
0x00020672	0x00000006	[  0] _close$stub
0x00020678	0x00000006	[  0] _free$stub
0x0002067E	0x00000006	[  0] _freeaddrinfo$stub
0x00020684	0x00000006	[  0] _getaddrinfo$stub
0x0002068A	0x00000006	[  0] _getnameinfo$stub
0x00020690	0x00000006	[  0] _getpeername$stub
0x00020696	0x00000006	[  0] _getsockname$stub
0x0002069C	0x00000006	[  0] _getsockopt$stub
0x000206A2	0x00000006	[  0] _gettimeofday$stub
0x000206A8	0x00000006	[  0] _log10$stub
0x000206AE	0x00000006	[  0] _malloc$stub
0x000206B4	0x00000006	[  0] _md5_append$stub
0x000206BA	0x00000006	[  0] _md5_finish$stub
0x000206C0	0x00000006	[  0] _md5_init$stub
0x000206C6	0x00000006	[  0] _memcpy$stub
0x000206CC	0x00000006	[  0] _memmove$stub
0x000206D2	0x00000006	[  0] _memset$stub
0x000206D8	0x00000006	[  0] _nanosleep$stub
0x000206DE	0x00000006	[  0] _pow$stub
0x000206E4	0x00000006	[  0] _printf$stub
0x000206EA	0x00000006	[  0] _pthread_cond_broadcast$stub
0x000206F0	0x00000006	[  0] _pthread_cond_destroy$stub
0x000206F6	0x00000006	[  0] _pthread_cond_init$stub
0x000206FC	0x00000006	[  0] _pthread_cond_signal$stub
0x00020702	0x00000006	[  0] _pthread_cond_timedwait$stub
0x00020708	0x00000006	[  0] _pthread_cond_wait$stub
0x0002070E	0x00000006	[  0] _pthread_create$stub
0x00020714	0x00000006	[  0] _pthread_getspecific$stub
0x0002071A	0x00000006	[  0] _pthread_join$stub
0x00020720	0x00000006	[  0] _pthread_key_create$stub
0x00020726	0x00000006	[  0] _pthread_key_delete$stub
0x0002072C	0x00000006	[  0] _pthread_mutex_destroy$stub
0x00020732	0x00000006	[  0] _pthread_mutex_init$stub
0x00020738	0x00000006	[  0] _pthread_mutex_lock$stub
0x0002073E	0x00000006	[  0] _pthread_mutex_trylock$stub
0x00020744	0x00000006	[  0] _pthread_mutex_unlock$stub
0x0002074A	0x00000006	[  0] _pthread_setspecific$stub
0x00020750	0x00000006	[  0] _rand$stub
0x00020756	0x00000006	[  0] _recvmsg$stub
0x0002075C	0x00000006	[  0] _sendmsg$stub
0x00020762	0x00000006	[  0] _setsockopt$stub
0x00020768	0x00000006	[  0] _socket$stub
0x0002076E	0x00000006	[  0] _sprintf$stub
0x00020774	0x00000006	[  0] _srand$stub
0x0002077A	0x00000006	[  0] _strerror$stub
0x00020780	0x00000006	[  0] _strlen$stub
0x00020786	0x00000006	[  0] _usleep$stub
0x0002078C	0x00000010	[  0]  stub helpers
0x0002079C	0x0000000A	[  0] _UDT_InitClassRefAll$stubHelper
0x000207A6	0x0000000A	[  0] _UDT_InitFieldMonitor$stubHelper
0x000207B0	0x0000000A	[  0] _UDT_InitFieldRefAll$stubHelper
0x000207BA	0x0000000A	[  0] _UDT_InitMethodRefAll$stubHelper
0x000207C4	0x0000000A	[  0] _UDT_ReturnReceiveError$stubHelper
0x000207CE	0x0000000A	[  0] _UDT_ReturnSendError$stubHelper
0x000207D8	0x0000000A	[  0] _UDT_ThrowExceptionUDT_ErrorInfo$stubHelper
0x000207E2	0x0000000A	[  0] _UDT_ThrowExceptionUDT_Message$stubHelper
0x000207EC	0x0000000A	[  0] _X_ConvertInetSocketAddressToSockaddr$stubHelper
0x000207F6	0x0000000A	[  0] _X_InitClassReference$stubHelper
0x00020800	0x0000000A	[  0] _X_IsSockaddrEqualsInetSocketAddress$stubHelper
0x0002080A	0x0000000A	[  0] _X_NewInetAddress$stubHelper
0x00020814	0x0000000A	[  0] _X_NewInetSocketAddress$stubHelper
0x0002081E	0x0000000A	[  0] __Unwind_Resume$stubHelper
0x00020828	0x0000000A	[  0] __ZN10CACKWindow11acknowledgeERKiRi$stubHelper
0x00020832	0x0000000A	[  0] __ZN10CACKWindow5storeERKiS1_$stubHelper
0x0002083C	0x0000000A	[  0] __ZN10CACKWindowC1ERKi$stubHelper
0x00020846	0x0000000A	[  0] __ZN10CACKWindowD1Ev$stubHelper
0x00020850	0x0000000A	[  0] __ZN10CIPAddress4ntopEPK8sockaddrPjRKi$stubHelper
0x0002085A	0x0000000A	[  0] __ZN10CIPAddress4ptonEP8sockaddrPKjRKi$stubHelper
0x00020864	0x0000000A	[  0] __ZN10CIPAddress5ipcmpEPK8sockaddrS2_RKi$stubHelper
0x0002086E	0x0000000A	[  0] __ZN10CRcvBuffer10readBufferEPcRKi$stubHelper
0x00020878	0x0000000A	[  0] __ZN10CRcvBuffer12getRcvMsgNumEv$stubHelper
0x00020882	0x0000000A	[  0] __ZN10CRcvBuffer16readBufferToFileERSt13basic_fstreamIcSt11char_traitsIcEERKi$stubHelper
0x0002088C	0x0000000A	[  0] __ZN10CRcvBuffer7ackDataERKi$stubHelper
0x00020896	0x0000000A	[  0] __ZN10CRcvBuffer7addDataEP5CUniti$stubHelper
0x000208A0	0x0000000A	[  0] __ZN10CRcvBuffer7dropMsgERKi$stubHelper
0x000208AA	0x0000000A	[  0] __ZN10CRcvBuffer7readMsgEPcRKi$stubHelper
0x000208B4	0x0000000A	[  0] __ZN10CRcvBuffer7scanMsgERiS0_Rb$stubHelper
0x000208BE	0x0000000A	[  0] __ZN10CRcvBufferC1ERKiP10CUnitQueue$stubHelper
0x000208C8	0x0000000A	[  0] __ZN10CRcvBufferD1Ev$stubHelper
0x000208D2	0x0000000A	[  0] __ZN10CSndBuffer17addBufferFromFileERSt13basic_fstreamIcSt11char_traitsIcEERKi$stubHelper
0x000208DC	0x0000000A	[  0] __ZN10CSndBuffer7ackDataERKi$stubHelper
0x000208E6	0x0000000A	[  0] __ZN10CSndBuffer8increaseEv$stubHelper
0x000208F0	0x0000000A	[  0] __ZN10CSndBuffer8readDataEPPcRi$stubHelper
0x000208FA	0x0000000A	[  0] __ZN10CSndBuffer8readDataEPPciRiS2_$stubHelper
0x00020904	0x0000000A	[  0] __ZN10CSndBuffer9addBufferEPKcRKiS3_RKb$stubHelper
0x0002090E	0x0000000A	[  0] __ZN10CSndBufferC1ERKiS1_$stubHelper
0x00020918	0x0000000A	[  0] __ZN10CSndBufferC2ERKiS1_$stubHelper
0x00020922	0x0000000A	[  0] __ZN10CSndBufferD1Ev$stubHelper
0x0002092C	0x0000000A	[  0] __ZN10CSndBufferD2Ev$stubHelper
0x00020936	0x0000000A	[  0] __ZN10CUDTSocketD2Ev$stubHelper
0x00020940	0x0000000A	[  0] __ZN10CUDTUnited11getpeernameEiP8sockaddrPi$stubHelper
0x0002094A	0x0000000A	[  0] __ZN10CUDTUnited11getsocknameEiP8sockaddrPi$stubHelper
0x00020954	0x0000000A	[  0] __ZN10CUDTUnited12removeSocketEi$stubHelper
0x0002095E	0x0000000A	[  0] __ZN10CUDTUnited13newConnectionEiPK8sockaddrP10CHandShake$stubHelper
0x00020968	0x0000000A	[  0] __ZN10CUDTUnited18checkBrokenSocketsEv$stubHelper
0x00020972	0x0000000A	[  0] __ZN10CUDTUnited4bindEiPK8sockaddrRKi$stubHelper
0x0002097C	0x0000000A	[  0] __ZN10CUDTUnited4bindEii$stubHelper
0x00020986	0x0000000A	[  0] __ZN10CUDTUnited5closeEi$stubHelper
0x00020990	0x0000000A	[  0] __ZN10CUDTUnited6acceptEiP8sockaddrPi$stubHelper
0x0002099A	0x0000000A	[  0] __ZN10CUDTUnited6listenEiRKi$stubHelper
0x000209A4	0x0000000A	[  0] __ZN10CUDTUnited6locateEi$stubHelper
0x000209AE	0x0000000A	[  0] __ZN10CUDTUnited6locateEiPK8sockaddrRKiS4_$stubHelper
0x000209B8	0x0000000A	[  0] __ZN10CUDTUnited6lookupEi$stubHelper
0x000209C2	0x0000000A	[  0] __ZN10CUDTUnited6selectEPSt3setIiSt4lessIiESaIiEES5_S5_PK7timeval$stubHelper
0x000209CC	0x0000000A	[  0] __ZN10CUDTUnited7cleanupEv$stubHelper
0x000209D6	0x0000000A	[  0] __ZN10CUDTUnited7connectEiPK8sockaddrRKi$stubHelper
0x000209E0	0x0000000A	[  0] __ZN10CUDTUnited7startupEv$stubHelper
0x000209EA	0x0000000A	[  0] __ZN10CUDTUnited8getErrorEv$stubHelper
0x000209F4	0x0000000A	[  0] __ZN10CUDTUnited8selectExERKSt6vectorIiSaIiEEPS2_S5_S5_x$stubHelper
0x000209FE	0x0000000A	[  0] __ZN10CUDTUnited9getStatusEi$stubHelper
0x00020A08	0x0000000A	[  0] __ZN10CUDTUnited9newSocketERKiS1_$stubHelper
0x00020A12	0x0000000A	[  0] __ZN10CUDTUnited9updateMuxEP4CUDTPK10CUDTSocket$stubHelper
0x00020A1C	0x0000000A	[  0] __ZN10CUDTUnited9updateMuxEP4CUDTPK8sockaddrPKi$stubHelper
0x00020A26	0x0000000A	[  0] __ZN10CUDTUnitedC1Ev$stubHelper
0x00020A30	0x0000000A	[  0] __ZN10CUDTUnitedC2Ev$stubHelper
0x00020A3A	0x0000000A	[  0] __ZN10CUDTUnitedD1Ev$stubHelper
0x00020A44	0x0000000A	[  0] __ZN10CUDTUnitedD2Ev$stubHelper
0x00020A4E	0x0000000A	[  0] __ZN10CUnitQueue4initERKiS1_S1_$stubHelper
0x00020A58	0x0000000A	[  0] __ZN10CUnitQueue8increaseEv$stubHelper
0x00020A62	0x0000000A	[  0] __ZN12CRcvLossList12getLossArrayEPiRiRKiS3_$stubHelper
0x00020A6C	0x0000000A	[  0] __ZN12CRcvLossList6insertERKiS1_$stubHelper
0x00020A76	0x0000000A	[  0] __ZN12CRcvLossList6removeERKi$stubHelper
0x00020A80	0x0000000A	[  0] __ZN12CRcvLossList6removeERKiS1_$stubHelper
0x00020A8A	0x0000000A	[  0] __ZN12CRcvLossListC1ERKi$stubHelper
0x00020A94	0x0000000A	[  0] __ZN12CRcvLossListC2ERKi$stubHelper
0x00020A9E	0x0000000A	[  0] __ZN12CRcvLossListD1Ev$stubHelper
0x00020AA8	0x0000000A	[  0] __ZN12CSndLossList10getLostSeqEv$stubHelper
0x00020AB2	0x0000000A	[  0] __ZN12CSndLossList6insertERKiS1_$stubHelper
0x00020ABC	0x0000000A	[  0] __ZN12CSndLossList6removeERKi$stubHelper
0x00020AC6	0x0000000A	[  0] __ZN12CSndLossListC1ERKi$stubHelper
0x00020AD0	0x0000000A	[  0] __ZN12CSndLossListC2ERKi$stubHelper
0x00020ADA	0x0000000A	[  0] __ZN12CSndLossListD1Ev$stubHelper
0x00020AE4	0x0000000A	[  0] __ZN13CUDTExceptionC1ERKS_$stubHelper
0x00020AEE	0x0000000A	[  0] __ZN13CUDTExceptionC1Eiii$stubHelper
0x00020AF8	0x0000000A	[  0] __ZN13CUDTExceptionD1Ev$stubHelper
0x00020B02	0x0000000A	[  0] __ZN14CPktTimeWindow12onPktArrivalEv$stubHelper
0x00020B0C	0x0000000A	[  0] __ZN14CPktTimeWindow13probe1ArrivalEv$stubHelper
0x00020B16	0x0000000A	[  0] __ZN14CPktTimeWindow13probe2ArrivalEv$stubHelper
0x00020B20	0x0000000A	[  0] __ZN14CPktTimeWindow9onPktSentERKi$stubHelper
0x00020B2A	0x0000000A	[  0] __ZN14CPktTimeWindowC1ERKiS1_$stubHelper
0x00020B34	0x0000000A	[  0] __ZN14CPktTimeWindowC1Ev$stubHelper
0x00020B3E	0x0000000A	[  0] __ZN14CPktTimeWindowD1Ev$stubHelper
0x00020B48	0x0000000A	[  0] __ZN16CRendezvousQueue6insertERKiS1_PK8sockaddr$stubHelper
0x00020B52	0x0000000A	[  0] __ZN16CRendezvousQueue6removeERKi$stubHelper
0x00020B5C	0x0000000A	[  0] __ZN16CRendezvousQueue8retrieveEPK8sockaddrRi$stubHelper
0x00020B66	0x0000000A	[  0] __ZN16CRendezvousQueueC2Ev$stubHelper
0x00020B70	0x0000000A	[  0] __ZN16CRendezvousQueueD2Ev$stubHelper
0x00020B7A	0x0000000A	[  0] __ZN3CCC10setRcvRateERKi$stubHelper
0x00020B84	0x0000000A	[  0] __ZN3CCC12setBandwidthERKi$stubHelper
0x00020B8E	0x0000000A	[  0] __ZN3CCC12setUserParamEPKcRKi$stubHelper
0x00020B98	0x0000000A	[  0] __ZN3CCC14setMaxCWndSizeERKi$stubHelper
0x00020BA2	0x0000000A	[  0] __ZN3CCC15setSndCurrSeqNoERKi$stubHelper
0x00020BAC	0x0000000A	[  0] __ZN3CCC6setMSSERKi$stubHelper
0x00020BB6	0x0000000A	[  0] __ZN3CCC6setRTTERKi$stubHelper
0x00020BC0	0x0000000A	[  0] __ZN3UDT10getsockoptEii6UDTOptPvPi$stubHelper
0x00020BCA	0x0000000A	[  0] __ZN3UDT10setsockoptEii6UDTOptPKvi$stubHelper
0x00020BD4	0x0000000A	[  0] __ZN3UDT11getpeernameEiP8sockaddrPi$stubHelper
0x00020BDE	0x0000000A	[  0] __ZN3UDT11getsocknameEiP8sockaddrPi$stubHelper
0x00020BE8	0x0000000A	[  0] __ZN3UDT12getlasterrorEv$stubHelper
0x00020BF2	0x0000000A	[  0] __ZN3UDT4bindEiPK8sockaddri$stubHelper
0x00020BFC	0x0000000A	[  0] __ZN3UDT4recvEiPcii$stubHelper
0x00020C06	0x0000000A	[  0] __ZN3UDT4sendEiPKcii$stubHelper
0x00020C10	0x0000000A	[  0] __ZN3UDT5closeEi$stubHelper
0x00020C1A	0x0000000A	[  0] __ZN3UDT6acceptEiP8sockaddrPi$stubHelper
0x00020C24	0x0000000A	[  0] __ZN3UDT6listenEii$stubHelper
0x00020C2E	0x0000000A	[  0] __ZN3UDT6selectEiPSt3setIiSt4lessIiESaIiEES5_S5_PK7timeval$stubHelper
0x00020C38	0x0000000A	[  0] __ZN3UDT6socketEiii$stubHelper
0x00020C42	0x0000000A	[  0] __ZN3UDT7cleanupEv$stubHelper
0x00020C4C	0x0000000A	[  0] __ZN3UDT7connectEiPK8sockaddri$stubHelper
0x00020C56	0x0000000A	[  0] __ZN3UDT7perfmonEiP8CPerfMonb$stubHelper
0x00020C60	0x0000000A	[  0] __ZN3UDT7recvmsgEiPci$stubHelper
0x00020C6A	0x0000000A	[  0] __ZN3UDT7sendmsgEiPKciib$stubHelper
0x00020C74	0x0000000A	[  0] __ZN3UDT7startupEv$stubHelper
0x00020C7E	0x0000000A	[  0] __ZN3UDT8selectExERKSt6vectorIiSaIiEEPS2_S5_S5_x$stubHelper
0x00020C88	0x0000000A	[  0] __ZN4CMD57computeEPKcPh$stubHelper
0x00020C92	0x0000000A	[  0] __ZN4CUDT10getsockoptEii6UDTOptPvPi$stubHelper
0x00020C9C	0x0000000A	[  0] __ZN4CUDT10setsockoptEii6UDTOptPKvi$stubHelper
0x00020CA6	0x0000000A	[  0] __ZN4CUDT11checkTimersEv$stubHelper
0x00020CB0	0x0000000A	[  0] __ZN4CUDT11getpeernameEiP8sockaddrPi$stubHelper
0x00020CBA	0x0000000A	[  0] __ZN4CUDT11getsocknameEiP8sockaddrPi$stubHelper
0x00020CC4	0x0000000A	[  0] __ZN4CUDT11processCtrlER7CPacket$stubHelper
0x00020CCE	0x0000000A	[  0] __ZN4CUDT11processDataEP5CUnit$stubHelper
0x00020CD8	0x0000000A	[  0] __ZN4CUDT12destroySynchEv$stubHelper
0x00020CE2	0x0000000A	[  0] __ZN4CUDT12getUDTHandleEi$stubHelper
0x00020CEC	0x0000000A	[  0] __ZN4CUDT12releaseSynchEv$stubHelper
0x00020CF6	0x0000000A	[  0] __ZN4CUDT4bindEiPK8sockaddri$stubHelper
0x00020D00	0x0000000A	[  0] __ZN4CUDT4bindEii$stubHelper
0x00020D0A	0x0000000A	[  0] __ZN4CUDT4openEv$stubHelper
0x00020D14	0x0000000A	[  0] __ZN4CUDT4recvEPcRKi$stubHelper
0x00020D1E	0x0000000A	[  0] __ZN4CUDT4recvEiPcii$stubHelper
0x00020D28	0x0000000A	[  0] __ZN4CUDT4sendEPKcRKi$stubHelper
0x00020D32	0x0000000A	[  0] __ZN4CUDT4sendEiPKcii$stubHelper
0x00020D3C	0x0000000A	[  0] __ZN4CUDT5closeEi$stubHelper
0x00020D46	0x0000000A	[  0] __ZN4CUDT5closeEv$stubHelper
0x00020D50	0x0000000A	[  0] __ZN4CUDT6acceptEiP8sockaddrPi$stubHelper
0x00020D5A	0x0000000A	[  0] __ZN4CUDT6getOptE6UDTOptPvRi$stubHelper
0x00020D64	0x0000000A	[  0] __ZN4CUDT6listenEP8sockaddrR7CPacket$stubHelper
0x00020D6E	0x0000000A	[  0] __ZN4CUDT6listenEii$stubHelper
0x00020D78	0x0000000A	[  0] __ZN4CUDT6listenEv$stubHelper
0x00020D82	0x0000000A	[  0] __ZN4CUDT6sampleEP8CPerfMonb$stubHelper
0x00020D8C	0x0000000A	[  0] __ZN4CUDT6selectEiPSt3setIiSt4lessIiESaIiEES5_S5_PK7timeval$stubHelper
0x00020D96	0x0000000A	[  0] __ZN4CUDT6setOptE6UDTOptPKvRKi$stubHelper
0x00020DA0	0x0000000A	[  0] __ZN4CUDT6socketEiii$stubHelper
0x00020DAA	0x0000000A	[  0] __ZN4CUDT7connectEPK8sockaddr$stubHelper
0x00020DB4	0x0000000A	[  0] __ZN4CUDT7connectEPK8sockaddrP10CHandShake$stubHelper
0x00020DBE	0x0000000A	[  0] __ZN4CUDT7connectEiPK8sockaddri$stubHelper
0x00020DC8	0x0000000A	[  0] __ZN4CUDT7perfmonEiP8CPerfMonb$stubHelper
0x00020DD2	0x0000000A	[  0] __ZN4CUDT7recvmsgEPcRKi$stubHelper
0x00020DDC	0x0000000A	[  0] __ZN4CUDT7recvmsgEiPci$stubHelper
0x00020DE6	0x0000000A	[  0] __ZN4CUDT7sendmsgEPKcRKiS3_RKb$stubHelper
0x00020DF0	0x0000000A	[  0] __ZN4CUDT7sendmsgEiPKciib$stubHelper
0x00020DFA	0x0000000A	[  0] __ZN4CUDT8packDataER7CPacketRy$stubHelper
0x00020E04	0x0000000A	[  0] __ZN4CUDT8recvfileERSt13basic_fstreamIcSt11char_traitsIcEERKxS6_RKi$stubHelper
0x00020E0E	0x0000000A	[  0] __ZN4CUDT8recvfileEiRSt13basic_fstreamIcSt11char_traitsIcEERKxS6_RKi$stubHelper
0x00020E18	0x0000000A	[  0] __ZN4CUDT8selectExERKSt6vectorIiSaIiEEPS2_S5_S5_x$stubHelper
0x00020E22	0x0000000A	[  0] __ZN4CUDT8sendCtrlERKiPvS2_S1_$stubHelper
0x00020E2C	0x0000000A	[  0] __ZN4CUDT8sendfileERSt13basic_fstreamIcSt11char_traitsIcEERKxS6_RKi$stubHelper
0x00020E36	0x0000000A	[  0] __ZN4CUDT8sendfileEiRSt13basic_fstreamIcSt11char_traitsIcEERKxS6_RKi$stubHelper
0x00020E40	0x0000000A	[  0] __ZN4CUDT9initSynchEv$stubHelper
0x00020E4A	0x0000000A	[  0] __ZN4CUDTC1ERKS_$stubHelper
0x00020E54	0x0000000A	[  0] __ZN4CUDTC1Ev$stubHelper
0x00020E5E	0x0000000A	[  0] __ZN4CUDTD1Ev$stubHelper
0x00020E68	0x0000000A	[  0] __ZN4CUDTD2Ev$stubHelper
0x00020E72	0x0000000A	[  0] __ZN6CCache6lookupEPK8sockaddrRKiP10CInfoBlock$stubHelper
0x00020E7C	0x0000000A	[  0] __ZN6CCache6updateEPK8sockaddrRKiP10CInfoBlock$stubHelper
0x00020E86	0x0000000A	[  0] __ZN6CCacheC1Ev$stubHelper
0x00020E90	0x0000000A	[  0] __ZN6CCacheC2ERKj$stubHelper
0x00020E9A	0x0000000A	[  0] __ZN6CCacheC2Ev$stubHelper
0x00020EA4	0x0000000A	[  0] __ZN6CCacheD1Ev$stubHelper
0x00020EAE	0x0000000A	[  0] __ZN6CCacheD2Ev$stubHelper
0x00020EB8	0x0000000A	[  0] __ZN6CGuard7enterCSER23_opaque_pthread_mutex_t$stubHelper
0x00020EC2	0x0000000A	[  0] __ZN6CGuard7leaveCSER23_opaque_pthread_mutex_t$stubHelper
0x00020ECC	0x0000000A	[  0] __ZN6CGuardC1ER23_opaque_pthread_mutex_t$stubHelper
0x00020ED6	0x0000000A	[  0] __ZN6CGuardD1Ev$stubHelper
0x00020EE0	0x0000000A	[  0] __ZN6CTimer12triggerEventEv$stubHelper
0x00020EEA	0x0000000A	[  0] __ZN6CTimer12waitForEventEv$stubHelper
0x00020EF4	0x0000000A	[  0] __ZN6CTimer15getCPUFrequencyEv$stubHelper
0x00020EFE	0x0000000A	[  0] __ZN6CTimer4tickEv$stubHelper
0x00020F08	0x0000000A	[  0] __ZN6CTimer5rdtscERy$stubHelper
0x00020F12	0x0000000A	[  0] __ZN6CTimer7getTimeEv$stubHelper
0x00020F1C	0x0000000A	[  0] __ZN6CTimer7sleeptoERKy$stubHelper
0x00020F26	0x0000000A	[  0] __ZN6CTimer9interruptEv$stubHelper
0x00020F30	0x0000000A	[  0] __ZN6CTimerC1Ev$stubHelper
0x00020F3A	0x0000000A	[  0] __ZN6CTimerD1Ev$stubHelper
0x00020F44	0x0000000A	[  0] __ZN6CUDTCCC1Ev$stubHelper
0x00020F4E	0x0000000A	[  0] __ZN7CPacket4packERKiPvS2_S1_$stubHelper
0x00020F58	0x0000000A	[  0] __ZN7CPacket9setLengthERKi$stubHelper
0x00020F62	0x0000000A	[  0] __ZN7CPacketC1Ev$stubHelper
0x00020F6C	0x0000000A	[  0] __ZN7CPacketD1Ev$stubHelper
0x00020F76	0x0000000A	[  0] __ZN8CChannel13setRcvBufSizeERKi$stubHelper
0x00020F80	0x0000000A	[  0] __ZN8CChannel13setSndBufSizeERKi$stubHelper
0x00020F8A	0x0000000A	[  0] __ZN8CChannel13setUDPSockOptEv$stubHelper
0x00020F94	0x0000000A	[  0] __ZN8CChannel4openEPK8sockaddr$stubHelper
0x00020F9E	0x0000000A	[  0] __ZN8CChannel4openEi$stubHelper
0x00020FA8	0x0000000A	[  0] __ZN8CChannelC1ERKi$stubHelper
0x00020FB2	0x0000000A	[  0] __ZN8CChannelD1Ev$stubHelper
0x00020FBC	0x0000000A	[  0] __ZN9CRcvQueue11getNewEntryEv$stubHelper
0x00020FC6	0x0000000A	[  0] __ZN9CRcvQueue11setListenerEPK4CUDT$stubHelper
0x00020FD0	0x0000000A	[  0] __ZN9CRcvQueue11setNewEntryEP4CUDT$stubHelper
0x00020FDA	0x0000000A	[  0] __ZN9CRcvQueue14removeListenerEPK4CUDT$stubHelper
0x00020FE4	0x0000000A	[  0] __ZN9CRcvQueue4initERKiS1_S1_S1_PK8CChannelPK6CTimer$stubHelper
0x00020FEE	0x0000000A	[  0] __ZN9CRcvQueue8recvfromERKiR7CPacket$stubHelper
0x00020FF8	0x0000000A	[  0] __ZN9CRcvQueue8storePktERKiP7CPacket$stubHelper
0x00021002	0x0000000A	[  0] __ZN9CRcvQueueC1Ev$stubHelper
0x0002100C	0x0000000A	[  0] __ZN9CRcvQueueC2Ev$stubHelper
0x00021016	0x0000000A	[  0] __ZN9CRcvQueueD1Ev$stubHelper
0x00021020	0x0000000A	[  0] __ZN9CRcvQueueD2Ev$stubHelper
0x0002102A	0x0000000A	[  0] __ZN9CSndQueue4initEPK8CChannelPK6CTimer$stubHelper
0x00021034	0x0000000A	[  0] __ZN9CSndQueue6sendtoEPK8sockaddrR7CPacket$stubHelper
0x0002103E	0x0000000A	[  0] __ZN9CSndQueueC1Ev$stubHelper
0x00021048	0x0000000A	[  0] __ZN9CSndQueueD1Ev$stubHelper
0x00021052	0x0000000A	[  0] __ZN9CSndQueueD2Ev$stubHelper
0x0002105C	0x0000000A	[  0] __ZN9CSndUList3popERP8sockaddrR7CPacket$stubHelper
0x00021066	0x0000000A	[  0] __ZN9CSndUList6removeEPK4CUDT$stubHelper
0x00021070	0x0000000A	[  0] __ZN9CSndUList6updateEPK4CUDTRKb$stubHelper
0x0002107A	0x0000000A	[  0] __ZN9CSndUList7insert_ERKxPK4CUDT$stubHelper
0x00021084	0x0000000A	[  0] __ZNK10CRcvBuffer14getRcvDataSizeEv$stubHelper
0x0002108E	0x0000000A	[  0] __ZNK10CRcvBuffer15getAvailBufSizeEv$stubHelper
0x00021098	0x0000000A	[  0] __ZNK10CSndBuffer14getCurrBufSizeEv$stubHelper
0x000210A2	0x0000000A	[  0] __ZNK12CRcvLossList13getLossLengthEv$stubHelper
0x000210AC	0x0000000A	[  0] __ZNK12CRcvLossList15getFirstLostSeqEv$stubHelper
0x000210B6	0x0000000A	[  0] __ZNK13CUDTException12getErrorCodeEv$stubHelper
0x000210C0	0x0000000A	[  0] __ZNK14CPktTimeWindow12getBandwidthEv$stubHelper
0x000210CA	0x0000000A	[  0] __ZNK14CPktTimeWindow14getPktRcvSpeedEv$stubHelper
0x000210D4	0x0000000A	[  0] __ZNK14CPktTimeWindow15getMinPktSndIntEv$stubHelper
0x000210DE	0x0000000A	[  0] __ZNK7CPacket11getAckSeqNoEv$stubHelper
0x000210E8	0x0000000A	[  0] __ZNK7CPacket14getMsgBoundaryEv$stubHelper
0x000210F2	0x0000000A	[  0] __ZNK7CPacket15getMsgOrderFlagEv$stubHelper
0x000210FC	0x0000000A	[  0] __ZNK7CPacket5cloneEv$stubHelper
0x00021106	0x0000000A	[  0] __ZNK7CPacket7getFlagEv$stubHelper
0x00021110	0x0000000A	[  0] __ZNK7CPacket7getTypeEv$stubHelper
0x0002111A	0x0000000A	[  0] __ZNK7CPacket9getLengthEv$stubHelper
0x00021124	0x0000000A	[  0] __ZNK7CPacket9getMsgSeqEv$stubHelper
0x0002112E	0x0000000A	[  0] __ZNK8CChannel11getSockAddrEP8sockaddr$stubHelper
0x00021138	0x0000000A	[  0] __ZNK8CChannel5closeEv$stubHelper
0x00021142	0x0000000A	[  0] __ZNK8CChannel6sendtoEPK8sockaddrR7CPacket$stubHelper
0x0002114C	0x0000000A	[  0] __ZNK8CChannel8recvfromEP8sockaddrR7CPacket$stubHelper
0x00021156	0x0000000A	[  0] __ZNSi4readEPcl$stubHelper
0x00021160	0x0000000A	[  0] __ZNSi5seekgESt4fposI11__mbstate_tE$stubHelper
0x0002116A	0x0000000A	[  0] __ZNSo5seekpESt4fposI11__mbstate_tE$stubHelper
0x00021174	0x0000000A	[  0] __ZNSo5writeEPKcl$stubHelper
0x0002117E	0x0000000A	[  0] __ZNSs4_Rep10_M_destroyERKSaIcE$stubHelper
0x00021188	0x0000000A	[  0] __ZNSs6appendEPKcm$stubHelper
0x00021192	0x0000000A	[  0] __ZNSs6assignEPKcm$stubHelper
0x0002119C	0x0000000A	[  0] __ZNSs6assignERKSs$stubHelper
0x000211A6	0x0000000A	[  0] __ZSt17__throw_bad_allocv$stubHelper
0x000211B0	0x0000000A	[  0] __ZSt18_Rb_tree_decrementPKSt18_Rb_tree_node_base$stubHelper
0x000211BA	0x0000000A	[  0] __ZSt18_Rb_tree_decrementPSt18_Rb_tree_node_base$stubHelper
0x000211C4	0x0000000A	[  0] __ZSt18_Rb_tree_incrementPKSt18_Rb_tree_node_base$stubHelper
0x000211CE	0x0000000A	[  0] __ZSt18_Rb_tree_incrementPSt18_Rb_tree_node_base$stubHelper
0x000211D8	0x0000000A	[  0] __ZSt20__throw_length_errorPKc$stubHelper
0x000211E2	0x0000000A	[  0] __ZSt28_Rb_tree_rebalance_for_erasePSt18_Rb_tree_node_baseRS_$stubHelper
0x000211EC	0x0000000A	[  0] __ZSt29_Rb_tree_insert_and_rebalancebPSt18_Rb_tree_node_baseS0_RS_$stubHelper
0x000211F6	0x0000000A	[  0] __ZSt9terminatev$stubHelper
0x00021200	0x0000000A	[  0] __ZdaPv$stubHelper
0x0002120A	0x0000000A	[  0] __ZdlPv$stubHelper
0x00021214	0x0000000A	[  0] __Znam$stubHelper
0x0002121E	0x0000000A	[  0] __Znwm$stubHelper
0x00021228	0x0000000A	[  0] ___cxa_allocate_exception$stubHelper
0x00021232	0x0000000A	[  0] ___cxa_atexit$stubHelper
0x0002123C	0x0000000A	[  0] ___cxa_begin_catch$stubHelper
0x00021246	0x0000000A	[  0] ___cxa_end_catch$stubHelper
0x00021250	0x0000000A	[  0] ___cxa_free_exception$stubHelper
0x0002125A	0x0000000A	[  0] ___cxa_get_exception_ptr$stubHelper
0x00021264	0x0000000A	[  0] ___cxa_rethrow$stubHelper
0x0002126E	0x0000000A	[  0] ___cxa_throw$stubHelper
0x00021278	0x0000000A	[  0] ___error$stubHelper
0x00021282	0x0000000A	[  0] ___stack_chk_fail$stubHelper
0x0002128C	0x0000000A	[  0] _bind$stubHelper
0x00021296	0x0000000A	[  0] _ceil$stubHelper
0x000212A0	0x0000000A	[  0] _close$stubHelper
0x000212AA	0x0000000A	[  0] _free$stubHelper
0x000212B4	0x0000000A	[  0] _freeaddrinfo$stubHelper
0x000212BE	0x0000000A	[  0] _getaddrinfo$stubHelper
0x000212C8	0x0000000A	[  0] _getnameinfo$stubHelper
0x000212D2	0x0000000A	[  0] _getpeername$stubHelper
0x000212DC	0x0000000A	[  0] _getsockname$stubHelper
0x000212E6	0x0000000A	[  0] _getsockopt$stubHelper
0x000212F0	0x0000000A	[  0] _gettimeofday$stubHelper
0x000212FA	0x0000000A	[  0] _log10$stubHelper
0x00021304	0x0000000A	[  0] _malloc$stubHelper
0x0002130E	0x0000000A	[  0] _md5_append$stubHelper
0x00021318	0x0000000A	[  0] _md5_finish$stubHelper
0x00021322	0x0000000A	[  0] _md5_init$stubHelper
0x0002132C	0x0000000A	[  0] _memcpy$stubHelper
0x00021336	0x0000000A	[  0] _memmove$stubHelper
0x00021340	0x0000000A	[  0] _memset$stubHelper
0x0002134A	0x0000000A	[  0] _nanosleep$stubHelper
0x00021354	0x0000000A	[  0] _pow$stubHelper
0x0002135E	0x0000000A	[  0] _printf$stubHelper
0x00021368	0x0000000A	[  0] _pthread_cond_broadcast$stubHelper
0x00021372	0x0000000A	[  0] _pthread_cond_destroy$stubHelper
0x0002137C	0x0000000A	[  0] _pthread_cond_init$stubHelper
0x00021386	0x0000000A	[  0] _pthread_cond_signal$stubHelper
0x00021390	0x0000000A	[  0] _pthread_cond_timedwait$stubHelper
0x0002139A	0x0000000A	[  0] _pthread_cond_wait$stubHelper
0x000213A4	0x0000000A	[  0] _pthread_create$stubHelper
0x000213AE	0x0000000A	[  0] _pthread_getspecific$stubHelper
0x000213B8	0x0000000A	[  0] _pthread_join$stubHelper
0x000213C2	0x0000000A	[  0] _pthread_key_create$stubHelper
0x000213CC	0x0000000A	[  0] _pthread_key_delete$stubHelper
0x000213D6	0x0000000A	[  0] _pthread_mutex_destroy$stubHelper
0x000213E0	0x0000000A	[  0] _pthread_mutex_init$stubHelper
0x000213EA	0x0000000A	[  0] _pthread_mutex_lock$stubHelper
0x000213F4	0x0000000A	[  0] _pthread_mutex_trylock$stubHelper
0x000213FE	0x0000000A	[  0] _pthread_mutex_unlock$stubHelper
0x00021408	0x0000000A	[  0] _pthread_setspecific$stubHelper
0x00021412	0x0000000A	[  0] _rand$stubHelper
0x0002141C	0x0000000A	[  0] _recvmsg$stubHelper
0x00021426	0x0000000A	[  0] _sendmsg$stubHelper
0x00021430	0x0000000A	[  0] _setsockopt$stubHelper
0x0002143A	0x0000000A	[  0] _socket$stubHelper
0x00021444	0x0000000A	[  0] _sprintf$stubHelper
0x0002144E	0x0000000A	[  0] _srand$stubHelper
0x00021458	0x0000000A	[  0] _strerror$stubHelper
0x00021462	0x0000000A	[  0] _strlen$stubHelper
0x0002146C	0x0000000A	[  0] _usleep$stubHelper
0x00021478	0x00000002	[  1] "0"
0x0002147A	0x0000000B	[  2] "%s:%s:%lld"
0x00021485	0x0000001B	[  2] "m_iEXPCount=%d valueXXX=%d"
0x000214A0	0x00000008	[  3] "Success"
0x000214A8	0x00000019	[  3] "Connection setup failure"
0x000214C1	0x00000016	[  3] ": connection time out"
0x000214D7	0x00000016	[  3] ": connection rejected"
0x000214F0	0x00000028	[  3] ": unable to create/configure UDP socket"
0x00021518	0x0000001D	[  3] ": abort for security reasons"
0x00021535	0x00000016	[  3] "Connection was broken"
0x0002154B	0x0000001A	[  3] "Connection does not exist"
0x00021565	0x00000018	[  3] "System resource failure"
0x00021580	0x0000001F	[  3] ": unable to create new threads"
0x0002159F	0x0000001D	[  3] ": unable to allocate buffers"
0x000215BC	0x00000014	[  3] "File system failure"
0x000215D0	0x0000001C	[  3] ": cannot seek read position"
0x000215EC	0x00000012	[  3] ": failure in read"
0x000215FE	0x0000001D	[  3] ": cannot seek write position"
0x0002161B	0x00000013	[  3] ": failure in write"
0x0002162E	0x00000018	[  3] "Operation not supported"
0x00021648	0x0000002D	[  3] ": Cannot do this operation on a BOUND socket"
0x00021678	0x00000031	[  3] ": Cannot do this operation on a CONNECTED socket"
0x000216A9	0x00000011	[  3] ": Bad parameters"
0x000216BA	0x00000014	[  3] ": Invalid socket ID"
0x000216D0	0x00000030	[  3] ": Cannot do this operation on an UNBOUND socket"
0x00021700	0x00000023	[  3] ": Socket is not in listening state"
0x00021724	0x00000001	[  3] ""
0x00021728	0x0000003F	[  3] ": Listen/accept is not supported in rendezous connection setup"
0x00021768	0x00000047	[  3] ": Cannot call connect on UNBOUND socket in rendezvous connection setup"
0x000217B0	0x00000036	[  3] ": This operation is not supported in SOCK_STREAM mode"
0x000217E8	0x00000035	[  3] ": This operation is not supported in SOCK_DGRAM mode"
0x00021820	0x00000037	[  3] ": Another socket is already listening on the same port"
0x00021858	0x0000004F	[  3] ": Message is too large to send (it must be less than the UDT send buffer size)"
0x000218A7	0x0000001A	[  3] "Non-blocking call failure"
0x000218C8	0x00000022	[  3] ": no buffer available for sending"
0x000218F0	0x00000020	[  3] ": no data available for reading"
0x00021910	0x0000000E	[  3] "Unknown error"
0x0002191E	0x00000003	[  3] ": "
0x00021921	0x00000002	[  3] "."
0x00021923	0x00000010	[  3] __ZTS13CUDTException
0x00021938	0x00000002	[  5] "J"
0x0002193A	0x0000000C	[  5] "msTimeStamp"
0x00021946	0x0000000D	[  5] "pktSentTotal"
0x00021953	0x0000000D	[  5] "pktRecvTotal"
0x00021960	0x00000002	[  5] "I"
0x00021962	0x00000010	[  5] "pktSndLossTotal"
0x00021972	0x00000010	[  5] "pktRcvLossTotal"
0x00021982	0x00000010	[  5] "pktRetransTotal"
0x00021992	0x00000010	[  5] "pktSentACKTotal"
0x000219A2	0x00000010	[  5] "pktRecvACKTotal"
0x000219B2	0x00000010	[  5] "pktSentNAKTotal"
0x000219C2	0x00000010	[  5] "pktRecvNAKTotal"
0x000219D2	0x00000013	[  5] "usSndDurationTotal"
0x000219E5	0x00000008	[  5] "pktSent"
0x000219ED	0x00000008	[  5] "pktRecv"
0x000219F5	0x0000000B	[  5] "pktSndLoss"
0x00021A00	0x0000000B	[  5] "pktRcvLoss"
0x00021A0B	0x0000000B	[  5] "pktRetrans"
0x00021A16	0x0000000B	[  5] "pktSentACK"
0x00021A21	0x0000000B	[  5] "pktRecvACK"
0x00021A2C	0x0000000B	[  5] "pktSentNAK"
0x00021A37	0x0000000B	[  5] "pktRecvNAK"
0x00021A42	0x00000002	[  5] "D"
0x00021A44	0x0000000D	[  5] "mbpsSendRate"
0x00021A51	0x0000000D	[  5] "mbpsRecvRate"
0x00021A5E	0x0000000E	[  5] "usSndDuration"
0x00021A6C	0x0000000F	[  5] "usPktSndPeriod"
0x00021A7B	0x0000000E	[  5] "pktFlowWindow"
0x00021A89	0x00000014	[  5] "pktCongestionWindow"
0x00021A9D	0x0000000E	[  5] "pktFlightSize"
0x00021AAB	0x00000006	[  5] "msRTT"
0x00021AB1	0x0000000E	[  5] "mbpsBandwidth"
0x00021ABF	0x00000010	[  5] "byteAvailSndBuf"
0x00021ACF	0x00000010	[  5] "byteAvailRcvBuf"
0x00021ADF	0x00000008	[  5] "address"
0x00021AE7	0x00000017	[  5] "Ljava/net/InetAddress;"
0x00021AFE	0x00000005	[  5] "addr"
0x00021B03	0x00000005	[  5] "port"
0x00021B08	0x00000009	[  5] "socketID"
0x00021B11	0x0000001D	[  5] "Ljava/net/InetSocketAddress;"
0x00021B2E	0x00000014	[  5] "remoteSocketAddress"
0x00021B42	0x00000013	[  5] "localSocketAddress"
0x00021B55	0x0000001B	[  5] "Lcom/barchart/udt/TypeUDT;"
0x00021B70	0x00000005	[  5] "type"
0x00021B75	0x0000001E	[  5] "Lcom/barchart/udt/MonitorUDT;"
0x00021B93	0x00000008	[  5] "monitor"
0x00021B9B	0x00000002	[  5] "Z"
0x00021B9D	0x0000000F	[  5] "isSelectedRead"
0x00021BAC	0x00000010	[  5] "isSelectedWrite"
0x00021BBC	0x00000014	[  5] "isSelectedException"
0x00021BD0	0x00000005	[  5] "code"
0x00021BD5	0x00000005	[  5] "(Z)V"
0x00021BDA	0x00000007	[  5] "<init>"
0x00021BE1	0x00000016	[  5] "jdk_clsBoolean_initID"
0x00021BF7	0x00000011	[  5] "CHK_NUL_RET_RET;"
0x00021C08	0x0000001C	[  5] "%s function: %s comment: %s"
0x00021C24	0x00000005	[  5] "(I)V"
0x00021C29	0x00000016	[  5] "jdk_clsInteger_initID"
0x00021C3F	0x00000005	[  5] "(J)V"
0x00021C44	0x00000013	[  5] "jdk_clsLong_initID"
0x00021C57	0x00000004	[  5] "()V"
0x00021C5B	0x0000001B	[  5] "jdk_clsInet4Address_initID"
0x00021C76	0x0000001B	[  5] "(Ljava/net/InetAddress;I)V"
0x00021C98	0x00000020	[  5] "jdk_clsInetSocketAddress_initID"
0x00021CB8	0x00000017	[  5] "()Ljava/util/Iterator;"
0x00021CCF	0x00000009	[  5] "iterator"
0x00021CD8	0x00000016	[  5] "jdk_clsSet_iteratorID"
0x00021CEE	0x00000016	[  5] "(Ljava/lang/Object;)Z"
0x00021D04	0x00000004	[  5] "add"
0x00021D08	0x00000011	[  5] "jdk_clsSet_addID"
0x00021D19	0x00000009	[  5] "contains"
0x00021D22	0x00000016	[  5] "jdk_clsSet_containsID"
0x00021D38	0x00000004	[  5] "()Z"
0x00021D3C	0x00000008	[  5] "hasNext"
0x00021D44	0x0000001A	[  5] "jdk_clsIterator_hasNextID"
0x00021D5E	0x00000015	[  5] "()Ljava/lang/Object;"
0x00021D73	0x00000005	[  5] "next"
0x00021D78	0x00000017	[  5] "jdk_clsIterator_nextID"
0x00021D90	0x0000001F	[  5] "(Lcom/barchart/udt/TypeUDT;I)V"
0x00021DAF	0x00000019	[  5] "udt_clsSocketUDT_initID1"
0x00021DC8	0x00000018	[  5] "(IILjava/lang/String;)V"
0x00021DE0	0x0000001C	[  5] "udt_clsExceptionUDT_initID0"
0x00021DFC	0x00000018	[  5] "udt_clsLingerUDT_initID"
0x00021E14	0x00000004	[  5] "env"
0x00021E18	0x00000008	[  5] "message"
0x00021E20	0x00000017	[  5] "jdk_clsSocketException"
0x00021E37	0x0000000A	[  5] "className"
0x00021E41	0x0000000F	[  5] "classReference"
0x00021E50	0x00000005	[  5] "klaz"
0x00021E55	0x00000012	[  5] "java/lang/Boolean"
0x00021E67	0x00000012	[  5] "java/lang/Integer"
0x00021E79	0x0000000F	[  5] "java/lang/Long"
0x00021E88	0x00000016	[  5] "java/net/Inet4Address"
0x00021E9E	0x00000016	[  5] "java/net/Inet6Address"
0x00021EB4	0x0000001B	[  5] "java/net/InetSocketAddress"
0x00021ECF	0x00000019	[  5] "java/net/SocketException"
0x00021EE8	0x0000000E	[  5] "java/util/Set"
0x00021EF6	0x00000013	[  5] "java/util/Iterator"
0x00021F09	0x0000001B	[  5] "com/barchart/udt/SocketUDT"
0x00021F24	0x00000019	[  5] "com/barchart/udt/TypeUDT"
0x00021F3D	0x0000001C	[  5] "com/barchart/udt/FactoryUDT"
0x00021F59	0x0000001C	[  5] "com/barchart/udt/MonitorUDT"
0x00021F75	0x0000001E	[  5] "com/barchart/udt/ExceptionUDT"
0x00021F93	0x0000001B	[  5] "com/barchart/udt/LingerUDT"
0x00021FAE	0x00000011	[  5] "CHK_NUL_RET_NUL;"
0x00021FBF	0x0000000E	[  5] "messageString"
0x00021FCD	0x0000000C	[  5] "lingerValue"
0x00021FD9	0x00000014	[  5] "jdk_clsInet4Address"
0x00021FED	0x0000000F	[  5] "objInetAddress"
0x00021FFC	0x00000011	[  5] "CHK_NUL_RET_FLS;"
0x0002200D	0x00000009	[  5] "sockAddr"
0x00022016	0x0000000E	[  5] "socketAddress"
0x00022024	0x00000015	[  5] "objInetSocketAddress"
0x00022039	0x00000011	[  5] "CHK_NUL_RET_ERR;"
0x0002204A	0x00000018	[  5] "intBuffer capacity=%d \n"
0x00022062	0x00000019	[  5] "byteBuffer capacity=%d \n"
0x0002207B	0x00000007	[  5] "<NONE>"
0x00022082	0x00000016	[  5] "vector::_M_insert_aux"
0x00022098	0x00000008	[  5] "comment"
0x000220A0	0x0000000A	[  5] "errorInfo"
0x000220AA	0x0000000A	[  5] "exception"
0x000220B8	0x00000021	[  5] "testInvalidClose0 - close failed"
0x000220D9	0x00000008	[  5] "select1"
0x000220E1	0x0000000F	[  5] "updateMonitor0"
0x000220F0	0x0000000B	[  5] "objMonitor"
0x000220FB	0x0000000D	[  5] "send/sendmsg"
0x00022108	0x0000000D	[  5] "recv/recvmsg"
0x00022115	0x00000008	[  5] "listen0"
0x0002211D	0x00000014	[  5] "accept:INVALID_SOCK"
0x00022131	0x0000000B	[  5] "objTypeUDT"
0x0002213C	0x0000000D	[  5] "objSocketUDT"
0x00022149	0x0000001B	[  5] "initInstance1:INVALID_SOCK"
0x00022164	0x0000001B	[  5] "initInstance0:INVALID_SOCK"
0x0002217F	0x00000015	[  5] "stopClass0:cleanup()"
0x00022194	0x00000015	[  5] "initClass0:startup()"
0x000221B0	0x00000025	[  5] "select0 : can not allocate sizeArray"
0x000221D8	0x00000025	[  5] "select0 : can not allocate readArray"
0x00022200	0x00000026	[  5] "select0 : can not allocate writeArray"
0x00022226	0x00000008	[  5] "select0"
0x00022230	0x00000027	[  5] "select0 : can not allocate exceptArray"
0x00022258	0x00000025	[  5] "send/sendmsg : unexpected socketType"
0x00022280	0x00000025	[  5] "recv/recvmsg : unexpected socketType"
0x000222A5	0x00000011	[  5] "position > limit"
0x000222B6	0x00000019	[  5] "position is out of range"
0x000222CF	0x00000016	[  5] "limit is out of range"
0x000222E5	0x0000000D	[  5] "booleanValue"
0x000222F2	0x00000004	[  5] "()I"
0x000222F6	0x00000009	[  5] "intValue"
0x000222FF	0x00000004	[  5] "()J"
0x00022303	0x0000000A	[  5] "longValue"
0x00022310	0x00000020	[  5] "not yet implemented: FactoryUDT"
0x00022330	0x00000026	[  5] "unsupported option class in OptionUDT"
0x00022356	0x0000000B	[  5] "setOption0"
0x00022361	0x0000000B	[  5] "getsockopt"
0x00022370	0x0000001F	[  5] "objRemoteSocketAddress == NULL"
0x00022390	0x0000002D	[  5] "can not X_ConvertInetSocketAddressToSockaddr"
0x000223BD	0x00000008	[  5] "connect"
0x000223C5	0x00000012	[  5] "close0 - not open"
0x000223D7	0x00000016	[  5] "close0 - close failed"
0x000223ED	0x00000005	[  5] "bind"
0x000223F8	0x0000002B	[  5] "send/sendmsg : can not allocate data array"
0x00022428	0x0000002B	[  5] "recv/recvmsg : can not allocate data array"
0x00022458	0x00000025	[  5] "com/barchart/udt/nio/SelectionKeyUDT"
0x0002247D	0x0000000A	[  5] "selectEx1"
0x00022487	0x0000000A	[  5] "selectEx0"
0x00022498	0x0000002F	[  5] __ZZ46Java_com_barchart_udt_SocketUDT_updateMonitor0E8__func__
0x000224C8	0x00000028	[  5] __ZZ39Java_com_barchart_udt_SocketUDT_accept0E8__func__
0x000224F0	0x00000015	[  5] __ZZ20UDT_InitMethodRefAllE8__func__
0x00022505	0x00000010	[  5] __ZZ15X_InitMethodRefE8__func__
0x00022518	0x00000020	[  5] __ZZ31UDT_ThrowExceptionUDT_ErrorInfoE8__func__
0x00022538	0x0000001E	[  5] __ZZ29UDT_ThrowExceptionUDT_MessageE8__func__
0x00022556	0x00000014	[  5] __ZZ19UDT_NewExceptionUDTE8__func__
0x0002256A	0x00000011	[  5] __ZZ16UDT_NewLingerUDTE8__func__
0x00022580	0x00000020	[  5] __ZZ31XXX_ThrowSocketExceptionMessageE8__func__
0x000225A0	0x00000024	[  5] __ZZ35X_IsSockaddrEqualsInetSocketAddressE8__func__
0x000225C4	0x00000017	[  5] __ZZ22X_NewInetSocketAddressE8__func__
0x000225DB	0x00000011	[  5] __ZZ16X_NewInetAddressE8__func__
0x000225F0	0x00000025	[  5] __ZZ36X_ConvertSockaddrToInetSocketAddressE8__func__
0x00022618	0x00000025	[  5] __ZZ36X_ConvertInetSocketAddressToSockaddrE8__func__
0x0002263D	0x0000000F	[  5] __ZZ14X_InitSockAddrE8__func__
0x0002264C	0x0000000A	[  5] __ZZ9X_NewLongE8__func__
0x00022656	0x0000000D	[  5] __ZZ12X_NewIntegerE8__func__
0x00022663	0x0000000D	[  5] __ZZ12X_NewBooleanE8__func__
0x00022670	0x00000015	[  5] __ZZ20X_InitClassReferenceE8__func__
0x00022685	0x00000008	[  7] __ZTS6CUDTCC
0x0002268D	0x00000005	[  7] __ZTS3CCC
0x000226A0	0x00000004	[  2] __ZN4CUDT12INVALID_SOCKE
0x000226A4	0x00000004	[  2] __ZN4CUDT5ERRORE
0x000226A8	0x00000004	[  2] __ZN3UDT12INVALID_SOCKE
0x000226AC	0x00000004	[  2] __ZN3UDT5ERRORE
0x000226B0	0x00000004	[  2] __ZN6CSeqNo10m_iSeqNoTHE
0x000226B4	0x00000004	[  2] __ZN6CSeqNo11m_iMaxSeqNoE
0x000226B8	0x00000004	[  2] __ZN6CAckNo14m_iMaxAckSeqNoE
0x000226BC	0x00000004	[  2] __ZN6CMsgNo10m_iMsgNoTHE
0x000226C0	0x00000004	[  2] __ZN6CMsgNo11m_iMaxMsgNoE
0x000226C4	0x00000004	[  2] __ZN4CUDT10m_iVersionE
0x000226C8	0x00000004	[  2] __ZN4CUDT14m_iSYNIntervalE
0x000226CC	0x00000004	[  2] __ZN4CUDT20m_iSelfClockIntervalE
0x000226D0	0x00000016	[  2] __ZTS10CCCFactoryI6CUDTCCE
0x000226E6	0x00000014	[  2] __ZTS17CCCVirtualFactory
0x00022700	0x00000008	[  2] 8-byte-literal=0x408F400000000000
0x00022708	0x00000008	[  2] 8-byte-literal=0x4020000000000000
0x00022710	0x00000008	[  2] 8-byte-literal=0x412E848000000000
0x00022718	0x00000008	[  2] 8-byte-literal=0x43E0000000000000
0x00022720	0x00000008	[  2] 8-byte-literal=0x3FECCCCCCCCCCCCD
0x00022728	0x00000008	[  2] 8-byte-literal=0x3FF2000000000000
0x00022730	0x00000008	[  2] 8-byte-literal=0x41DFFFFFFFC00000
0x00022738	0x00000004	[  3] __ZN13CUDTException7SUCCESSE
0x0002273C	0x00000004	[  3] __ZN13CUDTException10ECONNSETUPE
0x00022740	0x00000004	[  3] __ZN13CUDTException9ENOSERVERE
0x00022744	0x00000004	[  3] __ZN13CUDTException8ECONNREJE
0x00022748	0x00000004	[  3] __ZN13CUDTException9ESOCKFAILE
0x0002274C	0x00000004	[  3] __ZN13CUDTException8ESECFAILE
0x00022750	0x00000004	[  3] __ZN13CUDTException9ECONNFAILE
0x00022754	0x00000004	[  3] __ZN13CUDTException9ECONNLOSTE
0x00022758	0x00000004	[  3] __ZN13CUDTException7ENOCONNE
0x0002275C	0x00000004	[  3] __ZN13CUDTException9ERESOURCEE
0x00022760	0x00000004	[  3] __ZN13CUDTException7ETHREADE
0x00022764	0x00000004	[  3] __ZN13CUDTException6ENOBUFE
0x00022768	0x00000004	[  3] __ZN13CUDTException5EFILEE
0x0002276C	0x00000004	[  3] __ZN13CUDTException9EINVRDOFFE
0x00022770	0x00000004	[  3] __ZN13CUDTException7ERDPERME
0x00022774	0x00000004	[  3] __ZN13CUDTException9EINVWROFFE
0x00022778	0x00000004	[  3] __ZN13CUDTException7EWRPERME
0x0002277C	0x00000004	[  3] __ZN13CUDTException6EINVOPE
0x00022780	0x00000004	[  3] __ZN13CUDTException10EBOUNDSOCKE
0x00022784	0x00000004	[  3] __ZN13CUDTException9ECONNSOCKE
0x00022788	0x00000004	[  3] __ZN13CUDTException9EINVPARAME
0x0002278C	0x00000004	[  3] __ZN13CUDTException8EINVSOCKE
0x00022790	0x00000004	[  3] __ZN13CUDTException12EUNBOUNDSOCKE
0x00022794	0x00000004	[  3] __ZN13CUDTException9ENOLISTENE
0x00022798	0x00000004	[  3] __ZN13CUDTException10ERDVNOSERVE
0x0002279C	0x00000004	[  3] __ZN13CUDTException11ERDVUNBOUNDE
0x000227A0	0x00000004	[  3] __ZN13CUDTException10ESTREAMILLE
0x000227A4	0x00000004	[  3] __ZN13CUDTException9EDGRAMILLE
0x000227A8	0x00000004	[  3] __ZN13CUDTException10EDUPLISTENE
0x000227AC	0x00000004	[  3] __ZN13CUDTException9ELARGEMSGE
0x000227B0	0x00000004	[  3] __ZN13CUDTException10EASYNCFAILE
0x000227B4	0x00000004	[  3] __ZN13CUDTException9EASYNCSNDE
0x000227B8	0x00000004	[  3] __ZN13CUDTException9EASYNCRCVE
0x000227BC	0x00000004	[  3] __ZN13CUDTException8EUNKNOWNE
0x000227C0	0x00000004	[  4] __ZN7CPacket13m_iPktHdrSizeE
0x000227C8	0x00000008	[  6] 8-byte-literal=0x41D0000000000000
0x000227D0	0x00000008	[  7] 8-byte-literal=0x3FF0000000000000
0x000227D8	0x00000008	[  7] 8-byte-literal=0x4030000000000000
0x000227E0	0x00000008	[  7] 8-byte-literal=0x3FEC000000000000
0x000227E8	0x00000008	[  7] 8-byte-literal=0x3FC0000000000000
0x000227F0	0x00000008	[  7] 8-byte-literal=0xC12E848000000000
0x000227F8	0x00000008	[  7] 8-byte-literal=0x4024000000000000
0x00022800	0x00000008	[  7] 8-byte-literal=0x3EB92A737110E454
0x00022820	0x00000040	[ 10] __ZZ10md5_finishE3pad
0x00022860	0x00000004	[ 10] __ZZL11md5_processP11md5_state_sPKhE1w
0x00022864	0x00000045	[  1] __ZN8CChannel13setUDPSockOptEv.lsda
0x000228A9	0x00000079	[  1] __ZN8CChannel4openEPK8sockaddr.lsda
0x00022924	0x00000045	[  2] __ZN4CUDT6listenEP8sockaddrR7CPacket.lsda
0x00022969	0x00000045	[  2] __ZN4CUDT8sendCtrlERKiPvS2_S1_.lsda
0x000229AE	0x00000079	[  2] __ZN4CUDT6getOptE6UDTOptPvRi.lsda
0x00022A27	0x000001F3	[  2] __ZN4CUDT6setOptE6UDTOptPKvRKi.lsda
0x00022C1A	0x0000003A	[  2] __ZN4CUDT6sampleEP8CPerfMonb.lsda
0x00022C54	0x000000D0	[  2] __ZN4CUDT8sendfileERSt13basic_fstreamIcSt11char_traitsIcEERKxS6_RKi.lsda
0x00022D24	0x000000D5	[  2] __ZN4CUDT7recvmsgEPcRKi.lsda
0x00022DF9	0x000000C8	[  2] __ZN4CUDT7sendmsgEPKcRKiS3_RKb.lsda
0x00022EC1	0x000000C8	[  2] __ZN4CUDT4sendEPKcRKi.lsda
0x00022F89	0x000000BB	[  2] __ZN4CUDT4recvEPcRKi.lsda
0x00023044	0x0000006C	[  2] __ZN4CUDT5closeEv.lsda
0x000230B0	0x0000012C	[  2] __ZN4CUDT7connectEPK8sockaddrP10CHandShake.lsda
0x000231DC	0x00000094	[  2] __ZN4CUDT6listenEv.lsda
0x00023270	0x00000045	[  2] __ZN4CUDT4openEv.lsda
0x000232B5	0x0000002B	[  2] __ZN10CCCFactoryI6CUDTCCE6createEv.lsda
0x000232E0	0x00000054	[  2] __ZN4CUDT8packDataER7CPacketRy.lsda
0x00023334	0x00000238	[  2] __ZN4CUDT7connectEPK8sockaddr.lsda
0x0002356C	0x000000D0	[  2] __ZN4CUDT8recvfileERSt13basic_fstreamIcSt11char_traitsIcEERKxS6_RKi.lsda
0x0002363C	0x0000001E	[  3] __ZN13CUDTExceptionC2Eiii.lsda
0x0002365A	0x0000001E	[  3] __ZN13CUDTExceptionC1Eiii.lsda
0x00023678	0x00000038	[  5] _Java_com_barchart_udt_SocketUDT_testInvalidClose0.lsda
0x000236B0	0x000000A1	[  5] _Java_com_barchart_udt_SocketUDT_select1.lsda
0x00023751	0x00000038	[  5] _Java_com_barchart_udt_SocketUDT_updateMonitor0.lsda
0x00023789	0x00000038	[  5] _UDT_ReturnSendError.lsda
0x000237C1	0x00000038	[  5] _UDT_ReturnReceiveError.lsda
0x000237F9	0x00000038	[  5] _Java_com_barchart_udt_SocketUDT_listen0.lsda
0x00023831	0x00000038	[  5] _Java_com_barchart_udt_SocketUDT_accept0.lsda
0x00023869	0x00000038	[  5] _Java_com_barchart_udt_SocketUDT_initInstance1.lsda
0x000238A1	0x00000038	[  5] _Java_com_barchart_udt_SocketUDT_initInstance0.lsda
0x000238D9	0x00000038	[  5] _Java_com_barchart_udt_SocketUDT_stopClass0.lsda
0x00023911	0x00000038	[  5] _Java_com_barchart_udt_SocketUDT_initClass0.lsda
0x00023949	0x000000A1	[  5] _Java_com_barchart_udt_SocketUDT_select0.lsda
0x000239EA	0x00000038	[  5] _Java_com_barchart_udt_SocketUDT_setOption0.lsda
0x00023A22	0x00000038	[  5] _Java_com_barchart_udt_SocketUDT_getOption0.lsda
0x00023A5A	0x00000038	[  5] _Java_com_barchart_udt_SocketUDT_connect0.lsda
0x00023A92	0x00000038	[  5] _Java_com_barchart_udt_SocketUDT_close0.lsda
0x00023ACA	0x00000038	[  5] _Java_com_barchart_udt_SocketUDT_bind0.lsda
0x00023B02	0x00000052	[  5] _Java_com_barchart_udt_SocketUDT_selectEx1.lsda
0x00023B54	0x00000045	[  5] _Java_com_barchart_udt_SocketUDT_selectEx0.lsda
0x00023B9C	0x00000109	[  6] __ZN10CUDTUnited9updateMuxEP4CUDTPK8sockaddrPKi.lsda
0x00023CA5	0x0000002B	[  6] __ZN10CUDTUnited8getErrorEv.lsda
0x00023CD0	0x00000045	[  6] __ZN10CUDTUnited11getsocknameEiP8sockaddrPi.lsda
0x00023D15	0x0000006C	[  6] __ZN10CUDTUnited4bindEiPK8sockaddrRKi.lsda
0x00023D81	0x00000087	[  6] __ZN10CUDTUnited7connectEiPK8sockaddrRKi.lsda
0x00023E08	0x00000052	[  6] __ZN10CUDTUnited4bindEii.lsda
0x00023E5A	0x00000038	[  6] __ZN10CUDTUnited7cleanupEv.lsda
0x00023E92	0x00000038	[  6] __ZN10CUDTUnited7startupEv.lsda
0x00023ECA	0x0000003A	[  6] __ZN10CUDTUnited6lookupEi.lsda
0x00023F04	0x00000028	[  6] __ZN4CUDT12getUDTHandleEi.lsda
0x00023F2C	0x00000052	[  6] __ZN10CUDTUnited11getpeernameEiP8sockaddrPi.lsda
0x00023F7E	0x00000052	[  6] __ZN10CUDTUnited6locateEiPK8sockaddrRKiS4_.lsda
0x00023FD0	0x00000048	[  6] __ZN10CUDTUnitedC2Ev.lsda
0x00024018	0x000000B8	[  6] __ZN10CUDTUnited6listenEiRKi.lsda
0x000240D0	0x00000038	[  6] __ZN10CUDTSocketD2Ev.lsda
0x00024108	0x00000054	[  6] __ZN10CUDTUnitedD2Ev.lsda
0x0002415C	0x0000004C	[  6] __ZNSt8_Rb_treeIiiSt9_IdentityIiESt4lessIiESaIiEE7_M_copyEPKSt13_Rb_tree_nodeIiEPS7_.lsda
0x000241A8	0x00000108	[  6] __ZN10CUDTUnited9newSocketERKiS1_.lsda
0x000242B0	0x0000002C	[  6] __ZN10CUDTUnited5closeEi.lsda
0x000242DC	0x000000EC	[  6] __ZN10CUDTUnited13newConnectionEiPK8sockaddrP10CHandShake.lsda
0x000243C8	0x0000005F	[  6] __ZN10CUDTUnited12removeSocketEi.lsda
0x00024427	0x0000006C	[  6] __ZN10CUDTUnited18checkBrokenSocketsEv.lsda
0x00024493	0x00000038	[  6] __ZN10CUDTUnited14garbageCollectEPv.lsda
0x000244CB	0x000000C8	[  6] __ZN10CUDTUnited6selectEPSt3setIiSt4lessIiESaIiEES5_S5_PK7timeval.lsda
0x00024593	0x00000089	[  6] __ZN10CUDTUnited6acceptEiP8sockaddrPi.lsda
0x0002461C	0x000000AC	[  6] __ZN4CUDT7perfmonEiP8CPerfMonb.lsda
0x000246C8	0x00000100	[  6] __ZN4CUDT8selectExERKSt6vectorIiSaIiEEPS2_S5_S5_x.lsda
0x000247C8	0x00000100	[  6] __ZN4CUDT6selectEiPSt3setIiSt4lessIiESaIiEES5_S5_PK7timeval.lsda
0x000248C8	0x000000AC	[  6] __ZN4CUDT8recvfileEiRSt13basic_fstreamIcSt11char_traitsIcEERKxS6_RKi.lsda
0x00024974	0x000000D8	[  6] __ZN4CUDT8sendfileEiRSt13basic_fstreamIcSt11char_traitsIcEERKxS6_RKi.lsda
0x00024A4C	0x000000AC	[  6] __ZN4CUDT7recvmsgEiPci.lsda
0x00024AF8	0x000000D8	[  6] __ZN4CUDT7sendmsgEiPKciib.lsda
0x00024BD0	0x000000AC	[  6] __ZN4CUDT4recvEiPcii.lsda
0x00024C7C	0x000000D8	[  6] __ZN4CUDT4sendEiPKcii.lsda
0x00024D54	0x000000AC	[  6] __ZN4CUDT10setsockoptEii6UDTOptPKvi.lsda
0x00024E00	0x000000AC	[  6] __ZN4CUDT10getsockoptEii6UDTOptPvPi.lsda
0x00024EAC	0x000000AC	[  6] __ZN4CUDT11getsocknameEiP8sockaddrPi.lsda
0x00024F58	0x000000AC	[  6] __ZN4CUDT11getpeernameEiP8sockaddrPi.lsda
0x00025004	0x000000AC	[  6] __ZN4CUDT5closeEi.lsda
0x000250B0	0x000000D8	[  6] __ZN4CUDT7connectEiPK8sockaddri.lsda
0x00025188	0x00000088	[  6] __ZN4CUDT6acceptEiP8sockaddrPi.lsda
0x00025210	0x000000B8	[  6] __ZN4CUDT6listenEii.lsda
0x000252C8	0x000000B8	[  6] __ZN4CUDT4bindEii.lsda
0x00025380	0x000000B8	[  6] __ZN4CUDT4bindEiPK8sockaddri.lsda
0x00025438	0x000000C4	[  6] __ZN4CUDT6socketEiii.lsda
0x000254FC	0x00000074	[  8] __ZN10CSndBuffer8increaseEv.lsda
0x00025570	0x00000038	[  8] __ZN10CSndBuffer7ackDataERKi.lsda
0x000255A8	0x00000038	[  8] __ZN10CSndBuffer8readDataEPPciRiS2_.lsda
0x000255E0	0x00000038	[ 12] __ZN6CCacheC2Ev.lsda
0x00025618	0x00000038	[ 12] __ZN6CCacheC2ERKj.lsda
0x00025650	0x00000052	[ 12] __ZN6CCacheD2Ev.lsda
0x000256A2	0x00000038	[ 12] __ZN6CCache6updateEPK8sockaddrRKiP10CInfoBlock.lsda
0x000256DC	0x00000048	[ 13] __ZN16CRendezvousQueue6insertERKiS1_PK8sockaddr.lsda
0x00025724	0x0000005C	[ 13] __ZN9CSndUList6insertERKxPK4CUDT.lsda
0x00025780	0x0000005C	[ 13] __ZN10CUnitQueue8increaseEv.lsda
0x000257DC	0x0000005C	[ 13] __ZN10CUnitQueue4initERKiS1_S1_.lsda
0x00025838	0x00000038	[ 13] __ZN16CRendezvousQueue8retrieveEPK8sockaddrRi.lsda
0x00025870	0x00000045	[ 13] __ZN9CRcvQueue8recvfromERKiR7CPacket.lsda
0x000258B5	0x00000038	[ 13] __ZN9CRcvQueue11setNewEntryEP4CUDT.lsda
0x000258ED	0x00000038	[ 13] __ZN9CRcvQueue6workerEPv.lsda
0x00025925	0x00000045	[ 13] __ZN9CSndQueue4initEPK8CChannelPK6CTimer.lsda
0x0002596A	0x0000001E	[ 13] __ZN16CRendezvousQueueC1Ev.lsda
0x00025988	0x0000001E	[ 13] __ZN16CRendezvousQueueC2Ev.lsda
0x000259A6	0x00000045	[ 13] __ZN9CRcvQueue4initERKiS1_S1_S1_PK8CChannelPK6CTimer.lsda
0x000259EB	0x0000001E	[ 13] __ZN16CRendezvousQueueD2Ev.lsda
0x00025A09	0x0000002B	[ 13] __ZN9CSndUList3popERP8sockaddrR7CPacket.lsda
0x00025A34	0x0000005F	[ 13] __ZN9CSndQueue6workerEPv.lsda
0x00025A93	0x00000045	[ 13] __ZN9CSndUList6updateEPK4CUDTRKb.lsda
0x00025AD8	0x0000002B	[ 13] __ZN9CRcvQueueC2Ev.lsda
0x00025B03	0x00000045	[ 13] __ZN9CRcvQueueD2Ev.lsda
0x00025B50	0x000008C8	[  0] unwind info
0x00026418	0x00000020	[  1] CIE
0x00026438	0x00000038	[  1] __ZN8CChannelC2Ev.eh
0x00026470	0x00000038	[  1] __ZN8CChannelC1Ev.eh
0x000264A8	0x00000038	[  1] __ZN8CChannelC2ERKi.eh
0x000264E0	0x00000038	[  1] __ZN8CChannelC1ERKi.eh
0x00026518	0x00000038	[  1] __ZN8CChannelD2Ev.eh
0x00026550	0x00000038	[  1] __ZN8CChannelD1Ev.eh
0x00026588	0x00000038	[  1] __ZN8CChannel13setSndBufSizeERKi.eh
0x000265C0	0x00000038	[  1] __ZN8CChannel13setRcvBufSizeERKi.eh
0x000265F8	0x00000038	[  1] __ZNK8CChannel11getPeerAddrEP8sockaddr.eh
0x00026630	0x00000038	[  1] __ZNK8CChannel11getSockAddrEP8sockaddr.eh
0x00026668	0x00000038	[  1] __ZN8CChannel13getRcvBufSizeEv.eh
0x000266A0	0x00000038	[  1] __ZN8CChannel13getSndBufSizeEv.eh
0x000266D8	0x00000038	[  1] __ZNK8CChannel5closeEv.eh
0x00026710	0x00000040	[  1] __ZN8CChannel13setUDPSockOptEv.eh
0x00026750	0x00000038	[  1] __ZN8CChannel4openEi.eh
0x00026788	0x00000040	[  1] __ZN8CChannel4openEPK8sockaddr.eh
0x000267C8	0x00000038	[  1] __ZNK8CChannel8recvfromEP8sockaddrR7CPacket.eh
0x00026800	0x00000040	[  1] __ZNK8CChannel6sendtoEPK8sockaddrR7CPacket.eh
0x00026840	0x00000020	[  2] CIE
0x00026860	0x00000038	[  2] __Z41__static_initialization_and_destruction_0ii.eh
0x00026898	0x00000038	[  2] __GLOBAL__I__ZN4CUDT11s_UDTUnitedE.eh
0x000268D0	0x00000038	[  2] ___tcf_0.eh
0x00026908	0x00000040	[  2] __ZN4CUDT6listenEP8sockaddrR7CPacket.eh
0x00026948	0x00000040	[  2] __ZN4CUDT12releaseSynchEv.eh
0x00026988	0x00000040	[  2] __ZN4CUDT8sendCtrlERKiPvS2_S1_.eh
0x000269C8	0x00000038	[  2] __ZN4CUDT12destroySynchEv.eh
0x00026A00	0x00000038	[  2] __ZN4CUDT9initSynchEv.eh
0x00026A38	0x00000040	[  2] __ZN4CUDTC1ERKS_.eh
0x00026A78	0x00000040	[  2] __ZN4CUDTC2ERKS_.eh
0x00026AB8	0x00000040	[  2] __ZN4CUDT6getOptE6UDTOptPvRi.eh
0x00026AF8	0x00000040	[  2] __ZN4CUDT6setOptE6UDTOptPKvRKi.eh
0x00026B38	0x00000040	[  2] __ZN4CUDT6sampleEP8CPerfMonb.eh
0x00026B78	0x00000040	[  2] __ZN4CUDT8sendfileERSt13basic_fstreamIcSt11char_traitsIcEERKxS6_RKi.eh
0x00026BB8	0x00000040	[  2] __ZN4CUDT7recvmsgEPcRKi.eh
0x00026BF8	0x00000040	[  2] __ZN4CUDT7sendmsgEPKcRKiS3_RKb.eh
0x00026C38	0x00000040	[  2] __ZN4CUDT4sendEPKcRKi.eh
0x00026C78	0x00000040	[  2] __ZN4CUDT4recvEPcRKi.eh
0x00026CB8	0x00000040	[  2] __ZN4CUDT5closeEv.eh
0x00026CF8	0x00000038	[  2] __ZN10CCCFactoryI6CUDTCCE5cloneEv.eh
0x00026D30	0x00000038	[  2] __ZN4CUDTC2Ev.eh
0x00026D68	0x00000038	[  2] __ZN10CCCFactoryI6CUDTCCED0Ev.eh
0x00026DA0	0x00000038	[  2] __ZN10CCCFactoryI6CUDTCCED1Ev.eh
0x00026DD8	0x00000038	[  2] __ZN17CCCVirtualFactoryD0Ev.eh
0x00026E10	0x00000038	[  2] __ZN17CCCVirtualFactoryD1Ev.eh
0x00026E48	0x00000040	[  2] __ZN4CUDT7connectEPK8sockaddrP10CHandShake.eh
0x00026E88	0x00000040	[  2] __ZN4CUDT6listenEv.eh
0x00026EC8	0x00000040	[  2] __ZN4CUDT4openEv.eh
0x00026F08	0x00000040	[  2] __ZN4CUDTD2Ev.eh
0x00026F48	0x00000038	[  2] __ZN4CUDTD1Ev.eh
0x00026F80	0x00000040	[  2] __ZN10CCCFactoryI6CUDTCCE6createEv.eh
0x00026FC0	0x00000040	[  2] __ZN4CUDT11checkTimersEv.eh
0x00027000	0x00000040	[  2] __ZN4CUDT11processDataEP5CUnit.eh
0x00027040	0x00000040	[  2] __ZN4CUDT8packDataER7CPacketRy.eh
0x00027080	0x00000040	[  2] __ZN4CUDT11processCtrlER7CPacket.eh
0x000270C0	0x00000040	[  2] __ZN4CUDT7connectEPK8sockaddr.eh
0x00027100	0x00000040	[  2] __ZN4CUDT8recvfileERSt13basic_fstreamIcSt11char_traitsIcEERKxS6_RKi.eh
0x00027140	0x00000038	[  2] __ZN4CUDTC1Ev.eh
0x00027178	0x00000020	[  3] CIE
0x00027198	0x00000038	[  3] __ZN6CTimer16readCPUFrequencyEv.eh
0x000271D0	0x00000038	[  3] __ZN6CTimer15getCPUFrequencyEv.eh
0x00027208	0x00000038	[  3] __ZNK13CUDTException12getErrorCodeEv.eh
0x00027240	0x00000038	[  3] __ZN13CUDTException5clearEv.eh
0x00027278	0x00000038	[  3] __ZN10CIPAddress5ipcmpEPK8sockaddrS2_RKi.eh
0x000272B0	0x00000038	[  3] __ZN10CIPAddress4ntopEPK8sockaddrPjRKi.eh
0x000272E8	0x00000038	[  3] __ZN10CIPAddress4ptonEP8sockaddrPKjRKi.eh
0x00027320	0x00000040	[  3] __ZN4CMD57computeEPKcPh.eh
0x00027360	0x00000038	[  3] __ZN6CGuard7leaveCSER23_opaque_pthread_mutex_t.eh
0x00027398	0x00000038	[  3] __ZN6CGuardD1Ev.eh
0x000273D0	0x00000038	[  3] __ZN6CGuardD2Ev.eh
0x00027408	0x00000038	[  3] __ZN6CGuard7enterCSER23_opaque_pthread_mutex_t.eh
0x00027440	0x00000038	[  3] __ZN6CGuardC1ER23_opaque_pthread_mutex_t.eh
0x00027478	0x00000038	[  3] __ZN6CGuardC2ER23_opaque_pthread_mutex_t.eh
0x000274B0	0x00000038	[  3] __ZN6CTimer7getTimeEv.eh
0x000274E8	0x00000038	[  3] __ZN6CTimer5rdtscERy.eh
0x00027520	0x00000038	[  3] __ZN6CTimer12waitForEventEv.eh
0x00027558	0x00000038	[  3] __ZN6CTimer12triggerEventEv.eh
0x00027590	0x00000038	[  3] __ZN6CTimer4tickEv.eh
0x000275C8	0x00000038	[  3] __ZN6CTimerD1Ev.eh
0x00027600	0x00000038	[  3] __ZN6CTimerD2Ev.eh
0x00027638	0x00000038	[  3] __ZN6CTimerC1Ev.eh
0x00027670	0x00000038	[  3] __ZN6CTimerC2Ev.eh
0x000276A8	0x00000038	[  3] __ZN13CUDTExceptionC1ERKS_.eh
0x000276E0	0x00000038	[  3] __ZN13CUDTExceptionC2ERKS_.eh
0x00027718	0x00000038	[  3] __Z41__static_initialization_and_destruction_0ii.eh
0x00027750	0x00000038	[  3] __GLOBAL__I__ZN6CTimer17s_ullCPUFrequencyE.eh
0x00027788	0x00000038	[  3] __ZN6CTimer9interruptEv.eh
0x000277C0	0x00000040	[  3] __ZN6CTimer7sleeptoERKy.eh
0x00027800	0x00000040	[  3] __ZN6CTimer5sleepERKy.eh
0x00027840	0x00000040	[  3] __ZN13CUDTExceptionC2Eiii.eh
0x00027880	0x00000040	[  3] __ZN13CUDTExceptionC1Eiii.eh
0x000278C0	0x00000038	[  3] __ZN13CUDTExceptionD0Ev.eh
0x000278F8	0x00000038	[  3] __ZN13CUDTExceptionD1Ev.eh
0x00027930	0x00000038	[  3] __ZN13CUDTExceptionD2Ev.eh
0x00027968	0x00000040	[  3] __ZN13CUDTException15getErrorMessageEv.eh
0x000279A8	0x00000020	[  4] CIE
0x000279C8	0x00000030	[  4] __ZN7CPacketC2Ev.eh
0x000279F8	0x00000030	[  4] __ZN7CPacketC1Ev.eh
0x00027A28	0x00000030	[  4] __ZN7CPacketD2Ev.eh
0x00027A58	0x00000030	[  4] __ZN7CPacketD1Ev.eh
0x00027A88	0x00000030	[  4] __ZNK7CPacket9getLengthEv.eh
0x00027AB8	0x00000030	[  4] __ZN7CPacket9setLengthERKi.eh
0x00027AE8	0x00000030	[  4] __ZN7CPacket4packERKiPvS2_S1_.eh
0x00027B18	0x00000030	[  4] __ZN7CPacket15getPacketVectorEv.eh
0x00027B48	0x00000030	[  4] __ZNK7CPacket7getFlagEv.eh
0x00027B78	0x00000030	[  4] __ZNK7CPacket7getTypeEv.eh
0x00027BA8	0x00000030	[  4] __ZNK7CPacket15getExtendedTypeEv.eh
0x00027BD8	0x00000030	[  4] __ZNK7CPacket11getAckSeqNoEv.eh
0x00027C08	0x00000030	[  4] __ZNK7CPacket14getMsgBoundaryEv.eh
0x00027C38	0x00000030	[  4] __ZNK7CPacket15getMsgOrderFlagEv.eh
0x00027C68	0x00000030	[  4] __ZNK7CPacket9getMsgSeqEv.eh
0x00027C98	0x00000038	[  4] __ZNK7CPacket5cloneEv.eh
0x00027CD0	0x00000020	[  5] CIE
0x00027CF0	0x00000038	[  5] _UDT_GetSocketID.eh
0x00027D28	0x00000038	[  5] _UDT_SetSocketID.eh
0x00027D60	0x00000040	[  5] _UDT_InitFieldMonitor.eh
0x00027DA0	0x00000038	[  5] _UDT_InitFieldRefAll.eh
0x00027DD8	0x00000038	[  5] _Java_com_barchart_udt_SocketUDT_getSignatureJNI0.eh
0x00027E10	0x00000038	[  5] _Java_com_barchart_udt_SocketUDT_testEmptyCall0.eh
0x00027E48	0x00000038	[  5] _Java_com_barchart_udt_SocketUDT_testMakeArray0.eh
0x00027E80	0x00000038	[  5] _Java_com_barchart_udt_SocketUDT_testCrashJVM0.eh
0x00027EB8	0x00000038	[  5] _UDT_InitMethodRefAll.eh
0x00027EF0	0x00000040	[  5] _X_InitMethodRef.eh
0x00027F30	0x00000038	[  5] _XXX_ThrowSocketExceptionMessage.eh
0x00027F68	0x00000040	[  5] _X_InitClassReference.eh
0x00027FA8	0x00000038	[  5] _UDT_InitClassRefAll.eh
0x00027FE0	0x00000038	[  5] _Java_com_barchart_udt_SocketUDT_clearError0.eh
0x00028018	0x00000038	[  5] _Java_com_barchart_udt_SocketUDT_getErrorCode0.eh
0x00028050	0x00000038	[  5] __ZN7JNIEnv_14CallLongMethodEP8_jobjectP10_jmethodIDz.eh
0x00028088	0x00000038	[  5] __ZN7JNIEnv_13CallIntMethodEP8_jobjectP10_jmethodIDz.eh
0x000280C0	0x00000038	[  5] __ZN7JNIEnv_17CallBooleanMethodEP8_jobjectP10_jmethodIDz.eh
0x000280F8	0x00000038	[  5] __ZN7JNIEnv_16CallObjectMethodEP8_jobjectP10_jmethodIDz.eh
0x00028130	0x00000040	[  5] _Java_com_barchart_udt_SocketUDT_testIterateSet0.eh
0x00028170	0x00000038	[  5] __ZN7JNIEnv_9NewObjectEP7_jclassP10_jmethodIDz.eh
0x000281A8	0x00000040	[  5] _UDT_NewExceptionUDT.eh
0x000281E8	0x00000038	[  5] _UDT_NewLingerUDT.eh
0x00028220	0x00000040	[  5] _X_NewInetAddress.eh
0x00028260	0x00000038	[  5] _X_NewLong.eh
0x00028298	0x00000038	[  5] _X_NewInteger.eh
0x000282D0	0x00000038	[  5] _X_NewBoolean.eh
0x00028308	0x00000040	[  5] _UDT_CopySetToArray.eh
0x00028348	0x00000040	[  5] __ZNSt8_Rb_treeIiiSt9_IdentityIiESt4lessIiESaIiEE9_M_insertEPSt18_Rb_tree_node_baseS7_RKi.eh
0x00028388	0x00000040	[  5] __ZNSt8_Rb_treeIiiSt9_IdentityIiESt4lessIiESaIiEE16_M_insert_uniqueERKi.eh
0x000283C8	0x00000040	[  5] _UDT_CopyArrayToSet.eh
0x00028408	0x00000040	[  5] _X_IsSockaddrEqualsInetSocketAddress.eh
0x00028448	0x00000040	[  5] _X_NewInetSocketAddress.eh
0x00028488	0x00000040	[  5] _X_ConvertInetSocketAddressToSockaddr.eh
0x000284C8	0x00000038	[  5] _X_InitSockAddr.eh
0x00028500	0x00000040	[  5] _X_ConvertSockaddrToInetSocketAddress.eh
0x00028540	0x00000040	[  5] _Java_com_barchart_udt_SocketUDT_testGetSetArray0.eh
0x00028580	0x00000040	[  5] _Java_com_barchart_udt_SocketUDT_testFillArray0.eh
0x000285C0	0x00000040	[  5] _Java_com_barchart_udt_SocketUDT_testIterateArray0.eh
0x00028600	0x00000040	[  5] _Java_com_barchart_udt_SocketUDT_testFillBuffer0.eh
0x00028640	0x00000040	[  5] _Java_com_barchart_udt_SocketUDT_testDirectIntBufferAccess0.eh
0x00028680	0x00000040	[  5] _Java_com_barchart_udt_SocketUDT_testDirectByteBufferAccess0.eh
0x000286C0	0x00000038	[  5] _Java_com_barchart_udt_SocketUDT_getErrorMessage0.eh
0x000286F8	0x00000040	[  5] __ZNSt6vectorIiSaIiEE13_M_insert_auxEN9__gnu_cxx17__normal_iteratorIPiS1_EERKi.eh
0x00028738	0x00000040	[  5] __ZNSt8_Rb_treeIiiSt9_IdentityIiESt4lessIiESaIiEE8_M_eraseEPSt13_Rb_tree_nodeIiE.eh
0x00028778	0x00000038	[  5] _UDT_IsSocketOpen.eh
0x000287B0	0x00000040	[  5] _Java_com_barchart_udt_SocketUDT_hasLoadedLocalSocketAddress.eh
0x000287F0	0x00000040	[  5] _Java_com_barchart_udt_SocketUDT_hasLoadedRemoteSocketAddress.eh
0x00028830	0x00000038	[  5] _Java_com_barchart_udt_SocketUDT_isOpen0.eh
0x00028868	0x00000040	[  5] _UDT_ThrowExceptionUDT_ErrorInfo.eh
0x000288A8	0x00000040	[  5] _Java_com_barchart_udt_SocketUDT_testInvalidClose0.eh
0x000288E8	0x00000040	[  5] _Java_com_barchart_udt_SocketUDT_select1.eh
0x00028928	0x00000040	[  5] _Java_com_barchart_udt_SocketUDT_updateMonitor0.eh
0x00028968	0x00000040	[  5] _UDT_ReturnSendError.eh
0x000289A8	0x00000040	[  5] _UDT_ReturnReceiveError.eh
0x000289E8	0x00000040	[  5] _Java_com_barchart_udt_SocketUDT_listen0.eh
0x00028A28	0x00000040	[  5] _Java_com_barchart_udt_SocketUDT_accept0.eh
0x00028A68	0x00000040	[  5] _Java_com_barchart_udt_SocketUDT_initInstance1.eh
0x00028AA8	0x00000040	[  5] _Java_com_barchart_udt_SocketUDT_initInstance0.eh
0x00028AE8	0x00000040	[  5] _Java_com_barchart_udt_SocketUDT_stopClass0.eh
0x00028B28	0x00000040	[  5] _Java_com_barchart_udt_SocketUDT_initClass0.eh
0x00028B68	0x00000040	[  5] _UDT_ThrowExceptionUDT_Message.eh
0x00028BA8	0x00000040	[  5] _Java_com_barchart_udt_SocketUDT_select0.eh
0x00028BE8	0x00000040	[  5] _Java_com_barchart_udt_SocketUDT_send0.eh
0x00028C28	0x00000040	[  5] _Java_com_barchart_udt_SocketUDT_receive0.eh
0x00028C68	0x00000038	[  5] _X_IsValidRange.eh
0x00028CA0	0x00000040	[  5] _Java_com_barchart_udt_SocketUDT_setOption0.eh
0x00028CE0	0x00000040	[  5] _Java_com_barchart_udt_SocketUDT_getOption0.eh
0x00028D20	0x00000040	[  5] _Java_com_barchart_udt_SocketUDT_connect0.eh
0x00028D60	0x00000040	[  5] _Java_com_barchart_udt_SocketUDT_close0.eh
0x00028DA0	0x00000040	[  5] _Java_com_barchart_udt_SocketUDT_bind0.eh
0x00028DE0	0x00000040	[  5] _Java_com_barchart_udt_SocketUDT_send2.eh
0x00028E20	0x00000040	[  5] _Java_com_barchart_udt_SocketUDT_send1.eh
0x00028E60	0x00000040	[  5] _Java_com_barchart_udt_SocketUDT_receive2.eh
0x00028EA0	0x00000040	[  5] _Java_com_barchart_udt_SocketUDT_receive1.eh
0x00028EE0	0x00000040	[  5] _Java_com_barchart_udt_SocketUDT_selectEx1.eh
0x00028F20	0x00000040	[  5] _Java_com_barchart_udt_SocketUDT_selectEx0.eh
0x00028F60	0x00000020	[  6] CIE
0x00028F80	0x00000038	[  6] __ZN10CUDTUnited10TLSDestroyEPv.eh
0x00028FB8	0x00000040	[  6] __ZN10CUDTUnited6locateEi.eh
0x00028FF8	0x00000040	[  6] __ZNSt8_Rb_treeIiSt4pairIKiP10CUDTSocketESt10_Select1stIS4_ESt4lessIiESaIS4_EE9_M_insertEPSt18_Rb_tree_node_baseSC_RKS4_.eh
0x00029038	0x00000040	[  6] __ZN10CUDTUnited9updateMuxEP4CUDTPK10CUDTSocket.eh
0x00029078	0x00000040	[  6] __ZNSt6vectorI12CMultiplexerSaIS0_EE13_M_insert_auxEN9__gnu_cxx17__normal_iteratorIPS0_S2_EERKS0_.eh
0x000290B8	0x00000040	[  6] __ZN10CUDTUnited9updateMuxEP4CUDTPK8sockaddrPKi.eh
0x000290F8	0x00000040	[  6] __ZN10CUDTUnited8getErrorEv.eh
0x00029138	0x00000038	[  6] __ZN4CUDT12getlasterrorEv.eh
0x00029170	0x00000040	[  6] __ZN10CUDTUnited8setErrorEP13CUDTException.eh
0x000291B0	0x00000040	[  6] __ZN10CUDTUnited11getsocknameEiP8sockaddrPi.eh
0x000291F0	0x00000040	[  6] __ZN10CUDTUnited4bindEiPK8sockaddrRKi.eh
0x00029230	0x00000040	[  6] __ZN10CUDTUnited7connectEiPK8sockaddrRKi.eh
0x00029270	0x00000040	[  6] __ZN10CUDTUnited4bindEii.eh
0x000292B0	0x00000040	[  6] __ZN10CUDTUnited7cleanupEv.eh
0x000292F0	0x00000038	[  6] __ZN4CUDT7cleanupEv.eh
0x00029328	0x00000038	[  6] __ZN10CUDTSocketC1Ev.eh
0x00029360	0x00000038	[  6] __ZN10CUDTSocketC2Ev.eh
0x00029398	0x00000040	[  6] __ZN10CUDTUnited7startupEv.eh
0x000293D8	0x00000038	[  6] __ZN4CUDT7startupEv.eh
0x00029410	0x00000040	[  6] __ZNSt8_Rb_treeIiSt4pairIKiP10CUDTSocketESt10_Select1stIS4_ESt4lessIiESaIS4_EE16_M_insert_uniqueERKS4_.eh
0x00029450	0x00000040	[  6] __ZNSt6vectorIP10CUDTSocketSaIS1_EE13_M_insert_auxEN9__gnu_cxx17__normal_iteratorIPS1_S3_EERKS1_.eh
0x00029490	0x00000040	[  6] __ZNSt8_Rb_treeIiSt4pairIKiP10CUDTSocketESt10_Select1stIS4_ESt4lessIiESaIS4_EE16_M_insert_uniqueESt17_Rb_tree_iteratorIS4_ERKS4_.eh
0x000294D0	0x00000038	[  6] __ZN3UDT7startupEv.eh
0x00029508	0x00000038	[  6] __ZN3UDT7cleanupEv.eh
0x00029540	0x00000038	[  6] __ZN3UDT12getlasterrorEv.eh
0x00029578	0x00000040	[  6] __ZN10CUDTUnited6lookupEi.eh
0x000295B8	0x00000038	[  6] __ZN4CUDT12getUDTHandleEi.eh
0x000295F0	0x00000040	[  6] __ZN10CUDTUnited9getStatusEi.eh
0x00029630	0x00000040	[  6] __ZN10CUDTUnited11getpeernameEiP8sockaddrPi.eh
0x00029670	0x00000040	[  6] __ZN10CUDTUnited6locateEiPK8sockaddrRKiS4_.eh
0x000296B0	0x00000040	[  6] __ZN10CUDTUnited8selectExERKSt6vectorIiSaIiEEPS2_S5_S5_x.eh
0x000296F0	0x00000040	[  6] __ZNSt8_Rb_treeIiSt4pairIKiP10CUDTSocketESt10_Select1stIS4_ESt4lessIiESaIS4_EE8_M_eraseEPSt13_Rb_tree_nodeIS4_E.eh
0x00029730	0x00000040	[  6] __ZNSt8_Rb_treeIiSt4pairIKiP10CUDTSocketESt10_Select1stIS4_ESt4lessIiESaIS4_EE5eraseERS1_.eh
0x00029770	0x00000040	[  6] __ZN10CUDTUnitedC2Ev.eh
0x000297B0	0x00000038	[  6] __ZN10CUDTUnitedC1Ev.eh
0x000297E8	0x00000040	[  6] __ZNSt8_Rb_treeIiiSt9_IdentityIiESt4lessIiESaIiEE5eraseERKi.eh
0x00029828	0x00000040	[  6] __ZN10CUDTUnited6listenEiRKi.eh
0x00029868	0x00000040	[  6] __ZN10CUDTSocketD2Ev.eh
0x000298A8	0x00000038	[  6] __ZN10CUDTSocketD1Ev.eh
0x000298E0	0x00000040	[  6] __ZN10CUDTUnitedD2Ev.eh
0x00029920	0x00000038	[  6] __ZN10CUDTUnitedD1Ev.eh
0x00029958	0x00000040	[  6] __ZNSt8_Rb_treeIiiSt9_IdentityIiESt4lessIiESaIiEE7_M_copyEPKSt13_Rb_tree_nodeIiEPS7_.eh
0x00029998	0x00000040	[  6] __ZN10CUDTUnited9newSocketERKiS1_.eh
0x000299D8	0x00000040	[  6] __ZN10CUDTUnited5closeEi.eh
0x00029A18	0x00000040	[  6] __ZN10CUDTUnited13newConnectionEiPK8sockaddrP10CHandShake.eh
0x00029A58	0x00000040	[  6] __ZN10CUDTUnited12removeSocketEi.eh
0x00029A98	0x00000040	[  6] __ZN10CUDTUnited18checkBrokenSocketsEv.eh
0x00029AD8	0x00000040	[  6] __ZN10CUDTUnited14garbageCollectEPv.eh
0x00029B18	0x00000040	[  6] __ZN10CUDTUnited6selectEPSt3setIiSt4lessIiESaIiEES5_S5_PK7timeval.eh
0x00029B58	0x00000040	[  6] __ZNSt8_Rb_treeIiiSt9_IdentityIiESt4lessIiESaIiEE16_M_insert_uniqueESt23_Rb_tree_const_iteratorIiERKi.eh
0x00029B98	0x00000040	[  6] __ZN10CUDTUnited6acceptEiP8sockaddrPi.eh
0x00029BD8	0x00000040	[  6] __ZN4CUDT7perfmonEiP8CPerfMonb.eh
0x00029C18	0x00000038	[  6] __ZN3UDT7perfmonEiP8CPerfMonb.eh
0x00029C50	0x00000040	[  6] __ZN4CUDT8selectExERKSt6vectorIiSaIiEEPS2_S5_S5_x.eh
0x00029C90	0x00000038	[  6] __ZN3UDT8selectExERKSt6vectorIiSaIiEEPS2_S5_S5_x.eh
0x00029CC8	0x00000040	[  6] __ZN4CUDT6selectEiPSt3setIiSt4lessIiESaIiEES5_S5_PK7timeval.eh
0x00029D08	0x00000038	[  6] __ZN3UDT6selectEiPSt3setIiSt4lessIiESaIiEES5_S5_PK7timeval.eh
0x00029D40	0x00000040	[  6] __ZN4CUDT8recvfileEiRSt13basic_fstreamIcSt11char_traitsIcEERKxS6_RKi.eh
0x00029D80	0x00000038	[  6] __ZN3UDT8recvfileEiRSt13basic_fstreamIcSt11char_traitsIcEExxi.eh
0x00029DB8	0x00000040	[  6] __ZN4CUDT8sendfileEiRSt13basic_fstreamIcSt11char_traitsIcEERKxS6_RKi.eh
0x00029DF8	0x00000038	[  6] __ZN3UDT8sendfileEiRSt13basic_fstreamIcSt11char_traitsIcEExxi.eh
0x00029E30	0x00000040	[  6] __ZN4CUDT7recvmsgEiPci.eh
0x00029E70	0x00000038	[  6] __ZN3UDT7recvmsgEiPci.eh
0x00029EA8	0x00000040	[  6] __ZN4CUDT7sendmsgEiPKciib.eh
0x00029EE8	0x00000038	[  6] __ZN3UDT7sendmsgEiPKciib.eh
0x00029F20	0x00000040	[  6] __ZN4CUDT4recvEiPcii.eh
0x00029F60	0x00000038	[  6] __ZN3UDT4recvEiPcii.eh
0x00029F98	0x00000040	[  6] __ZN4CUDT4sendEiPKcii.eh
0x00029FD8	0x00000038	[  6] __ZN3UDT4sendEiPKcii.eh
0x0002A010	0x00000040	[  6] __ZN4CUDT10setsockoptEii6UDTOptPKvi.eh
0x0002A050	0x00000038	[  6] __ZN3UDT10setsockoptEii6UDTOptPKvi.eh
0x0002A088	0x00000040	[  6] __ZN4CUDT10getsockoptEii6UDTOptPvPi.eh
0x0002A0C8	0x00000038	[  6] __ZN3UDT10getsockoptEii6UDTOptPvPi.eh
0x0002A100	0x00000040	[  6] __ZN4CUDT11getsocknameEiP8sockaddrPi.eh
0x0002A140	0x00000038	[  6] __ZN3UDT11getsocknameEiP8sockaddrPi.eh
0x0002A178	0x00000040	[  6] __ZN4CUDT11getpeernameEiP8sockaddrPi.eh
0x0002A1B8	0x00000038	[  6] __ZN3UDT11getpeernameEiP8sockaddrPi.eh
0x0002A1F0	0x00000040	[  6] __ZN4CUDT5closeEi.eh
0x0002A230	0x00000038	[  6] __ZN3UDT5closeEi.eh
0x0002A268	0x00000040	[  6] __ZN4CUDT7connectEiPK8sockaddri.eh
0x0002A2A8	0x00000038	[  6] __ZN3UDT7connectEiPK8sockaddri.eh
0x0002A2E0	0x00000040	[  6] __ZN4CUDT6acceptEiP8sockaddrPi.eh
0x0002A320	0x00000038	[  6] __ZN3UDT6acceptEiP8sockaddrPi.eh
0x0002A358	0x00000040	[  6] __ZN4CUDT6listenEii.eh
0x0002A398	0x00000038	[  6] __ZN3UDT6listenEii.eh
0x0002A3D0	0x00000040	[  6] __ZN4CUDT4bindEii.eh
0x0002A410	0x00000038	[  6] __ZN3UDT4bindEii.eh
0x0002A448	0x00000040	[  6] __ZN4CUDT4bindEiPK8sockaddri.eh
0x0002A488	0x00000038	[  6] __ZN3UDT4bindEiPK8sockaddri.eh
0x0002A4C0	0x00000040	[  6] __ZN4CUDT6socketEiii.eh
0x0002A500	0x00000038	[  6] __ZN3UDT6socketEiii.eh
0x0002A538	0x00000020	[  7] CIE
0x0002A558	0x00000030	[  7] __ZN3CCC4initEv.eh
0x0002A588	0x00000030	[  7] __ZN3CCC5closeEv.eh
0x0002A5B8	0x00000030	[  7] __ZN3CCC5onACKERKi.eh
0x0002A5E8	0x00000030	[  7] __ZN3CCC6onLossEPKiRS0_.eh
0x0002A618	0x00000030	[  7] __ZN3CCC9onTimeoutEv.eh
0x0002A648	0x00000030	[  7] __ZN3CCC9onPktSentEPK7CPacket.eh
0x0002A678	0x00000030	[  7] __ZN3CCC13onPktReceivedEPK7CPacket.eh
0x0002A6A8	0x00000030	[  7] __ZN3CCC16processCustomMsgEPK7CPacket.eh
0x0002A6D8	0x00000030	[  7] __ZN3CCCC2Ev.eh
0x0002A708	0x00000030	[  7] __ZN3CCCC1Ev.eh
0x0002A738	0x00000030	[  7] __ZN3CCC11setACKTimerERKi.eh
0x0002A768	0x00000030	[  7] __ZN3CCC14setACKIntervalERKi.eh
0x0002A798	0x00000030	[  7] __ZN3CCC6setRTOERKi.eh
0x0002A7C8	0x00000030	[  7] __ZN3CCC6setMSSERKi.eh
0x0002A7F8	0x00000030	[  7] __ZN3CCC12setBandwidthERKi.eh
0x0002A828	0x00000030	[  7] __ZN3CCC15setSndCurrSeqNoERKi.eh
0x0002A858	0x00000030	[  7] __ZN3CCC10setRcvRateERKi.eh
0x0002A888	0x00000030	[  7] __ZN3CCC14setMaxCWndSizeERKi.eh
0x0002A8B8	0x00000030	[  7] __ZN3CCC6setRTTERKi.eh
0x0002A8E8	0x00000030	[  7] __ZN6CUDTCC9onTimeoutEv.eh
0x0002A918	0x00000030	[  7] __ZN6CUDTCC6onLossEPKiRS0_.eh
0x0002A948	0x00000038	[  7] __ZN6CUDTCC5onACKERKi.eh
0x0002A980	0x00000030	[  7] __ZN3CCCD0Ev.eh
0x0002A9B0	0x00000030	[  7] __ZN3CCCD1Ev.eh
0x0002A9E0	0x00000030	[  7] __ZN3CCCD2Ev.eh
0x0002AA10	0x00000038	[  7] __ZN3CCC12setUserParamEPKcRKi.eh
0x0002AA48	0x00000038	[  7] __ZN3CCC11getPerfInfoEv.eh
0x0002AA80	0x00000030	[  7] __ZNK3CCC13sendCustomMsgER7CPacket.eh
0x0002AAB0	0x00000030	[  7] __ZN6CUDTCC4initEv.eh
0x0002AAE0	0x00000038	[  7] __ZN6CUDTCCC1Ev.eh
0x0002AB18	0x00000038	[  7] __ZN6CUDTCCC2Ev.eh
0x0002AB50	0x00000030	[  7] __ZN6CUDTCCD0Ev.eh
0x0002AB80	0x00000030	[  7] __ZN6CUDTCCD1Ev.eh
0x0002ABB0	0x00000020	[  8] CIE
0x0002ABD0	0x00000038	[  8] __ZN10CSndBuffer8readDataEPPcRi.eh
0x0002AC08	0x00000038	[  8] __ZNK10CSndBuffer14getCurrBufSizeEv.eh
0x0002AC40	0x00000038	[  8] __ZN10CRcvBuffer7addDataEP5CUniti.eh
0x0002AC78	0x00000038	[  8] __ZNK10CRcvBuffer14getRcvDataSizeEv.eh
0x0002ACB0	0x00000038	[  8] __ZN10CRcvBuffer7dropMsgERKi.eh
0x0002ACE8	0x00000040	[  8] __ZN10CRcvBuffer7scanMsgERiS0_Rb.eh
0x0002AD28	0x00000038	[  8] __ZN10CRcvBuffer12getRcvMsgNumEv.eh
0x0002AD60	0x00000040	[  8] __ZN10CRcvBuffer16readBufferToFileERSt13basic_fstreamIcSt11char_traitsIcEERKi.eh
0x0002ADA0	0x00000040	[  8] __ZN10CRcvBuffer7readMsgEPcRKi.eh
0x0002ADE0	0x00000040	[  8] __ZN10CRcvBuffer10readBufferEPcRKi.eh
0x0002AE20	0x00000038	[  8] __ZN10CRcvBuffer7ackDataERKi.eh
0x0002AE58	0x00000038	[  8] __ZN10CRcvBufferD1Ev.eh
0x0002AE90	0x00000038	[  8] __ZN10CRcvBufferD2Ev.eh
0x0002AEC8	0x00000038	[  8] __ZN10CRcvBufferC1ERKiP10CUnitQueue.eh
0x0002AF00	0x00000038	[  8] __ZN10CRcvBufferC2ERKiP10CUnitQueue.eh
0x0002AF38	0x00000038	[  8] __ZN10CRcvBufferC1EP10CUnitQueue.eh
0x0002AF70	0x00000038	[  8] __ZN10CRcvBufferC2EP10CUnitQueue.eh
0x0002AFA8	0x00000040	[  8] __ZN10CSndBuffer8increaseEv.eh
0x0002AFE8	0x00000040	[  8] __ZN10CSndBuffer7ackDataERKi.eh
0x0002B028	0x00000040	[  8] __ZN10CSndBuffer8readDataEPPciRiS2_.eh
0x0002B068	0x00000040	[  8] __ZN10CSndBuffer17addBufferFromFileERSt13basic_fstreamIcSt11char_traitsIcEERKi.eh
0x0002B0A8	0x00000040	[  8] __ZN10CSndBuffer9addBufferEPKcRKiS3_RKb.eh
0x0002B0E8	0x00000040	[  8] __ZN10CSndBufferD2Ev.eh
0x0002B128	0x00000038	[  8] __ZN10CSndBufferD1Ev.eh
0x0002B160	0x00000040	[  8] __ZN10CSndBufferC2ERKiS1_.eh
0x0002B1A0	0x00000038	[  8] __ZN10CSndBufferC1ERKiS1_.eh
0x0002B1D8	0x00000038	[  8] __ZNK10CRcvBuffer15getAvailBufSizeEv.eh
0x0002B210	0x00000020	[  9] CIE
0x0002B230	0x00000030	[  9] __ZNK14CPktTimeWindow15getMinPktSndIntEv.eh
0x0002B260	0x00000030	[  9] __ZN14CPktTimeWindow9onPktSentERKi.eh
0x0002B290	0x00000030	[  9] __ZN14CPktTimeWindow13probe2ArrivalEv.eh
0x0002B2C0	0x00000030	[  9] __ZN14CPktTimeWindow13probe1ArrivalEv.eh
0x0002B2F0	0x00000030	[  9] __ZN14CPktTimeWindow12onPktArrivalEv.eh
0x0002B320	0x00000038	[  9] __ZN10CACKWindow11acknowledgeERKiRi.eh
0x0002B358	0x00000038	[  9] __ZN10CACKWindow5storeERKiS1_.eh
0x0002B390	0x00000030	[  9] __ZNK14CPktTimeWindow12getBandwidthEv.eh
0x0002B3C0	0x00000038	[  9] __ZNK14CPktTimeWindow14getPktRcvSpeedEv.eh
0x0002B3F8	0x00000030	[  9] __ZN14CPktTimeWindowD1Ev.eh
0x0002B428	0x00000030	[  9] __ZN14CPktTimeWindowD2Ev.eh
0x0002B458	0x00000030	[  9] __ZN10CACKWindowD1Ev.eh
0x0002B488	0x00000030	[  9] __ZN10CACKWindowD2Ev.eh
0x0002B4B8	0x00000030	[  9] __ZN14CPktTimeWindowC1ERKiS1_.eh
0x0002B4E8	0x00000030	[  9] __ZN14CPktTimeWindowC2ERKiS1_.eh
0x0002B518	0x00000030	[  9] __ZN14CPktTimeWindowC1Ev.eh
0x0002B548	0x00000030	[  9] __ZN14CPktTimeWindowC2Ev.eh
0x0002B578	0x00000030	[  9] __ZN10CACKWindowC1ERKi.eh
0x0002B5A8	0x00000030	[  9] __ZN10CACKWindowC2ERKi.eh
0x0002B5D8	0x00000030	[  9] __ZN10CACKWindowC1Ev.eh
0x0002B608	0x00000030	[  9] __ZN10CACKWindowC2Ev.eh
0x0002B638	0x00000020	[ 10] CIE
0x0002B658	0x00000030	[ 10] _md5_init.eh
0x0002B688	0x00000038	[ 10] __ZL11md5_processP11md5_state_sPKh.eh
0x0002B6C0	0x00000038	[ 10] _md5_append.eh
0x0002B6F8	0x00000038	[ 10] _md5_finish.eh
0x0002B730	0x00000020	[ 11] CIE
0x0002B750	0x00000030	[ 11] __ZNK12CRcvLossList13getLossLengthEv.eh
0x0002B780	0x00000030	[ 11] __ZNK12CRcvLossList15getFirstLostSeqEv.eh
0x0002B7B0	0x00000038	[ 11] __ZN12CRcvLossList12getLossArrayEPiRiRKiS3_.eh
0x0002B7E8	0x00000038	[ 11] __ZN12CRcvLossList6removeERKi.eh
0x0002B820	0x00000038	[ 11] __ZN12CRcvLossList6removeERKiS1_.eh
0x0002B858	0x00000030	[ 11] __ZN12CRcvLossListD1Ev.eh
0x0002B888	0x00000030	[ 11] __ZN12CRcvLossListD2Ev.eh
0x0002B8B8	0x00000038	[ 11] __ZN12CRcvLossListC2ERKi.eh
0x0002B8F0	0x00000030	[ 11] __ZN12CRcvLossListC1ERKi.eh
0x0002B920	0x00000038	[ 11] __ZN12CSndLossList13getLossLengthEv.eh
0x0002B958	0x00000030	[ 11] __ZN12CSndLossListD1Ev.eh
0x0002B988	0x00000030	[ 11] __ZN12CSndLossListD2Ev.eh
0x0002B9B8	0x00000038	[ 11] __ZN12CSndLossListC2ERKi.eh
0x0002B9F0	0x00000030	[ 11] __ZN12CSndLossListC1ERKi.eh
0x0002BA20	0x00000038	[ 11] __ZNK12CRcvLossList4findERKiS1_.eh
0x0002BA58	0x00000038	[ 11] __ZN12CSndLossList6removeERKi.eh
0x0002BA90	0x00000038	[ 11] __ZN12CSndLossList10getLostSeqEv.eh
0x0002BAC8	0x00000038	[ 11] __ZN12CSndLossList6insertERKiS1_.eh
0x0002BB00	0x00000038	[ 11] __ZN12CRcvLossList6insertERKiS1_.eh
0x0002BB38	0x00000020	[ 12] CIE
0x0002BB58	0x00000038	[ 12] __ZNK7CIPCompclEPK10CInfoBlockS2_.eh
0x0002BB90	0x00000038	[ 12] __ZNK7CTSCompclEPK10CInfoBlockS2_.eh
0x0002BBC8	0x00000038	[ 12] __ZN6CCache7convertEPK8sockaddrRKiPj.eh
0x0002BC00	0x00000040	[ 12] __ZNSt8_Rb_treeIP10CInfoBlockS1_St9_IdentityIS1_E7CIPCompSaIS1_EE9_M_insertEPSt18_Rb_tree_node_baseS8_RKS1_.eh
0x0002BC40	0x00000040	[ 12] __ZNSt8_Rb_treeIP10CInfoBlockS1_St9_IdentityIS1_E7CIPCompSaIS1_EE16_M_insert_uniqueERKS1_.eh
0x0002BC80	0x00000040	[ 12] __ZNSt8_Rb_treeIP10CInfoBlockS1_St9_IdentityIS1_E7CTSCompSaIS1_EE9_M_insertEPSt18_Rb_tree_node_baseS8_RKS1_.eh
0x0002BCC0	0x00000040	[ 12] __ZNSt8_Rb_treeIP10CInfoBlockS1_St9_IdentityIS1_E7CTSCompSaIS1_EE16_M_insert_uniqueERKS1_.eh
0x0002BD00	0x00000040	[ 12] __ZN6CCache6lookupEPK8sockaddrRKiP10CInfoBlock.eh
0x0002BD40	0x00000040	[ 12] __ZNSt8_Rb_treeIP10CInfoBlockS1_St9_IdentityIS1_E7CIPCompSaIS1_EE8_M_eraseEPSt13_Rb_tree_nodeIS1_E.eh
0x0002BD80	0x00000040	[ 12] __ZNSt8_Rb_treeIP10CInfoBlockS1_St9_IdentityIS1_E7CIPCompSaIS1_EE5eraseERKS1_.eh
0x0002BDC0	0x00000040	[ 12] __ZNSt8_Rb_treeIP10CInfoBlockS1_St9_IdentityIS1_E7CTSCompSaIS1_EE8_M_eraseEPSt13_Rb_tree_nodeIS1_E.eh
0x0002BE00	0x00000040	[ 12] __ZN6CCacheC2Ev.eh
0x0002BE40	0x00000038	[ 12] __ZN6CCacheC1Ev.eh
0x0002BE78	0x00000040	[ 12] __ZN6CCacheC2ERKj.eh
0x0002BEB8	0x00000038	[ 12] __ZN6CCacheC1ERKj.eh
0x0002BEF0	0x00000040	[ 12] __ZN6CCacheD2Ev.eh
0x0002BF30	0x00000038	[ 12] __ZN6CCacheD1Ev.eh
0x0002BF68	0x00000040	[ 12] __ZNSt8_Rb_treeIP10CInfoBlockS1_St9_IdentityIS1_E7CTSCompSaIS1_EE5eraseERKS1_.eh
0x0002BFA8	0x00000040	[ 12] __ZN6CCache6updateEPK8sockaddrRKiP10CInfoBlock.eh
0x0002BFE8	0x00000020	[ 13] CIE
0x0002C008	0x00000038	[ 13] __ZN10CUnitQueueC2Ev.eh
0x0002C040	0x00000038	[ 13] __ZN10CUnitQueueC1Ev.eh
0x0002C078	0x00000038	[ 13] __ZN10CUnitQueue6shrinkEv.eh
0x0002C0B0	0x00000040	[ 13] __ZN9CSndUList7remove_EPK4CUDT.eh
0x0002C0F0	0x00000038	[ 13] __ZN9CRcvUListC2Ev.eh
0x0002C128	0x00000038	[ 13] __ZN9CRcvUListC1Ev.eh
0x0002C160	0x00000038	[ 13] __ZN9CRcvUListD2Ev.eh
0x0002C198	0x00000038	[ 13] __ZN9CRcvUListD1Ev.eh
0x0002C1D0	0x00000038	[ 13] __ZN9CRcvUList6removeEPK4CUDT.eh
0x0002C208	0x00000038	[ 13] __ZN5CHashC2Ev.eh
0x0002C240	0x00000038	[ 13] __ZN5CHashC1Ev.eh
0x0002C278	0x00000038	[ 13] __ZN5CHash6lookupERKi.eh
0x0002C2B0	0x00000038	[ 13] __ZN9CRcvQueue10ifNewEntryEv.eh
0x0002C2E8	0x00000038	[ 13] __ZN5CHash6removeERKi.eh
0x0002C320	0x00000040	[ 13] __ZN5CHashD1Ev.eh
0x0002C360	0x00000040	[ 13] __ZN5CHashD2Ev.eh
0x0002C3A0	0x00000040	[ 13] __ZN10CUnitQueueD1Ev.eh
0x0002C3E0	0x00000040	[ 13] __ZN10CUnitQueueD2Ev.eh
0x0002C420	0x00000038	[ 13] __ZN9CSndUList7insert_ERKxPK4CUDT.eh
0x0002C458	0x00000040	[ 13] __ZNSt8_Rb_treeIiSt4pairIKiP7CPacketESt10_Select1stIS4_ESt4lessIiESaIS4_EE9_M_insertEPSt18_Rb_tree_node_baseSC_RKS4_.eh
0x0002C498	0x00000040	[ 13] __ZNSt8_Rb_treeIiSt4pairIKiP7CPacketESt10_Select1stIS4_ESt4lessIiESaIS4_EE16_M_insert_uniqueERKS4_.eh
0x0002C4D8	0x00000040	[ 13] __ZN5CHash6insertERKiPK4CUDT.eh
0x0002C518	0x00000040	[ 13] __ZN9CRcvQueue14removeListenerEPK4CUDT.eh
0x0002C558	0x00000040	[ 13] __ZN9CRcvQueue11setListenerEPK4CUDT.eh
0x0002C598	0x00000040	[ 13] __ZN9CSndUList15getNextProcTimeEv.eh
0x0002C5D8	0x00000040	[ 13] __ZNSt6vectorIN16CRendezvousQueue3CRLESaIS1_EE13_M_insert_auxEN9__gnu_cxx17__normal_iteratorIPS1_S3_EERKS1_.eh
0x0002C618	0x00000040	[ 13] __ZN16CRendezvousQueue6insertERKiS1_PK8sockaddr.eh
0x0002C658	0x00000040	[ 13] __ZN5CHash4initERKi.eh
0x0002C698	0x00000040	[ 13] __ZN9CSndUList6insertERKxPK4CUDT.eh
0x0002C6D8	0x00000040	[ 13] __ZN10CUnitQueue8increaseEv.eh
0x0002C718	0x00000038	[ 13] __ZN10CUnitQueue16getNextAvailUnitEv.eh
0x0002C750	0x00000040	[ 13] __ZN10CUnitQueue4initERKiS1_S1_.eh
0x0002C790	0x00000040	[ 13] __ZN16CRendezvousQueue8retrieveEPK8sockaddrRi.eh
0x0002C7D0	0x00000040	[ 13] __ZN9CRcvUList6updateEPK4CUDT.eh
0x0002C810	0x00000040	[ 13] __ZN9CRcvUList6insertEPK4CUDT.eh
0x0002C850	0x00000038	[ 13] __ZN9CSndUListD1Ev.eh
0x0002C888	0x00000038	[ 13] __ZN9CSndUListD2Ev.eh
0x0002C8C0	0x00000038	[ 13] __ZN9CSndUListC1Ev.eh
0x0002C8F8	0x00000038	[ 13] __ZN9CSndUListC2Ev.eh
0x0002C930	0x00000038	[ 13] __ZN9CSndQueueC1Ev.eh
0x0002C968	0x00000038	[ 13] __ZN9CSndQueueC2Ev.eh
0x0002C9A0	0x00000038	[ 13] __ZN9CSndQueue6sendtoEPK8sockaddrR7CPacket.eh
0x0002C9D8	0x00000040	[ 13] __ZN16CRendezvousQueue6removeERKi.eh
0x0002CA18	0x00000040	[ 13] __ZNSt8_Rb_treeIiSt4pairIKiP7CPacketESt10_Select1stIS4_ESt4lessIiESaIS4_EE16_M_insert_uniqueESt17_Rb_tree_iteratorIS4_ERKS4_.eh
0x0002CA58	0x00000040	[ 13] __ZN9CRcvQueue8storePktERKiP7CPacket.eh
0x0002CA98	0x00000040	[ 13] __ZN9CRcvQueue8recvfromERKiR7CPacket.eh
0x0002CAD8	0x00000040	[ 13] __ZNSt6vectorIP4CUDTSaIS1_EE13_M_insert_auxEN9__gnu_cxx17__normal_iteratorIPS1_S3_EERKS1_.eh
0x0002CB18	0x00000040	[ 13] __ZN9CRcvQueue11setNewEntryEP4CUDT.eh
0x0002CB58	0x00000040	[ 13] __ZN9CRcvQueue11getNewEntryEv.eh
0x0002CB98	0x00000040	[ 13] __ZNSt8_Rb_treeIiSt4pairIKiP7CPacketESt10_Select1stIS4_ESt4lessIiESaIS4_EE8_M_eraseEPSt13_Rb_tree_nodeIS4_E.eh
0x0002CBD8	0x00000040	[ 13] __ZN9CSndQueueD2Ev.eh
0x0002CC18	0x00000038	[ 13] __ZN9CSndQueueD1Ev.eh
0x0002CC50	0x00000040	[ 13] __ZN9CRcvQueue6workerEPv.eh
0x0002CC90	0x00000040	[ 13] __ZN9CSndQueue4initEPK8CChannelPK6CTimer.eh
0x0002CCD0	0x00000040	[ 13] __ZN16CRendezvousQueueC1Ev.eh
0x0002CD10	0x00000040	[ 13] __ZN16CRendezvousQueueC2Ev.eh
0x0002CD50	0x00000040	[ 13] __ZN9CRcvQueue4initERKiS1_S1_S1_PK8CChannelPK6CTimer.eh
0x0002CD90	0x00000040	[ 13] __ZN16CRendezvousQueueD2Ev.eh
0x0002CDD0	0x00000038	[ 13] __ZN16CRendezvousQueueD1Ev.eh
0x0002CE08	0x00000040	[ 13] __ZN9CSndUList3popERP8sockaddrR7CPacket.eh
0x0002CE48	0x00000040	[ 13] __ZN9CSndQueue6workerEPv.eh
0x0002CE88	0x00000040	[ 13] __ZN9CSndUList6updateEPK4CUDTRKb.eh
0x0002CEC8	0x00000040	[ 13] __ZN9CSndUList6removeEPK4CUDT.eh
0x0002CF08	0x00000040	[ 13] __ZN9CRcvQueueC2Ev.eh
0x0002CF48	0x00000038	[ 13] __ZN9CRcvQueueC1Ev.eh
0x0002CF80	0x00000040	[ 13] __ZN9CRcvQueueD2Ev.eh
0x0002CFC0	0x00000038	[ 13] __ZN9CRcvQueueD1Ev.eh
0x0002D000	0x00000008	[  0] ___gxx_personality_v0$non_lazy_pointer
0x0002D008	0x00000008	[  0] dyld_stub_binder$non_lazy_pointer
0x0002D010	0x00000008	[  0] none
0x0002D018	0x00000008	[  0] __ZN10CUDTUnited10TLSDestroyEPv$non_lazy_pointer
0x0002D020	0x00000008	[  0] __ZTI13CUDTException$non_lazy_pointer
0x0002D028	0x00000008	[  0] __ZN13CUDTExceptionD1Ev$non_lazy_pointer
0x0002D030	0x00000008	[  0] __ZN7CPacket13m_iPktHdrSizeE$non_lazy_pointer
0x0002D038	0x00000008	[  0] ___stack_chk_guard$non_lazy_pointer
0x0002D040	0x00000008	[  0] __ZTV10CCCFactoryI6CUDTCCE$non_lazy_pointer
0x0002D048	0x00000008	[  0] __ZTV17CCCVirtualFactory$non_lazy_pointer
0x0002D050	0x00000008	[  0] __ZNSs4_Rep20_S_empty_rep_storageE$non_lazy_pointer
0x0002D058	0x00000008	[  0] __ZN3UDT5ERRORE$non_lazy_pointer
0x0002D060	0x00000008	[  0] __ZN13CUDTException9EASYNCSNDE$non_lazy_pointer
0x0002D068	0x00000008	[  0] __ZN13CUDTException9EASYNCRCVE$non_lazy_pointer
0x0002D070	0x00000008	[  0] __ZN3UDT12INVALID_SOCKE$non_lazy_pointer
0x0002D078	0x00000008	[  0] __ZN4CUDT11s_UDTUnitedE$non_lazy_pointer
0x0002D080	0x00000008	[  0] __ZN4CUDT12INVALID_SOCKE$non_lazy_pointer
0x0002D088	0x00000008	[  0] __ZN4CUDT5ERRORE$non_lazy_pointer
0x0002D090	0x00000008	[  0] __ZN4CUDT14m_iSYNIntervalE$non_lazy_pointer
0x0002D098	0x00000008	[  0] __ZN6CSeqNo10m_iSeqNoTHE$non_lazy_pointer
0x0002D0A0	0x00000008	[  0] __ZN6CSeqNo11m_iMaxSeqNoE$non_lazy_pointer
0x0002D0A8	0x00000008	[  0] __ZTISt9bad_alloc$non_lazy_pointer
0x0002D0B0	0x00000008	[  0] _UDT_InitClassRefAll$lazy_pointer
0x0002D0B8	0x00000008	[  0] _UDT_InitFieldMonitor$lazy_pointer
0x0002D0C0	0x00000008	[  0] _UDT_InitFieldRefAll$lazy_pointer
0x0002D0C8	0x00000008	[  0] _UDT_InitMethodRefAll$lazy_pointer
0x0002D0D0	0x00000008	[  0] _UDT_ReturnReceiveError$lazy_pointer
0x0002D0D8	0x00000008	[  0] _UDT_ReturnSendError$lazy_pointer
0x0002D0E0	0x00000008	[  0] _UDT_ThrowExceptionUDT_ErrorInfo$lazy_pointer
0x0002D0E8	0x00000008	[  0] _UDT_ThrowExceptionUDT_Message$lazy_pointer
0x0002D0F0	0x00000008	[  0] _X_ConvertInetSocketAddressToSockaddr$lazy_pointer
0x0002D0F8	0x00000008	[  0] _X_InitClassReference$lazy_pointer
0x0002D100	0x00000008	[  0] _X_IsSockaddrEqualsInetSocketAddress$lazy_pointer
0x0002D108	0x00000008	[  0] _X_NewInetAddress$lazy_pointer
0x0002D110	0x00000008	[  0] _X_NewInetSocketAddress$lazy_pointer
0x0002D118	0x00000008	[  0] __Unwind_Resume$lazy_pointer
0x0002D120	0x00000008	[  0] __ZN10CACKWindow11acknowledgeERKiRi$lazy_pointer
0x0002D128	0x00000008	[  0] __ZN10CACKWindow5storeERKiS1_$lazy_pointer
0x0002D130	0x00000008	[  0] __ZN10CACKWindowC1ERKi$lazy_pointer
0x0002D138	0x00000008	[  0] __ZN10CACKWindowD1Ev$lazy_pointer
0x0002D140	0x00000008	[  0] __ZN10CIPAddress4ntopEPK8sockaddrPjRKi$lazy_pointer
0x0002D148	0x00000008	[  0] __ZN10CIPAddress4ptonEP8sockaddrPKjRKi$lazy_pointer
0x0002D150	0x00000008	[  0] __ZN10CIPAddress5ipcmpEPK8sockaddrS2_RKi$lazy_pointer
0x0002D158	0x00000008	[  0] __ZN10CRcvBuffer10readBufferEPcRKi$lazy_pointer
0x0002D160	0x00000008	[  0] __ZN10CRcvBuffer12getRcvMsgNumEv$lazy_pointer
0x0002D168	0x00000008	[  0] __ZN10CRcvBuffer16readBufferToFileERSt13basic_fstreamIcSt11char_traitsIcEERKi$lazy_pointer
0x0002D170	0x00000008	[  0] __ZN10CRcvBuffer7ackDataERKi$lazy_pointer
0x0002D178	0x00000008	[  0] __ZN10CRcvBuffer7addDataEP5CUniti$lazy_pointer
0x0002D180	0x00000008	[  0] __ZN10CRcvBuffer7dropMsgERKi$lazy_pointer
0x0002D188	0x00000008	[  0] __ZN10CRcvBuffer7readMsgEPcRKi$lazy_pointer
0x0002D190	0x00000008	[  0] __ZN10CRcvBuffer7scanMsgERiS0_Rb$lazy_pointer
0x0002D198	0x00000008	[  0] __ZN10CRcvBufferC1ERKiP10CUnitQueue$lazy_pointer
0x0002D1A0	0x00000008	[  0] __ZN10CRcvBufferD1Ev$lazy_pointer
0x0002D1A8	0x00000008	[  0] __ZN10CSndBuffer17addBufferFromFileERSt13basic_fstreamIcSt11char_traitsIcEERKi$lazy_pointer
0x0002D1B0	0x00000008	[  0] __ZN10CSndBuffer7ackDataERKi$lazy_pointer
0x0002D1B8	0x00000008	[  0] __ZN10CSndBuffer8increaseEv$lazy_pointer
0x0002D1C0	0x00000008	[  0] __ZN10CSndBuffer8readDataEPPcRi$lazy_pointer
0x0002D1C8	0x00000008	[  0] __ZN10CSndBuffer8readDataEPPciRiS2_$lazy_pointer
0x0002D1D0	0x00000008	[  0] __ZN10CSndBuffer9addBufferEPKcRKiS3_RKb$lazy_pointer
0x0002D1D8	0x00000008	[  0] __ZN10CSndBufferC1ERKiS1_$lazy_pointer
0x0002D1E0	0x00000008	[  0] __ZN10CSndBufferC2ERKiS1_$lazy_pointer
0x0002D1E8	0x00000008	[  0] __ZN10CSndBufferD1Ev$lazy_pointer
0x0002D1F0	0x00000008	[  0] __ZN10CSndBufferD2Ev$lazy_pointer
0x0002D1F8	0x00000008	[  0] __ZN10CUDTSocketD2Ev$lazy_pointer
0x0002D200	0x00000008	[  0] __ZN10CUDTUnited11getpeernameEiP8sockaddrPi$lazy_pointer
0x0002D208	0x00000008	[  0] __ZN10CUDTUnited11getsocknameEiP8sockaddrPi$lazy_pointer
0x0002D210	0x00000008	[  0] __ZN10CUDTUnited12removeSocketEi$lazy_pointer
0x0002D218	0x00000008	[  0] __ZN10CUDTUnited13newConnectionEiPK8sockaddrP10CHandShake$lazy_pointer
0x0002D220	0x00000008	[  0] __ZN10CUDTUnited18checkBrokenSocketsEv$lazy_pointer
0x0002D228	0x00000008	[  0] __ZN10CUDTUnited4bindEiPK8sockaddrRKi$lazy_pointer
0x0002D230	0x00000008	[  0] __ZN10CUDTUnited4bindEii$lazy_pointer
0x0002D238	0x00000008	[  0] __ZN10CUDTUnited5closeEi$lazy_pointer
0x0002D240	0x00000008	[  0] __ZN10CUDTUnited6acceptEiP8sockaddrPi$lazy_pointer
0x0002D248	0x00000008	[  0] __ZN10CUDTUnited6listenEiRKi$lazy_pointer
0x0002D250	0x00000008	[  0] __ZN10CUDTUnited6locateEi$lazy_pointer
0x0002D258	0x00000008	[  0] __ZN10CUDTUnited6locateEiPK8sockaddrRKiS4_$lazy_pointer
0x0002D260	0x00000008	[  0] __ZN10CUDTUnited6lookupEi$lazy_pointer
0x0002D268	0x00000008	[  0] __ZN10CUDTUnited6selectEPSt3setIiSt4lessIiESaIiEES5_S5_PK7timeval$lazy_pointer
0x0002D270	0x00000008	[  0] __ZN10CUDTUnited7cleanupEv$lazy_pointer
0x0002D278	0x00000008	[  0] __ZN10CUDTUnited7connectEiPK8sockaddrRKi$lazy_pointer
0x0002D280	0x00000008	[  0] __ZN10CUDTUnited7startupEv$lazy_pointer
0x0002D288	0x00000008	[  0] __ZN10CUDTUnited8getErrorEv$lazy_pointer
0x0002D290	0x00000008	[  0] __ZN10CUDTUnited8selectExERKSt6vectorIiSaIiEEPS2_S5_S5_x$lazy_pointer
0x0002D298	0x00000008	[  0] __ZN10CUDTUnited9getStatusEi$lazy_pointer
0x0002D2A0	0x00000008	[  0] __ZN10CUDTUnited9newSocketERKiS1_$lazy_pointer
0x0002D2A8	0x00000008	[  0] __ZN10CUDTUnited9updateMuxEP4CUDTPK10CUDTSocket$lazy_pointer
0x0002D2B0	0x00000008	[  0] __ZN10CUDTUnited9updateMuxEP4CUDTPK8sockaddrPKi$lazy_pointer
0x0002D2B8	0x00000008	[  0] __ZN10CUDTUnitedC1Ev$lazy_pointer
0x0002D2C0	0x00000008	[  0] __ZN10CUDTUnitedC2Ev$lazy_pointer
0x0002D2C8	0x00000008	[  0] __ZN10CUDTUnitedD1Ev$lazy_pointer
0x0002D2D0	0x00000008	[  0] __ZN10CUDTUnitedD2Ev$lazy_pointer
0x0002D2D8	0x00000008	[  0] __ZN10CUnitQueue4initERKiS1_S1_$lazy_pointer
0x0002D2E0	0x00000008	[  0] __ZN10CUnitQueue8increaseEv$lazy_pointer
0x0002D2E8	0x00000008	[  0] __ZN12CRcvLossList12getLossArrayEPiRiRKiS3_$lazy_pointer
0x0002D2F0	0x00000008	[  0] __ZN12CRcvLossList6insertERKiS1_$lazy_pointer
0x0002D2F8	0x00000008	[  0] __ZN12CRcvLossList6removeERKi$lazy_pointer
0x0002D300	0x00000008	[  0] __ZN12CRcvLossList6removeERKiS1_$lazy_pointer
0x0002D308	0x00000008	[  0] __ZN12CRcvLossListC1ERKi$lazy_pointer
0x0002D310	0x00000008	[  0] __ZN12CRcvLossListC2ERKi$lazy_pointer
0x0002D318	0x00000008	[  0] __ZN12CRcvLossListD1Ev$lazy_pointer
0x0002D320	0x00000008	[  0] __ZN12CSndLossList10getLostSeqEv$lazy_pointer
0x0002D328	0x00000008	[  0] __ZN12CSndLossList6insertERKiS1_$lazy_pointer
0x0002D330	0x00000008	[  0] __ZN12CSndLossList6removeERKi$lazy_pointer
0x0002D338	0x00000008	[  0] __ZN12CSndLossListC1ERKi$lazy_pointer
0x0002D340	0x00000008	[  0] __ZN12CSndLossListC2ERKi$lazy_pointer
0x0002D348	0x00000008	[  0] __ZN12CSndLossListD1Ev$lazy_pointer
0x0002D350	0x00000008	[  0] __ZN13CUDTExceptionC1ERKS_$lazy_pointer
0x0002D358	0x00000008	[  0] __ZN13CUDTExceptionC1Eiii$lazy_pointer
0x0002D360	0x00000008	[  0] __ZN13CUDTExceptionD1Ev$lazy_pointer
0x0002D368	0x00000008	[  0] __ZN14CPktTimeWindow12onPktArrivalEv$lazy_pointer
0x0002D370	0x00000008	[  0] __ZN14CPktTimeWindow13probe1ArrivalEv$lazy_pointer
0x0002D378	0x00000008	[  0] __ZN14CPktTimeWindow13probe2ArrivalEv$lazy_pointer
0x0002D380	0x00000008	[  0] __ZN14CPktTimeWindow9onPktSentERKi$lazy_pointer
0x0002D388	0x00000008	[  0] __ZN14CPktTimeWindowC1ERKiS1_$lazy_pointer
0x0002D390	0x00000008	[  0] __ZN14CPktTimeWindowC1Ev$lazy_pointer
0x0002D398	0x00000008	[  0] __ZN14CPktTimeWindowD1Ev$lazy_pointer
0x0002D3A0	0x00000008	[  0] __ZN16CRendezvousQueue6insertERKiS1_PK8sockaddr$lazy_pointer
0x0002D3A8	0x00000008	[  0] __ZN16CRendezvousQueue6removeERKi$lazy_pointer
0x0002D3B0	0x00000008	[  0] __ZN16CRendezvousQueue8retrieveEPK8sockaddrRi$lazy_pointer
0x0002D3B8	0x00000008	[  0] __ZN16CRendezvousQueueC2Ev$lazy_pointer
0x0002D3C0	0x00000008	[  0] __ZN16CRendezvousQueueD2Ev$lazy_pointer
0x0002D3C8	0x00000008	[  0] __ZN3CCC10setRcvRateERKi$lazy_pointer
0x0002D3D0	0x00000008	[  0] __ZN3CCC12setBandwidthERKi$lazy_pointer
0x0002D3D8	0x00000008	[  0] __ZN3CCC12setUserParamEPKcRKi$lazy_pointer
0x0002D3E0	0x00000008	[  0] __ZN3CCC14setMaxCWndSizeERKi$lazy_pointer
0x0002D3E8	0x00000008	[  0] __ZN3CCC15setSndCurrSeqNoERKi$lazy_pointer
0x0002D3F0	0x00000008	[  0] __ZN3CCC6setMSSERKi$lazy_pointer
0x0002D3F8	0x00000008	[  0] __ZN3CCC6setRTTERKi$lazy_pointer
0x0002D400	0x00000008	[  0] __ZN3UDT10getsockoptEii6UDTOptPvPi$lazy_pointer
0x0002D408	0x00000008	[  0] __ZN3UDT10setsockoptEii6UDTOptPKvi$lazy_pointer
0x0002D410	0x00000008	[  0] __ZN3UDT11getpeernameEiP8sockaddrPi$lazy_pointer
0x0002D418	0x00000008	[  0] __ZN3UDT11getsocknameEiP8sockaddrPi$lazy_pointer
0x0002D420	0x00000008	[  0] __ZN3UDT12getlasterrorEv$lazy_pointer
0x0002D428	0x00000008	[  0] __ZN3UDT4bindEiPK8sockaddri$lazy_pointer
0x0002D430	0x00000008	[  0] __ZN3UDT4recvEiPcii$lazy_pointer
0x0002D438	0x00000008	[  0] __ZN3UDT4sendEiPKcii$lazy_pointer
0x0002D440	0x00000008	[  0] __ZN3UDT5closeEi$lazy_pointer
0x0002D448	0x00000008	[  0] __ZN3UDT6acceptEiP8sockaddrPi$lazy_pointer
0x0002D450	0x00000008	[  0] __ZN3UDT6listenEii$lazy_pointer
0x0002D458	0x00000008	[  0] __ZN3UDT6selectEiPSt3setIiSt4lessIiESaIiEES5_S5_PK7timeval$lazy_pointer
0x0002D460	0x00000008	[  0] __ZN3UDT6socketEiii$lazy_pointer
0x0002D468	0x00000008	[  0] __ZN3UDT7cleanupEv$lazy_pointer
0x0002D470	0x00000008	[  0] __ZN3UDT7connectEiPK8sockaddri$lazy_pointer
0x0002D478	0x00000008	[  0] __ZN3UDT7perfmonEiP8CPerfMonb$lazy_pointer
0x0002D480	0x00000008	[  0] __ZN3UDT7recvmsgEiPci$lazy_pointer
0x0002D488	0x00000008	[  0] __ZN3UDT7sendmsgEiPKciib$lazy_pointer
0x0002D490	0x00000008	[  0] __ZN3UDT7startupEv$lazy_pointer
0x0002D498	0x00000008	[  0] __ZN3UDT8selectExERKSt6vectorIiSaIiEEPS2_S5_S5_x$lazy_pointer
0x0002D4A0	0x00000008	[  0] __ZN4CMD57computeEPKcPh$lazy_pointer
0x0002D4A8	0x00000008	[  0] __ZN4CUDT10getsockoptEii6UDTOptPvPi$lazy_pointer
0x0002D4B0	0x00000008	[  0] __ZN4CUDT10setsockoptEii6UDTOptPKvi$lazy_pointer
0x0002D4B8	0x00000008	[  0] __ZN4CUDT11checkTimersEv$lazy_pointer
0x0002D4C0	0x00000008	[  0] __ZN4CUDT11getpeernameEiP8sockaddrPi$lazy_pointer
0x0002D4C8	0x00000008	[  0] __ZN4CUDT11getsocknameEiP8sockaddrPi$lazy_pointer
0x0002D4D0	0x00000008	[  0] __ZN4CUDT11processCtrlER7CPacket$lazy_pointer
0x0002D4D8	0x00000008	[  0] __ZN4CUDT11processDataEP5CUnit$lazy_pointer
0x0002D4E0	0x00000008	[  0] __ZN4CUDT12destroySynchEv$lazy_pointer
0x0002D4E8	0x00000008	[  0] __ZN4CUDT12getUDTHandleEi$lazy_pointer
0x0002D4F0	0x00000008	[  0] __ZN4CUDT12releaseSynchEv$lazy_pointer
0x0002D4F8	0x00000008	[  0] __ZN4CUDT4bindEiPK8sockaddri$lazy_pointer
0x0002D500	0x00000008	[  0] __ZN4CUDT4bindEii$lazy_pointer
0x0002D508	0x00000008	[  0] __ZN4CUDT4openEv$lazy_pointer
0x0002D510	0x00000008	[  0] __ZN4CUDT4recvEPcRKi$lazy_pointer
0x0002D518	0x00000008	[  0] __ZN4CUDT4recvEiPcii$lazy_pointer
0x0002D520	0x00000008	[  0] __ZN4CUDT4sendEPKcRKi$lazy_pointer
0x0002D528	0x00000008	[  0] __ZN4CUDT4sendEiPKcii$lazy_pointer
0x0002D530	0x00000008	[  0] __ZN4CUDT5closeEi$lazy_pointer
0x0002D538	0x00000008	[  0] __ZN4CUDT5closeEv$lazy_pointer
0x0002D540	0x00000008	[  0] __ZN4CUDT6acceptEiP8sockaddrPi$lazy_pointer
0x0002D548	0x00000008	[  0] __ZN4CUDT6getOptE6UDTOptPvRi$lazy_pointer
0x0002D550	0x00000008	[  0] __ZN4CUDT6listenEP8sockaddrR7CPacket$lazy_pointer
0x0002D558	0x00000008	[  0] __ZN4CUDT6listenEii$lazy_pointer
0x0002D560	0x00000008	[  0] __ZN4CUDT6listenEv$lazy_pointer
0x0002D568	0x00000008	[  0] __ZN4CUDT6sampleEP8CPerfMonb$lazy_pointer
0x0002D570	0x00000008	[  0] __ZN4CUDT6selectEiPSt3setIiSt4lessIiESaIiEES5_S5_PK7timeval$lazy_pointer
0x0002D578	0x00000008	[  0] __ZN4CUDT6setOptE6UDTOptPKvRKi$lazy_pointer
0x0002D580	0x00000008	[  0] __ZN4CUDT6socketEiii$lazy_pointer
0x0002D588	0x00000008	[  0] __ZN4CUDT7connectEPK8sockaddr$lazy_pointer
0x0002D590	0x00000008	[  0] __ZN4CUDT7connectEPK8sockaddrP10CHandShake$lazy_pointer
0x0002D598	0x00000008	[  0] __ZN4CUDT7connectEiPK8sockaddri$lazy_pointer
0x0002D5A0	0x00000008	[  0] __ZN4CUDT7perfmonEiP8CPerfMonb$lazy_pointer
0x0002D5A8	0x00000008	[  0] __ZN4CUDT7recvmsgEPcRKi$lazy_pointer
0x0002D5B0	0x00000008	[  0] __ZN4CUDT7recvmsgEiPci$lazy_pointer
0x0002D5B8	0x00000008	[  0] __ZN4CUDT7sendmsgEPKcRKiS3_RKb$lazy_pointer
0x0002D5C0	0x00000008	[  0] __ZN4CUDT7sendmsgEiPKciib$lazy_pointer
0x0002D5C8	0x00000008	[  0] __ZN4CUDT8packDataER7CPacketRy$lazy_pointer
0x0002D5D0	0x00000008	[  0] __ZN4CUDT8recvfileERSt13basic_fstreamIcSt11char_traitsIcEERKxS6_RKi$lazy_pointer
0x0002D5D8	0x00000008	[  0] __ZN4CUDT8recvfileEiRSt13basic_fstreamIcSt11char_traitsIcEERKxS6_RKi$lazy_pointer
0x0002D5E0	0x00000008	[  0] __ZN4CUDT8selectExERKSt6vectorIiSaIiEEPS2_S5_S5_x$lazy_pointer
0x0002D5E8	0x00000008	[  0] __ZN4CUDT8sendCtrlERKiPvS2_S1_$lazy_pointer
0x0002D5F0	0x00000008	[  0] __ZN4CUDT8sendfileERSt13basic_fstreamIcSt11char_traitsIcEERKxS6_RKi$lazy_pointer
0x0002D5F8	0x00000008	[  0] __ZN4CUDT8sendfileEiRSt13basic_fstreamIcSt11char_traitsIcEERKxS6_RKi$lazy_pointer
0x0002D600	0x00000008	[  0] __ZN4CUDT9initSynchEv$lazy_pointer
0x0002D608	0x00000008	[  0] __ZN4CUDTC1ERKS_$lazy_pointer
0x0002D610	0x00000008	[  0] __ZN4CUDTC1Ev$lazy_pointer
0x0002D618	0x00000008	[  0] __ZN4CUDTD1Ev$lazy_pointer
0x0002D620	0x00000008	[  0] __ZN4CUDTD2Ev$lazy_pointer
0x0002D628	0x00000008	[  0] __ZN6CCache6lookupEPK8sockaddrRKiP10CInfoBlock$lazy_pointer
0x0002D630	0x00000008	[  0] __ZN6CCache6updateEPK8sockaddrRKiP10CInfoBlock$lazy_pointer
0x0002D638	0x00000008	[  0] __ZN6CCacheC1Ev$lazy_pointer
0x0002D640	0x00000008	[  0] __ZN6CCacheC2ERKj$lazy_pointer
0x0002D648	0x00000008	[  0] __ZN6CCacheC2Ev$lazy_pointer
0x0002D650	0x00000008	[  0] __ZN6CCacheD1Ev$lazy_pointer
0x0002D658	0x00000008	[  0] __ZN6CCacheD2Ev$lazy_pointer
0x0002D660	0x00000008	[  0] __ZN6CGuard7enterCSER23_opaque_pthread_mutex_t$lazy_pointer
0x0002D668	0x00000008	[  0] __ZN6CGuard7leaveCSER23_opaque_pthread_mutex_t$lazy_pointer
0x0002D670	0x00000008	[  0] __ZN6CGuardC1ER23_opaque_pthread_mutex_t$lazy_pointer
0x0002D678	0x00000008	[  0] __ZN6CGuardD1Ev$lazy_pointer
0x0002D680	0x00000008	[  0] __ZN6CTimer12triggerEventEv$lazy_pointer
0x0002D688	0x00000008	[  0] __ZN6CTimer12waitForEventEv$lazy_pointer
0x0002D690	0x00000008	[  0] __ZN6CTimer15getCPUFrequencyEv$lazy_pointer
0x0002D698	0x00000008	[  0] __ZN6CTimer4tickEv$lazy_pointer
0x0002D6A0	0x00000008	[  0] __ZN6CTimer5rdtscERy$lazy_pointer
0x0002D6A8	0x00000008	[  0] __ZN6CTimer7getTimeEv$lazy_pointer
0x0002D6B0	0x00000008	[  0] __ZN6CTimer7sleeptoERKy$lazy_pointer
0x0002D6B8	0x00000008	[  0] __ZN6CTimer9interruptEv$lazy_pointer
0x0002D6C0	0x00000008	[  0] __ZN6CTimerC1Ev$lazy_pointer
0x0002D6C8	0x00000008	[  0] __ZN6CTimerD1Ev$lazy_pointer
0x0002D6D0	0x00000008	[  0] __ZN6CUDTCCC1Ev$lazy_pointer
0x0002D6D8	0x00000008	[  0] __ZN7CPacket4packERKiPvS2_S1_$lazy_pointer
0x0002D6E0	0x00000008	[  0] __ZN7CPacket9setLengthERKi$lazy_pointer
0x0002D6E8	0x00000008	[  0] __ZN7CPacketC1Ev$lazy_pointer
0x0002D6F0	0x00000008	[  0] __ZN7CPacketD1Ev$lazy_pointer
0x0002D6F8	0x00000008	[  0] __ZN7JNIEnv_13CallIntMethodEP8_jobjectP10_jmethodIDz$lazy_pointer
0x0002D700	0x00000008	[  0] __ZN7JNIEnv_14CallLongMethodEP8_jobjectP10_jmethodIDz$lazy_pointer
0x0002D708	0x00000008	[  0] __ZN7JNIEnv_16CallObjectMethodEP8_jobjectP10_jmethodIDz$lazy_pointer
0x0002D710	0x00000008	[  0] __ZN7JNIEnv_17CallBooleanMethodEP8_jobjectP10_jmethodIDz$lazy_pointer
0x0002D718	0x00000008	[  0] __ZN7JNIEnv_9NewObjectEP7_jclassP10_jmethodIDz$lazy_pointer
0x0002D720	0x00000008	[  0] __ZN8CChannel13setRcvBufSizeERKi$lazy_pointer
0x0002D728	0x00000008	[  0] __ZN8CChannel13setSndBufSizeERKi$lazy_pointer
0x0002D730	0x00000008	[  0] __ZN8CChannel13setUDPSockOptEv$lazy_pointer
0x0002D738	0x00000008	[  0] __ZN8CChannel4openEPK8sockaddr$lazy_pointer
0x0002D740	0x00000008	[  0] __ZN8CChannel4openEi$lazy_pointer
0x0002D748	0x00000008	[  0] __ZN8CChannelC1ERKi$lazy_pointer
0x0002D750	0x00000008	[  0] __ZN8CChannelD1Ev$lazy_pointer
0x0002D758	0x00000008	[  0] __ZN9CRcvQueue11getNewEntryEv$lazy_pointer
0x0002D760	0x00000008	[  0] __ZN9CRcvQueue11setListenerEPK4CUDT$lazy_pointer
0x0002D768	0x00000008	[  0] __ZN9CRcvQueue11setNewEntryEP4CUDT$lazy_pointer
0x0002D770	0x00000008	[  0] __ZN9CRcvQueue14removeListenerEPK4CUDT$lazy_pointer
0x0002D778	0x00000008	[  0] __ZN9CRcvQueue4initERKiS1_S1_S1_PK8CChannelPK6CTimer$lazy_pointer
0x0002D780	0x00000008	[  0] __ZN9CRcvQueue8recvfromERKiR7CPacket$lazy_pointer
0x0002D788	0x00000008	[  0] __ZN9CRcvQueue8storePktERKiP7CPacket$lazy_pointer
0x0002D790	0x00000008	[  0] __ZN9CRcvQueueC1Ev$lazy_pointer
0x0002D798	0x00000008	[  0] __ZN9CRcvQueueC2Ev$lazy_pointer
0x0002D7A0	0x00000008	[  0] __ZN9CRcvQueueD1Ev$lazy_pointer
0x0002D7A8	0x00000008	[  0] __ZN9CRcvQueueD2Ev$lazy_pointer
0x0002D7B0	0x00000008	[  0] __ZN9CSndQueue4initEPK8CChannelPK6CTimer$lazy_pointer
0x0002D7B8	0x00000008	[  0] __ZN9CSndQueue6sendtoEPK8sockaddrR7CPacket$lazy_pointer
0x0002D7C0	0x00000008	[  0] __ZN9CSndQueueC1Ev$lazy_pointer
0x0002D7C8	0x00000008	[  0] __ZN9CSndQueueD1Ev$lazy_pointer
0x0002D7D0	0x00000008	[  0] __ZN9CSndQueueD2Ev$lazy_pointer
0x0002D7D8	0x00000008	[  0] __ZN9CSndUList3popERP8sockaddrR7CPacket$lazy_pointer
0x0002D7E0	0x00000008	[  0] __ZN9CSndUList6removeEPK4CUDT$lazy_pointer
0x0002D7E8	0x00000008	[  0] __ZN9CSndUList6updateEPK4CUDTRKb$lazy_pointer
0x0002D7F0	0x00000008	[  0] __ZN9CSndUList7insert_ERKxPK4CUDT$lazy_pointer
0x0002D7F8	0x00000008	[  0] __ZNK10CRcvBuffer14getRcvDataSizeEv$lazy_pointer
0x0002D800	0x00000008	[  0] __ZNK10CRcvBuffer15getAvailBufSizeEv$lazy_pointer
0x0002D808	0x00000008	[  0] __ZNK10CSndBuffer14getCurrBufSizeEv$lazy_pointer
0x0002D810	0x00000008	[  0] __ZNK12CRcvLossList13getLossLengthEv$lazy_pointer
0x0002D818	0x00000008	[  0] __ZNK12CRcvLossList15getFirstLostSeqEv$lazy_pointer
0x0002D820	0x00000008	[  0] __ZNK13CUDTException12getErrorCodeEv$lazy_pointer
0x0002D828	0x00000008	[  0] __ZNK14CPktTimeWindow12getBandwidthEv$lazy_pointer
0x0002D830	0x00000008	[  0] __ZNK14CPktTimeWindow14getPktRcvSpeedEv$lazy_pointer
0x0002D838	0x00000008	[  0] __ZNK14CPktTimeWindow15getMinPktSndIntEv$lazy_pointer
0x0002D840	0x00000008	[  0] __ZNK7CPacket11getAckSeqNoEv$lazy_pointer
0x0002D848	0x00000008	[  0] __ZNK7CPacket14getMsgBoundaryEv$lazy_pointer
0x0002D850	0x00000008	[  0] __ZNK7CPacket15getMsgOrderFlagEv$lazy_pointer
0x0002D858	0x00000008	[  0] __ZNK7CPacket5cloneEv$lazy_pointer
0x0002D860	0x00000008	[  0] __ZNK7CPacket7getFlagEv$lazy_pointer
0x0002D868	0x00000008	[  0] __ZNK7CPacket7getTypeEv$lazy_pointer
0x0002D870	0x00000008	[  0] __ZNK7CPacket9getLengthEv$lazy_pointer
0x0002D878	0x00000008	[  0] __ZNK7CPacket9getMsgSeqEv$lazy_pointer
0x0002D880	0x00000008	[  0] __ZNK8CChannel11getSockAddrEP8sockaddr$lazy_pointer
0x0002D888	0x00000008	[  0] __ZNK8CChannel5closeEv$lazy_pointer
0x0002D890	0x00000008	[  0] __ZNK8CChannel6sendtoEPK8sockaddrR7CPacket$lazy_pointer
0x0002D898	0x00000008	[  0] __ZNK8CChannel8recvfromEP8sockaddrR7CPacket$lazy_pointer
0x0002D8A0	0x00000008	[  0] __ZNSi4readEPcl$lazy_pointer
0x0002D8A8	0x00000008	[  0] __ZNSi5seekgESt4fposI11__mbstate_tE$lazy_pointer
0x0002D8B0	0x00000008	[  0] __ZNSo5seekpESt4fposI11__mbstate_tE$lazy_pointer
0x0002D8B8	0x00000008	[  0] __ZNSo5writeEPKcl$lazy_pointer
0x0002D8C0	0x00000008	[  0] __ZNSs4_Rep10_M_destroyERKSaIcE$lazy_pointer
0x0002D8C8	0x00000008	[  0] __ZNSs6appendEPKcm$lazy_pointer
0x0002D8D0	0x00000008	[  0] __ZNSs6assignEPKcm$lazy_pointer
0x0002D8D8	0x00000008	[  0] __ZNSs6assignERKSs$lazy_pointer
0x0002D8E0	0x00000008	[  0] __ZNSt6vectorI12CMultiplexerSaIS0_EE13_M_insert_auxEN9__gnu_cxx17__normal_iteratorIPS0_S2_EERKS0_$lazy_pointer
0x0002D8E8	0x00000008	[  0] __ZNSt6vectorIN16CRendezvousQueue3CRLESaIS1_EE13_M_insert_auxEN9__gnu_cxx17__normal_iteratorIPS1_S3_EERKS1_$lazy_pointer
0x0002D8F0	0x00000008	[  0] __ZNSt6vectorIP10CUDTSocketSaIS1_EE13_M_insert_auxEN9__gnu_cxx17__normal_iteratorIPS1_S3_EERKS1_$lazy_pointer
0x0002D8F8	0x00000008	[  0] __ZNSt6vectorIP4CUDTSaIS1_EE13_M_insert_auxEN9__gnu_cxx17__normal_iteratorIPS1_S3_EERKS1_$lazy_pointer
0x0002D900	0x00000008	[  0] __ZNSt6vectorIiSaIiEE13_M_insert_auxEN9__gnu_cxx17__normal_iteratorIPiS1_EERKi$lazy_pointer
0x0002D908	0x00000008	[  0] __ZNSt8_Rb_treeIP10CInfoBlockS1_St9_IdentityIS1_E7CIPCompSaIS1_EE16_M_insert_uniqueERKS1_$lazy_pointer
0x0002D910	0x00000008	[  0] __ZNSt8_Rb_treeIP10CInfoBlockS1_St9_IdentityIS1_E7CIPCompSaIS1_EE5eraseERKS1_$lazy_pointer
0x0002D918	0x00000008	[  0] __ZNSt8_Rb_treeIP10CInfoBlockS1_St9_IdentityIS1_E7CIPCompSaIS1_EE8_M_eraseEPSt13_Rb_tree_nodeIS1_E$lazy_pointer
0x0002D920	0x00000008	[  0] __ZNSt8_Rb_treeIP10CInfoBlockS1_St9_IdentityIS1_E7CIPCompSaIS1_EE9_M_insertEPSt18_Rb_tree_node_baseS8_RKS1_$lazy_pointer
0x0002D928	0x00000008	[  0] __ZNSt8_Rb_treeIP10CInfoBlockS1_St9_IdentityIS1_E7CTSCompSaIS1_EE16_M_insert_uniqueERKS1_$lazy_pointer
0x0002D930	0x00000008	[  0] __ZNSt8_Rb_treeIP10CInfoBlockS1_St9_IdentityIS1_E7CTSCompSaIS1_EE5eraseERKS1_$lazy_pointer
0x0002D938	0x00000008	[  0] __ZNSt8_Rb_treeIP10CInfoBlockS1_St9_IdentityIS1_E7CTSCompSaIS1_EE8_M_eraseEPSt13_Rb_tree_nodeIS1_E$lazy_pointer
0x0002D940	0x00000008	[  0] __ZNSt8_Rb_treeIP10CInfoBlockS1_St9_IdentityIS1_E7CTSCompSaIS1_EE9_M_insertEPSt18_Rb_tree_node_baseS8_RKS1_$lazy_pointer
0x0002D948	0x00000008	[  0] __ZNSt8_Rb_treeIiSt4pairIKiP10CUDTSocketESt10_Select1stIS4_ESt4lessIiESaIS4_EE16_M_insert_uniqueERKS4_$lazy_pointer
0x0002D950	0x00000008	[  0] __ZNSt8_Rb_treeIiSt4pairIKiP10CUDTSocketESt10_Select1stIS4_ESt4lessIiESaIS4_EE16_M_insert_uniqueESt17_Rb_tree_iteratorIS4_ERKS4_$lazy_pointer
0x0002D958	0x00000008	[  0] __ZNSt8_Rb_treeIiSt4pairIKiP10CUDTSocketESt10_Select1stIS4_ESt4lessIiESaIS4_EE5eraseERS1_$lazy_pointer
0x0002D960	0x00000008	[  0] __ZNSt8_Rb_treeIiSt4pairIKiP10CUDTSocketESt10_Select1stIS4_ESt4lessIiESaIS4_EE8_M_eraseEPSt13_Rb_tree_nodeIS4_E$lazy_pointer
0x0002D968	0x00000008	[  0] __ZNSt8_Rb_treeIiSt4pairIKiP10CUDTSocketESt10_Select1stIS4_ESt4lessIiESaIS4_EE9_M_insertEPSt18_Rb_tree_node_baseSC_RKS4_$lazy_pointer
0x0002D970	0x00000008	[  0] __ZNSt8_Rb_treeIiSt4pairIKiP7CPacketESt10_Select1stIS4_ESt4lessIiESaIS4_EE16_M_insert_uniqueERKS4_$lazy_pointer
0x0002D978	0x00000008	[  0] __ZNSt8_Rb_treeIiSt4pairIKiP7CPacketESt10_Select1stIS4_ESt4lessIiESaIS4_EE16_M_insert_uniqueESt17_Rb_tree_iteratorIS4_ERKS4_$lazy_pointer
0x0002D980	0x00000008	[  0] __ZNSt8_Rb_treeIiSt4pairIKiP7CPacketESt10_Select1stIS4_ESt4lessIiESaIS4_EE8_M_eraseEPSt13_Rb_tree_nodeIS4_E$lazy_pointer
0x0002D988	0x00000008	[  0] __ZNSt8_Rb_treeIiSt4pairIKiP7CPacketESt10_Select1stIS4_ESt4lessIiESaIS4_EE9_M_insertEPSt18_Rb_tree_node_baseSC_RKS4_$lazy_pointer
0x0002D990	0x00000008	[  0] __ZNSt8_Rb_treeIiiSt9_IdentityIiESt4lessIiESaIiEE16_M_insert_uniqueERKi$lazy_pointer
0x0002D998	0x00000008	[  0] __ZNSt8_Rb_treeIiiSt9_IdentityIiESt4lessIiESaIiEE16_M_insert_uniqueESt23_Rb_tree_const_iteratorIiERKi$lazy_pointer
0x0002D9A0	0x00000008	[  0] __ZNSt8_Rb_treeIiiSt9_IdentityIiESt4lessIiESaIiEE5eraseERKi$lazy_pointer
0x0002D9A8	0x00000008	[  0] __ZNSt8_Rb_treeIiiSt9_IdentityIiESt4lessIiESaIiEE7_M_copyEPKSt13_Rb_tree_nodeIiEPS7_$lazy_pointer
0x0002D9B0	0x00000008	[  0] __ZNSt8_Rb_treeIiiSt9_IdentityIiESt4lessIiESaIiEE8_M_eraseEPSt13_Rb_tree_nodeIiE$lazy_pointer
0x0002D9B8	0x00000008	[  0] __ZNSt8_Rb_treeIiiSt9_IdentityIiESt4lessIiESaIiEE9_M_insertEPSt18_Rb_tree_node_baseS7_RKi$lazy_pointer
0x0002D9C0	0x00000008	[  0] __ZSt17__throw_bad_allocv$lazy_pointer
0x0002D9C8	0x00000008	[  0] __ZSt18_Rb_tree_decrementPKSt18_Rb_tree_node_base$lazy_pointer
0x0002D9D0	0x00000008	[  0] __ZSt18_Rb_tree_decrementPSt18_Rb_tree_node_base$lazy_pointer
0x0002D9D8	0x00000008	[  0] __ZSt18_Rb_tree_incrementPKSt18_Rb_tree_node_base$lazy_pointer
0x0002D9E0	0x00000008	[  0] __ZSt18_Rb_tree_incrementPSt18_Rb_tree_node_base$lazy_pointer
0x0002D9E8	0x00000008	[  0] __ZSt20__throw_length_errorPKc$lazy_pointer
0x0002D9F0	0x00000008	[  0] __ZSt28_Rb_tree_rebalance_for_erasePSt18_Rb_tree_node_baseRS_$lazy_pointer
0x0002D9F8	0x00000008	[  0] __ZSt29_Rb_tree_insert_and_rebalancebPSt18_Rb_tree_node_baseS0_RS_$lazy_pointer
0x0002DA00	0x00000008	[  0] __ZSt9terminatev$lazy_pointer
0x0002DA08	0x00000008	[  0] __ZdaPv$lazy_pointer
0x0002DA10	0x00000008	[  0] __ZdlPv$lazy_pointer
0x0002DA18	0x00000008	[  0] __Znam$lazy_pointer
0x0002DA20	0x00000008	[  0] __Znwm$lazy_pointer
0x0002DA28	0x00000008	[  0] ___cxa_allocate_exception$lazy_pointer
0x0002DA30	0x00000008	[  0] ___cxa_atexit$lazy_pointer
0x0002DA38	0x00000008	[  0] ___cxa_begin_catch$lazy_pointer
0x0002DA40	0x00000008	[  0] ___cxa_end_catch$lazy_pointer
0x0002DA48	0x00000008	[  0] ___cxa_free_exception$lazy_pointer
0x0002DA50	0x00000008	[  0] ___cxa_get_exception_ptr$lazy_pointer
0x0002DA58	0x00000008	[  0] ___cxa_rethrow$lazy_pointer
0x0002DA60	0x00000008	[  0] ___cxa_throw$lazy_pointer
0x0002DA68	0x00000008	[  0] ___error$lazy_pointer
0x0002DA70	0x00000008	[  0] ___stack_chk_fail$lazy_pointer
0x0002DA78	0x00000008	[  0] _bind$lazy_pointer
0x0002DA80	0x00000008	[  0] _ceil$lazy_pointer
0x0002DA88	0x00000008	[  0] _close$lazy_pointer
0x0002DA90	0x00000008	[  0] _free$lazy_pointer
0x0002DA98	0x00000008	[  0] _freeaddrinfo$lazy_pointer
0x0002DAA0	0x00000008	[  0] _getaddrinfo$lazy_pointer
0x0002DAA8	0x00000008	[  0] _getnameinfo$lazy_pointer
0x0002DAB0	0x00000008	[  0] _getpeername$lazy_pointer
0x0002DAB8	0x00000008	[  0] _getsockname$lazy_pointer
0x0002DAC0	0x00000008	[  0] _getsockopt$lazy_pointer
0x0002DAC8	0x00000008	[  0] _gettimeofday$lazy_pointer
0x0002DAD0	0x00000008	[  0] _log10$lazy_pointer
0x0002DAD8	0x00000008	[  0] _malloc$lazy_pointer
0x0002DAE0	0x00000008	[  0] _md5_append$lazy_pointer
0x0002DAE8	0x00000008	[  0] _md5_finish$lazy_pointer
0x0002DAF0	0x00000008	[  0] _md5_init$lazy_pointer
0x0002DAF8	0x00000008	[  0] _memcpy$lazy_pointer
0x0002DB00	0x00000008	[  0] _memmove$lazy_pointer
0x0002DB08	0x00000008	[  0] _memset$lazy_pointer
0x0002DB10	0x00000008	[  0] _nanosleep$lazy_pointer
0x0002DB18	0x00000008	[  0] _pow$lazy_pointer
0x0002DB20	0x00000008	[  0] _printf$lazy_pointer
0x0002DB28	0x00000008	[  0] _pthread_cond_broadcast$lazy_pointer
0x0002DB30	0x00000008	[  0] _pthread_cond_destroy$lazy_pointer
0x0002DB38	0x00000008	[  0] _pthread_cond_init$lazy_pointer
0x0002DB40	0x00000008	[  0] _pthread_cond_signal$lazy_pointer
0x0002DB48	0x00000008	[  0] _pthread_cond_timedwait$lazy_pointer
0x0002DB50	0x00000008	[  0] _pthread_cond_wait$lazy_pointer
0x0002DB58	0x00000008	[  0] _pthread_create$lazy_pointer
0x0002DB60	0x00000008	[  0] _pthread_getspecific$lazy_pointer
0x0002DB68	0x00000008	[  0] _pthread_join$lazy_pointer
0x0002DB70	0x00000008	[  0] _pthread_key_create$lazy_pointer
0x0002DB78	0x00000008	[  0] _pthread_key_delete$lazy_pointer
0x0002DB80	0x00000008	[  0] _pthread_mutex_destroy$lazy_pointer
0x0002DB88	0x00000008	[  0] _pthread_mutex_init$lazy_pointer
0x0002DB90	0x00000008	[  0] _pthread_mutex_lock$lazy_pointer
0x0002DB98	0x00000008	[  0] _pthread_mutex_trylock$lazy_pointer
0x0002DBA0	0x00000008	[  0] _pthread_mutex_unlock$lazy_pointer
0x0002DBA8	0x00000008	[  0] _pthread_setspecific$lazy_pointer
0x0002DBB0	0x00000008	[  0] _rand$lazy_pointer
0x0002DBB8	0x00000008	[  0] _recvmsg$lazy_pointer
0x0002DBC0	0x00000008	[  0] _sendmsg$lazy_pointer
0x0002DBC8	0x00000008	[  0] _setsockopt$lazy_pointer
0x0002DBD0	0x00000008	[  0] _socket$lazy_pointer
0x0002DBD8	0x00000008	[  0] _sprintf$lazy_pointer
0x0002DBE0	0x00000008	[  0] _srand$lazy_pointer
0x0002DBE8	0x00000008	[  0] _strerror$lazy_pointer
0x0002DBF0	0x00000008	[  0] _strlen$lazy_pointer
0x0002DBF8	0x00000008	[  0] _usleep$lazy_pointer
0x0002DC00	0x00000008	[  2] initializer$0
0x0002DC08	0x00000008	[  3] initializer$0
0x0002DC20	0x00000030	[  2] __ZTV10CCCFactoryI6CUDTCCE
0x0002DC50	0x00000020	[  2] __ZTI10CCCFactoryI6CUDTCCE
0x0002DC70	0x00000010	[  2] __ZTI17CCCVirtualFactory
0x0002DC80	0x00000030	[  2] __ZTV17CCCVirtualFactory
0x0002DCC0	0x00000040	[  3] __ZTV13CUDTException
0x0002DD00	0x00000010	[  3] __ZTI13CUDTException
0x0002DD20	0x00000060	[  7] __ZTV6CUDTCC
0x0002DD80	0x00000060	[  7] __ZTV3CCC
0x0002DDE0	0x00000020	[  7] __ZTI6CUDTCC
0x0002DE00	0x00000010	[  7] __ZTI3CCC
0x0002DE20	0x00000040	[  3] __ZN6CTimer11m_EventLockE
0x0002DE60	0x00000030	[  3] __ZN6CTimer11m_EventCondE
0x0002DEA0	0x00000218	[  2] __ZN4CUDT11s_UDTUnitedE
0x0002E0B8	0x00000008	[  3] __ZN6CTimer17s_ullCPUFrequencyE
0x0002E0C0	0x00000008	[  5] __ZL21jdk_clsSet_iteratorID
0x0002E0C8	0x00000008	[  5] __ZL22jdk_clsIterator_nextID
0x0002E0D0	0x00000008	[  5] __ZL25jdk_clsIterator_hasNextID
0x0002E0D8	0x00000008	[  5] __ZL13udts_SocketID
0x0002E0E0	0x00000008	[  5] __ZL21udts_IsSelectedReadID
0x0002E0E8	0x00000008	[  5] __ZL22udts_IsSelectedWriteID
0x0002E0F0	0x00000008	[  5] __ZL26udts_IsSelectedExceptionID
0x0002E0F8	0x00000008	[  5] __ZL14udts_MonitorID
0x0002E100	0x00000008	[  5] __ZL16udtm_msTimeStamp
0x0002E108	0x00000008	[  5] __ZL17udtm_pktSentTotal
0x0002E110	0x00000008	[  5] __ZL17udtm_pktRecvTotal
0x0002E118	0x00000008	[  5] __ZL20udtm_pktSndLossTotal
0x0002E120	0x00000008	[  5] __ZL20udtm_pktRcvLossTotal
0x0002E128	0x00000008	[  5] __ZL20udtm_pktRetransTotal
0x0002E130	0x00000008	[  5] __ZL20udtm_pktSentACKTotal
0x0002E138	0x00000008	[  5] __ZL20udtm_pktRecvACKTotal
0x0002E140	0x00000008	[  5] __ZL20udtm_pktSentNAKTotal
0x0002E148	0x00000008	[  5] __ZL20udtm_pktRecvNAKTotal
0x0002E150	0x00000008	[  5] __ZL23udtm_usSndDurationTotal
0x0002E158	0x00000008	[  5] __ZL12udtm_pktSent
0x0002E160	0x00000008	[  5] __ZL12udtm_pktRecv
0x0002E168	0x00000008	[  5] __ZL15udtm_pktSndLoss
0x0002E170	0x00000008	[  5] __ZL15udtm_pktRcvLoss
0x0002E178	0x00000008	[  5] __ZL15udtm_pktRetrans
0x0002E180	0x00000008	[  5] __ZL15udtm_pktSentACK
0x0002E188	0x00000008	[  5] __ZL15udtm_pktRecvACK
0x0002E190	0x00000008	[  5] __ZL15udtm_pktSentNAK
0x0002E198	0x00000008	[  5] __ZL15udtm_pktRecvNAK
0x0002E1A0	0x00000008	[  5] __ZL17udtm_mbpsSendRate
0x0002E1A8	0x00000008	[  5] __ZL17udtm_mbpsRecvRate
0x0002E1B0	0x00000008	[  5] __ZL18udtm_usSndDuration
0x0002E1B8	0x00000008	[  5] __ZL19udtm_usPktSndPeriod
0x0002E1C0	0x00000008	[  5] __ZL18udtm_pktFlowWindow
0x0002E1C8	0x00000008	[  5] __ZL24udtm_pktCongestionWindow
0x0002E1D0	0x00000008	[  5] __ZL18udtm_pktFlightSize
0x0002E1D8	0x00000008	[  5] __ZL10udtm_msRTT
0x0002E1E0	0x00000008	[  5] __ZL18udtm_mbpsBandwidth
0x0002E1E8	0x00000008	[  5] __ZL20udtm_byteAvailSndBuf
0x0002E1F0	0x00000008	[  5] __ZL20udtm_byteAvailRcvBuf
0x0002E1F8	0x00000008	[  5] __ZL14jdk_clsBoolean
0x0002E200	0x00000008	[  5] __ZL14jdk_clsInteger
0x0002E208	0x00000008	[  5] __ZL16udt_clsLingerUDT
0x0002E210	0x00000008	[  5] __ZL11jdk_clsLong
0x0002E218	0x00000008	[  5] __ZL17udt_clsFactoryUDT
0x0002E220	0x00000008	[  5] __ZL25udts_LocalSocketAddressID
0x0002E228	0x00000008	[  5] __ZL26udts_RemoteSocketAddressID
0x0002E230	0x00000008	[  5] __ZL11udts_TypeID
0x0002E238	0x00000008	[  5] __ZL24udt_clsSocketUDT_initID1
0x0002E240	0x00000008	[  5] __ZL16udt_clsSocketUDT
0x0002E248	0x00000008	[  5] __ZL21jdk_clsBoolean_initID
0x0002E250	0x00000008	[  5] __ZL21jdk_clsInteger_initID
0x0002E258	0x00000008	[  5] __ZL18jdk_clsLong_initID
0x0002E260	0x00000008	[  5] __ZL19jdk_clsInet4Address
0x0002E268	0x00000008	[  5] __ZL26jdk_clsInet4Address_initID
0x0002E270	0x00000008	[  5] __ZL24jdk_clsInetSocketAddress
0x0002E278	0x00000008	[  5] __ZL31jdk_clsInetSocketAddress_initID
0x0002E280	0x00000008	[  5] __ZL10jdk_clsSet
0x0002E288	0x00000008	[  5] __ZL16jdk_clsSet_addID
0x0002E290	0x00000008	[  5] __ZL21jdk_clsSet_containsID
0x0002E298	0x00000008	[  5] __ZL15jdk_clsIterator
0x0002E2A0	0x00000008	[  5] __ZL19udt_clsExceptionUDT
0x0002E2A8	0x00000008	[  5] __ZL27udt_clsExceptionUDT_initID0
0x0002E2B0	0x00000008	[  5] __ZL23udt_clsLingerUDT_initID
0x0002E2B8	0x00000008	[  5] __ZL12ia_AddressID
0x0002E2C0	0x00000008	[  5] __ZL17isa_InetAddressID
0x0002E2C8	0x00000008	[  5] __ZL10isa_PortID
0x0002E2D0	0x00000008	[  5] __ZL14udt_clsTypeUDT
0x0002E2D8	0x00000008	[  5] __ZL15udtt_TypeCodeID
0x0002E2E0	0x00000008	[  5] __ZL19jdk_clsInet6Address
0x0002E2E8	0x00000008	[  5] __ZL22jdk_clsSocketException
0x0002E2F0	0x00000008	[  5] __ZL17udt_clsMonitorUDT
