Archive member included because of file (symbol)

/usr/lib/gcc/x86_64-linux-gnu/4.4.3/libgcc_eh.a(unwind-dw2.o)
                              native/udt/src/queue.o (_Unwind_Resume)
/usr/lib/gcc/x86_64-linux-gnu/4.4.3/libgcc_eh.a(unwind-dw2-fde-glibc.o)
                              /usr/lib/gcc/x86_64-linux-gnu/4.4.3/libgcc_eh.a(unwind-dw2.o) (_Unwind_Find_FDE)

Discarded input sections

 .note.GNU-stack
                0x0000000000000000        0x0 /usr/lib/gcc/x86_64-linux-gnu/4.4.3/../../../../lib/crti.o
 .gnu_debuglink
                0x0000000000000000        0xc /usr/lib/gcc/x86_64-linux-gnu/4.4.3/../../../../lib/crti.o
 .note.GNU-stack
                0x0000000000000000        0x0 /usr/lib/gcc/x86_64-linux-gnu/4.4.3/crtbeginS.o
 .group         0x0000000000000000        0x8 native/udt/src/window.o
 .note.GNU-stack
                0x0000000000000000        0x0 native/udt/src/window.o
 .group         0x0000000000000000        0x8 native/udt/src/queue.o
 .group         0x0000000000000000        0x8 native/udt/src/queue.o
 .group         0x0000000000000000        0x8 native/udt/src/queue.o
 .group         0x0000000000000000        0x8 native/udt/src/queue.o
 .group         0x0000000000000000        0x8 native/udt/src/queue.o
 .group         0x0000000000000000        0x8 native/udt/src/queue.o
 .group         0x0000000000000000        0x8 native/udt/src/queue.o
 .group         0x0000000000000000        0x8 native/udt/src/queue.o
 .group         0x0000000000000000        0x8 native/udt/src/queue.o
 .data.DW.ref.__gxx_personality_v0
                0x0000000000000000        0x8 native/udt/src/queue.o
 .note.GNU-stack
                0x0000000000000000        0x0 native/udt/src/queue.o
 .group         0x0000000000000000        0x8 native/udt/src/packet.o
 .data.DW.ref.__gxx_personality_v0
                0x0000000000000000        0x8 native/udt/src/packet.o
 .note.GNU-stack
                0x0000000000000000        0x0 native/udt/src/packet.o
 .group         0x0000000000000000        0x8 native/udt/src/md5.o
 .data.DW.ref.__gxx_personality_v0
                0x0000000000000000        0x8 native/udt/src/md5.o
 .note.GNU-stack
                0x0000000000000000        0x0 native/udt/src/md5.o
 .group         0x0000000000000000        0x8 native/udt/src/list.o
 .data.DW.ref.__gxx_personality_v0
                0x0000000000000000        0x8 native/udt/src/list.o
 .note.GNU-stack
                0x0000000000000000        0x0 native/udt/src/list.o
 .group         0x0000000000000000        0x8 native/udt/src/epoll.o
 .group         0x0000000000000000        0x8 native/udt/src/epoll.o
 .group         0x0000000000000000        0x8 native/udt/src/epoll.o
 .group         0x0000000000000000        0x8 native/udt/src/epoll.o
 .group         0x0000000000000000        0x8 native/udt/src/epoll.o
 .group         0x0000000000000000        0x8 native/udt/src/epoll.o
 .group         0x0000000000000000        0x8 native/udt/src/epoll.o
 .group         0x0000000000000000        0x8 native/udt/src/epoll.o
 .group         0x0000000000000000        0x8 native/udt/src/epoll.o
 .group         0x0000000000000000        0x8 native/udt/src/epoll.o
 .group         0x0000000000000000        0x8 native/udt/src/epoll.o
 .data.DW.ref.__gxx_personality_v0
                0x0000000000000000        0x8 native/udt/src/epoll.o
 .note.GNU-stack
                0x0000000000000000        0x0 native/udt/src/epoll.o
 .group         0x0000000000000000        0x8 native/udt/src/core.o
 .group         0x0000000000000000        0x8 native/udt/src/core.o
 .group         0x0000000000000000        0x8 native/udt/src/core.o
 .group         0x0000000000000000        0x8 native/udt/src/core.o
 .group         0x0000000000000000        0x8 native/udt/src/core.o
 .group         0x0000000000000000        0x8 native/udt/src/core.o
 .group         0x0000000000000000        0x8 native/udt/src/core.o
 .group         0x0000000000000000        0x8 native/udt/src/core.o
 .group         0x0000000000000000        0x8 native/udt/src/core.o
 .group         0x0000000000000000        0x8 native/udt/src/core.o
 .group         0x0000000000000000        0x8 native/udt/src/core.o
 .group         0x0000000000000000        0x8 native/udt/src/core.o
 .group         0x0000000000000000        0x8 native/udt/src/core.o
 .group         0x0000000000000000        0x8 native/udt/src/core.o
 .group         0x0000000000000000        0x8 native/udt/src/core.o
 .group         0x0000000000000000        0x8 native/udt/src/core.o
 .group         0x0000000000000000        0x8 native/udt/src/core.o
 .text._ZNSt8_Rb_treeIiiSt9_IdentityIiESt4lessIiESaIiEE8_M_eraseEPSt13_Rb_tree_nodeIiE
                0x0000000000000000       0x4b native/udt/src/core.o
 .text._ZNSt3setIiSt4lessIiESaIiEED1Ev
                0x0000000000000000       0x17 native/udt/src/core.o
 .text._ZNSt8_Rb_treeIiiSt9_IdentityIiESt4lessIiESaIiEE10_M_insert_EPKSt18_Rb_tree_node_baseS8_RKi
                0x0000000000000000       0x9b native/udt/src/core.o
 .data.DW.ref.__gxx_personality_v0
                0x0000000000000000        0x8 native/udt/src/core.o
 .note.GNU-stack
                0x0000000000000000        0x0 native/udt/src/core.o
 .group         0x0000000000000000        0x8 native/udt/src/common.o
 .group         0x0000000000000000        0x8 native/udt/src/common.o
 .group         0x0000000000000000        0x8 native/udt/src/common.o
 .group         0x0000000000000000        0x8 native/udt/src/common.o
 .data.DW.ref.__gxx_personality_v0
                0x0000000000000000        0x8 native/udt/src/common.o
 .note.GNU-stack
                0x0000000000000000        0x0 native/udt/src/common.o
 .group         0x0000000000000000        0x8 native/udt/src/channel.o
 .data.DW.ref.__gxx_personality_v0
                0x0000000000000000        0x8 native/udt/src/channel.o
 .note.GNU-stack
                0x0000000000000000        0x0 native/udt/src/channel.o
 .group         0x0000000000000000        0x8 native/udt/src/ccc.o
 .group         0x0000000000000000        0x8 native/udt/src/ccc.o
 .group         0x0000000000000000        0x8 native/udt/src/ccc.o
 .group         0x0000000000000000        0x8 native/udt/src/ccc.o
 .group         0x0000000000000000        0x8 native/udt/src/ccc.o
 .group         0x0000000000000000        0x8 native/udt/src/ccc.o
 .group         0x0000000000000000        0x8 native/udt/src/ccc.o
 .group         0x0000000000000000        0x8 native/udt/src/ccc.o
 .group         0x0000000000000000        0x8 native/udt/src/ccc.o
 .group         0x0000000000000000        0x8 native/udt/src/ccc.o
 .group         0x0000000000000000        0x8 native/udt/src/ccc.o
 .group         0x0000000000000000        0x8 native/udt/src/ccc.o
 .group         0x0000000000000000        0x8 native/udt/src/ccc.o
 .group         0x0000000000000000        0x8 native/udt/src/ccc.o
 .group         0x0000000000000000        0x8 native/udt/src/ccc.o
 .group         0x0000000000000000        0x8 native/udt/src/ccc.o
 .group         0x0000000000000000        0x8 native/udt/src/ccc.o
 .data.DW.ref.__gxx_personality_v0
                0x0000000000000000        0x8 native/udt/src/ccc.o
 .note.GNU-stack
                0x0000000000000000        0x0 native/udt/src/ccc.o
 .group         0x0000000000000000        0x8 native/udt/src/cache.o
 .group         0x0000000000000000        0x8 native/udt/src/cache.o
 .group         0x0000000000000000        0x8 native/udt/src/cache.o
 .group         0x0000000000000000        0x8 native/udt/src/cache.o
 .group         0x0000000000000000        0x8 native/udt/src/cache.o
 .group         0x0000000000000000        0x8 native/udt/src/cache.o
 .group         0x0000000000000000        0x8 native/udt/src/cache.o
 .data.DW.ref.__gxx_personality_v0
                0x0000000000000000        0x8 native/udt/src/cache.o
 .note.GNU-stack
                0x0000000000000000        0x0 native/udt/src/cache.o
 .group         0x0000000000000000        0x8 native/udt/src/buffer.o
 .data.DW.ref.__gxx_personality_v0
                0x0000000000000000        0x8 native/udt/src/buffer.o
 .note.GNU-stack
                0x0000000000000000        0x0 native/udt/src/buffer.o
 .group         0x0000000000000000        0x8 native/udt/src/api.o
 .group         0x0000000000000000        0x8 native/udt/src/api.o
 .group         0x0000000000000000        0x8 native/udt/src/api.o
 .group         0x0000000000000000        0x8 native/udt/src/api.o
 .group         0x0000000000000000        0x8 native/udt/src/api.o
 .group         0x0000000000000000        0x8 native/udt/src/api.o
 .group         0x0000000000000000        0x8 native/udt/src/api.o
 .group         0x0000000000000000        0x8 native/udt/src/api.o
 .group         0x0000000000000000        0x8 native/udt/src/api.o
 .group         0x0000000000000000        0x8 native/udt/src/api.o
 .group         0x0000000000000000        0x8 native/udt/src/api.o
 .group         0x0000000000000000        0x8 native/udt/src/api.o
 .group         0x0000000000000000        0x8 native/udt/src/api.o
 .group         0x0000000000000000        0x8 native/udt/src/api.o
 .group         0x0000000000000000        0x8 native/udt/src/api.o
 .group         0x0000000000000000        0x8 native/udt/src/api.o
 .group         0x0000000000000000        0x8 native/udt/src/api.o
 .group         0x0000000000000000        0x8 native/udt/src/api.o
 .group         0x0000000000000000        0x8 native/udt/src/api.o
 .group         0x0000000000000000        0x8 native/udt/src/api.o
 .group         0x0000000000000000        0x8 native/udt/src/api.o
 .group         0x0000000000000000        0x8 native/udt/src/api.o
 .group         0x0000000000000000        0x8 native/udt/src/api.o
 .group         0x0000000000000000        0x8 native/udt/src/api.o
 .group         0x0000000000000000        0x8 native/udt/src/api.o
 .group         0x0000000000000000        0x8 native/udt/src/api.o
 .group         0x0000000000000000        0x8 native/udt/src/api.o
 .text._ZNSt8_Rb_treeIiiSt9_IdentityIiESt4lessIiESaIiEE8_M_eraseEPSt13_Rb_tree_nodeIiE
                0x0000000000000000       0x4b native/udt/src/api.o
 .text._ZNSt3setIiSt4lessIiESaIiEED1Ev
                0x0000000000000000       0x17 native/udt/src/api.o
 .text._ZNSt8_Rb_treeIiiSt9_IdentityIiESt4lessIiESaIiEE10_M_insert_EPKSt18_Rb_tree_node_baseS8_RKi
                0x0000000000000000       0x9b native/udt/src/api.o
 .text._ZNSt8_Rb_treeIiiSt9_IdentityIiESt4lessIiESaIiEE7_M_copyEPKSt13_Rb_tree_nodeIiEPS7_
                0x0000000000000000      0x114 native/udt/src/api.o
 .text._ZNSt6vectorIiSaIiEE13_M_insert_auxEN9__gnu_cxx17__normal_iteratorIPiS1_EERKi
                0x0000000000000000      0x175 native/udt/src/api.o
 .data.DW.ref.__gxx_personality_v0
                0x0000000000000000        0x8 native/udt/src/api.o
 .note.GNU-stack
                0x0000000000000000        0x0 native/udt/src/api.o
 .group         0x0000000000000000        0x8 native/jni/com_barchart_udt_SocketUDT.o
 .group         0x0000000000000000        0x8 native/jni/com_barchart_udt_SocketUDT.o
 .group         0x0000000000000000        0x8 native/jni/com_barchart_udt_SocketUDT.o
 .group         0x0000000000000000        0x8 native/jni/com_barchart_udt_SocketUDT.o
 .group         0x0000000000000000        0x8 native/jni/com_barchart_udt_SocketUDT.o
 .group         0x0000000000000000        0x8 native/jni/com_barchart_udt_SocketUDT.o
 .group         0x0000000000000000        0x8 native/jni/com_barchart_udt_SocketUDT.o
 .group         0x0000000000000000        0x8 native/jni/com_barchart_udt_SocketUDT.o
 .group         0x0000000000000000        0x8 native/jni/com_barchart_udt_SocketUDT.o
 .group         0x0000000000000000        0x8 native/jni/com_barchart_udt_SocketUDT.o
 .group         0x0000000000000000        0x8 native/jni/com_barchart_udt_SocketUDT.o
 .text._ZNSt8_Rb_treeIiiSt9_IdentityIiESt4lessIiESaIiEE8_M_eraseEPSt13_Rb_tree_nodeIiE
                0x0000000000000000       0x4b native/jni/com_barchart_udt_SocketUDT.o
 .text._ZNSt3setIiSt4lessIiESaIiEED1Ev
                0x0000000000000000       0x17 native/jni/com_barchart_udt_SocketUDT.o
 .text._ZNSt8_Rb_treeIiiSt9_IdentityIiESt4lessIiESaIiEE10_M_insert_EPKSt18_Rb_tree_node_baseS8_RKi
                0x0000000000000000       0x9b native/jni/com_barchart_udt_SocketUDT.o
 .text._ZNSt6vectorIiSaIiEE13_M_insert_auxEN9__gnu_cxx17__normal_iteratorIPiS1_EERKi
                0x0000000000000000      0x175 native/jni/com_barchart_udt_SocketUDT.o
 .data.DW.ref.__gxx_personality_v0
                0x0000000000000000        0x8 native/jni/com_barchart_udt_SocketUDT.o
 .note.GNU-stack
                0x0000000000000000        0x0 native/jni/com_barchart_udt_SocketUDT.o
 .note.GNU-stack
                0x0000000000000000        0x0 /usr/lib/gcc/x86_64-linux-gnu/4.4.3/libgcc_eh.a(unwind-dw2.o)
 .note.GNU-stack
                0x0000000000000000        0x0 /usr/lib/gcc/x86_64-linux-gnu/4.4.3/libgcc_eh.a(unwind-dw2-fde-glibc.o)
 .note.GNU-stack
                0x0000000000000000        0x0 /usr/lib/gcc/x86_64-linux-gnu/4.4.3/crtendS.o
 .note.GNU-stack
                0x0000000000000000        0x0 /usr/lib/gcc/x86_64-linux-gnu/4.4.3/../../../../lib/crtn.o
 .gnu_debuglink
                0x0000000000000000        0xc /usr/lib/gcc/x86_64-linux-gnu/4.4.3/../../../../lib/crtn.o

Memory Configuration

Name             Origin             Length             Attributes
*default*        0x0000000000000000 0xffffffffffffffff

Linker script and memory map

LOAD /usr/lib/gcc/x86_64-linux-gnu/4.4.3/../../../../lib/crti.o
LOAD /usr/lib/gcc/x86_64-linux-gnu/4.4.3/crtbeginS.o
LOAD native/udt/src/window.o
LOAD native/udt/src/queue.o
LOAD native/udt/src/packet.o
LOAD native/udt/src/md5.o
LOAD native/udt/src/list.o
LOAD native/udt/src/epoll.o
LOAD native/udt/src/core.o
LOAD native/udt/src/common.o
LOAD native/udt/src/channel.o
LOAD native/udt/src/ccc.o
LOAD native/udt/src/cache.o
LOAD native/udt/src/buffer.o
LOAD native/udt/src/api.o
LOAD native/jni/com_barchart_udt_SocketUDT.o
LOAD /usr/lib/gcc/x86_64-linux-gnu/4.4.3/libstdc++.so
LOAD /usr/lib/gcc/x86_64-linux-gnu/4.4.3/../../../../lib/libm.so
LOAD /usr/lib/gcc/x86_64-linux-gnu/4.4.3/libgcc.a
LOAD /usr/lib/gcc/x86_64-linux-gnu/4.4.3/libgcc_eh.a
LOAD /usr/lib/gcc/x86_64-linux-gnu/4.4.3/../../../../lib/libpthread.so
START GROUP
LOAD /lib/libpthread.so.0
LOAD /usr/lib/libpthread_nonshared.a
END GROUP
LOAD /usr/lib/gcc/x86_64-linux-gnu/4.4.3/../../../../lib/libc.so
START GROUP
LOAD /lib/libc.so.6
LOAD /usr/lib/libc_nonshared.a
LOAD /lib/ld-linux-x86-64.so.2
END GROUP
LOAD /usr/lib/gcc/x86_64-linux-gnu/4.4.3/libgcc.a
LOAD /usr/lib/gcc/x86_64-linux-gnu/4.4.3/libgcc_eh.a
LOAD /usr/lib/gcc/x86_64-linux-gnu/4.4.3/crtendS.o
LOAD /usr/lib/gcc/x86_64-linux-gnu/4.4.3/../../../../lib/crtn.o
                0x00000000000001c8                . = (0x0 + SIZEOF_HEADERS)

.note.gnu.build-id
                0x00000000000001c8       0x24
 *(.note.gnu.build-id)
 .note.gnu.build-id
                0x00000000000001c8       0x24 /usr/lib/gcc/x86_64-linux-gnu/4.4.3/../../../../lib/crti.o

.hash           0x00000000000001f0     0x1308
 *(.hash)
 .hash          0x00000000000001f0     0x1308 /usr/lib/gcc/x86_64-linux-gnu/4.4.3/../../../../lib/crti.o

.gnu.hash       0x00000000000014f8     0x1390
 *(.gnu.hash)
 .gnu.hash      0x00000000000014f8     0x1390 /usr/lib/gcc/x86_64-linux-gnu/4.4.3/../../../../lib/crti.o

.dynsym         0x0000000000002888     0x4128
 *(.dynsym)
 .dynsym        0x0000000000002888     0x4128 /usr/lib/gcc/x86_64-linux-gnu/4.4.3/../../../../lib/crti.o

.dynstr         0x00000000000069b0     0x56ba
 *(.dynstr)
 .dynstr        0x00000000000069b0     0x56ba /usr/lib/gcc/x86_64-linux-gnu/4.4.3/../../../../lib/crti.o

.gnu.version    0x000000000000c06a      0x56e
 *(.gnu.version)
 .gnu.version   0x000000000000c06a      0x56e /usr/lib/gcc/x86_64-linux-gnu/4.4.3/../../../../lib/crti.o

.gnu.version_d  0x000000000000c5d8        0x0
 *(.gnu.version_d)
 .gnu.version_d
                0x0000000000000000        0x0 /usr/lib/gcc/x86_64-linux-gnu/4.4.3/../../../../lib/crti.o

.gnu.version_r  0x000000000000c5d8       0xe0
 *(.gnu.version_r)
 .gnu.version_r
                0x000000000000c5d8       0xe0 /usr/lib/gcc/x86_64-linux-gnu/4.4.3/../../../../lib/crti.o

.rela.dyn       0x000000000000c6b8      0x888
 *(.rela.init)
 *(.rela.text .rela.text.* .rela.gnu.linkonce.t.*)
 .rela.text     0x0000000000000000        0x0 /usr/lib/gcc/x86_64-linux-gnu/4.4.3/../../../../lib/crti.o
 *(.rela.fini)
 *(.rela.rodata .rela.rodata.* .rela.gnu.linkonce.r.*)
 *(.rela.data .rela.data.* .rela.gnu.linkonce.d.*)
 .rela.data.rel
                0x000000000000c6b8       0x18 /usr/lib/gcc/x86_64-linux-gnu/4.4.3/../../../../lib/crti.o
 .rela.data.DW.ref.__gxx_personality_v0
                0x000000000000c6d0       0x18 /usr/lib/gcc/x86_64-linux-gnu/4.4.3/../../../../lib/crti.o
 .rela.data.rel.ro._ZTV10CCCFactoryI6CUDTCCE
                0x000000000000c6e8       0x78 /usr/lib/gcc/x86_64-linux-gnu/4.4.3/../../../../lib/crti.o
 .rela.data.rel.ro._ZTI10CCCFactoryI6CUDTCCE
                0x000000000000c760       0x48 /usr/lib/gcc/x86_64-linux-gnu/4.4.3/../../../../lib/crti.o
 .rela.data.rel.ro._ZTI17CCCVirtualFactory
                0x000000000000c7a8       0x30 /usr/lib/gcc/x86_64-linux-gnu/4.4.3/../../../../lib/crti.o
 .rela.data.rel.ro._ZTV17CCCVirtualFactory
                0x000000000000c7d8       0x78 /usr/lib/gcc/x86_64-linux-gnu/4.4.3/../../../../lib/crti.o
 .rela.data.rel.ro._ZTV13CUDTException
                0x000000000000c850       0x90 /usr/lib/gcc/x86_64-linux-gnu/4.4.3/../../../../lib/crti.o
 .rela.data.rel.ro._ZTI13CUDTException
                0x000000000000c8e0       0x30 /usr/lib/gcc/x86_64-linux-gnu/4.4.3/../../../../lib/crti.o
 .rela.data.rel.ro._ZTV6CUDTCC
                0x000000000000c910      0x108 /usr/lib/gcc/x86_64-linux-gnu/4.4.3/../../../../lib/crti.o
 .rela.data.rel.ro._ZTV3CCC
                0x000000000000ca18      0x108 /usr/lib/gcc/x86_64-linux-gnu/4.4.3/../../../../lib/crti.o
 .rela.data.rel.ro._ZTI6CUDTCC
                0x000000000000cb20       0x48 /usr/lib/gcc/x86_64-linux-gnu/4.4.3/../../../../lib/crti.o
 .rela.data.rel.ro._ZTI3CCC
                0x000000000000cb68       0x30 /usr/lib/gcc/x86_64-linux-gnu/4.4.3/../../../../lib/crti.o
 .rela.data.DW.ref._ZTI13CUDTException
                0x000000000000cb98       0x18 /usr/lib/gcc/x86_64-linux-gnu/4.4.3/../../../../lib/crti.o
 .rela.data.DW.ref._ZTISt9bad_alloc
                0x000000000000cbb0       0x18 /usr/lib/gcc/x86_64-linux-gnu/4.4.3/../../../../lib/crti.o
 *(.rela.tdata .rela.tdata.* .rela.gnu.linkonce.td.*)
 *(.rela.tbss .rela.tbss.* .rela.gnu.linkonce.tb.*)
 *(.rela.ctors)
 .rela.ctors    0x000000000000cbc8       0x30 /usr/lib/gcc/x86_64-linux-gnu/4.4.3/../../../../lib/crti.o
 *(.rela.dtors)
 *(.rela.got)
 .rela.got      0x000000000000cbf8      0x348 /usr/lib/gcc/x86_64-linux-gnu/4.4.3/../../../../lib/crti.o
 *(.rela.bss .rela.bss.* .rela.gnu.linkonce.b.*)
 *(.rela.ldata .rela.ldata.* .rela.gnu.linkonce.l.*)
 *(.rela.lbss .rela.lbss.* .rela.gnu.linkonce.lb.*)
 *(.rela.lrodata .rela.lrodata.* .rela.gnu.linkonce.lr.*)
 *(.rela.ifunc)
 .rela.ifunc    0x0000000000000000        0x0 /usr/lib/gcc/x86_64-linux-gnu/4.4.3/../../../../lib/crti.o
 .rela.eh_frame
                0x0000000000000000        0x0 /usr/lib/gcc/x86_64-linux-gnu/4.4.3/../../../../lib/crti.o
 .rela.gcc_except_table
                0x0000000000000000        0x0 /usr/lib/gcc/x86_64-linux-gnu/4.4.3/../../../../lib/crti.o

.rela.plt       0x000000000000cf40     0x29e8
 *(.rela.plt)
 .rela.plt      0x000000000000cf40     0x29e8 /usr/lib/gcc/x86_64-linux-gnu/4.4.3/../../../../lib/crti.o
 *(.rela.iplt)

.init           0x000000000000f928       0x18
 *(.init)
 .init          0x000000000000f928        0x9 /usr/lib/gcc/x86_64-linux-gnu/4.4.3/../../../../lib/crti.o
                0x000000000000f928                _init
 .init          0x000000000000f931        0x5 /usr/lib/gcc/x86_64-linux-gnu/4.4.3/crtbeginS.o
 .init          0x000000000000f936        0x5 /usr/lib/gcc/x86_64-linux-gnu/4.4.3/crtendS.o
 .init          0x000000000000f93b        0x5 /usr/lib/gcc/x86_64-linux-gnu/4.4.3/../../../../lib/crtn.o

.plt            0x000000000000f940     0x1c00
 *(.plt)
 .plt           0x000000000000f940     0x1c00 /usr/lib/gcc/x86_64-linux-gnu/4.4.3/../../../../lib/crti.o
 *(.iplt)

.text           0x0000000000011540    0x28548
 *(.text.unlikely .text.*_unlikely)
 *(.text .stub .text.* .gnu.linkonce.t.*)
 .text          0x0000000000011540       0x17 /usr/lib/gcc/x86_64-linux-gnu/4.4.3/../../../../lib/crti.o
 *fill*         0x0000000000011557        0x9 90909090
 .text          0x0000000000011560       0xaa /usr/lib/gcc/x86_64-linux-gnu/4.4.3/crtbeginS.o
 *fill*         0x000000000001160a        0x6 90909090
 .text          0x0000000000011610      0xb27 native/udt/src/window.o
                0x0000000000011610                _ZNK14CPktTimeWindow15getMinPktSndIntEv
                0x0000000000011620                _ZN14CPktTimeWindow9onPktSentERKi
                0x0000000000011640                _ZN14CPktTimeWindow13probe2ArrivalEv
                0x0000000000011680                _ZN14CPktTimeWindow13probe1ArrivalEv
                0x00000000000116a0                _ZN14CPktTimeWindow12onPktArrivalEv
                0x00000000000116f0                _ZN10CACKWindow11acknowledgeERKiRi
                0x0000000000011870                _ZN10CACKWindow5storeERKiS1_
                0x00000000000118e0                _ZNK14CPktTimeWindow12getBandwidthEv
                0x00000000000119c0                _ZNK14CPktTimeWindow14getPktRcvSpeedEv
                0x0000000000011aa0                _ZN14CPktTimeWindowD1Ev
                0x0000000000011ae0                _ZN14CPktTimeWindowD2Ev
                0x0000000000011b20                _ZN10CACKWindowD1Ev
                0x0000000000011b70                _ZN10CACKWindowD2Ev
                0x0000000000011bc0                _ZN14CPktTimeWindowC1ERKiS1_
                0x0000000000011ca0                _ZN14CPktTimeWindowC2ERKiS1_
                0x0000000000011d80                _ZN14CPktTimeWindowC1Ev
                0x0000000000011e60                _ZN14CPktTimeWindowC2Ev
                0x0000000000011f40                _ZN10CACKWindowC1ERKi
                0x0000000000011fc0                _ZN10CACKWindowC2ERKi
                0x0000000000012040                _ZN10CACKWindowC1Ev
                0x00000000000120c0                _ZN10CACKWindowC2Ev
 *fill*         0x0000000000012137        0x9 90909090
 .text          0x0000000000012140     0x33f8 native/udt/src/queue.o
                0x0000000000012140                _ZN10CUnitQueueC2Ev
                0x0000000000012180                _ZN10CUnitQueueC1Ev
                0x00000000000121c0                _ZN10CUnitQueue6shrinkEv
                0x00000000000121d0                _ZN9CSndUList7remove_EPK4CUDT
                0x00000000000122c0                _ZN9CRcvUListC2Ev
                0x00000000000122e0                _ZN9CRcvUListC1Ev
                0x0000000000012300                _ZN9CRcvUListD2Ev
                0x0000000000012310                _ZN9CRcvUListD1Ev
                0x0000000000012320                _ZN9CRcvUList6removeEPK4CUDT
                0x00000000000123a0                _ZN5CHashC2Ev
                0x00000000000123c0                _ZN5CHashC1Ev
                0x00000000000123e0                _ZN5CHash6lookupERKi
                0x0000000000012430                _ZN9CRcvQueue10ifNewEntryEv
                0x0000000000012450                _ZN9CRcvQueue14removeListenerEPK4CUDT
                0x00000000000124b0                _ZN9CRcvQueue11setListenerEPK4CUDT
                0x0000000000012520                _ZN9CSndUList15getNextProcTimeEv
                0x0000000000012580                _ZN9CSndUList6removeEPK4CUDT
                0x00000000000125e0                _ZN5CHash6insertERKiPK4CUDT
                0x0000000000012660                _ZN5CHash6removeERKi
                0x00000000000126d0                _ZN5CHashD1Ev
                0x0000000000012750                _ZN5CHashD2Ev
                0x00000000000127d0                _ZN10CUnitQueueD1Ev
                0x0000000000012880                _ZN10CUnitQueueD2Ev
                0x0000000000012930                _ZN9CRcvQueue8recvfromERKiR7CPacket
                0x0000000000012c00                _ZN5CHash4initERKi
                0x0000000000012c60                _ZN10CUnitQueue8increaseEv
                0x0000000000012ea0                _ZN10CUnitQueue16getNextAvailUnitEv
                0x0000000000012f70                _ZN10CUnitQueue4initERKiS1_S1_
                0x0000000000013160                _ZN16CRendezvousQueue8retrieveEPK8sockaddrRi
                0x0000000000013210                _ZN9CRcvUList6updateEPK4CUDT
                0x00000000000132a0                _ZN9CRcvUList6insertEPK4CUDT
                0x0000000000013320                _ZN16CRendezvousQueueD1Ev
                0x0000000000013380                _ZN16CRendezvousQueueD2Ev
                0x00000000000133e0                _ZN9CSndUListD1Ev
                0x0000000000013410                _ZN9CSndUListD2Ev
                0x0000000000013440                _ZN16CRendezvousQueueC1Ev
                0x0000000000013490                _ZN9CRcvQueue4initERKiS1_S1_S1_PK8CChannelPK6CTimer
                0x00000000000135d0                _ZN16CRendezvousQueueC2Ev
                0x0000000000013620                _ZN9CSndUListC1Ev
                0x00000000000136a0                _ZN9CSndQueue4initEPK8CChannelPK6CTimer
                0x0000000000013790                _ZN9CSndUListC2Ev
                0x0000000000013810                _ZN9CRcvQueueC1Ev
                0x00000000000139c0                _ZN9CRcvQueueC2Ev
                0x0000000000013b70                _ZN9CSndQueueC1Ev
                0x0000000000013c00                _ZN9CSndQueueC2Ev
                0x0000000000013c90                _ZN9CSndQueue6sendtoEPK8sockaddrR7CPacket
                0x0000000000013cc0                _ZN9CSndQueueD1Ev
                0x0000000000013d60                _ZN9CSndQueueD2Ev
                0x0000000000013e00                _ZN9CSndUList7insert_ERKlPK4CUDT
                0x0000000000013f00                _ZN9CSndUList6insertERKlPK4CUDT
                0x0000000000013fd0                _ZN9CSndUList3popERP8sockaddrR7CPacket
                0x00000000000140c0                _ZN9CSndQueue6workerEPv
                0x00000000000141f0                _ZN9CSndUList6updateEPK4CUDTRKb
                0x00000000000142b0                _ZN9CRcvQueueD1Ev
                0x0000000000014490                _ZN9CRcvQueueD2Ev
                0x0000000000014670                _ZN9CRcvQueue11getNewEntryEv
                0x0000000000014700                _ZN16CRendezvousQueue6removeERKi
                0x0000000000014930                _ZN9CRcvQueue11setNewEntryEP4CUDT
                0x00000000000149d0                _ZN16CRendezvousQueue6insertERKiS1_PK8sockaddr
                0x0000000000014ad0                _ZN9CRcvQueue8storePktERKiP7CPacket
                0x0000000000015160                _ZN9CRcvQueue6workerEPv
 *fill*         0x0000000000015538        0x8 90909090
 .text._ZNSt11_Deque_baseIP7CPacketSaIS1_EED2Ev
                0x0000000000015540       0x63 native/udt/src/queue.o
                0x0000000000015540                _ZNSt11_Deque_baseIP7CPacketSaIS1_EED2Ev
 *fill*         0x00000000000155a3        0xd 90909090
 .text._ZNSt8_Rb_treeIiSt4pairIKiSt5queueIP7CPacketSt5dequeIS4_SaIS4_EEEESt10_Select1stIS9_ESt4lessIiESaIS9_EE8_M_eraseEPSt13_Rb_tree_nodeIS9_E
                0x00000000000155b0       0x54 native/udt/src/queue.o
                0x00000000000155b0                _ZNSt8_Rb_treeIiSt4pairIKiSt5queueIP7CPacketSt5dequeIS4_SaIS4_EEEESt10_Select1stIS9_ESt4lessIiESaIS9_EE8_M_eraseEPSt13_Rb_tree_nodeIS9_E
 *fill*         0x0000000000015604        0xc 90909090
 .text._ZNSt11_Deque_baseIP7CPacketSaIS1_EE17_M_initialize_mapEm
                0x0000000000015610      0x12e native/udt/src/queue.o
                0x0000000000015610                _ZNSt11_Deque_baseIP7CPacketSaIS1_EE17_M_initialize_mapEm
 *fill*         0x000000000001573e        0x2 90909090
 .text._ZNSt8_Rb_treeIiSt4pairIKiSt5queueIP7CPacketSt5dequeIS4_SaIS4_EEEESt10_Select1stIS9_ESt4lessIiESaIS9_EE10_M_insert_EPKSt18_Rb_tree_node_baseSI_RKS9_
                0x0000000000015740      0x1f8 native/udt/src/queue.o
                0x0000000000015740                _ZNSt8_Rb_treeIiSt4pairIKiSt5queueIP7CPacketSt5dequeIS4_SaIS4_EEEESt10_Select1stIS9_ESt4lessIiESaIS9_EE10_M_insert_EPKSt18_Rb_tree_node_baseSI_RKS9_
 *fill*         0x0000000000015938        0x8 90909090
 .text._ZNSt8_Rb_treeIiSt4pairIKiSt5queueIP7CPacketSt5dequeIS4_SaIS4_EEEESt10_Select1stIS9_ESt4lessIiESaIS9_EE16_M_insert_uniqueERKS9_
                0x0000000000015940       0xa0 native/udt/src/queue.o
                0x0000000000015940                _ZNSt8_Rb_treeIiSt4pairIKiSt5queueIP7CPacketSt5dequeIS4_SaIS4_EEEESt10_Select1stIS9_ESt4lessIiESaIS9_EE16_M_insert_uniqueERKS9_
 .text._ZNSt8_Rb_treeIiSt4pairIKiSt5queueIP7CPacketSt5dequeIS4_SaIS4_EEEESt10_Select1stIS9_ESt4lessIiESaIS9_EE17_M_insert_unique_ESt23_Rb_tree_const_iteratorIS9_ERKS9_
                0x00000000000159e0      0x145 native/udt/src/queue.o
                0x00000000000159e0                _ZNSt8_Rb_treeIiSt4pairIKiSt5queueIP7CPacketSt5dequeIS4_SaIS4_EEEESt10_Select1stIS9_ESt4lessIiESaIS9_EE17_M_insert_unique_ESt23_Rb_tree_const_iteratorIS9_ERKS9_
 *fill*         0x0000000000015b25        0xb 90909090
 .text._ZNSt6vectorIP4CUDTSaIS1_EE13_M_insert_auxEN9__gnu_cxx17__normal_iteratorIPS1_S3_EERKS1_
                0x0000000000015b30      0x176 native/udt/src/queue.o
                0x0000000000015b30                _ZNSt6vectorIP4CUDTSaIS1_EE13_M_insert_auxEN9__gnu_cxx17__normal_iteratorIPS1_S3_EERKS1_
 *fill*         0x0000000000015ca6        0xa 90909090
 .text._ZNSt6vectorIN16CRendezvousQueue3CRLESaIS1_EE13_M_insert_auxEN9__gnu_cxx17__normal_iteratorIPS1_S3_EERKS1_
                0x0000000000015cb0      0x18f native/udt/src/queue.o
                0x0000000000015cb0                _ZNSt6vectorIN16CRendezvousQueue3CRLESaIS1_EE13_M_insert_auxEN9__gnu_cxx17__normal_iteratorIPS1_S3_EERKS1_
 *fill*         0x0000000000015e3f        0x1 90909090
 .text          0x0000000000015e40      0x4f5 native/udt/src/packet.o
                0x0000000000015e40                _ZN7CPacketC2Ev
                0x0000000000015eb0                _ZN7CPacketC1Ev
                0x0000000000015f20                _ZN7CPacketD2Ev
                0x0000000000015f30                _ZN7CPacketD1Ev
                0x0000000000015f40                _ZNK7CPacket9getLengthEv
                0x0000000000015f50                _ZN7CPacket9setLengthERKi
                0x0000000000015f60                _ZN7CPacket4packERKiPvS2_S1_
                0x00000000000160a0                _ZN7CPacket15getPacketVectorEv
                0x00000000000160b0                _ZNK7CPacket7getFlagEv
                0x00000000000160c0                _ZNK7CPacket7getTypeEv
                0x00000000000160d0                _ZNK7CPacket15getExtendedTypeEv
                0x00000000000160e0                _ZNK7CPacket11getAckSeqNoEv
                0x00000000000160f0                _ZNK7CPacket14getMsgBoundaryEv
                0x0000000000016100                _ZNK7CPacket15getMsgOrderFlagEv
                0x0000000000016110                _ZNK7CPacket9getMsgSeqEv
                0x0000000000016120                _ZN10CHandShakeC2Ev
                0x0000000000016180                _ZN10CHandShakeC1Ev
                0x00000000000161e0                _ZN10CHandShake9serializeEPcRKi
                0x0000000000016240                _ZN10CHandShake11deserializeEPKcRKi
                0x00000000000162a0                _ZNK7CPacket5cloneEv
 *fill*         0x0000000000016335        0xb 90909090
 .text          0x0000000000016340      0xbd5 native/udt/src/md5.o
                0x0000000000016340                md5_init
                0x0000000000016ce0                md5_append
                0x0000000000016e40                md5_finish
 *fill*         0x0000000000016f15        0xb 90909090
 .text          0x0000000000016f20     0x1a99 native/udt/src/list.o
                0x0000000000016f20                _ZNK12CRcvLossList4findERKiS1_
                0x0000000000017020                _ZNK12CRcvLossList13getLossLengthEv
                0x0000000000017030                _ZNK12CRcvLossList15getFirstLostSeqEv
                0x0000000000017050                _ZN12CRcvLossList12getLossArrayEPiRiRKiS3_
                0x0000000000017120                _ZN12CRcvLossList6removeERKi
                0x0000000000017530                _ZN12CRcvLossList6removeERKiS1_
                0x00000000000175f0                _ZN12CRcvLossList6insertERKiS1_
                0x00000000000177d0                _ZN12CRcvLossListD1Ev
                0x0000000000017830                _ZN12CRcvLossListD2Ev
                0x0000000000017890                _ZN12CRcvLossListC1ERKi
                0x0000000000017960                _ZN12CRcvLossListC2ERKi
                0x0000000000017a30                _ZN12CSndLossList13getLossLengthEv
                0x0000000000017a70                _ZN12CSndLossList10getLostSeqEv
                0x0000000000017bd0                _ZN12CSndLossList6removeERKi
                0x0000000000018050                _ZN12CSndLossList6insertERKiS1_
                0x0000000000018760                _ZN12CSndLossListD1Ev
                0x00000000000187b0                _ZN12CSndLossListD2Ev
                0x0000000000018800                _ZN12CSndLossListC1ERKi
                0x00000000000188e0                _ZN12CSndLossListC2ERKi
 *fill*         0x00000000000189b9        0x7 90909090
 .text          0x00000000000189c0     0x29b8 native/udt/src/epoll.o
                0x00000000000189c0                _ZN6CEPoll12remove_ssockEiRKiPS0_
                0x0000000000018ca0                _ZN6CEPoll9add_ssockEiRKiPS0_
                0x0000000000018ea0                _ZN6CEPoll4waitEiPSt3setIiSt4lessIiESaIiEES5_lS5_S5_
                0x00000000000194f0                _ZN6CEPoll9add_usockEiRKiPS0_
                0x0000000000019650                _ZN6CEPoll13disable_writeERKiRSt3setIiSt4lessIiESaIiEE
                0x0000000000019ae0                _ZN6CEPoll11enable_readERKiRSt3setIiSt4lessIiESaIiEE
                0x0000000000019e70                _ZN6CEPoll12enable_writeERKiRSt3setIiSt4lessIiESaIiEE
                0x000000000001a200                _ZN6CEPoll12disable_readERKiRSt3setIiSt4lessIiESaIiEE
                0x000000000001a690                _ZN6CEPoll12remove_usockEiRKiPS0_
                0x000000000001a8d0                _ZN6CEPollC2Ev
                0x000000000001a940                _ZN6CEPollD2Ev
                0x000000000001a9a0                _ZN6CEPollD1Ev
                0x000000000001aa00                _ZN6CEPollC1Ev
                0x000000000001aa70                _ZN6CEPoll7releaseEi
                0x000000000001ac00                _ZN6CEPoll6createEv
 *fill*         0x000000000001b378        0x8 90909090
 .text._ZNSt8_Rb_treeIiiSt9_IdentityIiESt4lessIiESaIiEE8_M_eraseEPSt13_Rb_tree_nodeIiE
                0x000000000001b380       0x4b native/udt/src/epoll.o
                0x000000000001b380                _ZNSt8_Rb_treeIiiSt9_IdentityIiESt4lessIiESaIiEE8_M_eraseEPSt13_Rb_tree_nodeIiE
 *fill*         0x000000000001b3cb        0x5 90909090
 .text._ZNSt3setIiSt4lessIiESaIiEED1Ev
                0x000000000001b3d0       0x17 native/udt/src/epoll.o
                0x000000000001b3d0                _ZNSt3setIiSt4lessIiESaIiEED1Ev
 *fill*         0x000000000001b3e7        0x9 90909090
 .text._ZNSt8_Rb_treeIiiSt9_IdentityIiESt4lessIiESaIiEE7_M_copyEPKSt13_Rb_tree_nodeIiEPS7_
                0x000000000001b3f0      0x114 native/udt/src/epoll.o
                0x000000000001b3f0                _ZNSt8_Rb_treeIiiSt9_IdentityIiESt4lessIiESaIiEE7_M_copyEPKSt13_Rb_tree_nodeIiEPS7_
 *fill*         0x000000000001b504        0xc 90909090
 .text._ZNSt8_Rb_treeIiiSt9_IdentityIiESt4lessIiESaIiEE10_M_insert_EPKSt18_Rb_tree_node_baseS8_RKi
                0x000000000001b510       0x9b native/udt/src/epoll.o
                0x000000000001b510                _ZNSt8_Rb_treeIiiSt9_IdentityIiESt4lessIiESaIiEE10_M_insert_EPKSt18_Rb_tree_node_baseS8_RKi
 *fill*         0x000000000001b5ab        0x5 90909090
 .text._ZN10CEPollDescD1Ev
                0x000000000001b5b0       0x84 native/udt/src/epoll.o
                0x000000000001b5b0                _ZN10CEPollDescD1Ev
 *fill*         0x000000000001b634        0xc 90909090
 .text._ZNSt6vectorIiSaIiEE13_M_insert_auxEN9__gnu_cxx17__normal_iteratorIPiS1_EERKi
                0x000000000001b640      0x175 native/udt/src/epoll.o
                0x000000000001b640                _ZNSt6vectorIiSaIiEE13_M_insert_auxEN9__gnu_cxx17__normal_iteratorIPiS1_EERKi
 *fill*         0x000000000001b7b5        0xb 90909090
 .text._ZNSt8_Rb_treeIiSt4pairIKi10CEPollDescESt10_Select1stIS3_ESt4lessIiESaIS3_EE10_M_insert_EPKSt18_Rb_tree_node_baseSC_RKS3_
                0x000000000001b7c0      0x312 native/udt/src/epoll.o
                0x000000000001b7c0                _ZNSt8_Rb_treeIiSt4pairIKi10CEPollDescESt10_Select1stIS3_ESt4lessIiESaIS3_EE10_M_insert_EPKSt18_Rb_tree_node_baseSC_RKS3_
 *fill*         0x000000000001bad2        0xe 90909090
 .text._ZNSt8_Rb_treeIiSt4pairIKi10CEPollDescESt10_Select1stIS3_ESt4lessIiESaIS3_EE16_M_insert_uniqueERKS3_
                0x000000000001bae0       0xa0 native/udt/src/epoll.o
                0x000000000001bae0                _ZNSt8_Rb_treeIiSt4pairIKi10CEPollDescESt10_Select1stIS3_ESt4lessIiESaIS3_EE16_M_insert_uniqueERKS3_
 .text._ZNSt8_Rb_treeIiSt4pairIKi10CEPollDescESt10_Select1stIS3_ESt4lessIiESaIS3_EE17_M_insert_unique_ESt23_Rb_tree_const_iteratorIS3_ERKS3_
                0x000000000001bb80      0x145 native/udt/src/epoll.o
                0x000000000001bb80                _ZNSt8_Rb_treeIiSt4pairIKi10CEPollDescESt10_Select1stIS3_ESt4lessIiESaIS3_EE17_M_insert_unique_ESt23_Rb_tree_const_iteratorIS3_ERKS3_
 *fill*         0x000000000001bcc5        0xb 90909090
 .text._ZNSt8_Rb_treeIiSt4pairIKi10CEPollDescESt10_Select1stIS3_ESt4lessIiESaIS3_EE8_M_eraseEPSt13_Rb_tree_nodeIS3_E
                0x000000000001bcd0       0xc3 native/udt/src/epoll.o
                0x000000000001bcd0                _ZNSt8_Rb_treeIiSt4pairIKi10CEPollDescESt10_Select1stIS3_ESt4lessIiESaIS3_EE8_M_eraseEPSt13_Rb_tree_nodeIS3_E
 *fill*         0x000000000001bd93        0xd 90909090
 .text          0x000000000001bda0     0x742d native/udt/src/core.o
                0x000000000001bde0                _ZN4CUDT11removeEPollEi
                0x000000000001bf80                _ZN4CUDT8addEPollEi
                0x000000000001c0f0                _ZN4CUDT6listenEP8sockaddrR7CPacket
                0x000000000001c430                _ZN4CUDT12releaseSynchEv
                0x000000000001c4c0                _ZN4CUDT8sendCtrlERKiPvS2_S1_
                0x000000000001cae0                _ZN4CUDT11checkTimersEv
                0x000000000001cf40                _ZN4CUDT11processDataEP5CUnit
                0x000000000001d2a0                _ZN4CUDT8packDataER7CPacketRm
                0x000000000001d6a0                _ZN4CUDT11processCtrlER7CPacket
                0x000000000001e3c0                _ZN4CUDT12destroySynchEv
                0x000000000001e440                _ZN4CUDT9initSynchEv
                0x000000000001e4d0                _ZN4CUDTC1ERKS_
                0x000000000001e680                _ZN4CUDTC2ERKS_
                0x000000000001e830                _ZN4CUDTC1Ev
                0x000000000001e9e0                _ZN4CUDTC2Ev
                0x000000000001eb90                _ZN4CUDT6getOptE6UDTOptPvRi
                0x000000000001ee80                _ZN4CUDT6setOptE6UDTOptPKvRKi
                0x000000000001f5d0                _ZN4CUDT6sampleEP8CPerfMonb
                0x000000000001fa50                _ZN4CUDT8recvfileERSt13basic_fstreamIcSt11char_traitsIcEERlRKlRKi
                0x000000000001fe60                _ZN4CUDT8sendfileERSt13basic_fstreamIcSt11char_traitsIcEERlRKlRKi
                0x0000000000020300                _ZN4CUDT7recvmsgEPcRKi
                0x00000000000206e0                _ZN4CUDT7sendmsgEPKcRKiS3_RKb
                0x0000000000020bd0                _ZN4CUDT4sendEPKcRKi
                0x00000000000210c0                _ZN4CUDT4recvEPcRKi
                0x00000000000214e0                _ZN4CUDT5closeEv
                0x00000000000217a0                _ZN4CUDT7connectEPK8sockaddrP10CHandShake
                0x0000000000021d10                _ZN4CUDT6listenEv
                0x0000000000021e80                _ZN4CUDT4openEv
                0x00000000000221a0                _ZN4CUDTD2Ev
                0x00000000000222f0                _ZN4CUDTD1Ev
                0x0000000000022440                _ZN4CUDT7connectEPK8sockaddr
 *fill*         0x00000000000231cd        0x3 90909090
 .text._ZN17CCCVirtualFactoryD1Ev
                0x00000000000231d0       0x14 native/udt/src/core.o
                0x00000000000231d0                _ZN17CCCVirtualFactoryD1Ev
 *fill*         0x00000000000231e4        0xc 90909090
 .text._ZN10CCCFactoryI6CUDTCCED1Ev
                0x00000000000231f0       0x14 native/udt/src/core.o
                0x00000000000231f0                _ZN10CCCFactoryI6CUDTCCED1Ev
 *fill*         0x0000000000023204        0xc 90909090
 .text._ZN10CCCFactoryI6CUDTCCED0Ev
                0x0000000000023210       0x18 native/udt/src/core.o
                0x0000000000023210                _ZN10CCCFactoryI6CUDTCCED0Ev
 *fill*         0x0000000000023228        0x8 90909090
 .text._ZN17CCCVirtualFactoryD0Ev
                0x0000000000023230       0x18 native/udt/src/core.o
                0x0000000000023230                _ZN17CCCVirtualFactoryD0Ev
 *fill*         0x0000000000023248        0x8 90909090
 .text._ZN10CCCFactoryI6CUDTCCE5cloneEv
                0x0000000000023250       0x1e native/udt/src/core.o
                0x0000000000023250                _ZN10CCCFactoryI6CUDTCCE5cloneEv
 *fill*         0x000000000002326e        0x2 90909090
 .text._ZN13CUDTExceptionaSERKS_
                0x0000000000023270       0x50 native/udt/src/core.o
                0x0000000000023270                _ZN13CUDTExceptionaSERKS_
 .text._ZN10CCCFactoryI6CUDTCCE6createEv
                0x00000000000232c0       0x40 native/udt/src/core.o
                0x00000000000232c0                _ZN10CCCFactoryI6CUDTCCE6createEv
 .text          0x0000000000023300     0x1083 native/udt/src/common.o
                0x0000000000023300                _ZN6CTimer5rdtscERm
                0x0000000000023320                _ZN6CTimer15getCPUFrequencyEv
                0x0000000000023330                _ZN13CUDTExceptionC2ERKS_
                0x0000000000023370                _ZN13CUDTExceptionC1ERKS_
                0x00000000000233b0                _ZNK13CUDTException12getErrorCodeEv
                0x00000000000233d0                _ZN13CUDTException5clearEv
                0x00000000000233f0                _ZN10CIPAddress5ipcmpEPK8sockaddrS2_RKi
                0x0000000000023460                _ZN10CIPAddress4ntopEPK8sockaddrPjRKi
                0x0000000000023510                _ZN10CIPAddress4ptonEP8sockaddrPKjRKi
                0x0000000000023560                _ZN4CMD57computeEPKcPh
                0x00000000000235e0                _ZN13CUDTExceptionC1Eiii
                0x0000000000023640                _ZN13CUDTExceptionC2Eiii
                0x00000000000236a0                _ZN6CGuard11releaseCondER14pthread_cond_t
                0x00000000000236b0                _ZN6CGuard10createCondER14pthread_cond_t
                0x00000000000236c0                _ZN6CGuard12releaseMutexER15pthread_mutex_t
                0x00000000000236d0                _ZN6CTimerD1Ev
                0x0000000000023700                _ZN6CTimerD2Ev
                0x0000000000023730                _ZN6CGuard11createMutexER15pthread_mutex_t
                0x0000000000023740                _ZN6CTimerC1Ev
                0x00000000000237b0                _ZN6CTimerC2Ev
                0x0000000000023820                _ZN6CGuard7leaveCSER15pthread_mutex_t
                0x0000000000023830                _ZN6CGuardD1Ev
                0x0000000000023850                _ZN6CGuardD2Ev
                0x0000000000023870                _ZN6CGuard7enterCSER15pthread_mutex_t
                0x0000000000023880                _ZN6CGuardC1ER15pthread_mutex_t
                0x00000000000238b0                _ZN6CGuardC2ER15pthread_mutex_t
                0x00000000000238e0                _ZN6CTimer5sleepEv
                0x00000000000238f0                _ZN6CTimer7getTimeEv
                0x0000000000023920                _ZN6CTimer12waitForEventEv
                0x00000000000239b0                _ZN6CTimer7sleeptoERKm
                0x0000000000023a90                _ZN6CTimer5sleepERKm
                0x0000000000023ae0                _ZN6CTimer12triggerEventEv
                0x0000000000023b00                _ZN6CTimer4tickEv
                0x0000000000023b10                _ZN6CTimer9interruptEv
                0x0000000000023b30                _ZN6CTimer16readCPUFrequencyEv
                0x0000000000023bb0                _ZN13CUDTExceptionD0Ev
                0x0000000000023ca0                _ZN13CUDTExceptionD1Ev
                0x0000000000023d80                _ZN13CUDTExceptionD2Ev
                0x0000000000023e60                _ZN13CUDTException15getErrorMessageEv
 *fill*         0x0000000000024383        0xd 90909090
 .text          0x0000000000024390      0x73a native/udt/src/channel.o
                0x0000000000024390                _ZN8CChannelC2Ev
                0x00000000000243c0                _ZN8CChannelC1Ev
                0x00000000000243f0                _ZN8CChannelC2ERKi
                0x0000000000024410                _ZN8CChannelC1ERKi
                0x0000000000024430                _ZN8CChannelD2Ev
                0x0000000000024440                _ZN8CChannelD1Ev
                0x0000000000024450                _ZN8CChannel13setSndBufSizeERKi
                0x0000000000024460                _ZN8CChannel13setRcvBufSizeERKi
                0x0000000000024470                _ZNK8CChannel8recvfromEP8sockaddrR7CPacket
                0x0000000000024590                _ZNK8CChannel6sendtoEPK8sockaddrR7CPacket
                0x0000000000024710                _ZNK8CChannel11getPeerAddrEP8sockaddr
                0x0000000000024740                _ZNK8CChannel11getSockAddrEP8sockaddr
                0x0000000000024770                _ZN8CChannel13getRcvBufSizeEv
                0x00000000000247b0                _ZN8CChannel13getSndBufSizeEv
                0x00000000000247f0                _ZNK8CChannel5closeEv
                0x0000000000024800                _ZN8CChannel13setUDPSockOptEv
                0x0000000000024910                _ZN8CChannel4openEi
                0x0000000000024920                _ZN8CChannel4openEPK8sockaddr
 *fill*         0x0000000000024aca        0x6 90909090
 .text          0x0000000000024ad0      0x9f7 native/udt/src/ccc.o
                0x0000000000024ad0                _ZN3CCCC2Ev
                0x0000000000024b80                _ZN3CCCC1Ev
                0x0000000000024c30                _ZN3CCC11setACKTimerERKi
                0x0000000000024c50                _ZN3CCC14setACKIntervalERKi
                0x0000000000024c60                _ZN3CCC6setRTOERKi
                0x0000000000024c70                _ZN3CCC6setMSSERKi
                0x0000000000024c80                _ZN3CCC12setBandwidthERKi
                0x0000000000024c90                _ZN3CCC15setSndCurrSeqNoERKi
                0x0000000000024ca0                _ZN3CCC10setRcvRateERKi
                0x0000000000024cb0                _ZN3CCC14setMaxCWndSizeERKi
                0x0000000000024cc0                _ZN3CCC6setRTTERKi
                0x0000000000024cd0                _ZN6CUDTCCC2Ev
                0x0000000000024d60                _ZN6CUDTCCC1Ev
                0x0000000000024df0                _ZN6CUDTCC9onTimeoutEv
                0x0000000000024e50                _ZN6CUDTCC6onLossEPKiRS0_
                0x0000000000025000                _ZN6CUDTCC4initEv
                0x00000000000250c0                _ZN6CUDTCC5onACKERKi
                0x0000000000025340                _ZN3CCCD0Ev
                0x0000000000025380                _ZN3CCCD1Ev
                0x00000000000253b0                _ZN3CCCD2Ev
                0x00000000000253e0                _ZN3CCC12setUserParamEPKcRKi
                0x0000000000025440                _ZN3CCC11getPerfInfoEv
                0x0000000000025480                _ZNK3CCC13sendCustomMsgER7CPacket
 *fill*         0x00000000000254c7        0x9 90909090
 .text._ZN3CCC4initEv
                0x00000000000254d0        0x6 native/udt/src/ccc.o
                0x00000000000254d0                _ZN3CCC4initEv
 *fill*         0x00000000000254d6        0xa 90909090
 .text._ZN3CCC5closeEv
                0x00000000000254e0        0x6 native/udt/src/ccc.o
                0x00000000000254e0                _ZN3CCC5closeEv
 *fill*         0x00000000000254e6        0xa 90909090
 .text._ZN3CCC5onACKERKi
                0x00000000000254f0        0x6 native/udt/src/ccc.o
                0x00000000000254f0                _ZN3CCC5onACKERKi
 *fill*         0x00000000000254f6        0xa 90909090
 .text._ZN3CCC6onLossEPKiRS0_
                0x0000000000025500        0x6 native/udt/src/ccc.o
                0x0000000000025500                _ZN3CCC6onLossEPKiRS0_
 *fill*         0x0000000000025506        0xa 90909090
 .text._ZN3CCC9onTimeoutEv
                0x0000000000025510        0x6 native/udt/src/ccc.o
                0x0000000000025510                _ZN3CCC9onTimeoutEv
 *fill*         0x0000000000025516        0xa 90909090
 .text._ZN3CCC9onPktSentEPK7CPacket
                0x0000000000025520        0x6 native/udt/src/ccc.o
                0x0000000000025520                _ZN3CCC9onPktSentEPK7CPacket
 *fill*         0x0000000000025526        0xa 90909090
 .text._ZN3CCC13onPktReceivedEPK7CPacket
                0x0000000000025530        0x6 native/udt/src/ccc.o
                0x0000000000025530                _ZN3CCC13onPktReceivedEPK7CPacket
 *fill*         0x0000000000025536        0xa 90909090
 .text._ZN3CCC16processCustomMsgEPK7CPacket
                0x0000000000025540        0x6 native/udt/src/ccc.o
                0x0000000000025540                _ZN3CCC16processCustomMsgEPK7CPacket
 *fill*         0x0000000000025546        0xa 90909090
 .text._ZN6CUDTCCD0Ev
                0x0000000000025550       0x2d native/udt/src/ccc.o
                0x0000000000025550                _ZN6CUDTCCD0Ev
 *fill*         0x000000000002557d        0x3 90909090
 .text._ZN6CUDTCCD1Ev
                0x0000000000025580       0x18 native/udt/src/ccc.o
                0x0000000000025580                _ZN6CUDTCCD1Ev
 *fill*         0x0000000000025598        0x8 90909090
 .text          0x00000000000255a0      0x81a native/udt/src/cache.o
                0x00000000000255a0                _ZNK7CIPCompclEPK10CInfoBlockS2_
                0x0000000000025600                _ZNK7CTSCompclEPK10CInfoBlockS2_
                0x0000000000025620                _ZN6CCache7convertEPK8sockaddrRKiPj
                0x0000000000025660                _ZN6CCacheC1ERKj
                0x00000000000256f0                _ZN6CCacheC2ERKj
                0x0000000000025780                _ZN6CCacheC1Ev
                0x0000000000025810                _ZN6CCacheC2Ev
                0x00000000000258a0                _ZN6CCacheD2Ev
                0x0000000000025950                _ZN6CCache6updateEPK8sockaddrRKiP10CInfoBlock
                0x0000000000025c00                _ZN6CCache6lookupEPK8sockaddrRKiP10CInfoBlock
                0x0000000000025d10                _ZN6CCacheD1Ev
 *fill*         0x0000000000025dba        0x6 90909090
 .text._ZNSt8_Rb_treeIP10CInfoBlockS1_St9_IdentityIS1_E7CTSCompSaIS1_EE8_M_eraseEPSt13_Rb_tree_nodeIS1_E
                0x0000000000025dc0       0x4b native/udt/src/cache.o
                0x0000000000025dc0                _ZNSt8_Rb_treeIP10CInfoBlockS1_St9_IdentityIS1_E7CTSCompSaIS1_EE8_M_eraseEPSt13_Rb_tree_nodeIS1_E
 *fill*         0x0000000000025e0b        0x5 90909090
 .text._ZNSt8_Rb_treeIP10CInfoBlockS1_St9_IdentityIS1_E7CIPCompSaIS1_EE8_M_eraseEPSt13_Rb_tree_nodeIS1_E
                0x0000000000025e10       0x4b native/udt/src/cache.o
                0x0000000000025e10                _ZNSt8_Rb_treeIP10CInfoBlockS1_St9_IdentityIS1_E7CIPCompSaIS1_EE8_M_eraseEPSt13_Rb_tree_nodeIS1_E
 *fill*         0x0000000000025e5b        0x5 90909090
 .text._ZNSt8_Rb_treeIP10CInfoBlockS1_St9_IdentityIS1_E7CTSCompSaIS1_EE5eraseERKS1_
                0x0000000000025e60      0x1cd native/udt/src/cache.o
                0x0000000000025e60                _ZNSt8_Rb_treeIP10CInfoBlockS1_St9_IdentityIS1_E7CTSCompSaIS1_EE5eraseERKS1_
 *fill*         0x000000000002602d        0x3 90909090
 .text._ZNSt8_Rb_treeIP10CInfoBlockS1_St9_IdentityIS1_E7CIPCompSaIS1_EE5eraseERKS1_
                0x0000000000026030      0x1cd native/udt/src/cache.o
                0x0000000000026030                _ZNSt8_Rb_treeIP10CInfoBlockS1_St9_IdentityIS1_E7CIPCompSaIS1_EE5eraseERKS1_
 *fill*         0x00000000000261fd        0x3 90909090
 .text._ZNSt8_Rb_treeIP10CInfoBlockS1_St9_IdentityIS1_E7CIPCompSaIS1_EE10_M_insert_EPKSt18_Rb_tree_node_baseS9_RKS1_
                0x0000000000026200       0xaa native/udt/src/cache.o
                0x0000000000026200                _ZNSt8_Rb_treeIP10CInfoBlockS1_St9_IdentityIS1_E7CIPCompSaIS1_EE10_M_insert_EPKSt18_Rb_tree_node_baseS9_RKS1_
 *fill*         0x00000000000262aa        0x6 90909090
 .text._ZNSt8_Rb_treeIP10CInfoBlockS1_St9_IdentityIS1_E7CTSCompSaIS1_EE10_M_insert_EPKSt18_Rb_tree_node_baseS9_RKS1_
                0x00000000000262b0       0xaa native/udt/src/cache.o
                0x00000000000262b0                _ZNSt8_Rb_treeIP10CInfoBlockS1_St9_IdentityIS1_E7CTSCompSaIS1_EE10_M_insert_EPKSt18_Rb_tree_node_baseS9_RKS1_
 *fill*         0x000000000002635a        0x6 90909090
 .text          0x0000000000026360     0x14f2 native/udt/src/buffer.o
                0x0000000000026360                _ZN10CSndBuffer8readDataEPPcRi
                0x0000000000026390                _ZNK10CSndBuffer14getCurrBufSizeEv
                0x00000000000263a0                _ZN10CRcvBuffer7addDataEP5CUniti
                0x00000000000263f0                _ZNK10CRcvBuffer14getRcvDataSizeEv
                0x0000000000026410                _ZNK10CRcvBuffer15getAvailBufSizeEv
                0x0000000000026430                _ZN10CRcvBuffer7dropMsgERKi
                0x00000000000264a0                _ZN10CRcvBuffer7scanMsgERiS0_Rb
                0x0000000000026760                _ZN10CRcvBuffer12getRcvMsgNumEv
                0x0000000000026780                _ZN10CRcvBuffer7readMsgEPcRKi
                0x00000000000268c0                _ZN10CRcvBuffer10readBufferEPcRKi
                0x0000000000026a70                _ZN10CRcvBuffer7ackDataERKi
                0x0000000000026aa0                _ZN10CRcvBuffer16readBufferToFileERSt13basic_fstreamIcSt11char_traitsIcEERKi
                0x0000000000026c00                _ZN10CRcvBufferD1Ev
                0x0000000000026c60                _ZN10CRcvBufferD2Ev
                0x0000000000026cc0                _ZN10CRcvBufferC1ERKiP10CUnitQueue
                0x0000000000026d40                _ZN10CRcvBufferC2ERKiP10CUnitQueue
                0x0000000000026dc0                _ZN10CRcvBufferC1EP10CUnitQueue
                0x0000000000026e10                _ZN10CRcvBufferC2EP10CUnitQueue
                0x0000000000026e60                _ZN10CSndBuffer8increaseEv
                0x0000000000027030                _ZN10CSndBuffer7ackDataERKi
                0x00000000000270b0                _ZN10CSndBuffer8readDataEPPciRiS2_
                0x0000000000027200                _ZN10CSndBuffer17addBufferFromFileERSt13basic_fstreamIcSt11char_traitsIcEERKi
                0x0000000000027340                _ZN10CSndBuffer9addBufferEPKcRKiS3_RKb
                0x00000000000274a0                _ZN10CSndBufferD1Ev
                0x0000000000027520                _ZN10CSndBufferD2Ev
                0x00000000000275a0                _ZN10CSndBufferC1ERKiS1_
                0x0000000000027700                _ZN10CSndBufferC2ERKiS1_
 *fill*         0x0000000000027852        0xe 90909090
 .text          0x0000000000027860     0x7f82 native/udt/src/api.o
                0x0000000000027860                _ZN10CUDTUnited6locateEi
                0x00000000000278f0                _ZN10CUDTUnited9getStatusEi
                0x00000000000279f0                _ZN10CUDTUnited9updateMuxEP10CUDTSocketPKS0_
                0x0000000000027ae0                _ZN10CUDTUnited9updateMuxEP10CUDTSocketPK8sockaddrPKi
                0x0000000000027fc0                _ZN10CUDTUnited8getErrorEv
                0x0000000000028050                _ZN4CUDT12getlasterrorEv
                0x0000000000028070                _ZN3UDT12getlasterrorEv
                0x0000000000028080                _ZN10CUDTUnited8setErrorEP13CUDTException
                0x00000000000280d0                _ZN4CUDT12getsockstateEi
                0x0000000000028160                _ZN3UDT12getsockstateEi
                0x0000000000028170                _ZN10CUDTUnited6locateEiPK8sockaddrRKiS4_
                0x00000000000282d0                _ZN10CUDTUnited13epoll_releaseEi
                0x00000000000282f0                _ZN4CUDT13epoll_releaseEi
                0x0000000000028420                _ZN3UDT13epoll_releaseEi
                0x0000000000028430                _ZN10CUDTUnited10epoll_waitEiPSt3setIiSt4lessIiESaIiEES5_lS5_S5_
                0x0000000000028450                _ZN4CUDT10epoll_waitEiPSt3setIiSt4lessIiESaIiEES5_lS5_S5_
                0x0000000000028590                _ZN3UDT10epoll_waitEiPSt3setIiSt4lessIiESaIiEES5_lS5_S5_
                0x00000000000285a0                _ZN10CUDTUnited18epoll_remove_ssockEiiPKi
                0x00000000000285c0                _ZN4CUDT18epoll_remove_ssockEiiPKi
                0x00000000000286f0                _ZN10CUDTUnited18epoll_remove_usockEiiPKi
                0x00000000000287a0                _ZN4CUDT18epoll_remove_usockEiiPKi
                0x00000000000288d0                _ZN3UDT18epoll_remove_ssockEiiPKi
                0x00000000000288e0                _ZN3UDT18epoll_remove_usockEiiPKi
                0x00000000000288f0                _ZN10CUDTUnited6lookupEi
                0x00000000000289e0                _ZN4CUDT12getUDTHandleEi
                0x0000000000028a10                _ZN4CUDT7perfmonEiP8CPerfMonb
                0x0000000000028b50                _ZN3UDT7perfmonEiP8CPerfMonb
                0x0000000000028b60                _ZN4CUDT8recvfileEiRSt13basic_fstreamIcSt11char_traitsIcEERlRKlRKi
                0x0000000000028cc0                _ZN3UDT8recvfileEiRSt13basic_fstreamIcSt11char_traitsIcEERlli
                0x0000000000028ce0                _ZN4CUDT8sendfileEiRSt13basic_fstreamIcSt11char_traitsIcEERlRKlRKi
                0x0000000000028e90                _ZN3UDT8sendfileEiRSt13basic_fstreamIcSt11char_traitsIcEERlli
                0x0000000000028eb0                _ZN4CUDT7recvmsgEiPci
                0x0000000000028ff0                _ZN3UDT7recvmsgEiPci
                0x0000000000029000                _ZN4CUDT7sendmsgEiPKciib
                0x00000000000291b0                _ZN3UDT7sendmsgEiPKciib
                0x00000000000291c0                _ZN4CUDT4recvEiPcii
                0x0000000000029300                _ZN3UDT4recvEiPcii
                0x0000000000029310                _ZN4CUDT4sendEiPKcii
                0x00000000000294b0                _ZN3UDT4sendEiPKcii
                0x00000000000294c0                _ZN4CUDT10setsockoptEii6UDTOptPKvi
                0x0000000000029610                _ZN3UDT10setsockoptEii6UDTOptPKvi
                0x0000000000029620                _ZN4CUDT10getsockoptEii6UDTOptPvPi
                0x0000000000029770                _ZN3UDT10getsockoptEii6UDTOptPvPi
                0x0000000000029780                _ZN10CUDTUnited15epoll_add_ssockEiiPKi
                0x00000000000297a0                _ZN4CUDT15epoll_add_ssockEiiPKi
                0x00000000000298d0                _ZN3UDT15epoll_add_ssockEiiPKi
                0x00000000000298e0                _ZN10CUDTUnited15epoll_add_usockEiiPKi
                0x0000000000029990                _ZN4CUDT15epoll_add_usockEiiPKi
                0x0000000000029ac0                _ZN3UDT15epoll_add_usockEiiPKi
                0x0000000000029ad0                _ZN10CUDTUnited12epoll_createEv
                0x0000000000029af0                _ZN4CUDT12epoll_createEv
                0x0000000000029c20                _ZN3UDT12epoll_createEv
                0x0000000000029c30                _ZN10CUDTUnited11getsocknameEiP8sockaddrPi
                0x0000000000029d40                _ZN4CUDT11getsocknameEiP8sockaddrPi
                0x0000000000029e70                _ZN3UDT11getsocknameEiP8sockaddrPi
                0x0000000000029e80                _ZN10CUDTUnited11getpeernameEiP8sockaddrPi
                0x0000000000029fd0                _ZN4CUDT11getpeernameEiP8sockaddrPi
                0x000000000002a100                _ZN3UDT11getpeernameEiP8sockaddrPi
                0x000000000002a110                _ZN10CUDTUnited4bindEiPK8sockaddrRKi
                0x000000000002a290                _ZN4CUDT4bindEiPK8sockaddri
                0x000000000002a3d0                _ZN3UDT4bindEiPK8sockaddri
                0x000000000002a3e0                _ZN10CUDTUnited7connectEiPK8sockaddrRKi
                0x000000000002a630                _ZN4CUDT7connectEiPK8sockaddri
                0x000000000002a7c0                _ZN3UDT7connectEiPK8sockaddri
                0x000000000002a7d0                _ZN10CUDTUnited6acceptEiP8sockaddrPi
                0x000000000002ab70                _ZN4CUDT6acceptEiP8sockaddrPi
                0x000000000002ac50                _ZN3UDT6acceptEiP8sockaddrPi
                0x000000000002ac60                _ZN10CUDTUnited6listenEiRKi
                0x000000000002ae80                _ZN4CUDT6listenEii
                0x000000000002afc0                _ZN3UDT6listenEii
                0x000000000002afd0                _ZN10CUDTUnited4bindEii
                0x000000000002b170                _ZN4CUDT4bindEii
                0x000000000002b2a0                _ZN3UDT4bindEii
                0x000000000002b2b0                _ZN10CUDTUnited7cleanupEv
                0x000000000002b370                _ZN4CUDT7cleanupEv
                0x000000000002b390                _ZN3UDT7cleanupEv
                0x000000000002b3a0                _ZN10CUDTSocketC1Ev
                0x000000000002b480                _ZN10CUDTSocketC2Ev
                0x000000000002b560                _ZN10CUDTUnited7startupEv
                0x000000000002b620                _ZN4CUDT7startupEv
                0x000000000002b640                _ZN3UDT7startupEv
                0x000000000002b650                _ZN10CUDTUnited5closeEi
                0x000000000002b950                _ZN4CUDT5closeEi
                0x000000000002ba80                _ZN3UDT5closeEi
                0x000000000002ba90                _ZN10CUDTUnitedC2Ev
                0x000000000002bdc0                _ZN10CUDTSocketD1Ev
                0x000000000002be60                _ZN10CUDTSocketD2Ev
                0x000000000002bf00                _ZN10CUDTUnited13newConnectionEiPK8sockaddrP10CHandShake
                0x000000000002c510                _ZN10CUDTUnited9newSocketERKiS1_
                0x000000000002c810                _ZN4CUDT6socketEiii
                0x000000000002c970                _ZN3UDT6socketEiii
                0x000000000002c980                _ZN10CUDTUnited8selectExERKSt6vectorIiSaIiEEPS2_S5_S5_l
                0x000000000002cc00                _ZN4CUDT8selectExERKSt6vectorIiSaIiEEPS2_S5_S5_l
                0x000000000002ce00                _ZN3UDT8selectExERKSt6vectorIiSaIiEEPS2_S5_S5_l
                0x000000000002ce10                _ZN10CUDTUnited6selectEPSt3setIiSt4lessIiESaIiEES5_S5_PK7timeval
                0x000000000002d700                _ZN4CUDT6selectEiPSt3setIiSt4lessIiESaIiEES5_S5_PK7timeval
                0x000000000002d8f0                _ZN3UDT6selectEiPSt3setIiSt4lessIiESaIiEES5_S5_PK7timeval
                0x000000000002d900                _ZN10CUDTUnited12removeSocketEi
                0x000000000002e270                _ZN10CUDTUnited18checkBrokenSocketsEv
                0x000000000002ebd0                _ZN10CUDTUnited14garbageCollectEPv
                0x000000000002f260                _ZN10CUDTUnitedD2Ev
                0x000000000002f390                _ZN10CUDTUnitedD1Ev
                0x000000000002f4c0                _ZN10CUDTUnitedC1Ev
 *fill*         0x000000000002f7e2        0xe 90909090
 .text._ZN10CUDTUnited10TLSDestroyEPv
                0x000000000002f7f0       0x1a native/udt/src/api.o
                0x000000000002f7f0                _ZN10CUDTUnited10TLSDestroyEPv
 *fill*         0x000000000002f80a        0x6 90909090
 .text._ZNSt8_Rb_treeIiSt4pairIKiP10CUDTSocketESt10_Select1stIS4_ESt4lessIiESaIS4_EE8_M_eraseEPSt13_Rb_tree_nodeIS4_E
                0x000000000002f810       0x4b native/udt/src/api.o
                0x000000000002f810                _ZNSt8_Rb_treeIiSt4pairIKiP10CUDTSocketESt10_Select1stIS4_ESt4lessIiESaIS4_EE8_M_eraseEPSt13_Rb_tree_nodeIS4_E
 *fill*         0x000000000002f85b        0x5 90909090
 .text._ZNSt3mapIiP10CUDTSocketSt4lessIiESaISt4pairIKiS1_EEED1Ev
                0x000000000002f860       0x17 native/udt/src/api.o
                0x000000000002f860                _ZNSt3mapIiP10CUDTSocketSt4lessIiESaISt4pairIKiS1_EEED1Ev
 *fill*         0x000000000002f877        0x9 90909090
 .text._ZNSt8_Rb_treeIiSt4pairIKi12CMultiplexerESt10_Select1stIS3_ESt4lessIiESaIS3_EE8_M_eraseEPSt13_Rb_tree_nodeIS3_E
                0x000000000002f880       0x4b native/udt/src/api.o
                0x000000000002f880                _ZNSt8_Rb_treeIiSt4pairIKi12CMultiplexerESt10_Select1stIS3_ESt4lessIiESaIS3_EE8_M_eraseEPSt13_Rb_tree_nodeIS3_E
 *fill*         0x000000000002f8cb        0x5 90909090
 .text._ZNSt8_Rb_treeIiSt4pairIKiP10CUDTSocketESt10_Select1stIS4_ESt4lessIiESaIS4_EE10_M_insert_EPKSt18_Rb_tree_node_baseSD_RKS4_
                0x000000000002f8d0       0xa4 native/udt/src/api.o
                0x000000000002f8d0                _ZNSt8_Rb_treeIiSt4pairIKiP10CUDTSocketESt10_Select1stIS4_ESt4lessIiESaIS4_EE10_M_insert_EPKSt18_Rb_tree_node_baseSD_RKS4_
 *fill*         0x000000000002f974        0xc 90909090
 .text._ZNSt8_Rb_treeIiSt4pairIKi12CMultiplexerESt10_Select1stIS3_ESt4lessIiESaIS3_EE10_M_insert_EPKSt18_Rb_tree_node_baseSC_RKS3_
                0x000000000002f980       0xdb native/udt/src/api.o
                0x000000000002f980                _ZNSt8_Rb_treeIiSt4pairIKi12CMultiplexerESt10_Select1stIS3_ESt4lessIiESaIS3_EE10_M_insert_EPKSt18_Rb_tree_node_baseSC_RKS3_
 *fill*         0x000000000002fa5b        0x5 90909090
 .text._ZNSt8_Rb_treeIiSt4pairIKiP10CUDTSocketESt10_Select1stIS4_ESt4lessIiESaIS4_EE16_M_insert_uniqueERKS4_
                0x000000000002fa60       0xa0 native/udt/src/api.o
                0x000000000002fa60                _ZNSt8_Rb_treeIiSt4pairIKiP10CUDTSocketESt10_Select1stIS4_ESt4lessIiESaIS4_EE16_M_insert_uniqueERKS4_
 .text._ZNSt8_Rb_treeIiSt4pairIKiP10CUDTSocketESt10_Select1stIS4_ESt4lessIiESaIS4_EE17_M_insert_unique_ESt23_Rb_tree_const_iteratorIS4_ERKS4_
                0x000000000002fb00      0x145 native/udt/src/api.o
                0x000000000002fb00                _ZNSt8_Rb_treeIiSt4pairIKiP10CUDTSocketESt10_Select1stIS4_ESt4lessIiESaIS4_EE17_M_insert_unique_ESt23_Rb_tree_const_iteratorIS4_ERKS4_
 *fill*         0x000000000002fc45        0xb 90909090
 .text._ZNSt8_Rb_treeIiSt4pairIKi12CMultiplexerESt10_Select1stIS3_ESt4lessIiESaIS3_EE16_M_insert_uniqueERKS3_
                0x000000000002fc50       0xa0 native/udt/src/api.o
                0x000000000002fc50                _ZNSt8_Rb_treeIiSt4pairIKi12CMultiplexerESt10_Select1stIS3_ESt4lessIiESaIS3_EE16_M_insert_uniqueERKS3_
 .text._ZNSt8_Rb_treeIiSt4pairIKi12CMultiplexerESt10_Select1stIS3_ESt4lessIiESaIS3_EE17_M_insert_unique_ESt23_Rb_tree_const_iteratorIS3_ERKS3_
                0x000000000002fcf0      0x145 native/udt/src/api.o
                0x000000000002fcf0                _ZNSt8_Rb_treeIiSt4pairIKi12CMultiplexerESt10_Select1stIS3_ESt4lessIiESaIS3_EE17_M_insert_unique_ESt23_Rb_tree_const_iteratorIS3_ERKS3_
 *fill*         0x000000000002fe35        0xb 90909090
 .text._ZNSt8_Rb_treeIiiSt9_IdentityIiESt4lessIiESaIiEE16_M_insert_uniqueERKi
                0x000000000002fe40       0xa0 native/udt/src/api.o
                0x000000000002fe40                _ZNSt8_Rb_treeIiiSt9_IdentityIiESt4lessIiESaIiEE16_M_insert_uniqueERKi
 .text._ZNSt8_Rb_treeIiiSt9_IdentityIiESt4lessIiESaIiEE17_M_insert_unique_ESt23_Rb_tree_const_iteratorIiERKi
                0x000000000002fee0      0x145 native/udt/src/api.o
                0x000000000002fee0                _ZNSt8_Rb_treeIiiSt9_IdentityIiESt4lessIiESaIiEE17_M_insert_unique_ESt23_Rb_tree_const_iteratorIiERKi
 *fill*         0x0000000000030025        0xb 90909090
 .text._ZNSt3setIiSt4lessIiESaIiEE5eraseERKi
                0x0000000000030030      0x182 native/udt/src/api.o
                0x0000000000030030                _ZNSt3setIiSt4lessIiESaIiEE5eraseERKi
 *fill*         0x00000000000301b2        0xe 90909090
 .text._ZNSt8_Rb_treeIlSt4pairIKlSt3setIiSt4lessIiESaIiEEESt10_Select1stIS7_ES3_IlESaIS7_EE8_M_eraseEPSt13_Rb_tree_nodeIS7_E
                0x00000000000301c0       0x60 native/udt/src/api.o
                0x00000000000301c0                _ZNSt8_Rb_treeIlSt4pairIKlSt3setIiSt4lessIiESaIiEEESt10_Select1stIS7_ES3_IlESaIS7_EE8_M_eraseEPSt13_Rb_tree_nodeIS7_E
 .text._ZNSt8_Rb_treeIlSt4pairIKlSt3setIiSt4lessIiESaIiEEESt10_Select1stIS7_ES3_IlESaIS7_EE10_M_insert_EPKSt18_Rb_tree_node_baseSF_RKS7_
                0x0000000000030220      0x12a native/udt/src/api.o
                0x0000000000030220                _ZNSt8_Rb_treeIlSt4pairIKlSt3setIiSt4lessIiESaIiEEESt10_Select1stIS7_ES3_IlESaIS7_EE10_M_insert_EPKSt18_Rb_tree_node_baseSF_RKS7_
 *fill*         0x000000000003034a        0x6 90909090
 .text._ZNSt8_Rb_treeIlSt4pairIKlSt3setIiSt4lessIiESaIiEEESt10_Select1stIS7_ES3_IlESaIS7_EE16_M_insert_uniqueERKS7_
                0x0000000000030350       0xa9 native/udt/src/api.o
                0x0000000000030350                _ZNSt8_Rb_treeIlSt4pairIKlSt3setIiSt4lessIiESaIiEEESt10_Select1stIS7_ES3_IlESaIS7_EE16_M_insert_uniqueERKS7_
 *fill*         0x00000000000303f9        0x7 90909090
 .text._ZNSt8_Rb_treeIlSt4pairIKlSt3setIiSt4lessIiESaIiEEESt10_Select1stIS7_ES3_IlESaIS7_EE17_M_insert_unique_ESt23_Rb_tree_const_iteratorIS7_ERKS7_
                0x0000000000030400      0x145 native/udt/src/api.o
                0x0000000000030400                _ZNSt8_Rb_treeIlSt4pairIKlSt3setIiSt4lessIiESaIiEEESt10_Select1stIS7_ES3_IlESaIS7_EE17_M_insert_unique_ESt23_Rb_tree_const_iteratorIS7_ERKS7_
 *fill*         0x0000000000030545        0xb 90909090
 .text._ZNSt6vectorIP10CUDTSocketSaIS1_EE13_M_insert_auxEN9__gnu_cxx17__normal_iteratorIPS1_S3_EERKS1_
                0x0000000000030550      0x176 native/udt/src/api.o
                0x0000000000030550                _ZNSt6vectorIP10CUDTSocketSaIS1_EE13_M_insert_auxEN9__gnu_cxx17__normal_iteratorIPS1_S3_EERKS1_
 *fill*         0x00000000000306c6        0xa 90909090
 .text._ZNSt6vectorIP10CUDTSocketSaIS1_EE6insertEN9__gnu_cxx17__normal_iteratorIPS1_S3_EERKS1_
                0x00000000000306d0       0x73 native/udt/src/api.o
                0x00000000000306d0                _ZNSt6vectorIP10CUDTSocketSaIS1_EE6insertEN9__gnu_cxx17__normal_iteratorIPS1_S3_EERKS1_
 *fill*         0x0000000000030743        0xd 90909090
 .text          0x0000000000030750     0x49a9 native/jni/com_barchart_udt_SocketUDT.o
                0x0000000000030750                UDT_GetSocketID
                0x0000000000030770                UDT_SetSocketID
                0x0000000000030790                UDT_InitFieldMonitor
                0x0000000000030c00                UDT_InitFieldRefAll
                0x0000000000030e00                Java_com_barchart_udt_SocketUDT_getSignatureJNI0
                0x0000000000030e10                Java_com_barchart_udt_SocketUDT_testEmptyCall0
                0x0000000000030e20                Java_com_barchart_udt_SocketUDT_testIterateArray0
                0x0000000000030e80                Java_com_barchart_udt_SocketUDT_testMakeArray0
                0x0000000000030ea0                Java_com_barchart_udt_SocketUDT_testGetSetArray0
                0x0000000000030f20                Java_com_barchart_udt_SocketUDT_testFillArray0
                0x0000000000030f90                Java_com_barchart_udt_SocketUDT_testFillBuffer0
                0x0000000000030ff0                Java_com_barchart_udt_SocketUDT_getStatus0
                0x0000000000031010                Java_com_barchart_udt_SocketUDT_testSocketStatus0
                0x0000000000031060                Java_com_barchart_udt_SocketUDT_testDirectIntBufferAccess0
                0x00000000000310e0                Java_com_barchart_udt_SocketUDT_testDirectByteBufferAccess0
                0x0000000000031150                Java_com_barchart_udt_SocketUDT_testCrashJVM0
                0x0000000000031180                UDT_InitMethodRefAll
                0x0000000000031490                X_InitMethodRef
                0x0000000000031500                XXX_ThrowSocketExceptionMessage
                0x0000000000031590                X_InitClassReference
                0x0000000000031640                UDT_InitClassRefAll
                0x00000000000317a0                Java_com_barchart_udt_SocketUDT_clearError0
                0x00000000000317c0                Java_com_barchart_udt_SocketUDT_getErrorMessage0
                0x0000000000031820                Java_com_barchart_udt_SocketUDT_getErrorCode0
                0x0000000000031840                Java_com_barchart_udt_SocketUDT_testIterateSet0
                0x00000000000318a0                UDT_NewExceptionUDT
                0x0000000000031950                UDT_ThrowExceptionUDT_ErrorInfo
                0x0000000000031a30                Java_com_barchart_udt_SocketUDT_testInvalidClose0
                0x0000000000031ac0                Java_com_barchart_udt_SocketUDT_close0
                0x0000000000031b50                Java_com_barchart_udt_SocketUDT_initInstance1
                0x0000000000031be0                UDT_ThrowExceptionUDT_Message
                0x0000000000031c90                X_IsValidRange
                0x0000000000031d00                UDT_NewLingerUDT
                0x0000000000031d90                X_NewInetAddress
                0x0000000000031e70                X_NewLong
                0x0000000000031ed0                X_NewInteger
                0x0000000000031f30                X_NewBoolean
                0x0000000000031f80                UDT_CopySetToArray
                0x0000000000031fd0                UDT_CopyArrayToSet
                0x00000000000320f0                Java_com_barchart_udt_SocketUDT_updateMonitor0
                0x0000000000032580                UDT_ReturnSendError
                0x0000000000032610                Java_com_barchart_udt_SocketUDT_send2
                0x0000000000032720                Java_com_barchart_udt_SocketUDT_send1
                0x00000000000328a0                Java_com_barchart_udt_SocketUDT_send0
                0x00000000000329c0                UDT_ReturnReceiveError
                0x0000000000032a50                Java_com_barchart_udt_SocketUDT_receive2
                0x0000000000032b60                Java_com_barchart_udt_SocketUDT_receive1
                0x0000000000032cd0                Java_com_barchart_udt_SocketUDT_receive0
                0x0000000000032e00                Java_com_barchart_udt_SocketUDT_listen0
                0x0000000000032e90                Java_com_barchart_udt_SocketUDT_setOption0
                0x0000000000033140                Java_com_barchart_udt_SocketUDT_getOption0
                0x0000000000033320                Java_com_barchart_udt_SocketUDT_accept0
                0x00000000000334b0                Java_com_barchart_udt_SocketUDT_initInstance0
                0x0000000000033560                Java_com_barchart_udt_SocketUDT_stopClass0
                0x00000000000335e0                Java_com_barchart_udt_SocketUDT_initClass0
                0x0000000000033680                X_IsSockaddrEqualsInetSocketAddress
                0x00000000000337b0                X_NewInetSocketAddress
                0x00000000000338b0                Java_com_barchart_udt_SocketUDT_hasLoadedLocalSocketAddress
                0x0000000000033990                Java_com_barchart_udt_SocketUDT_hasLoadedRemoteSocketAddress
                0x0000000000033a70                X_ConvertSockaddrToInetSocketAddress
                0x0000000000033b80                X_ConvertInetSocketAddressToSockaddr
                0x0000000000033ca0                X_InitSockAddr
                0x0000000000033cf0                Java_com_barchart_udt_SocketUDT_connect0
                0x0000000000033e40                Java_com_barchart_udt_SocketUDT_bind0
                0x0000000000033f60                Java_com_barchart_udt_SocketUDT_select0
                0x0000000000034530                Java_com_barchart_udt_SocketUDT_select1
                0x0000000000034930                Java_com_barchart_udt_SocketUDT_selectEx1
                0x0000000000034b80                Java_com_barchart_udt_SocketUDT_selectEx0
 *fill*         0x00000000000350f9        0x7 90909090
 .text._ZN7JNIEnv_16CallObjectMethodEP8_jobjectP10_jmethodIDz
                0x0000000000035100       0x9a native/jni/com_barchart_udt_SocketUDT.o
                0x0000000000035100                _ZN7JNIEnv_16CallObjectMethodEP8_jobjectP10_jmethodIDz
 *fill*         0x000000000003519a        0x6 90909090
 .text._ZN7JNIEnv_17CallBooleanMethodEP8_jobjectP10_jmethodIDz
                0x00000000000351a0       0x9a native/jni/com_barchart_udt_SocketUDT.o
                0x00000000000351a0                _ZN7JNIEnv_17CallBooleanMethodEP8_jobjectP10_jmethodIDz
 *fill*         0x000000000003523a        0x6 90909090
 .text._ZN7JNIEnv_13CallIntMethodEP8_jobjectP10_jmethodIDz
                0x0000000000035240       0x9a native/jni/com_barchart_udt_SocketUDT.o
                0x0000000000035240                _ZN7JNIEnv_13CallIntMethodEP8_jobjectP10_jmethodIDz
 *fill*         0x00000000000352da        0x6 90909090
 .text._ZN7JNIEnv_14CallLongMethodEP8_jobjectP10_jmethodIDz
                0x00000000000352e0       0x9a native/jni/com_barchart_udt_SocketUDT.o
                0x00000000000352e0                _ZN7JNIEnv_14CallLongMethodEP8_jobjectP10_jmethodIDz
 *fill*         0x000000000003537a        0x6 90909090
 .text._ZN7JNIEnv_9NewObjectEP7_jclassP10_jmethodIDz
                0x0000000000035380       0x9a native/jni/com_barchart_udt_SocketUDT.o
                0x0000000000035380                _ZN7JNIEnv_9NewObjectEP7_jclassP10_jmethodIDz
 *fill*         0x000000000003541a        0x6 90909090
 .text._ZNSt6vectorIiSaIiEED1Ev
                0x0000000000035420       0x1a native/jni/com_barchart_udt_SocketUDT.o
                0x0000000000035420                _ZNSt6vectorIiSaIiEED1Ev
 *fill*         0x000000000003543a        0x6 90909090
 .text          0x0000000000035440     0x2b6d /usr/lib/gcc/x86_64-linux-gnu/4.4.3/libgcc_eh.a(unwind-dw2.o)
                0x0000000000035490                _Unwind_GetCFA
                0x00000000000354a0                _Unwind_GetIP
                0x00000000000354b0                _Unwind_GetIPInfo
                0x00000000000354d0                _Unwind_SetIP
                0x00000000000354e0                _Unwind_GetLanguageSpecificData
                0x00000000000354f0                _Unwind_GetRegionStart
                0x0000000000035500                _Unwind_GetDataRelBase
                0x0000000000035510                _Unwind_GetTextRelBase
                0x0000000000035530                _Unwind_DeleteException
                0x0000000000035550                _Unwind_SetGR
                0x00000000000355a0                _Unwind_GetGR
                0x00000000000356b0                _Unwind_FindEnclosingFunction
                0x00000000000378a0                _Unwind_Backtrace
                0x0000000000037a10                _Unwind_ForcedUnwind
                0x0000000000037b90                _Unwind_Resume
                0x0000000000037c70                __frame_state_for
                0x0000000000037d70                _Unwind_RaiseException
                0x0000000000037ec0                _Unwind_Resume_or_Rethrow
 *fill*         0x0000000000037fad        0x3 90909090
 .text          0x0000000000037fb0     0x1a91 /usr/lib/gcc/x86_64-linux-gnu/4.4.3/libgcc_eh.a(unwind-dw2-fde-glibc.o)
                0x0000000000037fb0                __register_frame_info_bases
                0x0000000000038040                __register_frame_info
                0x0000000000038050                __register_frame_info_table_bases
                0x00000000000380d0                __register_frame_info_table
                0x0000000000039050                __register_frame_table
                0x0000000000039070                __register_frame
                0x0000000000039700                _Unwind_Find_FDE
                0x0000000000039910                __deregister_frame_info_bases
                0x0000000000039a10                __deregister_frame_info
                0x0000000000039a20                __deregister_frame
 *fill*         0x0000000000039a41        0xf 90909090
 .text          0x0000000000039a50       0x36 /usr/lib/gcc/x86_64-linux-gnu/4.4.3/crtendS.o
 *fill*         0x0000000000039a86        0x2 90909090
 .text          0x0000000000039a88        0x0 /usr/lib/gcc/x86_64-linux-gnu/4.4.3/../../../../lib/crtn.o
 *(.gnu.warning)

.fini           0x0000000000039a88        0xe
 *(.fini)
 .fini          0x0000000000039a88        0x4 /usr/lib/gcc/x86_64-linux-gnu/4.4.3/../../../../lib/crti.o
                0x0000000000039a88                _fini
 .fini          0x0000000000039a8c        0x5 /usr/lib/gcc/x86_64-linux-gnu/4.4.3/crtbeginS.o
 .fini          0x0000000000039a91        0x5 /usr/lib/gcc/x86_64-linux-gnu/4.4.3/../../../../lib/crtn.o
                0x0000000000039a96                PROVIDE (__etext, .)
                0x0000000000039a96                PROVIDE (_etext, .)
                0x0000000000039a96                PROVIDE (etext, .)

.rodata         0x0000000000039aa0     0x1d04
 *(.rodata .rodata.* .gnu.linkonce.r.*)
 .rodata.cst8   0x0000000000039aa0        0x8 native/udt/src/window.o
 .rodata.cst8   0x0000000000039aa8        0x8 native/udt/src/queue.o
 .rodata        0x0000000000039ab0        0x8 native/udt/src/packet.o
                0x0000000000039ab0                _ZN7CPacket13m_iPktHdrSizeE
                0x0000000000039ab4                _ZN10CHandShake14m_iContentSizeE
 *fill*         0x0000000000039ab8        0x8 00
 .rodata        0x0000000000039ac0       0x44 native/udt/src/md5.o
 .rodata.str1.1
                0x0000000000039b04        0xb native/udt/src/core.o
 *fill*         0x0000000000039b0f        0x1 00
 .rodata        0x0000000000039b10       0xdc native/udt/src/core.o
                0x0000000000039bbc                _ZN4CUDT12INVALID_SOCKE
                0x0000000000039bc0                _ZN4CUDT5ERRORE
                0x0000000000039bc4                _ZN3UDT12INVALID_SOCKE
                0x0000000000039bc8                _ZN3UDT5ERRORE
                0x0000000000039bcc                _ZN6CSeqNo10m_iSeqNoTHE
                0x0000000000039bd0                _ZN6CSeqNo11m_iMaxSeqNoE
                0x0000000000039bd4                _ZN6CAckNo14m_iMaxAckSeqNoE
                0x0000000000039bd8                _ZN6CMsgNo10m_iMsgNoTHE
                0x0000000000039bdc                _ZN6CMsgNo11m_iMaxMsgNoE
                0x0000000000039be0                _ZN4CUDT10m_iVersionE
                0x0000000000039be4                _ZN4CUDT14m_iSYNIntervalE
                0x0000000000039be8                _ZN4CUDT20m_iSelfClockIntervalE
 *fill*         0x0000000000039bec        0x4 00
 .rodata._ZTS10CCCFactoryI6CUDTCCE
                0x0000000000039bf0       0x16 native/udt/src/core.o
                0x0000000000039bf0                _ZTS10CCCFactoryI6CUDTCCE
 *fill*         0x0000000000039c06        0xa 00
 .rodata._ZTS17CCCVirtualFactory
                0x0000000000039c10       0x14 native/udt/src/core.o
                0x0000000000039c10                _ZTS17CCCVirtualFactory
 *fill*         0x0000000000039c24        0x4 00
 .rodata.cst8   0x0000000000039c28       0x28 native/udt/src/core.o
                                         0x30 (size before relaxing)
 .rodata.str1.1
                0x0000000000039c50      0x1be native/udt/src/common.o
 *fill*         0x0000000000039e0e        0x2 00
 .rodata.str1.8
                0x0000000000039e10      0x2f5 native/udt/src/common.o
 *fill*         0x000000000003a105        0x3 00
 .rodata        0x000000000003a108       0xe8 native/udt/src/common.o
                0x000000000003a160                _ZN13CUDTException7SUCCESSE
                0x000000000003a164                _ZN13CUDTException10ECONNSETUPE
                0x000000000003a168                _ZN13CUDTException9ENOSERVERE
                0x000000000003a16c                _ZN13CUDTException8ECONNREJE
                0x000000000003a170                _ZN13CUDTException9ESOCKFAILE
                0x000000000003a174                _ZN13CUDTException8ESECFAILE
                0x000000000003a178                _ZN13CUDTException9ECONNFAILE
                0x000000000003a17c                _ZN13CUDTException9ECONNLOSTE
                0x000000000003a180                _ZN13CUDTException7ENOCONNE
                0x000000000003a184                _ZN13CUDTException9ERESOURCEE
                0x000000000003a188                _ZN13CUDTException7ETHREADE
                0x000000000003a18c                _ZN13CUDTException6ENOBUFE
                0x000000000003a190                _ZN13CUDTException5EFILEE
                0x000000000003a194                _ZN13CUDTException9EINVRDOFFE
                0x000000000003a198                _ZN13CUDTException7ERDPERME
                0x000000000003a19c                _ZN13CUDTException9EINVWROFFE
                0x000000000003a1a0                _ZN13CUDTException7EWRPERME
                0x000000000003a1a4                _ZN13CUDTException6EINVOPE
                0x000000000003a1a8                _ZN13CUDTException10EBOUNDSOCKE
                0x000000000003a1ac                _ZN13CUDTException9ECONNSOCKE
                0x000000000003a1b0                _ZN13CUDTException9EINVPARAME
                0x000000000003a1b4                _ZN13CUDTException8EINVSOCKE
                0x000000000003a1b8                _ZN13CUDTException12EUNBOUNDSOCKE
                0x000000000003a1bc                _ZN13CUDTException9ENOLISTENE
                0x000000000003a1c0                _ZN13CUDTException10ERDVNOSERVE
                0x000000000003a1c4                _ZN13CUDTException11ERDVUNBOUNDE
                0x000000000003a1c8                _ZN13CUDTException10ESTREAMILLE
                0x000000000003a1cc                _ZN13CUDTException9EDGRAMILLE
                0x000000000003a1d0                _ZN13CUDTException10EDUPLISTENE
                0x000000000003a1d4                _ZN13CUDTException9ELARGEMSGE
                0x000000000003a1d8                _ZN13CUDTException10EINVPOLLIDE
                0x000000000003a1dc                _ZN13CUDTException10EASYNCFAILE
                0x000000000003a1e0                _ZN13CUDTException9EASYNCSNDE
                0x000000000003a1e4                _ZN13CUDTException9EASYNCRCVE
                0x000000000003a1e8                _ZN13CUDTException8EPEERERRE
                0x000000000003a1ec                _ZN13CUDTException8EUNKNOWNE
 .rodata._ZTS13CUDTException
                0x000000000003a1f0       0x10 native/udt/src/common.o
                0x000000000003a1f0                _ZTS13CUDTException
 .rodata.str1.1
                0x0000000000000000      0x1be native/udt/src/channel.o
                                          0x2 (size before relaxing)
 .rodata._ZTS6CUDTCC
                0x000000000003a200        0x8 native/udt/src/ccc.o
                0x000000000003a200                _ZTS6CUDTCC
 .rodata._ZTS3CCC
                0x000000000003a208        0x5 native/udt/src/ccc.o
                0x000000000003a208                _ZTS3CCC
 *fill*         0x000000000003a20d        0x3 00
 .rodata.cst8   0x000000000003a210       0x38 native/udt/src/ccc.o
                                         0x58 (size before relaxing)
 .rodata.cst8   0x000000000003a248        0x8 native/udt/src/api.o
                                         0x10 (size before relaxing)
 .rodata.str1.1
                0x000000000003a250      0x8ed native/jni/com_barchart_udt_SocketUDT.o
                                        0x8f5 (size before relaxing)
 *fill*         0x000000000003ab3d        0x3 00
 .rodata.str1.8
                0x000000000003ab40      0x340 native/jni/com_barchart_udt_SocketUDT.o
                                        0x33d (size before relaxing)
 .rodata        0x000000000003ae80      0x335 native/jni/com_barchart_udt_SocketUDT.o
 *fill*         0x000000000003b1b5        0x3 00
 .rodata        0x000000000003b1b8      0x5b8 /usr/lib/gcc/x86_64-linux-gnu/4.4.3/libgcc_eh.a(unwind-dw2.o)
 .rodata        0x000000000003b770       0x34 /usr/lib/gcc/x86_64-linux-gnu/4.4.3/libgcc_eh.a(unwind-dw2-fde-glibc.o)

.rodata1
 *(.rodata1)

.eh_frame_hdr   0x000000000003b7a4     0x1254
 *(.eh_frame_hdr)
 .eh_frame_hdr  0x000000000003b7a4     0x1254 native/udt/src/window.o

.eh_frame       0x000000000003c9f8     0x53b4
 *(.eh_frame)
 .eh_frame      0x000000000003c9f8      0x2c0 native/udt/src/window.o
                                        0x270 (size before relaxing)
 .eh_frame      0x000000000003ccb8      0xa70 native/udt/src/queue.o
                                        0x9b0 (size before relaxing)
 .eh_frame      0x000000000003d728      0x288 native/udt/src/packet.o
                                        0x278 (size before relaxing)
 .eh_frame      0x000000000003d9b0       0x98 native/udt/src/md5.o
                                         0xa8 (size before relaxing)
 .eh_frame      0x000000000003da48      0x2a0 native/udt/src/list.o
                                        0x290 (size before relaxing)
 .eh_frame      0x000000000003dce8      0x448 native/udt/src/epoll.o
                                        0x430 (size before relaxing)
 .eh_frame      0x000000000003e130      0x610 native/udt/src/core.o
                                        0x648 (size before relaxing)
 .eh_frame      0x000000000003e740      0x518 native/udt/src/common.o
                                        0x4a8 (size before relaxing)
 .eh_frame      0x000000000003ec58      0x258 native/udt/src/channel.o
                                        0x250 (size before relaxing)
 .eh_frame      0x000000000003eeb0      0x428 native/udt/src/ccc.o
                                        0x3c8 (size before relaxing)
 .eh_frame      0x000000000003f2d8      0x280 native/udt/src/cache.o
                                        0x290 (size before relaxing)
 .eh_frame      0x000000000003f558      0x3c8 native/udt/src/buffer.o
                                        0x3c0 (size before relaxing)
 .eh_frame      0x000000000003f920     0x1218 native/udt/src/api.o
                                       0x11c8 (size before relaxing)
 .eh_frame      0x0000000000040b38      0xab0 native/jni/com_barchart_udt_SocketUDT.o
                                        0xac0 (size before relaxing)
 .eh_frame      0x00000000000415e8      0x448 /usr/lib/gcc/x86_64-linux-gnu/4.4.3/libgcc_eh.a(unwind-dw2.o)
                                        0x3f0 (size before relaxing)
 .eh_frame      0x0000000000041a30      0x378 /usr/lib/gcc/x86_64-linux-gnu/4.4.3/libgcc_eh.a(unwind-dw2-fde-glibc.o)
                                        0x360 (size before relaxing)
 .eh_frame      0x0000000000041da8        0x4 /usr/lib/gcc/x86_64-linux-gnu/4.4.3/crtendS.o

.gcc_except_table
                0x0000000000041dac     0x1ed6
 *(.gcc_except_table .gcc_except_table.*)
 .gcc_except_table
                0x0000000000041dac      0x27e native/udt/src/queue.o
 .gcc_except_table
                0x000000000004202a       0x11 native/udt/src/packet.o
 *fill*         0x000000000004203b        0x1 00
 .gcc_except_table
                0x000000000004203c      0x2e4 native/udt/src/epoll.o
 .gcc_except_table
                0x0000000000042320      0x695 native/udt/src/core.o
 .gcc_except_table
                0x00000000000429b5       0x47 native/udt/src/channel.o
 .gcc_except_table
                0x00000000000429fc       0x79 native/udt/src/cache.o
 *fill*         0x0000000000042a75        0x3 00
 .gcc_except_table
                0x0000000000042a78       0x63 native/udt/src/buffer.o
 *fill*         0x0000000000042adb        0x1 00
 .gcc_except_table
                0x0000000000042adc      0xf85 native/udt/src/api.o
 .gcc_except_table
                0x0000000000043a61      0x221 native/jni/com_barchart_udt_SocketUDT.o
                0x0000000000043c82                . = (ALIGN (0x200000) - ((0x200000 - .) & 0x1fffff))
                0x0000000000244ae2                . = (0x200000 DATA_SEGMENT_ALIGN 0x1000)

.eh_frame
 *(.eh_frame)

.gcc_except_table
 *(.gcc_except_table .gcc_except_table.*)

.tdata
 *(.tdata .tdata.* .gnu.linkonce.td.*)

.tbss
 *(.tbss .tbss.* .gnu.linkonce.tb.*)
 *(.tcommon)

.preinit_array
 *(.preinit_array)

.init_array
 *(SORT(.init_array.*))
 *(.init_array)

.fini_array
 *(.fini_array)
 *(SORT(.fini_array.*))

.ctors          0x0000000000244ae8       0x20
 *crtbegin.o(.ctors)
 *crtbegin?.o(.ctors)
 .ctors         0x0000000000244ae8        0x8 /usr/lib/gcc/x86_64-linux-gnu/4.4.3/crtbeginS.o
 *(EXCLUDE_FILE(*crtend?.o *crtend.o) .ctors)
 .ctors         0x0000000000244af0        0x8 native/udt/src/core.o
 .ctors         0x0000000000244af8        0x8 native/udt/src/common.o
 *(SORT(.ctors.*))
 *(.ctors)
 .ctors         0x0000000000244b00        0x8 /usr/lib/gcc/x86_64-linux-gnu/4.4.3/crtendS.o

.dtors          0x0000000000244b08       0x10
 *crtbegin.o(.dtors)
 *crtbegin?.o(.dtors)
 .dtors         0x0000000000244b08        0x8 /usr/lib/gcc/x86_64-linux-gnu/4.4.3/crtbeginS.o
 *(EXCLUDE_FILE(*crtend?.o *crtend.o) .dtors)
 *(SORT(.dtors.*))
 *(.dtors)
 .dtors         0x0000000000244b10        0x8 /usr/lib/gcc/x86_64-linux-gnu/4.4.3/crtendS.o
                0x0000000000244b10                __DTOR_END__

.jcr            0x0000000000244b18        0x8
 *(.jcr)
 .jcr           0x0000000000244b18        0x0 /usr/lib/gcc/x86_64-linux-gnu/4.4.3/crtbeginS.o
 .jcr           0x0000000000244b18        0x8 /usr/lib/gcc/x86_64-linux-gnu/4.4.3/crtendS.o

.data.rel.ro    0x0000000000244b20      0x1f0
 *(.data.rel.ro.local* .gnu.linkonce.d.rel.ro.local.*)
 *(.data.rel.ro* .gnu.linkonce.d.rel.ro.*)
 .data.rel.ro._ZTV10CCCFactoryI6CUDTCCE
                0x0000000000244b20       0x30 native/udt/src/core.o
                0x0000000000244b20                _ZTV10CCCFactoryI6CUDTCCE
 .data.rel.ro._ZTI10CCCFactoryI6CUDTCCE
                0x0000000000244b50       0x18 native/udt/src/core.o
                0x0000000000244b50                _ZTI10CCCFactoryI6CUDTCCE
 *fill*         0x0000000000244b68        0x8 00
 .data.rel.ro._ZTI17CCCVirtualFactory
                0x0000000000244b70       0x10 native/udt/src/core.o
                0x0000000000244b70                _ZTI17CCCVirtualFactory
 .data.rel.ro._ZTV17CCCVirtualFactory
                0x0000000000244b80       0x30 native/udt/src/core.o
                0x0000000000244b80                _ZTV17CCCVirtualFactory
 *fill*         0x0000000000244bb0       0x10 00
 .data.rel.ro._ZTV13CUDTException
                0x0000000000244bc0       0x38 native/udt/src/common.o
                0x0000000000244bc0                _ZTV13CUDTException
 *fill*         0x0000000000244bf8        0x8 00
 .data.rel.ro._ZTI13CUDTException
                0x0000000000244c00       0x10 native/udt/src/common.o
                0x0000000000244c00                _ZTI13CUDTException
 *fill*         0x0000000000244c10       0x10 00
 .data.rel.ro._ZTV6CUDTCC
                0x0000000000244c20       0x60 native/udt/src/ccc.o
                0x0000000000244c20                _ZTV6CUDTCC
 .data.rel.ro._ZTV3CCC
                0x0000000000244c80       0x60 native/udt/src/ccc.o
                0x0000000000244c80                _ZTV3CCC
 .data.rel.ro._ZTI6CUDTCC
                0x0000000000244ce0       0x18 native/udt/src/ccc.o
                0x0000000000244ce0                _ZTI6CUDTCC
 *fill*         0x0000000000244cf8        0x8 00
 .data.rel.ro._ZTI3CCC
                0x0000000000244d00       0x10 native/udt/src/ccc.o
                0x0000000000244d00                _ZTI3CCC

.dynamic        0x0000000000244d10      0x1c0
 *(.dynamic)
 .dynamic       0x0000000000244d10      0x1c0 /usr/lib/gcc/x86_64-linux-gnu/4.4.3/../../../../lib/crti.o
                0x0000000000244d10                _DYNAMIC

.got            0x0000000000244ed0      0x118
 *(.got)
 .got           0x0000000000244ed0      0x118 /usr/lib/gcc/x86_64-linux-gnu/4.4.3/../../../../lib/crti.o
 *(.igot)
                0x0000000000244fe8                . = (. DATA_SEGMENT_RELRO_END 0x18)

.got.plt        0x0000000000244fe8      0xe10
 *(.got.plt)
 .got.plt       0x0000000000244fe8      0xe10 /usr/lib/gcc/x86_64-linux-gnu/4.4.3/../../../../lib/crti.o
                0x0000000000244fe8                _GLOBAL_OFFSET_TABLE_
 *(.igot.plt)

.data           0x0000000000245df8       0x28
 *(.data .data.* .gnu.linkonce.d.*)
 .data          0x0000000000245df8        0x0 /usr/lib/gcc/x86_64-linux-gnu/4.4.3/../../../../lib/crti.o
 .data          0x0000000000245df8        0x0 /usr/lib/gcc/x86_64-linux-gnu/4.4.3/crtbeginS.o
 .data.rel      0x0000000000245df8        0x8 /usr/lib/gcc/x86_64-linux-gnu/4.4.3/crtbeginS.o
                0x0000000000245df8                __dso_handle
 .data          0x0000000000245e00        0x0 native/udt/src/window.o
 .data.DW.ref.__gxx_personality_v0
                0x0000000000245e00        0x8 native/udt/src/window.o
                0x0000000000245e00                DW.ref.__gxx_personality_v0
 .data          0x0000000000245e08        0x0 native/udt/src/queue.o
 .data          0x0000000000245e08        0x0 native/udt/src/packet.o
 .data          0x0000000000245e08        0x0 native/udt/src/md5.o
 .data          0x0000000000245e08        0x0 native/udt/src/list.o
 .data          0x0000000000245e08        0x0 native/udt/src/epoll.o
 .data          0x0000000000245e08        0x0 native/udt/src/core.o
 .data          0x0000000000245e08        0x0 native/udt/src/common.o
 .data          0x0000000000245e08        0x0 native/udt/src/channel.o
 .data          0x0000000000245e08        0x0 native/udt/src/ccc.o
 .data          0x0000000000245e08        0x0 native/udt/src/cache.o
 .data          0x0000000000245e08        0x0 native/udt/src/buffer.o
 .data          0x0000000000245e08        0x0 native/udt/src/api.o
 .data.DW.ref._ZTI13CUDTException
                0x0000000000245e08        0x8 native/udt/src/api.o
                0x0000000000245e08                DW.ref._ZTI13CUDTException
 .data.DW.ref._ZTISt9bad_alloc
                0x0000000000245e10        0x8 native/udt/src/api.o
                0x0000000000245e10                DW.ref._ZTISt9bad_alloc
 .data          0x0000000000245e18        0x0 native/jni/com_barchart_udt_SocketUDT.o
 .data          0x0000000000245e18        0x0 /usr/lib/gcc/x86_64-linux-gnu/4.4.3/libgcc_eh.a(unwind-dw2.o)
 .data          0x0000000000245e18        0x8 /usr/lib/gcc/x86_64-linux-gnu/4.4.3/libgcc_eh.a(unwind-dw2-fde-glibc.o)
 .data          0x0000000000245e20        0x0 /usr/lib/gcc/x86_64-linux-gnu/4.4.3/crtendS.o
 .data          0x0000000000245e20        0x0 /usr/lib/gcc/x86_64-linux-gnu/4.4.3/../../../../lib/crtn.o

.data1
 *(.data1)
                0x0000000000245e20                _edata = .
                0x0000000000245e20                PROVIDE (edata, .)
                0x0000000000245e20                __bss_start = .

.bss            0x0000000000245e20      0x788
 *(.dynbss)
 .dynbss        0x0000000000000000        0x0 /usr/lib/gcc/x86_64-linux-gnu/4.4.3/../../../../lib/crti.o
 *(.bss .bss.* .gnu.linkonce.b.*)
 .bss           0x0000000000245e20        0x0 /usr/lib/gcc/x86_64-linux-gnu/4.4.3/../../../../lib/crti.o
 .bss           0x0000000000245e20       0x10 /usr/lib/gcc/x86_64-linux-gnu/4.4.3/crtbeginS.o
 .bss           0x0000000000245e30        0x0 native/udt/src/window.o
 .bss           0x0000000000245e30        0x0 native/udt/src/queue.o
 .bss           0x0000000000245e30        0x0 native/udt/src/packet.o
 .bss           0x0000000000245e30        0x0 native/udt/src/md5.o
 .bss           0x0000000000245e30        0x0 native/udt/src/list.o
 .bss           0x0000000000245e30        0x0 native/udt/src/epoll.o
 *fill*         0x0000000000245e30       0x10 00
 .bss           0x0000000000245e40      0x270 native/udt/src/core.o
                0x0000000000245e40                _ZN4CUDT11s_UDTUnitedE
 *fill*         0x00000000002460b0       0x10 00
 .bss           0x00000000002460c0       0x90 native/udt/src/common.o
                0x00000000002460c0                _ZN6CTimer17s_ullCPUFrequencyE
                0x00000000002460e0                _ZN6CTimer11m_EventLockE
                0x0000000000246120                _ZN6CTimer11m_EventCondE
 .bss           0x0000000000246150        0x0 native/udt/src/channel.o
 .bss           0x0000000000246150        0x0 native/udt/src/ccc.o
 .bss           0x0000000000246150        0x0 native/udt/src/cache.o
 .bss           0x0000000000246150        0x0 native/udt/src/buffer.o
 .bss           0x0000000000246150        0x0 native/udt/src/api.o
 .bss           0x0000000000246150      0x238 native/jni/com_barchart_udt_SocketUDT.o
 *fill*         0x0000000000246388        0x8 00
 .bss           0x0000000000246390       0x22 /usr/lib/gcc/x86_64-linux-gnu/4.4.3/libgcc_eh.a(unwind-dw2.o)
 *fill*         0x00000000002463b2        0xe 00
 .bss           0x00000000002463c0      0x1e8 /usr/lib/gcc/x86_64-linux-gnu/4.4.3/libgcc_eh.a(unwind-dw2-fde-glibc.o)
 .bss           0x00000000002465a8        0x0 /usr/lib/gcc/x86_64-linux-gnu/4.4.3/crtendS.o
 .bss           0x00000000002465a8        0x0 /usr/lib/gcc/x86_64-linux-gnu/4.4.3/../../../../lib/crtn.o
 *(COMMON)
                0x00000000002465a8                . = ALIGN ((. != 0x0)?0x8:0x1)

.lbss
 *(.dynlbss)
 *(.lbss .lbss.* .gnu.linkonce.lb.*)
 *(LARGE_COMMON)
                0x00000000002465a8                . = ALIGN (0x8)

.lrodata
 *(.lrodata .lrodata.* .gnu.linkonce.lr.*)

.ldata          0x00000000006465a8        0x0
 *(.ldata .ldata.* .gnu.linkonce.l.*)
                0x00000000006465a8                . = ALIGN ((. != 0x0)?0x8:0x1)
                0x00000000006465a8                . = ALIGN (0x8)
                0x00000000006465a8                _end = .
                0x00000000006465a8                PROVIDE (end, .)
                0x00000000006465a8                . = DATA_SEGMENT_END (.)

.stab
 *(.stab)

.stabstr
 *(.stabstr)

.stab.excl
 *(.stab.excl)

.stab.exclstr
 *(.stab.exclstr)

.stab.index
 *(.stab.index)

.stab.indexstr
 *(.stab.indexstr)

.comment        0x0000000000000000       0x23
 *(.comment)
 .comment       0x0000000000000000       0x23 /usr/lib/gcc/x86_64-linux-gnu/4.4.3/crtbeginS.o
                                         0x24 (size before relaxing)
 .comment       0x0000000000000000       0x24 native/udt/src/window.o
 .comment       0x0000000000000000       0x24 native/udt/src/queue.o
 .comment       0x0000000000000000       0x24 native/udt/src/packet.o
 .comment       0x0000000000000000       0x24 native/udt/src/md5.o
 .comment       0x0000000000000000       0x24 native/udt/src/list.o
 .comment       0x0000000000000000       0x24 native/udt/src/epoll.o
 .comment       0x0000000000000000       0x24 native/udt/src/core.o
 .comment       0x0000000000000000       0x24 native/udt/src/common.o
 .comment       0x0000000000000000       0x24 native/udt/src/channel.o
 .comment       0x0000000000000000       0x24 native/udt/src/ccc.o
 .comment       0x0000000000000000       0x24 native/udt/src/cache.o
 .comment       0x0000000000000000       0x24 native/udt/src/buffer.o
 .comment       0x0000000000000000       0x24 native/udt/src/api.o
 .comment       0x0000000000000000       0x24 native/jni/com_barchart_udt_SocketUDT.o
 .comment       0x0000000000000000       0x24 /usr/lib/gcc/x86_64-linux-gnu/4.4.3/libgcc_eh.a(unwind-dw2.o)
 .comment       0x0000000000000000       0x24 /usr/lib/gcc/x86_64-linux-gnu/4.4.3/libgcc_eh.a(unwind-dw2-fde-glibc.o)
 .comment       0x0000000000000000       0x24 /usr/lib/gcc/x86_64-linux-gnu/4.4.3/crtendS.o

.debug
 *(.debug)

.line
 *(.line)

.debug_srcinfo
 *(.debug_srcinfo)

.debug_sfnames
 *(.debug_sfnames)

.debug_aranges  0x0000000000000000      0x780
 *(.debug_aranges)
 .debug_aranges
                0x0000000000000000       0x30 native/udt/src/window.o
 .debug_aranges
                0x0000000000000030       0xb0 native/udt/src/queue.o
 .debug_aranges
                0x00000000000000e0       0x30 native/udt/src/packet.o
 .debug_aranges
                0x0000000000000110       0x30 native/udt/src/md5.o
 .debug_aranges
                0x0000000000000140       0x30 native/udt/src/list.o
 .debug_aranges
                0x0000000000000170       0xd0 native/udt/src/epoll.o
 .debug_aranges
                0x0000000000000240       0xd0 native/udt/src/core.o
 .debug_aranges
                0x0000000000000310       0x30 native/udt/src/common.o
 .debug_aranges
                0x0000000000000340       0x30 native/udt/src/channel.o
 .debug_aranges
                0x0000000000000370       0xd0 native/udt/src/ccc.o
 .debug_aranges
                0x0000000000000440       0x90 native/udt/src/cache.o
 .debug_aranges
                0x00000000000004d0       0x30 native/udt/src/buffer.o
 .debug_aranges
                0x0000000000000500      0x1b0 native/udt/src/api.o
 .debug_aranges
                0x00000000000006b0       0xd0 native/jni/com_barchart_udt_SocketUDT.o

.debug_pubnames
                0x0000000000000000     0x57de
 *(.debug_pubnames)
 .debug_pubnames
                0x0000000000000000      0x2a7 native/udt/src/window.o
 .debug_pubnames
                0x00000000000002a7      0xd14 native/udt/src/queue.o
 .debug_pubnames
                0x0000000000000fbb      0x22e native/udt/src/packet.o
 .debug_pubnames
                0x00000000000011e9       0x3d native/udt/src/md5.o
 .debug_pubnames
                0x0000000000001226      0x240 native/udt/src/list.o
 .debug_pubnames
                0x0000000000001466      0x611 native/udt/src/epoll.o
 .debug_pubnames
                0x0000000000001a77      0x561 native/udt/src/core.o
 .debug_pubnames
                0x0000000000001fd8      0x813 native/udt/src/common.o
 .debug_pubnames
                0x00000000000027eb      0x1c4 native/udt/src/channel.o
 .debug_pubnames
                0x00000000000029af      0x27d native/udt/src/ccc.o
 .debug_pubnames
                0x0000000000002c2c      0x3ca native/udt/src/cache.o
 .debug_pubnames
                0x0000000000002ff6      0x2f2 native/udt/src/buffer.o
 .debug_pubnames
                0x00000000000032e8     0x184f native/udt/src/api.o
 .debug_pubnames
                0x0000000000004b37      0xca7 native/jni/com_barchart_udt_SocketUDT.o

.debug_info     0x0000000000000000    0xc1eaf
 *(.debug_info .gnu.linkonce.wi.*)
 .debug_info    0x0000000000000000     0x4ef9 native/udt/src/window.o
 .debug_info    0x0000000000004ef9    0x1e1d3 native/udt/src/queue.o
 .debug_info    0x00000000000230cc     0x494c native/udt/src/packet.o
 .debug_info    0x0000000000027a18      0x3cb native/udt/src/md5.o
 .debug_info    0x0000000000027de3     0x5a32 native/udt/src/list.o
 .debug_info    0x000000000002d815    0x10d4e native/udt/src/epoll.o
 .debug_info    0x000000000003e563    0x174d1 native/udt/src/core.o
 .debug_info    0x0000000000055a34     0x7590 native/udt/src/common.o
 .debug_info    0x000000000005cfc4     0x4e1f native/udt/src/channel.o
 .debug_info    0x0000000000061de3    0x1459c native/udt/src/ccc.o
 .debug_info    0x000000000007637f     0x9ef8 native/udt/src/cache.o
 .debug_info    0x0000000000080277     0x6289 native/udt/src/buffer.o
 .debug_info    0x0000000000086500    0x263f2 native/udt/src/api.o
 .debug_info    0x00000000000ac8f2    0x155bd native/jni/com_barchart_udt_SocketUDT.o

.debug_abbrev   0x0000000000000000     0x7284
 *(.debug_abbrev)
 .debug_abbrev  0x0000000000000000      0x6cf native/udt/src/window.o
 .debug_abbrev  0x00000000000006cf      0xa9e native/udt/src/queue.o
 .debug_abbrev  0x000000000000116d      0x668 native/udt/src/packet.o
 .debug_abbrev  0x00000000000017d5      0x1bf native/udt/src/md5.o
 .debug_abbrev  0x0000000000001994      0x7f1 native/udt/src/list.o
 .debug_abbrev  0x0000000000002185      0x908 native/udt/src/epoll.o
 .debug_abbrev  0x0000000000002a8d      0xa78 native/udt/src/core.o
 .debug_abbrev  0x0000000000003505      0x985 native/udt/src/common.o
 .debug_abbrev  0x0000000000003e8a      0x690 native/udt/src/channel.o
 .debug_abbrev  0x000000000000451a      0x8fc native/udt/src/ccc.o
 .debug_abbrev  0x0000000000004e16      0x88b native/udt/src/cache.o
 .debug_abbrev  0x00000000000056a1      0x809 native/udt/src/buffer.o
 .debug_abbrev  0x0000000000005eaa      0xa81 native/udt/src/api.o
 .debug_abbrev  0x000000000000692b      0x959 native/jni/com_barchart_udt_SocketUDT.o

.debug_line     0x0000000000000000    0x12a0a
 *(.debug_line)
 .debug_line    0x0000000000000000      0xc18 native/udt/src/window.o
 .debug_line    0x0000000000000c18     0x1d29 native/udt/src/queue.o
 .debug_line    0x0000000000002941      0xa97 native/udt/src/packet.o
 .debug_line    0x00000000000033d8      0x3d8 native/udt/src/md5.o
 .debug_line    0x00000000000037b0     0x1063 native/udt/src/list.o
 .debug_line    0x0000000000004813     0x2077 native/udt/src/epoll.o
 .debug_line    0x000000000000688a     0x2092 native/udt/src/core.o
 .debug_line    0x000000000000891c      0xf44 native/udt/src/common.o
 .debug_line    0x0000000000009860      0xbdc native/udt/src/channel.o
 .debug_line    0x000000000000a43c      0xdf6 native/udt/src/ccc.o
 .debug_line    0x000000000000b232     0x109f native/udt/src/cache.o
 .debug_line    0x000000000000c2d1      0xf19 native/udt/src/buffer.o
 .debug_line    0x000000000000d1ea     0x3254 native/udt/src/api.o
 .debug_line    0x000000000001043e     0x25cc native/jni/com_barchart_udt_SocketUDT.o

.debug_frame
 *(.debug_frame)

.debug_str      0x0000000000000000    0x2f37a
 *(.debug_str)
 .debug_str     0x0000000000000000     0x36bc native/udt/src/window.o
                                       0x3a57 (size before relaxing)
 .debug_str     0x00000000000036bc    0x2094f native/udt/src/queue.o
                                      0x24c72 (size before relaxing)
 .debug_str     0x000000000002400b       0x33 native/udt/src/packet.o
                                       0x39c3 (size before relaxing)
 .debug_str     0x000000000002403e       0x91 native/udt/src/md5.o
                                        0x16b (size before relaxing)
 .debug_str     0x00000000000240cf       0xea native/udt/src/list.o
                                       0x3ce9 (size before relaxing)
 .debug_str     0x00000000000241b9     0x165d native/udt/src/epoll.o
                                       0xa85e (size before relaxing)
 .debug_str     0x0000000000025816      0x5f2 native/udt/src/core.o
                                      0x20d9e (size before relaxing)
 .debug_str     0x0000000000025e08      0x4b0 native/udt/src/common.o
                                       0x4382 (size before relaxing)
 .debug_str     0x00000000000262b8       0xed native/udt/src/channel.o
                                       0x3cfd (size before relaxing)
 .debug_str     0x00000000000263a5      0x47f native/udt/src/ccc.o
                                      0x2075f (size before relaxing)
 .debug_str     0x0000000000026824      0x3c4 native/udt/src/cache.o
                                       0x8d89 (size before relaxing)
 .debug_str     0x0000000000026be8       0xe6 native/udt/src/buffer.o
                                       0x4485 (size before relaxing)
 .debug_str     0x0000000000026cce     0x2b2a native/udt/src/api.o
                                      0x24327 (size before relaxing)
 .debug_str     0x00000000000297f8     0x5b82 native/jni/com_barchart_udt_SocketUDT.o
                                       0xd1e1 (size before relaxing)

.debug_loc      0x0000000000000000    0x2ba60
 *(.debug_loc)
 .debug_loc     0x0000000000000000     0x121f native/udt/src/window.o
 .debug_loc     0x000000000000121f     0x4d49 native/udt/src/queue.o
 .debug_loc     0x0000000000005f68      0x65c native/udt/src/packet.o
 .debug_loc     0x00000000000065c4      0xadc native/udt/src/md5.o
 .debug_loc     0x00000000000070a0     0x19b9 native/udt/src/list.o
 .debug_loc     0x0000000000008a59     0x494b native/udt/src/epoll.o
 .debug_loc     0x000000000000d3a4     0x44dc native/udt/src/core.o
 .debug_loc     0x0000000000011880     0x18b6 native/udt/src/common.o
 .debug_loc     0x0000000000013136      0xbdd native/udt/src/channel.o
 .debug_loc     0x0000000000013d13     0x1016 native/udt/src/ccc.o
 .debug_loc     0x0000000000014d29     0x1818 native/udt/src/cache.o
 .debug_loc     0x0000000000016541     0x2230 native/udt/src/buffer.o
 .debug_loc     0x0000000000018771     0xbf08 native/udt/src/api.o
 .debug_loc     0x0000000000024679     0x73e7 native/jni/com_barchart_udt_SocketUDT.o

.debug_macinfo  0x0000000000000000    0xf5fb8
 *(.debug_macinfo)
 .debug_macinfo
                0x0000000000000000    0x12df9 native/udt/src/window.o
 .debug_macinfo
                0x0000000000012df9    0x1228a native/udt/src/queue.o
 .debug_macinfo
                0x0000000000025083    0x112c9 native/udt/src/packet.o
 .debug_macinfo
                0x000000000003634c     0x2bd3 native/udt/src/md5.o
 .debug_macinfo
                0x0000000000038f1f    0x11b92 native/udt/src/list.o
 .debug_macinfo
                0x000000000004aab1    0x1265c native/udt/src/epoll.o
 .debug_macinfo
                0x000000000005d10d    0x1427d native/udt/src/core.o
 .debug_macinfo
                0x000000000007138a    0x13aef native/udt/src/common.o
 .debug_macinfo
                0x0000000000084e79    0x13061 native/udt/src/channel.o
 .debug_macinfo
                0x0000000000097eda    0x132be native/udt/src/ccc.o
 .debug_macinfo
                0x00000000000ab198    0x12230 native/udt/src/cache.o
 .debug_macinfo
                0x00000000000bd3c8    0x13399 native/udt/src/buffer.o
 .debug_macinfo
                0x00000000000d0761    0x121d9 native/udt/src/api.o
 .debug_macinfo
                0x00000000000e293a    0x1367e native/jni/com_barchart_udt_SocketUDT.o

.debug_weaknames
 *(.debug_weaknames)

.debug_funcnames
 *(.debug_funcnames)

.debug_typenames
 *(.debug_typenames)

.debug_varnames
 *(.debug_varnames)

.debug_pubtypes
 *(.debug_pubtypes)

.debug_ranges   0x0000000000000000    0x1d1e0
 *(.debug_ranges)
 .debug_ranges  0x0000000000000000      0x3a0 native/udt/src/window.o
 .debug_ranges  0x00000000000003a0     0x44e0 native/udt/src/queue.o
 .debug_ranges  0x0000000000004880      0x140 native/udt/src/packet.o
 .debug_ranges  0x00000000000049c0       0x80 native/udt/src/md5.o
 .debug_ranges  0x0000000000004a40      0x950 native/udt/src/list.o
 .debug_ranges  0x0000000000005390     0x64a0 native/udt/src/epoll.o
 .debug_ranges  0x000000000000b830     0x1fc0 native/udt/src/core.o
 .debug_ranges  0x000000000000d7f0      0xa50 native/udt/src/common.o
 .debug_ranges  0x000000000000e240      0x3b0 native/udt/src/channel.o
 .debug_ranges  0x000000000000e5f0      0x350 native/udt/src/ccc.o
 .debug_ranges  0x000000000000e940     0x17d0 native/udt/src/cache.o
 .debug_ranges  0x0000000000010110      0xa60 native/udt/src/buffer.o
 .debug_ranges  0x0000000000010b70     0x8770 native/udt/src/api.o
 .debug_ranges  0x00000000000192e0     0x3f00 native/jni/com_barchart_udt_SocketUDT.o

.gnu.attributes
 *(.gnu.attributes)

/DISCARD/
 *(.note.GNU-stack)
 *(.gnu_debuglink)
 *(.gnu.lto_*)
OUTPUT(libSocketUDT-linux-x86-64.so elf64-x86-64)
