# Path: libSocketUDT-macosx-x86-32.jnilib
# Arch: i386
# UUID:  0  0  0  0  0  0  0  0  0  0  0  0  0  0  0  0 
# Object files:
[  0] linker synthesized
[  1] native/udt/src/window.o
[  2] native/udt/src/queue.o
[  3] native/udt/src/packet.o
[  4] native/udt/src/md5.o
[  5] native/udt/src/list.o
[  6] native/udt/src/epoll.o
[  7] native/udt/src/core.o
[  8] native/udt/src/common.o
[  9] native/udt/src/channel.o
[ 10] native/udt/src/ccc.o
[ 11] native/udt/src/cache.o
[ 12] native/udt/src/buffer.o
[ 13] native/udt/src/api.o
[ 14] native/jni/com_barchart_udt_SocketUDT.o
# Sections:
# Address	Size    	Segment	Section
0x00001630	0x00022BF0	__TEXT	__text
0x00024220	0x00000208	__TEXT	__const
0x00024428	0x000012F5	__TEXT	__cstring
0x0002571E	0x000003E4	__TEXT	__symbol_stub
0x00025B02	0x0000035E	__TEXT	__stub_helper
0x00025E60	0x0000418D	__TEXT	__gcc_except_tab
0x00029FF0	0x00000AC0	__TEXT	__unwind_info
0x0002AAB0	0x00004538	__TEXT	__eh_frame
0x0002F000	0x00000008	__DATA	__mod_init_func
0x0002F008	0x00000068	__DATA	__nl_symbol_ptr
0x0002F070	0x00000298	__DATA	__la_symbol_ptr
0x0002F320	0x00000104	__DATA	__const
0x0002F440	0x00000048	__DATA	__data
0x0002F4A0	0x000001F0	__DATA	__common
0x0002F690	0x0000011C	__DATA	__bss
# Symbols:
# Address	Size    	File  Name
0x00001630	0x00000070	[  6] __ZN6CEPollC2Ev
0x000016A0	0x00000010	[  6] __ZN6CEPollC1Ev
0x000016B0	0x00000060	[  6] __ZN6CEPollD2Ev
0x00001710	0x00000010	[  6] __ZN6CEPollD1Ev
0x00001720	0x00000050	[  6] __ZNSt8_Rb_treeIiiSt9_IdentityIiESt4lessIiESaIiEE8_M_eraseEPSt13_Rb_tree_nodeIiE
0x00001770	0x000000E2	[  6] __ZNSt8_Rb_treeIiSt4pairIKi10CEPollDescESt10_Select1stIS3_ESt4lessIiESaIS3_EE8_M_eraseEPSt13_Rb_tree_nodeIS3_E
0x00001860	0x00000060	[  7] __Z41__static_initialization_and_destruction_0ii
0x000018C0	0x00000013	[  7] __GLOBAL__I__ZN4CUDT11s_UDTUnitedE
0x000018E0	0x00000030	[  8] __ZN6CTimer5rdtscERy
0x00001910	0x00000010	[  8] __ZN6CGuard12releaseMutexER23_opaque_pthread_mutex_t
0x00001920	0x00000020	[  8] __ZN6CGuard11createMutexER23_opaque_pthread_mutex_t
0x00001940	0x00000040	[  8] __ZN6CTimer7getTimeEv
0x00001980	0x00000070	[  8] __ZN6CTimer16readCPUFrequencyEv
0x000019F0	0x00000040	[  8] __Z41__static_initialization_and_destruction_0ii
0x00001A30	0x00000013	[  8] __GLOBAL__I__ZN6CTimer17s_ullCPUFrequencyE
0x00001A50	0x000000B0	[ 11] __ZN6CCacheC2Ev
0x00001B00	0x00000010	[ 11] __ZN6CCacheC1Ev
0x00001B10	0x00000050	[ 11] __ZNSt8_Rb_treeIP10CInfoBlockS1_St9_IdentityIS1_E7CTSCompSaIS1_EE8_M_eraseEPSt13_Rb_tree_nodeIS1_E
0x00001B60	0x00000050	[ 11] __ZNSt8_Rb_treeIP10CInfoBlockS1_St9_IdentityIS1_E7CIPCompSaIS1_EE8_M_eraseEPSt13_Rb_tree_nodeIS1_E
0x00001BB0	0x000002C0	[ 13] __ZN10CUDTUnitedC2Ev
0x00001E70	0x00000010	[ 13] __ZN10CUDTUnitedC1Ev
0x00001E80	0x00000050	[ 13] __ZNSt8_Rb_treeIiSt4pairIKi12CMultiplexerESt10_Select1stIS3_ESt4lessIiESaIS3_EE8_M_eraseEPSt13_Rb_tree_nodeIS3_E
0x00001ED0	0x00000050	[ 13] __ZNSt8_Rb_treeIiSt4pairIKiP10CUDTSocketESt10_Select1stIS4_ESt4lessIiESaIS4_EE8_M_eraseEPSt13_Rb_tree_nodeIS4_E
0x00001F20	0x00000070	[ 13] __ZNSt8_Rb_treeIxSt4pairIKxSt3setIiSt4lessIiESaIiEEESt10_Select1stIS7_ES3_IxESaIS7_EE8_M_eraseEPSt13_Rb_tree_nodeIS7_E
0x00001F90	0x00000000	[  0] minimal text
0x00001F90	0x00000010	[  1] __ZNK14CPktTimeWindow15getMinPktSndIntEv
0x00001FA0	0x00000030	[  1] __ZN14CPktTimeWindow9onPktSentERKi
0x00001FD0	0x00000050	[  1] __ZN14CPktTimeWindow13probe2ArrivalEv
0x00002020	0x00000020	[  1] __ZN14CPktTimeWindow13probe1ArrivalEv
0x00002040	0x00000050	[  1] __ZN14CPktTimeWindow12onPktArrivalEv
0x00002090	0x00000190	[  1] __ZN10CACKWindow11acknowledgeERKiRi
0x00002220	0x00000060	[  1] __ZN10CACKWindow5storeERKiS1_
0x00002280	0x00000110	[  1] __ZNK14CPktTimeWindow12getBandwidthEv
0x00002390	0x00000110	[  1] __ZNK14CPktTimeWindow14getPktRcvSpeedEv
0x000024A0	0x00000040	[  1] __ZN14CPktTimeWindowD2Ev
0x000024E0	0x00000010	[  1] __ZN14CPktTimeWindowD1Ev
0x000024F0	0x00000050	[  1] __ZN10CACKWindowD2Ev
0x00002540	0x00000010	[  1] __ZN10CACKWindowD1Ev
0x00002550	0x000000E0	[  1] __ZN14CPktTimeWindowC2ERKiS1_
0x00002630	0x00000010	[  1] __ZN14CPktTimeWindowC1ERKiS1_
0x00002640	0x000000E0	[  1] __ZN14CPktTimeWindowC2Ev
0x00002720	0x00000010	[  1] __ZN14CPktTimeWindowC1Ev
0x00002730	0x00000080	[  1] __ZN10CACKWindowC2ERKi
0x000027B0	0x00000010	[  1] __ZN10CACKWindowC1ERKi
0x000027C0	0x00000080	[  1] __ZN10CACKWindowC2Ev
0x00002840	0x00000009	[  1] __ZN10CACKWindowC1Ev
0x00002850	0x00000040	[  2] __ZN10CUnitQueueC2Ev
0x00002890	0x00000010	[  2] __ZN10CUnitQueueC1Ev
0x000028A0	0x00000010	[  2] __ZN10CUnitQueue6shrinkEv
0x000028B0	0x00000160	[  2] __ZN9CSndUList7remove_EPK4CUDT
0x00002A10	0x00000020	[  2] __ZN9CRcvUListC2Ev
0x00002A30	0x00000010	[  2] __ZN9CRcvUListC1Ev
0x00002A40	0x00000010	[  2] __ZN9CRcvUListD2Ev
0x00002A50	0x00000010	[  2] __ZN9CRcvUListD1Ev
0x00002A60	0x00000070	[  2] __ZN9CRcvUList6removeEPK4CUDT
0x00002AD0	0x00000020	[  2] __ZN5CHashC2Ev
0x00002AF0	0x00000010	[  2] __ZN5CHashC1Ev
0x00002B00	0x00000050	[  2] __ZN5CHash6lookupERKi
0x00002B50	0x00000020	[  2] __ZN9CRcvQueue10ifNewEntryEv
0x00002B70	0x00000060	[  2] __ZN9CRcvQueue14removeListenerEPK4CUDT
0x00002BD0	0x00000060	[  2] __ZN9CRcvQueue11setListenerEPK4CUDT
0x00002C30	0x00000060	[  2] __ZN9CSndUList15getNextProcTimeEv
0x00002C90	0x00000040	[  2] __ZN9CSndUList6removeEPK4CUDT
0x00002CD0	0x00000070	[  2] __ZN5CHash6insertERKiPK4CUDT
0x00002D40	0x00000060	[  2] __ZN5CHash6removeERKi
0x00002DA0	0x000000C0	[  2] __ZN16CRendezvousQueue6insertERKiS1_PK8sockaddr
0x00002E60	0x00000060	[  2] __ZN5CHashD2Ev
0x00002EC0	0x00000010	[  2] __ZN5CHashD1Ev
0x00002ED0	0x000000A0	[  2] __ZN10CUnitQueueD2Ev
0x00002F70	0x00000010	[  2] __ZN10CUnitQueueD1Ev
0x00002F80	0x00000050	[  2] __ZN5CHash4initERKi
0x00002FD0	0x00000200	[  2] __ZN10CUnitQueue8increaseEv
0x000031D0	0x000000A0	[  2] __ZN10CUnitQueue16getNextAvailUnitEv
0x00003270	0x000001C0	[  2] __ZN10CUnitQueue4initERKiS1_S1_
0x00003430	0x000000A0	[  2] __ZN16CRendezvousQueue8retrieveEPK8sockaddrRi
0x000034D0	0x00000080	[  2] __ZN9CRcvUList6updateEPK4CUDT
0x00003550	0x00000070	[  2] __ZN9CRcvUList6insertEPK4CUDT
0x000035C0	0x00000030	[  2] __ZN9CSndUListD2Ev
0x000035F0	0x00000010	[  2] __ZN9CSndUListD1Ev
0x00003600	0x00000070	[  2] __ZN9CSndUListC2Ev
0x00003670	0x00000010	[  2] __ZN9CSndUListC1Ev
0x00003680	0x00000110	[  2] __ZN9CSndQueue4initEPK8CChannelPK6CTimer
0x00003790	0x000000D0	[  2] __ZN9CSndQueueC2Ev
0x00003860	0x00000010	[  2] __ZN9CSndQueueC1Ev
0x00003870	0x00000030	[  2] __ZN9CSndQueue6sendtoEPK8sockaddrR7CPacket
0x000038A0	0x00000090	[  2] __ZN9CSndQueueD2Ev
0x00003930	0x00000010	[  2] __ZN9CSndQueueD1Ev
0x00003940	0x00000150	[  2] __ZN9CSndUList7insert_ERKxPK4CUDT
0x00003A90	0x000000D0	[  2] __ZN9CSndUList6insertERKxPK4CUDT
0x00003B60	0x000000F0	[  2] __ZN9CSndUList3popERP8sockaddrR7CPacket
0x00003C50	0x00000140	[  2] __ZN9CSndQueue6workerEPv
0x00003D90	0x000000B0	[  2] __ZN9CSndUList6updateEPK4CUDTRKb
0x00003E40	0x00000090	[  2] __ZN16CRendezvousQueue6removeERKi
0x00003ED0	0x00000070	[  2] __ZN9CRcvQueue11setNewEntryEP4CUDT
0x00003F40	0x00000060	[  2] __ZN9CRcvQueue11getNewEntryEv
0x00003FA0	0x00000260	[  2] __ZN9CRcvQueue8recvfromERKiR7CPacket
0x00004200	0x00000080	[  2] __ZN16CRendezvousQueueD2Ev
0x00004280	0x00000010	[  2] __ZN16CRendezvousQueueD1Ev
0x00004290	0x00000070	[  2] __ZN16CRendezvousQueueC2Ev
0x00004300	0x00000010	[  2] __ZN16CRendezvousQueueC1Ev
0x00004310	0x00000150	[  2] __ZN9CRcvQueue4initERKiS1_S1_S1_PK8CChannelPK6CTimer
0x00004460	0x000001F0	[  2] __ZN9CRcvQueueC2Ev
0x00004650	0x00000010	[  2] __ZN9CRcvQueueC1Ev
0x00004660	0x000001D0	[  2] __ZN9CRcvQueueD2Ev
0x00004830	0x00000010	[  2] __ZN9CRcvQueueD1Ev
0x00004840	0x00000540	[  2] __ZN9CRcvQueue8storePktERKiP7CPacket
0x00004D80	0x00000467	[  2] __ZN9CRcvQueue6workerEPv
0x000051F0	0x00000050	[  2] __ZNSt8_Rb_treeIiSt4pairIKiSt5queueIP7CPacketSt5dequeIS4_SaIS4_EEEESt10_Select1stIS9_ESt4lessIiESaIS9_EE4findERS1_
0x00005240	0x00000040	[  2] __ZNSt8_Rb_treeIiSt4pairIKiSt5queueIP7CPacketSt5dequeIS4_SaIS4_EEEESt10_Select1stIS9_ESt4lessIiESaIS9_EE11lower_boundERS1_
0x00005280	0x00000060	[  2] __ZNSt6vectorIN16CRendezvousQueue3CRLESaIS1_EE5eraseEN9__gnu_cxx17__normal_iteratorIPS1_S3_EE
0x000052E0	0x00000040	[  2] __ZNSt5dequeIP7CPacketSaIS1_EE16_M_pop_front_auxEv
0x00005320	0x000001B0	[  2] __ZNSt6vectorIN16CRendezvousQueue3CRLESaIS1_EE13_M_insert_auxEN9__gnu_cxx17__normal_iteratorIPS1_S3_EERKS1_
0x000054D0	0x00000070	[  2] __ZNSt6vectorIN16CRendezvousQueue3CRLESaIS1_EE6insertEN9__gnu_cxx17__normal_iteratorIPS1_S3_EERKS1_
0x00005540	0x00000180	[  2] __ZNSt5dequeIP7CPacketSaIS1_EE17_M_reallocate_mapEmb
0x000056C0	0x00000150	[  2] __ZNSt6vectorIP4CUDTSaIS1_EE13_M_insert_auxEN9__gnu_cxx17__normal_iteratorIPS1_S3_EERKS1_
0x00005810	0x00000070	[  2] __ZNSt6vectorIP4CUDTSaIS1_EE6insertEN9__gnu_cxx17__normal_iteratorIPS1_S3_EERKS1_
0x00005880	0x00000040	[  2] __ZNSt6vectorIP4CUDTSaIS1_EE5eraseEN9__gnu_cxx17__normal_iteratorIPS1_S3_EE
0x000058C0	0x00000040	[  2] __ZNSt11_Deque_baseIP7CPacketSaIS1_EE16_M_destroy_nodesEPPS1_S5_
0x00005900	0x00000070	[  2] __ZNSt11_Deque_baseIP7CPacketSaIS1_EE15_M_create_nodesEPPS1_S5_
0x00005970	0x000000F0	[  2] __ZNSt11_Deque_baseIP7CPacketSaIS1_EE17_M_initialize_mapEm
0x00005A60	0x00000050	[  2] __ZNSt11_Deque_baseIP7CPacketSaIS1_EED2Ev
0x00005AB0	0x00000090	[  2] __ZNSt5dequeIP7CPacketSaIS1_EE16_M_push_back_auxERKS1_
0x00005B40	0x000001D0	[  2] __ZNSt8_Rb_treeIiSt4pairIKiSt5queueIP7CPacketSt5dequeIS4_SaIS4_EEEESt10_Select1stIS9_ESt4lessIiESaIS9_EE9_M_insertEPSt18_Rb_tree_node_baseSH_RKS9_
0x00005D10	0x000000B0	[  2] __ZNSt8_Rb_treeIiSt4pairIKiSt5queueIP7CPacketSt5dequeIS4_SaIS4_EEEESt10_Select1stIS9_ESt4lessIiESaIS9_EE16_M_insert_uniqueERKS9_
0x00005DC0	0x00000140	[  2] __ZNSt8_Rb_treeIiSt4pairIKiSt5queueIP7CPacketSt5dequeIS4_SaIS4_EEEESt10_Select1stIS9_ESt4lessIiESaIS9_EE16_M_insert_uniqueESt17_Rb_tree_iteratorIS9_ERKS9_
0x00005F00	0x00000053	[  2] __ZNSt8_Rb_treeIiSt4pairIKiSt5queueIP7CPacketSt5dequeIS4_SaIS4_EEEESt10_Select1stIS9_ESt4lessIiESaIS9_EE8_M_eraseEPSt13_Rb_tree_nodeIS9_E
0x00005F60	0x00000060	[  3] __ZN7CPacketC2Ev
0x00005FC0	0x00000010	[  3] __ZN7CPacketC1Ev
0x00005FD0	0x00000010	[  3] __ZN7CPacketD2Ev
0x00005FE0	0x00000010	[  3] __ZN7CPacketD1Ev
0x00005FF0	0x00000010	[  3] __ZNK7CPacket9getLengthEv
0x00006000	0x00000010	[  3] __ZN7CPacket9setLengthERKi
0x00006010	0x00000120	[  3] __ZN7CPacket4packERKiPvS2_S1_
0x00006130	0x00000010	[  3] __ZN7CPacket15getPacketVectorEv
0x00006140	0x00000010	[  3] __ZNK7CPacket7getFlagEv
0x00006150	0x00000020	[  3] __ZNK7CPacket7getTypeEv
0x00006170	0x00000010	[  3] __ZNK7CPacket15getExtendedTypeEv
0x00006180	0x00000010	[  3] __ZNK7CPacket11getAckSeqNoEv
0x00006190	0x00000010	[  3] __ZNK7CPacket14getMsgBoundaryEv
0x000061A0	0x00000020	[  3] __ZNK7CPacket15getMsgOrderFlagEv
0x000061C0	0x00000010	[  3] __ZNK7CPacket9getMsgSeqEv
0x000061D0	0x00000060	[  3] __ZN10CHandShakeC2Ev
0x00006230	0x00000010	[  3] __ZN10CHandShakeC1Ev
0x00006240	0x00000070	[  3] __ZN10CHandShake9serializeEPcRKi
0x000062B0	0x00000070	[  3] __ZN10CHandShake11deserializeEPKcRKi
0x00006320	0x00000086	[  3] __ZNK7CPacket5cloneEv
0x000063B0	0x00000040	[  4] _md5_init
0x000063F0	0x000008B0	[  4] __ZL11md5_processP11md5_state_sPKh
0x00006CA0	0x000000E0	[  4] _md5_append
0x00006D80	0x000000E9	[  4] _md5_finish
0x00006E70	0x00000010	[  5] __ZNK12CRcvLossList13getLossLengthEv
0x00006E80	0x00000020	[  5] __ZNK12CRcvLossList15getFirstLostSeqEv
0x00006EA0	0x000000A0	[  5] __ZN12CRcvLossList12getLossArrayEPiRiRKiS3_
0x00006F40	0x00000470	[  5] __ZN12CRcvLossList6removeERKi
0x000073B0	0x000000D0	[  5] __ZN12CRcvLossList6removeERKiS1_
0x00007480	0x00000060	[  5] __ZN12CRcvLossListD2Ev
0x000074E0	0x00000010	[  5] __ZN12CRcvLossListD1Ev
0x000074F0	0x000000E0	[  5] __ZN12CRcvLossListC2ERKi
0x000075D0	0x00000010	[  5] __ZN12CRcvLossListC1ERKi
0x000075E0	0x00000040	[  5] __ZN12CSndLossList13getLossLengthEv
0x00007620	0x00000050	[  5] __ZN12CSndLossListD2Ev
0x00007670	0x00000010	[  5] __ZN12CSndLossListD1Ev
0x00007680	0x000000D0	[  5] __ZN12CSndLossListC2ERKi
0x00007750	0x00000010	[  5] __ZN12CSndLossListC1ERKi
0x00007760	0x00000140	[  5] __ZNK12CRcvLossList4findERKiS1_
0x000078A0	0x000004F0	[  5] __ZN12CSndLossList6removeERKi
0x00007D90	0x00000180	[  5] __ZN12CSndLossList10getLostSeqEv
0x00007F10	0x000006A0	[  5] __ZN12CSndLossList6insertERKiS1_
0x000085B0	0x000001F9	[  5] __ZN12CRcvLossList6insertERKiS1_
0x000087B0	0x000000E0	[  6] __ZN6CEPoll12remove_ssockEiRKiPS0_
0x00008890	0x000000E0	[  6] __ZN6CEPoll12remove_usockEiRKiPS0_
0x00008970	0x00000180	[  6] __ZN6CEPoll7releaseEi
0x00008AF0	0x00000140	[  6] __ZN6CEPoll12disable_readERKiRSt3setIiSt4lessIiESaIiEE
0x00008C30	0x00000140	[  6] __ZN6CEPoll13disable_writeERKiRSt3setIiSt4lessIiESaIiEE
0x00008D70	0x000000E0	[  6] __ZN6CEPoll9add_usockEiRKiPS0_
0x00008E50	0x00000150	[  6] __ZN6CEPoll11enable_readERKiRSt3setIiSt4lessIiESaIiEE
0x00008FA0	0x00000150	[  6] __ZN6CEPoll12enable_writeERKiRSt3setIiSt4lessIiESaIiEE
0x000090F0	0x00000470	[  6] __ZN6CEPoll4waitEiPSt3setIiSt4lessIiESaIiEES5_xS5_S5_
0x00009560	0x000000E0	[  6] __ZN6CEPoll9add_ssockEiRKiPS0_
0x00009640	0x000008E3	[  6] __ZN6CEPoll6createEv
0x00009F30	0x00000050	[  6] __ZNSt8_Rb_treeIiSt4pairIKi10CEPollDescESt10_Select1stIS3_ESt4lessIiESaIS3_EE4findERS1_
0x00009F80	0x00000040	[  6] __ZNSt8_Rb_treeIiSt4pairIKi10CEPollDescESt10_Select1stIS3_ESt4lessIiESaIS3_EE11lower_boundERS1_
0x00009FC0	0x00000040	[  6] __ZNSt8_Rb_treeIiiSt9_IdentityIiESt4lessIiESaIiEE11lower_boundERKi
0x0000A000	0x00000040	[  6] __ZNSt8_Rb_treeIiiSt9_IdentityIiESt4lessIiESaIiEE11upper_boundERKi
0x0000A040	0x00000150	[  6] __ZNSt6vectorIiSaIiEE13_M_insert_auxEN9__gnu_cxx17__normal_iteratorIPiS1_EERKi
0x0000A190	0x000000A0	[  6] __ZNSt8_Rb_treeIiiSt9_IdentityIiESt4lessIiESaIiEE5eraseESt17_Rb_tree_iteratorIiES7_
0x0000A230	0x00000060	[  6] __ZNSt8_Rb_treeIiiSt9_IdentityIiESt4lessIiESaIiEE5eraseERKi
0x0000A290	0x00000120	[  6] __ZNSt8_Rb_treeIiiSt9_IdentityIiESt4lessIiESaIiEE7_M_copyEPKSt13_Rb_tree_nodeIiEPS7_
0x0000A3B0	0x000000A0	[  6] __ZNSt8_Rb_treeIiiSt9_IdentityIiESt4lessIiESaIiEEaSERKS5_
0x0000A450	0x00000300	[  6] __ZNSt8_Rb_treeIiSt4pairIKi10CEPollDescESt10_Select1stIS3_ESt4lessIiESaIS3_EE9_M_insertEPSt18_Rb_tree_node_baseSB_RKS3_
0x0000A750	0x000000E0	[  6] __ZNSt8_Rb_treeIiSt4pairIKi10CEPollDescESt10_Select1stIS3_ESt4lessIiESaIS3_EE16_M_insert_uniqueERKS3_
0x0000A830	0x00000140	[  6] __ZNSt8_Rb_treeIiSt4pairIKi10CEPollDescESt10_Select1stIS3_ESt4lessIiESaIS3_EE16_M_insert_uniqueESt17_Rb_tree_iteratorIS3_ERKS3_
0x0000A970	0x00000090	[  6] __ZNSt8_Rb_treeIiiSt9_IdentityIiESt4lessIiESaIiEE9_M_insertEPSt18_Rb_tree_node_baseS7_RKi
0x0000AA00	0x000000E0	[  6] __ZNSt8_Rb_treeIiiSt9_IdentityIiESt4lessIiESaIiEE16_M_insert_uniqueERKi
0x0000AAE0	0x00000050	[  7] __ZN4CUDT11removeEPollEi
0x0000AB30	0x00000130	[  7] __ZN4CUDT8addEPollEi
0x0000AC60	0x00000400	[  7] __ZN4CUDT6listenEP8sockaddrR7CPacket
0x0000B060	0x00000090	[  7] __ZN4CUDT12releaseSynchEv
0x0000B0F0	0x00000780	[  7] __ZN4CUDT8sendCtrlERKiPvS2_S1_
0x0000B870	0x00000080	[  7] __ZN4CUDT12destroySynchEv
0x0000B8F0	0x000000C0	[  7] __ZN4CUDT9initSynchEv
0x0000B9B0	0x000001A0	[  7] __ZN4CUDTC2ERKS_
0x0000BB50	0x00000010	[  7] __ZN4CUDTC1ERKS_
0x0000BB60	0x00000320	[  7] __ZN4CUDT6getOptE6UDTOptPvRi
0x0000BE80	0x00000820	[  7] __ZN4CUDT6setOptE6UDTOptPKvRKi
0x0000C6A0	0x000004E0	[  7] __ZN4CUDT7recvmsgEPcRKi
0x0000CB80	0x00000550	[  7] __ZN4CUDT7sendmsgEPKcRKiS3_RKb
0x0000D0D0	0x00000570	[  7] __ZN4CUDT4sendEPKcRKi
0x0000D640	0x000004A0	[  7] __ZN4CUDT4recvEPcRKi
0x0000DAE0	0x000002D0	[  7] __ZN4CUDT5closeEv
0x0000DDB0	0x00000700	[  7] __ZN4CUDT7connectEPK8sockaddrP10CHandShake
0x0000E4B0	0x000001A0	[  7] __ZN4CUDT6listenEv
0x0000E650	0x00000430	[  7] __ZN4CUDT4openEv
0x0000EA80	0x00000560	[  7] __ZN4CUDT6sampleEP8CPerfMonb
0x0000EFE0	0x00000750	[  7] __ZN4CUDT11checkTimersEv
0x0000F730	0x00000420	[  7] __ZN4CUDT11processDataEP5CUnit
0x0000FB50	0x000010F0	[  7] __ZN4CUDT11processCtrlER7CPacket
0x00010C40	0x00000540	[  7] __ZN4CUDT8packDataER7CPacketRy
0x00011180	0x000006A0	[  7] __ZN4CUDT8sendfileERSt13basic_fstreamIcSt11char_traitsIcEERxRKxRKi
0x00011820	0x00000610	[  7] __ZN4CUDT8recvfileERSt13basic_fstreamIcSt11char_traitsIcEERxRKxRKi
0x00011E30	0x000001B0	[  7] __ZN4CUDTC2Ev
0x00011FE0	0x00000010	[  7] __ZN4CUDTC1Ev
0x00011FF0	0x00000160	[  7] __ZN4CUDTD2Ev
0x00012150	0x00000010	[  7] __ZN4CUDTD1Ev
0x00012160	0x0000111A	[  7] __ZN4CUDT7connectEPK8sockaddr
0x00013280	0x00000020	[  7] __ZN10CCCFactoryI6CUDTCCED0Ev
0x000132A0	0x00000020	[  7] __ZN10CCCFactoryI6CUDTCCED1Ev
0x000132C0	0x00000020	[  7] __ZN17CCCVirtualFactoryD0Ev
0x000132E0	0x00000020	[  7] __ZN17CCCVirtualFactoryD1Ev
0x00013300	0x00000030	[  7] __ZN10CCCFactoryI6CUDTCCE5cloneEv
0x00013330	0x0000003E	[  7] __ZN10CCCFactoryI6CUDTCCE6createEv
0x00013370	0x00000020	[  8] __ZN6CTimer15getCPUFrequencyEv
0x00013390	0x00000050	[  8] __ZN13CUDTExceptionC2ERKS_
0x000133E0	0x00000010	[  8] __ZN13CUDTExceptionC1ERKS_
0x000133F0	0x00000020	[  8] __ZNK13CUDTException12getErrorCodeEv
0x00013410	0x00000020	[  8] __ZN13CUDTException5clearEv
0x00013430	0x00000080	[  8] __ZN10CIPAddress5ipcmpEPK8sockaddrS2_RKi
0x000134B0	0x000000B0	[  8] __ZN10CIPAddress4ntopEPK8sockaddrPjRKi
0x00013560	0x00000060	[  8] __ZN10CIPAddress4ptonEP8sockaddrPKjRKi
0x000135C0	0x00000080	[  8] __ZN4CMD57computeEPKcPh
0x00013640	0x00000010	[  8] __ZN6CGuard11releaseCondER22_opaque_pthread_cond_t
0x00013650	0x00000020	[  8] __ZN6CGuard10createCondER22_opaque_pthread_cond_t
0x00013670	0x00000030	[  8] __ZN6CTimerD2Ev
0x000136A0	0x00000010	[  8] __ZN6CTimerD1Ev
0x000136B0	0x00000090	[  8] __ZN6CTimerC2Ev
0x00013740	0x00000010	[  8] __ZN6CTimerC1Ev
0x00013750	0x00000010	[  8] __ZN6CGuard7leaveCSER23_opaque_pthread_mutex_t
0x00013760	0x00000020	[  8] __ZN6CGuardD2Ev
0x00013780	0x00000010	[  8] __ZN6CGuardD1Ev
0x00013790	0x00000010	[  8] __ZN6CGuard7enterCSER23_opaque_pthread_mutex_t
0x000137A0	0x00000030	[  8] __ZN6CGuardC2ER23_opaque_pthread_mutex_t
0x000137D0	0x00000010	[  8] __ZN6CGuardC1ER23_opaque_pthread_mutex_t
0x000137E0	0x00000020	[  8] __ZN6CTimer5sleepEv
0x00013800	0x000000A0	[  8] __ZN6CTimer12waitForEventEv
0x000138A0	0x00000110	[  8] __ZN6CTimer7sleeptoERKy
0x000139B0	0x00000040	[  8] __ZN6CTimer5sleepERKy
0x000139F0	0x00000030	[  8] __ZN6CTimer12triggerEventEv
0x00013A20	0x00000010	[  8] __ZN6CTimer4tickEv
0x00013A30	0x00000020	[  8] __ZN6CTimer9interruptEv
0x00013A50	0x000000C0	[  8] __ZN13CUDTExceptionD2Ev
0x00013B10	0x00000010	[  8] __ZN13CUDTExceptionD1Ev
0x00013B20	0x00000110	[  8] __ZN13CUDTExceptionC2Eiii
0x00013C30	0x00000010	[  8] __ZN13CUDTExceptionC1Eiii
0x00013C40	0x000000C0	[  8] __ZN13CUDTExceptionD0Ev
0x00013D00	0x000006A7	[  8] __ZN13CUDTException15getErrorMessageEv
0x000143B0	0x00000030	[  9] __ZN8CChannelC2Ev
0x000143E0	0x00000010	[  9] __ZN8CChannelC1Ev
0x000143F0	0x00000030	[  9] __ZN8CChannelC2ERKi
0x00014420	0x00000010	[  9] __ZN8CChannelC1ERKi
0x00014430	0x00000010	[  9] __ZN8CChannelD2Ev
0x00014440	0x00000010	[  9] __ZN8CChannelD1Ev
0x00014450	0x00000010	[  9] __ZN8CChannel13setSndBufSizeERKi
0x00014460	0x00000010	[  9] __ZN8CChannel13setRcvBufSizeERKi
0x00014470	0x00000040	[  9] __ZNK8CChannel11getPeerAddrEP8sockaddr
0x000144B0	0x00000040	[  9] __ZNK8CChannel11getSockAddrEP8sockaddr
0x000144F0	0x00000050	[  9] __ZN8CChannel13getRcvBufSizeEv
0x00014540	0x00000050	[  9] __ZN8CChannel13getSndBufSizeEv
0x00014590	0x00000020	[  9] __ZNK8CChannel5closeEv
0x000145B0	0x00000190	[  9] __ZN8CChannel13setUDPSockOptEv
0x00014740	0x00000020	[  9] __ZN8CChannel4openEi
0x00014760	0x00000220	[  9] __ZN8CChannel4openEPK8sockaddr
0x00014980	0x00000130	[  9] __ZNK8CChannel8recvfromEP8sockaddrR7CPacket
0x00014AB0	0x0000015C	[  9] __ZNK8CChannel6sendtoEPK8sockaddrR7CPacket
0x00014C10	0x000000C0	[ 10] __ZN3CCCC2Ev
0x00014CD0	0x00000010	[ 10] __ZN3CCCC1Ev
0x00014CE0	0x00000020	[ 10] __ZN3CCC11setACKTimerERKi
0x00014D00	0x00000010	[ 10] __ZN3CCC14setACKIntervalERKi
0x00014D10	0x00000020	[ 10] __ZN3CCC6setRTOERKi
0x00014D30	0x00000010	[ 10] __ZN3CCC6setMSSERKi
0x00014D40	0x00000010	[ 10] __ZN3CCC12setBandwidthERKi
0x00014D50	0x00000010	[ 10] __ZN3CCC15setSndCurrSeqNoERKi
0x00014D60	0x00000010	[ 10] __ZN3CCC10setRcvRateERKi
0x00014D70	0x00000020	[ 10] __ZN3CCC14setMaxCWndSizeERKi
0x00014D90	0x00000010	[ 10] __ZN3CCC6setRTTERKi
0x00014DA0	0x000000B0	[ 10] __ZN6CUDTCCC2Ev
0x00014E50	0x00000010	[ 10] __ZN6CUDTCCC1Ev
0x00014E60	0x00000060	[ 10] __ZN6CUDTCC9onTimeoutEv
0x00014EC0	0x00000230	[ 10] __ZN6CUDTCC6onLossEPKiRS0_
0x000150F0	0x000000B0	[ 10] __ZN6CUDTCC4initEv
0x000151A0	0x000003E0	[ 10] __ZN6CUDTCC5onACKERKi
0x00015580	0x00000040	[ 10] __ZN3CCCD0Ev
0x000155C0	0x00000040	[ 10] __ZN3CCCD2Ev
0x00015600	0x00000010	[ 10] __ZN3CCCD1Ev
0x00015610	0x00000050	[ 10] __ZN3CCC12setUserParamEPKcRKi
0x00015660	0x00000040	[ 10] __ZN3CCC11getPerfInfoEv
0x000156A0	0x00000048	[ 10] __ZNK3CCC13sendCustomMsgER7CPacket
0x000156F0	0x00000010	[ 10] __ZN3CCC4initEv
0x00015700	0x00000010	[ 10] __ZN3CCC5closeEv
0x00015710	0x00000010	[ 10] __ZN3CCC5onACKERKi
0x00015720	0x00000010	[ 10] __ZN3CCC6onLossEPKiRS0_
0x00015730	0x00000010	[ 10] __ZN3CCC9onTimeoutEv
0x00015740	0x00000010	[ 10] __ZN3CCC9onPktSentEPK7CPacket
0x00015750	0x00000010	[ 10] __ZN3CCC13onPktReceivedEPK7CPacket
0x00015760	0x00000010	[ 10] __ZN3CCC16processCustomMsgEPK7CPacket
0x00015770	0x00000040	[ 10] __ZN6CUDTCCD0Ev
0x000157B0	0x00000020	[ 10] __ZN6CUDTCCD1Ev
0x000157D0	0x00000060	[ 11] __ZNK7CIPCompclEPK10CInfoBlockS2_
0x00015830	0x00000040	[ 11] __ZNK7CTSCompclEPK10CInfoBlockS2_
0x00015870	0x00000050	[ 11] __ZN6CCache7convertEPK8sockaddrRKiPj
0x000158C0	0x000000C0	[ 11] __ZN6CCache6lookupEPK8sockaddrRKiP10CInfoBlock
0x00015980	0x000000B0	[ 11] __ZN6CCacheD2Ev
0x00015A30	0x00000010	[ 11] __ZN6CCacheD1Ev
0x00015A40	0x000000B0	[ 11] __ZN6CCacheC2ERKj
0x00015AF0	0x00000010	[ 11] __ZN6CCacheC1ERKj
0x00015B00	0x0000016C	[ 11] __ZN6CCache6updateEPK8sockaddrRKiP10CInfoBlock
0x00015C70	0x00000090	[ 11] __ZNSt8_Rb_treeIP10CInfoBlockS1_St9_IdentityIS1_E7CIPCompSaIS1_EE4findERKS1_
0x00015D00	0x00000070	[ 11] __ZNSt8_Rb_treeIP10CInfoBlockS1_St9_IdentityIS1_E7CTSCompSaIS1_EE11lower_boundERKS1_
0x00015D70	0x00000070	[ 11] __ZNSt8_Rb_treeIP10CInfoBlockS1_St9_IdentityIS1_E7CTSCompSaIS1_EE11upper_boundERKS1_
0x00015DE0	0x00000060	[ 11] __ZNSt8_Rb_treeIP10CInfoBlockS1_St9_IdentityIS1_E7CIPCompSaIS1_EE11lower_boundERKS1_
0x00015E40	0x00000060	[ 11] __ZNSt8_Rb_treeIP10CInfoBlockS1_St9_IdentityIS1_E7CIPCompSaIS1_EE11upper_boundERKS1_
0x00015EA0	0x000000A0	[ 11] __ZNSt8_Rb_treeIP10CInfoBlockS1_St9_IdentityIS1_E7CTSCompSaIS1_EE5eraseESt17_Rb_tree_iteratorIS1_ES8_
0x00015F40	0x00000060	[ 11] __ZNSt8_Rb_treeIP10CInfoBlockS1_St9_IdentityIS1_E7CTSCompSaIS1_EE5eraseERKS1_
0x00015FA0	0x000000A0	[ 11] __ZNSt8_Rb_treeIP10CInfoBlockS1_St9_IdentityIS1_E7CTSCompSaIS1_EE9_M_insertEPSt18_Rb_tree_node_baseS8_RKS1_
0x00016040	0x000000D0	[ 11] __ZNSt8_Rb_treeIP10CInfoBlockS1_St9_IdentityIS1_E7CTSCompSaIS1_EE16_M_insert_uniqueERKS1_
0x00016110	0x000000A0	[ 11] __ZNSt8_Rb_treeIP10CInfoBlockS1_St9_IdentityIS1_E7CIPCompSaIS1_EE5eraseESt17_Rb_tree_iteratorIS1_ES8_
0x000161B0	0x00000060	[ 11] __ZNSt8_Rb_treeIP10CInfoBlockS1_St9_IdentityIS1_E7CIPCompSaIS1_EE5eraseERKS1_
0x00016210	0x000000A0	[ 11] __ZNSt8_Rb_treeIP10CInfoBlockS1_St9_IdentityIS1_E7CIPCompSaIS1_EE9_M_insertEPSt18_Rb_tree_node_baseS8_RKS1_
0x000162B0	0x000000BC	[ 11] __ZNSt8_Rb_treeIP10CInfoBlockS1_St9_IdentityIS1_E7CIPCompSaIS1_EE16_M_insert_uniqueERKS1_
0x00016370	0x00000040	[ 12] __ZN10CSndBuffer8readDataEPPcRi
0x000163B0	0x00000010	[ 12] __ZNK10CSndBuffer14getCurrBufSizeEv
0x000163C0	0x00000060	[ 12] __ZN10CRcvBuffer7addDataEP5CUniti
0x00016420	0x00000020	[ 12] __ZNK10CRcvBuffer14getRcvDataSizeEv
0x00016440	0x00000020	[ 12] __ZNK10CRcvBuffer15getAvailBufSizeEv
0x00016460	0x00000070	[ 12] __ZN10CRcvBuffer7dropMsgERKi
0x000164D0	0x00000200	[ 12] __ZN10CRcvBuffer7scanMsgERiS0_Rb
0x000166D0	0x00000030	[ 12] __ZN10CRcvBuffer12getRcvMsgNumEv
0x00016700	0x00000100	[ 12] __ZN10CRcvBuffer7readMsgEPcRKi
0x00016800	0x00000180	[ 12] __ZN10CRcvBuffer10readBufferEPcRKi
0x00016980	0x00000030	[ 12] __ZN10CRcvBuffer7ackDataERKi
0x000169B0	0x00000130	[ 12] __ZN10CRcvBuffer16readBufferToFileERSt13basic_fstreamIcSt11char_traitsIcEERKi
0x00016AE0	0x00000060	[ 12] __ZN10CRcvBufferD2Ev
0x00016B40	0x00000010	[ 12] __ZN10CRcvBufferD1Ev
0x00016B50	0x00000070	[ 12] __ZN10CRcvBufferC2ERKiP10CUnitQueue
0x00016BC0	0x00000010	[ 12] __ZN10CRcvBufferC1ERKiP10CUnitQueue
0x00016BD0	0x00000050	[ 12] __ZN10CRcvBufferC2EP10CUnitQueue
0x00016C20	0x00000010	[ 12] __ZN10CRcvBufferC1EP10CUnitQueue
0x00016C30	0x000001F0	[ 12] __ZN10CSndBuffer8increaseEv
0x00016E20	0x00000070	[ 12] __ZN10CSndBuffer7ackDataERKi
0x00016E90	0x00000120	[ 12] __ZN10CSndBuffer8readDataEPPciRiS2_
0x00016FB0	0x00000160	[ 12] __ZN10CSndBuffer9addBufferEPKcRKiS3_RKb
0x00017110	0x00000090	[ 12] __ZN10CSndBufferD2Ev
0x000171A0	0x00000010	[ 12] __ZN10CSndBufferD1Ev
0x000171B0	0x00000120	[ 12] __ZN10CSndBufferC2ERKiS1_
0x000172D0	0x00000010	[ 12] __ZN10CSndBufferC1ERKiS1_
0x000172E0	0x00000127	[ 12] __ZN10CSndBuffer17addBufferFromFileERSt13basic_fstreamIcSt11char_traitsIcEERKi
0x00017410	0x000000A0	[ 13] __ZN10CUDTUnited8getErrorEv
0x000174B0	0x00000030	[ 13] __ZN4CUDT12getlasterrorEv
0x000174E0	0x00000010	[ 13] __ZN3UDT12getlasterrorEv
0x000174F0	0x00000050	[ 13] __ZN10CUDTUnited8setErrorEP13CUDTException
0x00017540	0x00000020	[ 13] __ZN10CUDTUnited13epoll_releaseEi
0x00017560	0x00000150	[ 13] __ZN4CUDT13epoll_releaseEi
0x000176B0	0x00000010	[ 13] __ZN3UDT13epoll_releaseEi
0x000176C0	0x00000020	[ 13] __ZN10CUDTUnited10epoll_waitEiPSt3setIiSt4lessIiESaIiEES5_xS5_S5_
0x000176E0	0x00000170	[ 13] __ZN4CUDT10epoll_waitEiPSt3setIiSt4lessIiESaIiEES5_xS5_S5_
0x00017850	0x00000010	[ 13] __ZN3UDT10epoll_waitEiPSt3setIiSt4lessIiESaIiEES5_xS5_S5_
0x00017860	0x00000030	[ 13] __ZN10CUDTUnited18epoll_remove_ssockEiiPKi
0x00017890	0x00000150	[ 13] __ZN4CUDT18epoll_remove_ssockEiiPKi
0x000179E0	0x00000030	[ 13] __ZN10CUDTUnited15epoll_add_ssockEiiPKi
0x00017A10	0x00000150	[ 13] __ZN4CUDT15epoll_add_ssockEiiPKi
0x00017B60	0x00000010	[ 13] __ZN3UDT15epoll_add_ssockEiiPKi
0x00017B70	0x00000010	[ 13] __ZN10CUDTUnited12epoll_createEv
0x00017B80	0x00000140	[ 13] __ZN4CUDT12epoll_createEv
0x00017CC0	0x00000010	[ 13] __ZN3UDT12epoll_createEv
0x00017CD0	0x000000D0	[ 13] __ZN10CUDTUnited7cleanupEv
0x00017DA0	0x00000030	[ 13] __ZN4CUDT7cleanupEv
0x00017DD0	0x00000010	[ 13] __ZN3UDT7cleanupEv
0x00017DE0	0x000000E0	[ 13] __ZN10CUDTSocketC2Ev
0x00017EC0	0x00000010	[ 13] __ZN10CUDTSocketC1Ev
0x00017ED0	0x00000110	[ 13] __ZN10CUDTUnited7startupEv
0x00017FE0	0x00000030	[ 13] __ZN4CUDT7startupEv
0x00018010	0x00000010	[ 13] __ZN3UDT7startupEv
0x00018020	0x000000D0	[ 13] __ZN10CUDTUnited9updateMuxEP10CUDTSocketPKS0_
0x000180F0	0x00000480	[ 13] __ZN10CUDTUnited9updateMuxEP10CUDTSocketPK8sockaddrPKi
0x00018570	0x00000100	[ 13] __ZN10CUDTUnited6locateEiPK8sockaddrRKiS4_
0x00018670	0x00000060	[ 13] __ZN10CUDTUnited6locateEi
0x000186D0	0x000000D0	[ 13] __ZN10CUDTUnited18epoll_remove_usockEiiPKi
0x000187A0	0x00000150	[ 13] __ZN4CUDT18epoll_remove_usockEiiPKi
0x000188F0	0x00000010	[ 13] __ZN3UDT18epoll_remove_ssockEiiPKi
0x00018900	0x00000010	[ 13] __ZN3UDT18epoll_remove_usockEiiPKi
0x00018910	0x000000D0	[ 13] __ZN10CUDTUnited15epoll_add_usockEiiPKi
0x000189E0	0x00000150	[ 13] __ZN4CUDT15epoll_add_usockEiiPKi
0x00018B30	0x00000010	[ 13] __ZN3UDT15epoll_add_usockEiiPKi
0x00018B40	0x00000160	[ 13] __ZN10CUDTUnited11getsocknameEiP8sockaddrPi
0x00018CA0	0x00000150	[ 13] __ZN4CUDT11getsocknameEiP8sockaddrPi
0x00018DF0	0x00000010	[ 13] __ZN3UDT11getsocknameEiP8sockaddrPi
0x00018E00	0x000002A0	[ 13] __ZN10CUDTUnited7connectEiPK8sockaddrRKi
0x000190A0	0x000001C0	[ 13] __ZN4CUDT7connectEiPK8sockaddri
0x00019260	0x00000010	[ 13] __ZN3UDT7connectEiPK8sockaddri
0x00019270	0x000001E0	[ 13] __ZN10CUDTUnited4bindEii
0x00019450	0x00000170	[ 13] __ZN4CUDT4bindEii
0x000195C0	0x00000010	[ 13] __ZN3UDT4bindEii
0x000195D0	0x000001C0	[ 13] __ZN10CUDTUnited4bindEiPK8sockaddrRKi
0x00019790	0x00000170	[ 13] __ZN4CUDT4bindEiPK8sockaddri
0x00019900	0x00000010	[ 13] __ZN3UDT4bindEiPK8sockaddri
0x00019910	0x00000190	[ 13] __ZN10CUDTUnited5closeEi
0x00019AA0	0x00000150	[ 13] __ZN4CUDT5closeEi
0x00019BF0	0x00000010	[ 13] __ZN3UDT5closeEi
0x00019C00	0x00000070	[ 13] __ZN10CUDTUnited9getStatusEi
0x00019C70	0x00000170	[ 13] __ZN10CUDTUnited11getpeernameEiP8sockaddrPi
0x00019DE0	0x00000150	[ 13] __ZN4CUDT11getpeernameEiP8sockaddrPi
0x00019F30	0x00000010	[ 13] __ZN3UDT11getpeernameEiP8sockaddrPi
0x00019F40	0x000000D0	[ 13] __ZN10CUDTUnited6lookupEi
0x0001A010	0x00000040	[ 13] __ZN4CUDT12getUDTHandleEi
0x0001A050	0x00000160	[ 13] __ZN4CUDT7perfmonEiP8CPerfMonb
0x0001A1B0	0x00000010	[ 13] __ZN3UDT7perfmonEiP8CPerfMonb
0x0001A1C0	0x00000180	[ 13] __ZN4CUDT8recvfileEiRSt13basic_fstreamIcSt11char_traitsIcEERxRKxRKi
0x0001A340	0x00000040	[ 13] __ZN3UDT8recvfileEiRSt13basic_fstreamIcSt11char_traitsIcEERxxi
0x0001A380	0x000001F0	[ 13] __ZN4CUDT8sendfileEiRSt13basic_fstreamIcSt11char_traitsIcEERxRKxRKi
0x0001A570	0x00000040	[ 13] __ZN3UDT8sendfileEiRSt13basic_fstreamIcSt11char_traitsIcEERxxi
0x0001A5B0	0x00000160	[ 13] __ZN4CUDT7recvmsgEiPci
0x0001A710	0x00000010	[ 13] __ZN3UDT7recvmsgEiPci
0x0001A720	0x000001E0	[ 13] __ZN4CUDT7sendmsgEiPKciib
0x0001A900	0x00000010	[ 13] __ZN3UDT7sendmsgEiPKciib
0x0001A910	0x00000160	[ 13] __ZN4CUDT4recvEiPcii
0x0001AA70	0x00000010	[ 13] __ZN3UDT4recvEiPcii
0x0001AA80	0x000001D0	[ 13] __ZN4CUDT4sendEiPKcii
0x0001AC50	0x00000010	[ 13] __ZN3UDT4sendEiPKcii
0x0001AC60	0x00000160	[ 13] __ZN4CUDT10setsockoptEii6UDTOptPKvi
0x0001ADC0	0x00000010	[ 13] __ZN3UDT10setsockoptEii6UDTOptPKvi
0x0001ADD0	0x00000160	[ 13] __ZN4CUDT10getsockoptEii6UDTOptPvPi
0x0001AF30	0x00000010	[ 13] __ZN3UDT10getsockoptEii6UDTOptPvPi
0x0001AF40	0x00000270	[ 13] __ZN10CUDTUnited8selectExERKSt6vectorIiSaIiEEPS2_S5_S5_x
0x0001B1B0	0x00000250	[ 13] __ZN4CUDT8selectExERKSt6vectorIiSaIiEEPS2_S5_S5_x
0x0001B400	0x00000010	[ 13] __ZN3UDT8selectExERKSt6vectorIiSaIiEEPS2_S5_S5_x
0x0001B410	0x00000150	[ 13] __ZN10CUDTUnitedD2Ev
0x0001B560	0x00000010	[ 13] __ZN10CUDTUnitedD1Ev
0x0001B570	0x00000280	[ 13] __ZN10CUDTUnited6listenEiRKi
0x0001B7F0	0x00000170	[ 13] __ZN4CUDT6listenEii
0x0001B960	0x00000010	[ 13] __ZN3UDT6listenEii
0x0001B970	0x000000B0	[ 13] __ZN10CUDTSocketD2Ev
0x0001BA20	0x00000010	[ 13] __ZN10CUDTSocketD1Ev
0x0001BA30	0x00000310	[ 13] __ZN10CUDTUnited9newSocketERKiS1_
0x0001BD40	0x00000190	[ 13] __ZN4CUDT6socketEiii
0x0001BED0	0x00000010	[ 13] __ZN3UDT6socketEiii
0x0001BEE0	0x000003C0	[ 13] __ZN10CUDTUnited6acceptEiP8sockaddrPi
0x0001C2A0	0x00000110	[ 13] __ZN4CUDT6acceptEiP8sockaddrPi
0x0001C3B0	0x00000010	[ 13] __ZN3UDT6acceptEiP8sockaddrPi
0x0001C3C0	0x000008B0	[ 13] __ZN10CUDTUnited6selectEPSt3setIiSt4lessIiESaIiEES5_S5_PK7timeval
0x0001CC70	0x00000240	[ 13] __ZN4CUDT6selectEiPSt3setIiSt4lessIiESaIiEES5_S5_PK7timeval
0x0001CEB0	0x00000010	[ 13] __ZN3UDT6selectEiPSt3setIiSt4lessIiESaIiEES5_S5_PK7timeval
0x0001CEC0	0x000004E0	[ 13] __ZN10CUDTUnited12removeSocketEi
0x0001D3A0	0x00000370	[ 13] __ZN10CUDTUnited18checkBrokenSocketsEv
0x0001D710	0x000002B0	[ 13] __ZN10CUDTUnited14garbageCollectEPv
0x0001D9C0	0x00000597	[ 13] __ZN10CUDTUnited13newConnectionEiPK8sockaddrP10CHandShake
0x0001DF60	0x00000030	[ 13] __ZN10CUDTUnited10TLSDestroyEPv
0x0001DF90	0x00000050	[ 13] __ZNSt8_Rb_treeIiSt4pairIKiP10CUDTSocketESt10_Select1stIS4_ESt4lessIiESaIS4_EE4findERS1_
0x0001DFE0	0x00000060	[ 13] __ZNSt8_Rb_treeIxSt4pairIKxSt3setIiSt4lessIiESaIiEEESt10_Select1stIS7_ES3_IxESaIS7_EE4findERS1_
0x0001E040	0x00000050	[ 13] __ZNSt8_Rb_treeIiSt4pairIKi12CMultiplexerESt10_Select1stIS3_ESt4lessIiESaIS3_EE4findERS1_
0x0001E090	0x00000040	[ 13] __ZNSt8_Rb_treeIiSt4pairIKiP10CUDTSocketESt10_Select1stIS4_ESt4lessIiESaIS4_EE11lower_boundERS1_
0x0001E0D0	0x00000040	[ 13] __ZNSt8_Rb_treeIxSt4pairIKxSt3setIiSt4lessIiESaIiEEESt10_Select1stIS7_ES3_IxESaIS7_EE11lower_boundERS1_
0x0001E110	0x00000040	[ 13] __ZNSt8_Rb_treeIiSt4pairIKi12CMultiplexerESt10_Select1stIS3_ESt4lessIiESaIS3_EE11lower_boundERS1_
0x0001E150	0x00000040	[ 13] __ZNSt8_Rb_treeIiSt4pairIKiP10CUDTSocketESt10_Select1stIS4_ESt4lessIiESaIS4_EE11upper_boundERS1_
0x0001E190	0x000000D0	[ 13] __ZNSt8_Rb_treeIiSt4pairIKi12CMultiplexerESt10_Select1stIS3_ESt4lessIiESaIS3_EE9_M_insertEPSt18_Rb_tree_node_baseSB_RKS3_
0x0001E260	0x000000A0	[ 13] __ZNSt8_Rb_treeIiSt4pairIKiP10CUDTSocketESt10_Select1stIS4_ESt4lessIiESaIS4_EE9_M_insertEPSt18_Rb_tree_node_baseSC_RKS4_
0x0001E300	0x000000E0	[ 13] __ZNSt8_Rb_treeIiSt4pairIKiP10CUDTSocketESt10_Select1stIS4_ESt4lessIiESaIS4_EE16_M_insert_uniqueERKS4_
0x0001E3E0	0x000000B0	[ 13] __ZNSt8_Rb_treeIiSt4pairIKi12CMultiplexerESt10_Select1stIS3_ESt4lessIiESaIS3_EE16_M_insert_uniqueERKS3_
0x0001E490	0x00000140	[ 13] __ZNSt8_Rb_treeIiSt4pairIKi12CMultiplexerESt10_Select1stIS3_ESt4lessIiESaIS3_EE16_M_insert_uniqueESt17_Rb_tree_iteratorIS3_ERKS3_
0x0001E5D0	0x00000150	[ 13] __ZNSt6vectorIP10CUDTSocketSaIS1_EE13_M_insert_auxEN9__gnu_cxx17__normal_iteratorIPS1_S3_EERKS1_
0x0001E720	0x00000070	[ 13] __ZNSt6vectorIP10CUDTSocketSaIS1_EE6insertEN9__gnu_cxx17__normal_iteratorIPS1_S3_EERKS1_
0x0001E790	0x00000140	[ 13] __ZNSt8_Rb_treeIiSt4pairIKiP10CUDTSocketESt10_Select1stIS4_ESt4lessIiESaIS4_EE16_M_insert_uniqueESt17_Rb_tree_iteratorIS4_ERKS4_
0x0001E8D0	0x000000A0	[ 13] __ZNSt8_Rb_treeIiSt4pairIKiP10CUDTSocketESt10_Select1stIS4_ESt4lessIiESaIS4_EE5eraseESt17_Rb_tree_iteratorIS4_ESC_
0x0001E970	0x00000060	[ 13] __ZNSt8_Rb_treeIiSt4pairIKiP10CUDTSocketESt10_Select1stIS4_ESt4lessIiESaIS4_EE5eraseERS1_
0x0001E9D0	0x00000140	[ 13] __ZNSt8_Rb_treeIxSt4pairIKxSt3setIiSt4lessIiESaIiEEESt10_Select1stIS7_ES3_IxESaIS7_EE9_M_insertEPSt18_Rb_tree_node_baseSE_RKS7_
0x0001EB10	0x000000F0	[ 13] __ZNSt8_Rb_treeIxSt4pairIKxSt3setIiSt4lessIiESaIiEEESt10_Select1stIS7_ES3_IxESaIS7_EE16_M_insert_uniqueERKS7_
0x0001EC00	0x00000200	[ 13] __ZNSt8_Rb_treeIxSt4pairIKxSt3setIiSt4lessIiESaIiEEESt10_Select1stIS7_ES3_IxESaIS7_EE16_M_insert_uniqueESt17_Rb_tree_iteratorIS7_ERKS7_
0x0001EE00	0x00000090	[ 13] __ZNSt8_Rb_treeIiiSt9_IdentityIiESt4lessIiESaIiEE9_M_insertEPKSt18_Rb_tree_node_baseS8_RKi
0x0001EE90	0x00000192	[ 13] __ZNSt8_Rb_treeIiiSt9_IdentityIiESt4lessIiESaIiEE16_M_insert_uniqueESt23_Rb_tree_const_iteratorIiERKi
0x0001F030	0x00000040	[ 14] _UDT_GetSocketID
0x0001F070	0x00000040	[ 14] _UDT_SetSocketID
0x0001F0B0	0x000004D0	[ 14] _UDT_InitFieldMonitor
0x0001F580	0x00000240	[ 14] _UDT_InitFieldRefAll
0x0001F7C0	0x00000010	[ 14] _Java_com_barchart_udt_SocketUDT_getSignatureJNI0
0x0001F7D0	0x00000010	[ 14] _Java_com_barchart_udt_SocketUDT_testEmptyCall0
0x0001F7E0	0x00000020	[ 14] _Java_com_barchart_udt_SocketUDT_testMakeArray0
0x0001F800	0x00000010	[ 14] _Java_com_barchart_udt_SocketUDT_testSocketStatus0
0x0001F810	0x00000380	[ 14] _UDT_InitMethodRefAll
0x0001FB90	0x00000080	[ 14] _X_InitMethodRef
0x0001FC10	0x00000090	[ 14] _XXX_ThrowSocketExceptionMessage
0x0001FCA0	0x000000C0	[ 14] _X_InitClassReference
0x0001FD60	0x000001C0	[ 14] _UDT_InitClassRefAll
0x0001FF20	0x00000030	[ 14] _Java_com_barchart_udt_SocketUDT_testCrashJVM0
0x0001FF50	0x00000020	[ 14] _Java_com_barchart_udt_SocketUDT_clearError0
0x0001FF70	0x00000020	[ 14] _Java_com_barchart_udt_SocketUDT_getErrorCode0
0x0001FF90	0x00000070	[ 14] _Java_com_barchart_udt_SocketUDT_testIterateSet0
0x00020000	0x000000A0	[ 14] _UDT_NewExceptionUDT
0x000200A0	0x000000C0	[ 14] _UDT_ThrowExceptionUDT_ErrorInfo
0x00020160	0x000000A0	[ 14] _Java_com_barchart_udt_SocketUDT_testInvalidClose0
0x00020200	0x00000090	[ 14] _Java_com_barchart_udt_SocketUDT_initInstance1
0x00020290	0x000000B0	[ 14] _UDT_ThrowExceptionUDT_Message
0x00020340	0x000000E0	[ 14] _X_IsValidRange
0x00020420	0x00000090	[ 14] _UDT_NewLingerUDT
0x000204B0	0x000000E0	[ 14] _X_NewInetAddress
0x00020590	0x00000080	[ 14] _X_NewLong
0x00020610	0x00000070	[ 14] _X_NewInteger
0x00020680	0x00000080	[ 14] _X_NewBoolean
0x00020700	0x00000040	[ 14] _UDT_CopySetToArray
0x00020740	0x000000A0	[ 14] _UDT_CopyArrayToSet
0x000207E0	0x00000090	[ 14] _UDT_ReturnSendError
0x00020870	0x00000090	[ 14] _UDT_ReturnReceiveError
0x00020900	0x00000140	[ 14] _Java_com_barchart_udt_SocketUDT_receive2
0x00020A40	0x000000B0	[ 14] _Java_com_barchart_udt_SocketUDT_listen0
0x00020AF0	0x00000070	[ 14] _UDT_IsSocketOpen
0x00020B60	0x00000020	[ 14] _Java_com_barchart_udt_SocketUDT_isOpen0
0x00020B80	0x000000E0	[ 14] _Java_com_barchart_udt_SocketUDT_close0
0x00020C60	0x000000D0	[ 14] _Java_com_barchart_udt_SocketUDT_initInstance0
0x00020D30	0x00000090	[ 14] _Java_com_barchart_udt_SocketUDT_stopClass0
0x00020DC0	0x000000B0	[ 14] _Java_com_barchart_udt_SocketUDT_initClass0
0x00020E70	0x00000120	[ 14] _X_IsSockaddrEqualsInetSocketAddress
0x00020F90	0x000000F0	[ 14] _X_NewInetSocketAddress
0x00021080	0x00000100	[ 14] _X_ConvertInetSocketAddressToSockaddr
0x00021180	0x00000070	[ 14] _X_InitSockAddr
0x000211F0	0x00000150	[ 14] _Java_com_barchart_udt_SocketUDT_connect0
0x00021340	0x00000140	[ 14] _Java_com_barchart_udt_SocketUDT_bind0
0x00021480	0x00000180	[ 14] _Java_com_barchart_udt_SocketUDT_receive0
0x00021600	0x00000100	[ 14] _X_ConvertSockaddrToInetSocketAddress
0x00021700	0x000005A0	[ 14] _Java_com_barchart_udt_SocketUDT_updateMonitor0
0x00021CA0	0x000000E0	[ 14] _Java_com_barchart_udt_SocketUDT_hasLoadedLocalSocketAddress
0x00021D80	0x000000E0	[ 14] _Java_com_barchart_udt_SocketUDT_hasLoadedRemoteSocketAddress
0x00021E60	0x00000090	[ 14] _Java_com_barchart_udt_SocketUDT_testGetSetArray0
0x00021EF0	0x000001E0	[ 14] _Java_com_barchart_udt_SocketUDT_getOption0
0x000220D0	0x000001B0	[ 14] _Java_com_barchart_udt_SocketUDT_accept0
0x00022280	0x000002E0	[ 14] _Java_com_barchart_udt_SocketUDT_setOption0
0x00022560	0x00000070	[ 14] _Java_com_barchart_udt_SocketUDT_testFillArray0
0x000225D0	0x00000060	[ 14] _Java_com_barchart_udt_SocketUDT_testIterateArray0
0x00022630	0x000001E0	[ 14] _Java_com_barchart_udt_SocketUDT_send1
0x00022810	0x00000050	[ 14] _Java_com_barchart_udt_SocketUDT_getErrorMessage0
0x00022860	0x00000140	[ 14] _Java_com_barchart_udt_SocketUDT_send0
0x000229A0	0x000001E0	[ 14] _Java_com_barchart_udt_SocketUDT_receive1
0x00022B80	0x00000070	[ 14] _Java_com_barchart_udt_SocketUDT_testFillBuffer0
0x00022BF0	0x00000070	[ 14] _Java_com_barchart_udt_SocketUDT_testDirectIntBufferAccess0
0x00022C60	0x00000070	[ 14] _Java_com_barchart_udt_SocketUDT_testDirectByteBufferAccess0
0x00022CD0	0x00000170	[ 14] _Java_com_barchart_udt_SocketUDT_send2
0x00022E40	0x00000270	[ 14] _Java_com_barchart_udt_SocketUDT_selectEx1
0x000230B0	0x000003C0	[ 14] _Java_com_barchart_udt_SocketUDT_selectEx0
0x00023470	0x000004E0	[ 14] _Java_com_barchart_udt_SocketUDT_select1
0x00023950	0x000006F7	[ 14] _Java_com_barchart_udt_SocketUDT_select0
0x00024050	0x000000B0	[ 14] __ZSt6__findIN9__gnu_cxx17__normal_iteratorIPiSt6vectorIiSaIiEEEElET_S7_S7_RKT0_St26random_access_iterator_tag
0x00024100	0x00000030	[ 14] __ZN7JNIEnv_14CallLongMethodEP8_jobjectP10_jmethodIDz
0x00024130	0x00000030	[ 14] __ZN7JNIEnv_13CallIntMethodEP8_jobjectP10_jmethodIDz
0x00024160	0x00000040	[ 14] __ZN7JNIEnv_17CallBooleanMethodEP8_jobjectP10_jmethodIDz
0x000241A0	0x00000030	[ 14] __ZN7JNIEnv_16CallObjectMethodEP8_jobjectP10_jmethodIDz
0x000241D0	0x00000030	[ 14] __ZN7JNIEnv_9NewObjectEP7_jclassP10_jmethodIDz
0x00024200	0x00000020	[  7] ___tcf_0
0x00024220	0x00000008	[  1] 8-byte-literal=0x3FF0000000000000
0x00024228	0x00000008	[  1] 8-byte-literal=0x412E848000000000
0x00024230	0x00000008	[  2] 8-byte-literal=0x3FECCCCCCCCCCCCD
0x00024238	0x00000004	[  3] __ZN7CPacket13m_iPktHdrSizeE
0x0002423C	0x00000004	[  3] __ZN10CHandShake14m_iContentSizeE
0x00024240	0x00000040	[  4] __ZZ10md5_finishE3pad
0x00024280	0x00000004	[  4] __ZZL11md5_processP11md5_state_sPKhE1w
0x00024284	0x00000004	[  7] __ZN4CUDT12INVALID_SOCKE
0x00024288	0x00000004	[  7] __ZN4CUDT5ERRORE
0x0002428C	0x00000004	[  7] __ZN3UDT12INVALID_SOCKE
0x00024290	0x00000004	[  7] __ZN3UDT5ERRORE
0x00024294	0x00000004	[  7] __ZN6CSeqNo10m_iSeqNoTHE
0x00024298	0x00000004	[  7] __ZN6CSeqNo11m_iMaxSeqNoE
0x0002429C	0x00000004	[  7] __ZN6CAckNo14m_iMaxAckSeqNoE
0x000242A0	0x00000004	[  7] __ZN6CMsgNo10m_iMsgNoTHE
0x000242A4	0x00000004	[  7] __ZN6CMsgNo11m_iMaxMsgNoE
0x000242A8	0x00000004	[  7] __ZN4CUDT10m_iVersionE
0x000242AC	0x00000004	[  7] __ZN4CUDT14m_iSYNIntervalE
0x000242B0	0x00000004	[  7] __ZN4CUDT20m_iSelfClockIntervalE
0x000242B4	0x00000016	[  7] __ZTS10CCCFactoryI6CUDTCCE
0x000242CA	0x00000014	[  7] __ZTS17CCCVirtualFactory
0x000242E0	0x00000040	[  7] __const@0
0x00024320	0x00000008	[  7] 8-byte-literal=0x43E0000000000000
0x00024328	0x00000008	[  7] 8-byte-literal=0x408F400000000000
0x00024330	0x00000008	[  7] 8-byte-literal=0x4020000000000000
0x00024338	0x00000008	[  7] 8-byte-literal=0x3FF2000000000000
0x00024340	0x00000008	[  7] 8-byte-literal=0x41DFFFFFFFC00000
0x00024348	0x00000004	[  8] __ZN13CUDTException7SUCCESSE
0x0002434C	0x00000004	[  8] __ZN13CUDTException10ECONNSETUPE
0x00024350	0x00000004	[  8] __ZN13CUDTException9ENOSERVERE
0x00024354	0x00000004	[  8] __ZN13CUDTException8ECONNREJE
0x00024358	0x00000004	[  8] __ZN13CUDTException9ESOCKFAILE
0x0002435C	0x00000004	[  8] __ZN13CUDTException8ESECFAILE
0x00024360	0x00000004	[  8] __ZN13CUDTException9ECONNFAILE
0x00024364	0x00000004	[  8] __ZN13CUDTException9ECONNLOSTE
0x00024368	0x00000004	[  8] __ZN13CUDTException7ENOCONNE
0x0002436C	0x00000004	[  8] __ZN13CUDTException9ERESOURCEE
0x00024370	0x00000004	[  8] __ZN13CUDTException7ETHREADE
0x00024374	0x00000004	[  8] __ZN13CUDTException6ENOBUFE
0x00024378	0x00000004	[  8] __ZN13CUDTException5EFILEE
0x0002437C	0x00000004	[  8] __ZN13CUDTException9EINVRDOFFE
0x00024380	0x00000004	[  8] __ZN13CUDTException7ERDPERME
0x00024384	0x00000004	[  8] __ZN13CUDTException9EINVWROFFE
0x00024388	0x00000004	[  8] __ZN13CUDTException7EWRPERME
0x0002438C	0x00000004	[  8] __ZN13CUDTException6EINVOPE
0x00024390	0x00000004	[  8] __ZN13CUDTException10EBOUNDSOCKE
0x00024394	0x00000004	[  8] __ZN13CUDTException9ECONNSOCKE
0x00024398	0x00000004	[  8] __ZN13CUDTException9EINVPARAME
0x0002439C	0x00000004	[  8] __ZN13CUDTException8EINVSOCKE
0x000243A0	0x00000004	[  8] __ZN13CUDTException12EUNBOUNDSOCKE
0x000243A4	0x00000004	[  8] __ZN13CUDTException9ENOLISTENE
0x000243A8	0x00000004	[  8] __ZN13CUDTException10ERDVNOSERVE
0x000243AC	0x00000004	[  8] __ZN13CUDTException11ERDVUNBOUNDE
0x000243B0	0x00000004	[  8] __ZN13CUDTException10ESTREAMILLE
0x000243B4	0x00000004	[  8] __ZN13CUDTException9EDGRAMILLE
0x000243B8	0x00000004	[  8] __ZN13CUDTException10EDUPLISTENE
0x000243BC	0x00000004	[  8] __ZN13CUDTException9ELARGEMSGE
0x000243C0	0x00000004	[  8] __ZN13CUDTException10EINVPOLLIDE
0x000243C4	0x00000004	[  8] __ZN13CUDTException10EASYNCFAILE
0x000243C8	0x00000004	[  8] __ZN13CUDTException9EASYNCSNDE
0x000243CC	0x00000004	[  8] __ZN13CUDTException9EASYNCRCVE
0x000243D0	0x00000004	[  8] __ZN13CUDTException8EPEERERRE
0x000243D4	0x00000004	[  8] __ZN13CUDTException8EUNKNOWNE
0x000243D8	0x00000008	[ 10] 8-byte-literal=0x4030000000000000
0x000243E0	0x00000008	[ 10] 8-byte-literal=0x3FEC000000000000
0x000243E8	0x00000008	[ 10] 8-byte-literal=0x3FC0000000000000
0x000243F0	0x00000008	[ 10] 8-byte-literal=0xC12E848000000000
0x000243F8	0x00000008	[ 10] 8-byte-literal=0x3EB92A737110E454
0x00024400	0x00000020	[ 10] __const@0
0x00024420	0x00000008	[ 13] 8-byte-literal=0x41D0000000000000
0x00024428	0x00000016	[  2] "vector::_M_insert_aux"
0x0002443E	0x0000000B	[  7] "%s:%s:%lld"
0x0002444C	0x00000008	[  8] "Success"
0x00024454	0x00000019	[  8] "Connection setup failure"
0x0002446D	0x00000016	[  8] ": connection time out"
0x00024483	0x00000016	[  8] ": connection rejected"
0x0002449A	0x00000001	[  8] ""
0x0002449C	0x00000028	[  8] ": unable to create/configure UDP socket"
0x000244C4	0x0000001D	[  8] ": abort for security reasons"
0x000244E1	0x00000016	[  8] "Connection was broken"
0x000244F7	0x0000001A	[  8] "Connection does not exist"
0x00024511	0x00000018	[  8] "System resource failure"
0x0002452C	0x0000001F	[  8] ": unable to create new threads"
0x0002454B	0x0000001D	[  8] ": unable to allocate buffers"
0x00024568	0x00000014	[  8] "File system failure"
0x0002457C	0x0000001C	[  8] ": cannot seek read position"
0x00024598	0x00000012	[  8] ": failure in read"
0x000245AA	0x0000001D	[  8] ": cannot seek write position"
0x000245C7	0x00000013	[  8] ": failure in write"
0x000245DA	0x00000018	[  8] "Operation not supported"
0x000245F4	0x0000002D	[  8] ": Cannot do this operation on a BOUND socket"
0x00024624	0x00000031	[  8] ": Cannot do this operation on a CONNECTED socket"
0x00024655	0x00000011	[  8] ": Bad parameters"
0x00024666	0x00000014	[  8] ": Invalid socket ID"
0x0002467C	0x00000030	[  8] ": Cannot do this operation on an UNBOUND socket"
0x000246AC	0x00000023	[  8] ": Socket is not in listening state"
0x000246D0	0x0000003F	[  8] ": Listen/accept is not supported in rendezous connection setup"
0x00024710	0x00000047	[  8] ": Cannot call connect on UNBOUND socket in rendezvous connection setup"
0x00024758	0x00000036	[  8] ": This operation is not supported in SOCK_STREAM mode"
0x00024790	0x00000035	[  8] ": This operation is not supported in SOCK_DGRAM mode"
0x000247C8	0x00000037	[  8] ": Another socket is already listening on the same port"
0x00024800	0x0000004F	[  8] ": Message is too large to send (it must be less than the UDT send buffer size)"
0x0002484F	0x00000013	[  8] ": Invalid epoll ID"
0x00024862	0x0000001A	[  8] "Non-blocking call failure"
0x0002487C	0x00000022	[  8] ": no buffer available for sending"
0x000248A0	0x00000020	[  8] ": no data available for reading"
0x000248C0	0x00000025	[  8] "The peer side has signalled an error"
0x000248E5	0x0000000E	[  8] "Unknown error"
0x000248F3	0x00000003	[  8] ": "
0x000248F6	0x00000002	[  8] "."
0x000248F8	0x00000010	[  8] __ZTS13CUDTException
0x00024908	0x00000002	[  9] "0"
0x0002490A	0x00000008	[ 10] __ZTS6CUDTCC
0x00024912	0x00000005	[ 10] __ZTS3CCC
0x00024918	0x00000002	[ 14] "J"
0x0002491A	0x0000000C	[ 14] "msTimeStamp"
0x00024926	0x0000000D	[ 14] "pktSentTotal"
0x00024933	0x0000000D	[ 14] "pktRecvTotal"
0x00024940	0x00000002	[ 14] "I"
0x00024942	0x00000010	[ 14] "pktSndLossTotal"
0x00024952	0x00000010	[ 14] "pktRcvLossTotal"
0x00024962	0x00000010	[ 14] "pktRetransTotal"
0x00024972	0x00000010	[ 14] "pktSentACKTotal"
0x00024982	0x00000010	[ 14] "pktRecvACKTotal"
0x00024992	0x00000010	[ 14] "pktSentNAKTotal"
0x000249A2	0x00000010	[ 14] "pktRecvNAKTotal"
0x000249B2	0x00000013	[ 14] "usSndDurationTotal"
0x000249C5	0x00000008	[ 14] "pktSent"
0x000249CD	0x00000008	[ 14] "pktRecv"
0x000249D5	0x0000000B	[ 14] "pktSndLoss"
0x000249E0	0x0000000B	[ 14] "pktRcvLoss"
0x000249EB	0x0000000B	[ 14] "pktRetrans"
0x000249F6	0x0000000B	[ 14] "pktSentACK"
0x00024A01	0x0000000B	[ 14] "pktRecvACK"
0x00024A0C	0x0000000B	[ 14] "pktSentNAK"
0x00024A17	0x0000000B	[ 14] "pktRecvNAK"
0x00024A22	0x00000002	[ 14] "D"
0x00024A24	0x0000000D	[ 14] "mbpsSendRate"
0x00024A31	0x0000000D	[ 14] "mbpsRecvRate"
0x00024A3E	0x0000000E	[ 14] "usSndDuration"
0x00024A4C	0x0000000F	[ 14] "usPktSndPeriod"
0x00024A5B	0x0000000E	[ 14] "pktFlowWindow"
0x00024A69	0x00000014	[ 14] "pktCongestionWindow"
0x00024A7D	0x0000000E	[ 14] "pktFlightSize"
0x00024A8B	0x00000006	[ 14] "msRTT"
0x00024A91	0x0000000E	[ 14] "mbpsBandwidth"
0x00024A9F	0x00000010	[ 14] "byteAvailSndBuf"
0x00024AAF	0x00000010	[ 14] "byteAvailRcvBuf"
0x00024ABF	0x00000008	[ 14] "address"
0x00024AC7	0x00000017	[ 14] "Ljava/net/InetAddress;"
0x00024ADE	0x00000005	[ 14] "addr"
0x00024AE3	0x00000005	[ 14] "port"
0x00024AE8	0x00000009	[ 14] "socketID"
0x00024AF1	0x0000001D	[ 14] "Ljava/net/InetSocketAddress;"
0x00024B0E	0x00000014	[ 14] "remoteSocketAddress"
0x00024B22	0x00000013	[ 14] "localSocketAddress"
0x00024B35	0x0000001B	[ 14] "Lcom/barchart/udt/TypeUDT;"
0x00024B50	0x00000005	[ 14] "type"
0x00024B55	0x0000001E	[ 14] "Lcom/barchart/udt/MonitorUDT;"
0x00024B73	0x00000008	[ 14] "monitor"
0x00024B7B	0x00000002	[ 14] "Z"
0x00024B7D	0x0000000F	[ 14] "isSelectedRead"
0x00024B8C	0x00000010	[ 14] "isSelectedWrite"
0x00024B9C	0x00000014	[ 14] "isSelectedException"
0x00024BB0	0x00000005	[ 14] "code"
0x00024BB5	0x00000005	[ 14] "(Z)V"
0x00024BBA	0x00000007	[ 14] "<init>"
0x00024BC1	0x00000016	[ 14] "jdk_clsBoolean_initID"
0x00024BD7	0x00000011	[ 14] "CHK_NUL_RET_RET;"
0x00024BE8	0x0000001C	[ 14] "%s function: %s comment: %s"
0x00024C04	0x00000005	[ 14] "(I)V"
0x00024C09	0x00000016	[ 14] "jdk_clsInteger_initID"
0x00024C1F	0x00000005	[ 14] "(J)V"
0x00024C24	0x00000013	[ 14] "jdk_clsLong_initID"
0x00024C37	0x00000004	[ 14] "()V"
0x00024C3B	0x0000001B	[ 14] "jdk_clsInet4Address_initID"
0x00024C56	0x0000001B	[ 14] "(Ljava/net/InetAddress;I)V"
0x00024C74	0x00000020	[ 14] "jdk_clsInetSocketAddress_initID"
0x00024C94	0x00000017	[ 14] "()Ljava/util/Iterator;"
0x00024CAB	0x00000009	[ 14] "iterator"
0x00024CB4	0x00000016	[ 14] "jdk_clsSet_iteratorID"
0x00024CCA	0x00000016	[ 14] "(Ljava/lang/Object;)Z"
0x00024CE0	0x00000004	[ 14] "add"
0x00024CE4	0x00000011	[ 14] "jdk_clsSet_addID"
0x00024CF5	0x00000009	[ 14] "contains"
0x00024CFE	0x00000016	[ 14] "jdk_clsSet_containsID"
0x00024D14	0x00000004	[ 14] "()Z"
0x00024D18	0x00000008	[ 14] "hasNext"
0x00024D20	0x0000001A	[ 14] "jdk_clsIterator_hasNextID"
0x00024D3A	0x00000015	[ 14] "()Ljava/lang/Object;"
0x00024D4F	0x00000005	[ 14] "next"
0x00024D54	0x00000017	[ 14] "jdk_clsIterator_nextID"
0x00024D6C	0x0000001F	[ 14] "(Lcom/barchart/udt/TypeUDT;I)V"
0x00024D8B	0x00000019	[ 14] "udt_clsSocketUDT_initID1"
0x00024DA4	0x00000018	[ 14] "(IILjava/lang/String;)V"
0x00024DBC	0x0000001C	[ 14] "udt_clsExceptionUDT_initID0"
0x00024DD8	0x00000018	[ 14] "udt_clsLingerUDT_initID"
0x00024DF0	0x00000004	[ 14] "env"
0x00024DF4	0x00000008	[ 14] "message"
0x00024DFC	0x00000017	[ 14] "jdk_clsSocketException"
0x00024E13	0x0000000A	[ 14] "className"
0x00024E1D	0x0000000F	[ 14] "classReference"
0x00024E2C	0x00000005	[ 14] "klaz"
0x00024E31	0x00000012	[ 14] "java/lang/Boolean"
0x00024E43	0x00000012	[ 14] "java/lang/Integer"
0x00024E55	0x0000000F	[ 14] "java/lang/Long"
0x00024E64	0x00000016	[ 14] "java/net/Inet4Address"
0x00024E7A	0x00000016	[ 14] "java/net/Inet6Address"
0x00024E90	0x0000001B	[ 14] "java/net/InetSocketAddress"
0x00024EAB	0x00000019	[ 14] "java/net/SocketException"
0x00024EC4	0x0000000E	[ 14] "java/util/Set"
0x00024ED2	0x00000013	[ 14] "java/util/Iterator"
0x00024EE5	0x0000001B	[ 14] "com/barchart/udt/SocketUDT"
0x00024F00	0x00000019	[ 14] "com/barchart/udt/TypeUDT"
0x00024F19	0x0000001C	[ 14] "com/barchart/udt/FactoryUDT"
0x00024F35	0x0000001C	[ 14] "com/barchart/udt/MonitorUDT"
0x00024F51	0x0000001E	[ 14] "com/barchart/udt/ExceptionUDT"
0x00024F6F	0x0000001B	[ 14] "com/barchart/udt/LingerUDT"
0x00024F8A	0x00000018	[ 14] "native: test crash jvm "
0x00024FA2	0x00000011	[ 14] "CHK_NUL_RET_NUL;"
0x00024FB3	0x0000000E	[ 14] "messageString"
0x00024FC1	0x00000008	[ 14] "comment"
0x00024FC9	0x0000000A	[ 14] "errorInfo"
0x00024FD3	0x0000000A	[ 14] "exception"
0x00024FE0	0x00000021	[ 14] "testInvalidClose0 - close failed"
0x00025001	0x0000001B	[ 14] "initInstance1:INVALID_SOCK"
0x0002501C	0x00000011	[ 14] "position > limit"
0x0002502D	0x00000019	[ 14] "position is out of range"
0x00025046	0x00000016	[ 14] "limit is out of range"
0x0002505C	0x0000000C	[ 14] "lingerValue"
0x00025068	0x00000014	[ 14] "jdk_clsInet4Address"
0x0002507C	0x0000000F	[ 14] "objInetAddress"
0x0002508B	0x00000012	[ 14] "rv.second == true"
0x000250A0	0x0000002D	[ 14] "../native/jni/com_barchart_udt_SocketUDT.cpp"
0x000250CD	0x0000000D	[ 14] "send/sendmsg"
0x000250DA	0x0000000D	[ 14] "recv/recvmsg"
0x000250E8	0x00000025	[ 14] "recv/recvmsg : unexpected socketType"
0x0002510D	0x00000008	[ 14] "listen0"
0x00025115	0x00000012	[ 14] "close0 - not open"
0x00025127	0x00000016	[ 14] "close0 - close failed"
0x0002513D	0x0000001B	[ 14] "initInstance0:INVALID_SOCK"
0x00025158	0x00000015	[ 14] "stopClass0:cleanup()"
0x0002516D	0x00000015	[ 14] "initClass0:startup()"
0x00025182	0x00000011	[ 14] "CHK_NUL_RET_FLS;"
0x00025193	0x00000009	[ 14] "sockAddr"
0x0002519C	0x0000000E	[ 14] "socketAddress"
0x000251AA	0x00000015	[ 14] "objInetSocketAddress"
0x000251BF	0x00000011	[ 14] "CHK_NUL_RET_ERR;"
0x000251D0	0x0000001F	[ 14] "objRemoteSocketAddress == NULL"
0x000251EF	0x00000017	[ 14] "can not X_InitSockAddr"
0x00025208	0x0000002D	[ 14] "can not X_ConvertInetSocketAddressToSockaddr"
0x00025235	0x00000008	[ 14] "connect"
0x0002523D	0x00000005	[ 14] "bind"
0x00025242	0x0000000F	[ 14] "updateMonitor0"
0x00025251	0x0000000B	[ 14] "objMonitor"
0x0002525C	0x0000000B	[ 14] "getsockopt"
0x00025268	0x00000020	[ 14] "not yet implemented: FactoryUDT"
0x00025288	0x00000026	[ 14] "unsupported option class in OptionUDT"
0x000252AE	0x00000014	[ 14] "accept:INVALID_SOCK"
0x000252C2	0x0000000B	[ 14] "objTypeUDT"
0x000252CD	0x0000000D	[ 14] "objSocketUDT"
0x000252DA	0x0000000D	[ 14] "booleanValue"
0x000252E7	0x00000004	[ 14] "()I"
0x000252EB	0x00000009	[ 14] "intValue"
0x000252F4	0x00000004	[ 14] "()J"
0x000252F8	0x0000000A	[ 14] "longValue"
0x00025302	0x0000000B	[ 14] "setOption0"
0x00025310	0x0000002B	[ 14] "send/sendmsg : can not allocate data array"
0x0002533C	0x00000025	[ 14] "send/sendmsg : unexpected socketType"
0x00025361	0x00000007	[ 14] "<NONE>"
0x00025368	0x0000002B	[ 14] "recv/recvmsg : can not allocate data array"
0x00025394	0x00000020	[ 14] "native: intBuffer capacity=%d \n"
0x000253B4	0x00000021	[ 14] "native: byteBuffer capacity=%d \n"
0x000253D8	0x00000025	[ 14] "com/barchart/udt/nio/SelectionKeyUDT"
0x000253FD	0x0000000A	[ 14] "selectEx1"
0x00025407	0x0000000A	[ 14] "selectEx0"
0x00025411	0x00000008	[ 14] "select1"
0x00025419	0x0000001B	[ 14] "readSizeReturn <= readSize"
0x00025434	0x0000001D	[ 14] "writeSizeReturn <= writeSize"
0x00025454	0x00000025	[ 14] "select0 : can not allocate sizeArray"
0x0002547C	0x00000025	[ 14] "select0 : can not allocate readArray"
0x000254A4	0x00000026	[ 14] "select0 : can not allocate writeArray"
0x000254CA	0x00000008	[ 14] "select0"
0x000254D4	0x00000027	[ 14] "select0 : can not allocate exceptArray"
0x000254FC	0x00000028	[ 14] __ZZ39Java_com_barchart_udt_SocketUDT_select1E8__func__
0x00025524	0x00000013	[ 14] __ZZ18UDT_CopyArrayToSetE8__func__
0x00025538	0x0000002F	[ 14] __ZZ46Java_com_barchart_udt_SocketUDT_updateMonitor0E8__func__
0x00025568	0x00000028	[ 14] __ZZ39Java_com_barchart_udt_SocketUDT_accept0E8__func__
0x00025590	0x00000015	[ 14] __ZZ20UDT_InitMethodRefAllE8__func__
0x000255A5	0x00000010	[ 14] __ZZ15X_InitMethodRefE8__func__
0x000255B8	0x00000020	[ 14] __ZZ31UDT_ThrowExceptionUDT_ErrorInfoE8__func__
0x000255D8	0x0000001E	[ 14] __ZZ29UDT_ThrowExceptionUDT_MessageE8__func__
0x000255F6	0x00000014	[ 14] __ZZ19UDT_NewExceptionUDTE8__func__
0x0002560A	0x00000011	[ 14] __ZZ16UDT_NewLingerUDTE8__func__
0x0002561C	0x00000020	[ 14] __ZZ31XXX_ThrowSocketExceptionMessageE8__func__
0x0002563C	0x00000024	[ 14] __ZZ35X_IsSockaddrEqualsInetSocketAddressE8__func__
0x00025660	0x00000017	[ 14] __ZZ22X_NewInetSocketAddressE8__func__
0x00025677	0x00000011	[ 14] __ZZ16X_NewInetAddressE8__func__
0x00025688	0x00000025	[ 14] __ZZ36X_ConvertSockaddrToInetSocketAddressE8__func__
0x000256B0	0x00000025	[ 14] __ZZ36X_ConvertInetSocketAddressToSockaddrE8__func__
0x000256D5	0x0000000F	[ 14] __ZZ14X_InitSockAddrE8__func__
0x000256E4	0x0000000A	[ 14] __ZZ9X_NewLongE8__func__
0x000256EE	0x0000000D	[ 14] __ZZ12X_NewIntegerE8__func__
0x000256FB	0x0000000D	[ 14] __ZZ12X_NewBooleanE8__func__
0x00025708	0x00000015	[ 14] __ZZ20X_InitClassReferenceE8__func__
0x0002571E	0x00000006	[  0] __Unwind_Resume$stub
0x00025724	0x00000006	[  0] __ZN7JNIEnv_13CallIntMethodEP8_jobjectP10_jmethodIDz$stub
0x0002572A	0x00000006	[  0] __ZN7JNIEnv_14CallLongMethodEP8_jobjectP10_jmethodIDz$stub
0x00025730	0x00000006	[  0] __ZN7JNIEnv_16CallObjectMethodEP8_jobjectP10_jmethodIDz$stub
0x00025736	0x00000006	[  0] __ZN7JNIEnv_17CallBooleanMethodEP8_jobjectP10_jmethodIDz$stub
0x0002573C	0x00000006	[  0] __ZN7JNIEnv_9NewObjectEP7_jclassP10_jmethodIDz$stub
0x00025742	0x00000006	[  0] __ZNSi4readEPci$stub
0x00025748	0x00000006	[  0] __ZNSi5seekgESt4fposI11__mbstate_tE$stub
0x0002574E	0x00000006	[  0] __ZNSo5seekpESt4fposI11__mbstate_tE$stub
0x00025754	0x00000006	[  0] __ZNSo5writeEPKci$stub
0x0002575A	0x00000006	[  0] __ZNSs4_Rep10_M_destroyERKSaIcE$stub
0x00025760	0x00000006	[  0] __ZNSs6appendEPKcm$stub
0x00025766	0x00000006	[  0] __ZNSs6assignEPKcm$stub
0x0002576C	0x00000006	[  0] __ZNSs6assignERKSs$stub
0x00025772	0x00000006	[  0] __ZNSt11_Deque_baseIP7CPacketSaIS1_EE15_M_create_nodesEPPS1_S5_$stub
0x00025778	0x00000006	[  0] __ZNSt11_Deque_baseIP7CPacketSaIS1_EE16_M_destroy_nodesEPPS1_S5_$stub
0x0002577E	0x00000006	[  0] __ZNSt11_Deque_baseIP7CPacketSaIS1_EE17_M_initialize_mapEm$stub
0x00025784	0x00000006	[  0] __ZNSt11_Deque_baseIP7CPacketSaIS1_EED2Ev$stub
0x0002578A	0x00000006	[  0] __ZNSt5dequeIP7CPacketSaIS1_EE16_M_pop_front_auxEv$stub
0x00025790	0x00000006	[  0] __ZNSt5dequeIP7CPacketSaIS1_EE16_M_push_back_auxERKS1_$stub
0x00025796	0x00000006	[  0] __ZNSt5dequeIP7CPacketSaIS1_EE17_M_reallocate_mapEmb$stub
0x0002579C	0x00000006	[  0] __ZNSt6vectorIN16CRendezvousQueue3CRLESaIS1_EE13_M_insert_auxEN9__gnu_cxx17__normal_iteratorIPS1_S3_EERKS1_$stub
0x000257A2	0x00000006	[  0] __ZNSt6vectorIN16CRendezvousQueue3CRLESaIS1_EE5eraseEN9__gnu_cxx17__normal_iteratorIPS1_S3_EE$stub
0x000257A8	0x00000006	[  0] __ZNSt6vectorIN16CRendezvousQueue3CRLESaIS1_EE6insertEN9__gnu_cxx17__normal_iteratorIPS1_S3_EERKS1_$stub
0x000257AE	0x00000006	[  0] __ZNSt6vectorIP10CUDTSocketSaIS1_EE13_M_insert_auxEN9__gnu_cxx17__normal_iteratorIPS1_S3_EERKS1_$stub
0x000257B4	0x00000006	[  0] __ZNSt6vectorIP10CUDTSocketSaIS1_EE6insertEN9__gnu_cxx17__normal_iteratorIPS1_S3_EERKS1_$stub
0x000257BA	0x00000006	[  0] __ZNSt6vectorIP4CUDTSaIS1_EE13_M_insert_auxEN9__gnu_cxx17__normal_iteratorIPS1_S3_EERKS1_$stub
0x000257C0	0x00000006	[  0] __ZNSt6vectorIP4CUDTSaIS1_EE5eraseEN9__gnu_cxx17__normal_iteratorIPS1_S3_EE$stub
0x000257C6	0x00000006	[  0] __ZNSt6vectorIP4CUDTSaIS1_EE6insertEN9__gnu_cxx17__normal_iteratorIPS1_S3_EERKS1_$stub
0x000257CC	0x00000006	[  0] __ZNSt6vectorIiSaIiEE13_M_insert_auxEN9__gnu_cxx17__normal_iteratorIPiS1_EERKi$stub
0x000257D2	0x00000006	[  0] __ZNSt8_Rb_treeIP10CInfoBlockS1_St9_IdentityIS1_E7CIPCompSaIS1_EE11lower_boundERKS1_$stub
0x000257D8	0x00000006	[  0] __ZNSt8_Rb_treeIP10CInfoBlockS1_St9_IdentityIS1_E7CIPCompSaIS1_EE11upper_boundERKS1_$stub
0x000257DE	0x00000006	[  0] __ZNSt8_Rb_treeIP10CInfoBlockS1_St9_IdentityIS1_E7CIPCompSaIS1_EE16_M_insert_uniqueERKS1_$stub
0x000257E4	0x00000006	[  0] __ZNSt8_Rb_treeIP10CInfoBlockS1_St9_IdentityIS1_E7CIPCompSaIS1_EE4findERKS1_$stub
0x000257EA	0x00000006	[  0] __ZNSt8_Rb_treeIP10CInfoBlockS1_St9_IdentityIS1_E7CIPCompSaIS1_EE5eraseERKS1_$stub
0x000257F0	0x00000006	[  0] __ZNSt8_Rb_treeIP10CInfoBlockS1_St9_IdentityIS1_E7CIPCompSaIS1_EE5eraseESt17_Rb_tree_iteratorIS1_ES8_$stub
0x000257F6	0x00000006	[  0] __ZNSt8_Rb_treeIP10CInfoBlockS1_St9_IdentityIS1_E7CIPCompSaIS1_EE8_M_eraseEPSt13_Rb_tree_nodeIS1_E$stub
0x000257FC	0x00000006	[  0] __ZNSt8_Rb_treeIP10CInfoBlockS1_St9_IdentityIS1_E7CIPCompSaIS1_EE9_M_insertEPSt18_Rb_tree_node_baseS8_RKS1_$stub
0x00025802	0x00000006	[  0] __ZNSt8_Rb_treeIP10CInfoBlockS1_St9_IdentityIS1_E7CTSCompSaIS1_EE11lower_boundERKS1_$stub
0x00025808	0x00000006	[  0] __ZNSt8_Rb_treeIP10CInfoBlockS1_St9_IdentityIS1_E7CTSCompSaIS1_EE11upper_boundERKS1_$stub
0x0002580E	0x00000006	[  0] __ZNSt8_Rb_treeIP10CInfoBlockS1_St9_IdentityIS1_E7CTSCompSaIS1_EE16_M_insert_uniqueERKS1_$stub
0x00025814	0x00000006	[  0] __ZNSt8_Rb_treeIP10CInfoBlockS1_St9_IdentityIS1_E7CTSCompSaIS1_EE5eraseERKS1_$stub
0x0002581A	0x00000006	[  0] __ZNSt8_Rb_treeIP10CInfoBlockS1_St9_IdentityIS1_E7CTSCompSaIS1_EE5eraseESt17_Rb_tree_iteratorIS1_ES8_$stub
0x00025820	0x00000006	[  0] __ZNSt8_Rb_treeIP10CInfoBlockS1_St9_IdentityIS1_E7CTSCompSaIS1_EE8_M_eraseEPSt13_Rb_tree_nodeIS1_E$stub
0x00025826	0x00000006	[  0] __ZNSt8_Rb_treeIP10CInfoBlockS1_St9_IdentityIS1_E7CTSCompSaIS1_EE9_M_insertEPSt18_Rb_tree_node_baseS8_RKS1_$stub
0x0002582C	0x00000006	[  0] __ZNSt8_Rb_treeIiSt4pairIKi10CEPollDescESt10_Select1stIS3_ESt4lessIiESaIS3_EE11lower_boundERS1_$stub
0x00025832	0x00000006	[  0] __ZNSt8_Rb_treeIiSt4pairIKi10CEPollDescESt10_Select1stIS3_ESt4lessIiESaIS3_EE16_M_insert_uniqueERKS3_$stub
0x00025838	0x00000006	[  0] __ZNSt8_Rb_treeIiSt4pairIKi10CEPollDescESt10_Select1stIS3_ESt4lessIiESaIS3_EE16_M_insert_uniqueESt17_Rb_tree_iteratorIS3_ERKS3_$stub
0x0002583E	0x00000006	[  0] __ZNSt8_Rb_treeIiSt4pairIKi10CEPollDescESt10_Select1stIS3_ESt4lessIiESaIS3_EE4findERS1_$stub
0x00025844	0x00000006	[  0] __ZNSt8_Rb_treeIiSt4pairIKi10CEPollDescESt10_Select1stIS3_ESt4lessIiESaIS3_EE8_M_eraseEPSt13_Rb_tree_nodeIS3_E$stub
0x0002584A	0x00000006	[  0] __ZNSt8_Rb_treeIiSt4pairIKi10CEPollDescESt10_Select1stIS3_ESt4lessIiESaIS3_EE9_M_insertEPSt18_Rb_tree_node_baseSB_RKS3_$stub
0x00025850	0x00000006	[  0] __ZNSt8_Rb_treeIiSt4pairIKi12CMultiplexerESt10_Select1stIS3_ESt4lessIiESaIS3_EE11lower_boundERS1_$stub
0x00025856	0x00000006	[  0] __ZNSt8_Rb_treeIiSt4pairIKi12CMultiplexerESt10_Select1stIS3_ESt4lessIiESaIS3_EE16_M_insert_uniqueERKS3_$stub
0x0002585C	0x00000006	[  0] __ZNSt8_Rb_treeIiSt4pairIKi12CMultiplexerESt10_Select1stIS3_ESt4lessIiESaIS3_EE16_M_insert_uniqueESt17_Rb_tree_iteratorIS3_ERKS3_$stub
0x00025862	0x00000006	[  0] __ZNSt8_Rb_treeIiSt4pairIKi12CMultiplexerESt10_Select1stIS3_ESt4lessIiESaIS3_EE4findERS1_$stub
0x00025868	0x00000006	[  0] __ZNSt8_Rb_treeIiSt4pairIKi12CMultiplexerESt10_Select1stIS3_ESt4lessIiESaIS3_EE8_M_eraseEPSt13_Rb_tree_nodeIS3_E$stub
0x0002586E	0x00000006	[  0] __ZNSt8_Rb_treeIiSt4pairIKi12CMultiplexerESt10_Select1stIS3_ESt4lessIiESaIS3_EE9_M_insertEPSt18_Rb_tree_node_baseSB_RKS3_$stub
0x00025874	0x00000006	[  0] __ZNSt8_Rb_treeIiSt4pairIKiP10CUDTSocketESt10_Select1stIS4_ESt4lessIiESaIS4_EE11lower_boundERS1_$stub
0x0002587A	0x00000006	[  0] __ZNSt8_Rb_treeIiSt4pairIKiP10CUDTSocketESt10_Select1stIS4_ESt4lessIiESaIS4_EE11upper_boundERS1_$stub
0x00025880	0x00000006	[  0] __ZNSt8_Rb_treeIiSt4pairIKiP10CUDTSocketESt10_Select1stIS4_ESt4lessIiESaIS4_EE16_M_insert_uniqueERKS4_$stub
0x00025886	0x00000006	[  0] __ZNSt8_Rb_treeIiSt4pairIKiP10CUDTSocketESt10_Select1stIS4_ESt4lessIiESaIS4_EE16_M_insert_uniqueESt17_Rb_tree_iteratorIS4_ERKS4_$stub
0x0002588C	0x00000006	[  0] __ZNSt8_Rb_treeIiSt4pairIKiP10CUDTSocketESt10_Select1stIS4_ESt4lessIiESaIS4_EE4findERS1_$stub
0x00025892	0x00000006	[  0] __ZNSt8_Rb_treeIiSt4pairIKiP10CUDTSocketESt10_Select1stIS4_ESt4lessIiESaIS4_EE5eraseERS1_$stub
0x00025898	0x00000006	[  0] __ZNSt8_Rb_treeIiSt4pairIKiP10CUDTSocketESt10_Select1stIS4_ESt4lessIiESaIS4_EE5eraseESt17_Rb_tree_iteratorIS4_ESC_$stub
0x0002589E	0x00000006	[  0] __ZNSt8_Rb_treeIiSt4pairIKiP10CUDTSocketESt10_Select1stIS4_ESt4lessIiESaIS4_EE8_M_eraseEPSt13_Rb_tree_nodeIS4_E$stub
0x000258A4	0x00000006	[  0] __ZNSt8_Rb_treeIiSt4pairIKiP10CUDTSocketESt10_Select1stIS4_ESt4lessIiESaIS4_EE9_M_insertEPSt18_Rb_tree_node_baseSC_RKS4_$stub
0x000258AA	0x00000006	[  0] __ZNSt8_Rb_treeIiSt4pairIKiSt5queueIP7CPacketSt5dequeIS4_SaIS4_EEEESt10_Select1stIS9_ESt4lessIiESaIS9_EE11lower_boundERS1_$stub
0x000258B0	0x00000006	[  0] __ZNSt8_Rb_treeIiSt4pairIKiSt5queueIP7CPacketSt5dequeIS4_SaIS4_EEEESt10_Select1stIS9_ESt4lessIiESaIS9_EE16_M_insert_uniqueERKS9_$stub
0x000258B6	0x00000006	[  0] __ZNSt8_Rb_treeIiSt4pairIKiSt5queueIP7CPacketSt5dequeIS4_SaIS4_EEEESt10_Select1stIS9_ESt4lessIiESaIS9_EE16_M_insert_uniqueESt17_Rb_tree_iteratorIS9_ERKS9_$stub
0x000258BC	0x00000006	[  0] __ZNSt8_Rb_treeIiSt4pairIKiSt5queueIP7CPacketSt5dequeIS4_SaIS4_EEEESt10_Select1stIS9_ESt4lessIiESaIS9_EE4findERS1_$stub
0x000258C2	0x00000006	[  0] __ZNSt8_Rb_treeIiSt4pairIKiSt5queueIP7CPacketSt5dequeIS4_SaIS4_EEEESt10_Select1stIS9_ESt4lessIiESaIS9_EE8_M_eraseEPSt13_Rb_tree_nodeIS9_E$stub
0x000258C8	0x00000006	[  0] __ZNSt8_Rb_treeIiSt4pairIKiSt5queueIP7CPacketSt5dequeIS4_SaIS4_EEEESt10_Select1stIS9_ESt4lessIiESaIS9_EE9_M_insertEPSt18_Rb_tree_node_baseSH_RKS9_$stub
0x000258CE	0x00000006	[  0] __ZNSt8_Rb_treeIiiSt9_IdentityIiESt4lessIiESaIiEE11lower_boundERKi$stub
0x000258D4	0x00000006	[  0] __ZNSt8_Rb_treeIiiSt9_IdentityIiESt4lessIiESaIiEE11upper_boundERKi$stub
0x000258DA	0x00000006	[  0] __ZNSt8_Rb_treeIiiSt9_IdentityIiESt4lessIiESaIiEE16_M_insert_uniqueERKi$stub
0x000258E0	0x00000006	[  0] __ZNSt8_Rb_treeIiiSt9_IdentityIiESt4lessIiESaIiEE16_M_insert_uniqueESt23_Rb_tree_const_iteratorIiERKi$stub
0x000258E6	0x00000006	[  0] __ZNSt8_Rb_treeIiiSt9_IdentityIiESt4lessIiESaIiEE5eraseERKi$stub
0x000258EC	0x00000006	[  0] __ZNSt8_Rb_treeIiiSt9_IdentityIiESt4lessIiESaIiEE5eraseESt17_Rb_tree_iteratorIiES7_$stub
0x000258F2	0x00000006	[  0] __ZNSt8_Rb_treeIiiSt9_IdentityIiESt4lessIiESaIiEE7_M_copyEPKSt13_Rb_tree_nodeIiEPS7_$stub
0x000258F8	0x00000006	[  0] __ZNSt8_Rb_treeIiiSt9_IdentityIiESt4lessIiESaIiEE8_M_eraseEPSt13_Rb_tree_nodeIiE$stub
0x000258FE	0x00000006	[  0] __ZNSt8_Rb_treeIiiSt9_IdentityIiESt4lessIiESaIiEE9_M_insertEPKSt18_Rb_tree_node_baseS8_RKi$stub
0x00025904	0x00000006	[  0] __ZNSt8_Rb_treeIiiSt9_IdentityIiESt4lessIiESaIiEE9_M_insertEPSt18_Rb_tree_node_baseS7_RKi$stub
0x0002590A	0x00000006	[  0] __ZNSt8_Rb_treeIiiSt9_IdentityIiESt4lessIiESaIiEEaSERKS5_$stub
0x00025910	0x00000006	[  0] __ZNSt8_Rb_treeIxSt4pairIKxSt3setIiSt4lessIiESaIiEEESt10_Select1stIS7_ES3_IxESaIS7_EE11lower_boundERS1_$stub
0x00025916	0x00000006	[  0] __ZNSt8_Rb_treeIxSt4pairIKxSt3setIiSt4lessIiESaIiEEESt10_Select1stIS7_ES3_IxESaIS7_EE16_M_insert_uniqueERKS7_$stub
0x0002591C	0x00000006	[  0] __ZNSt8_Rb_treeIxSt4pairIKxSt3setIiSt4lessIiESaIiEEESt10_Select1stIS7_ES3_IxESaIS7_EE16_M_insert_uniqueESt17_Rb_tree_iteratorIS7_ERKS7_$stub
0x00025922	0x00000006	[  0] __ZNSt8_Rb_treeIxSt4pairIKxSt3setIiSt4lessIiESaIiEEESt10_Select1stIS7_ES3_IxESaIS7_EE4findERS1_$stub
0x00025928	0x00000006	[  0] __ZNSt8_Rb_treeIxSt4pairIKxSt3setIiSt4lessIiESaIiEEESt10_Select1stIS7_ES3_IxESaIS7_EE8_M_eraseEPSt13_Rb_tree_nodeIS7_E$stub
0x0002592E	0x00000006	[  0] __ZNSt8_Rb_treeIxSt4pairIKxSt3setIiSt4lessIiESaIiEEESt10_Select1stIS7_ES3_IxESaIS7_EE9_M_insertEPSt18_Rb_tree_node_baseSE_RKS7_$stub
0x00025934	0x00000006	[  0] __ZSt17__throw_bad_allocv$stub
0x0002593A	0x00000006	[  0] __ZSt18_Rb_tree_decrementPKSt18_Rb_tree_node_base$stub
0x00025940	0x00000006	[  0] __ZSt18_Rb_tree_decrementPSt18_Rb_tree_node_base$stub
0x00025946	0x00000006	[  0] __ZSt18_Rb_tree_incrementPKSt18_Rb_tree_node_base$stub
0x0002594C	0x00000006	[  0] __ZSt18_Rb_tree_incrementPSt18_Rb_tree_node_base$stub
0x00025952	0x00000006	[  0] __ZSt20__throw_length_errorPKc$stub
0x00025958	0x00000006	[  0] __ZSt28_Rb_tree_rebalance_for_erasePSt18_Rb_tree_node_baseRS_$stub
0x0002595E	0x00000006	[  0] __ZSt29_Rb_tree_insert_and_rebalancebPSt18_Rb_tree_node_baseS0_RS_$stub
0x00025964	0x00000006	[  0] __ZSt6__findIN9__gnu_cxx17__normal_iteratorIPiSt6vectorIiSaIiEEEElET_S7_S7_RKT0_St26random_access_iterator_tag$stub
0x0002596A	0x00000006	[  0] __ZSt9terminatev$stub
0x00025970	0x00000006	[  0] __ZdaPv$stub
0x00025976	0x00000006	[  0] __ZdlPv$stub
0x0002597C	0x00000006	[  0] __Znam$stub
0x00025982	0x00000006	[  0] __Znwm$stub
0x00025988	0x00000006	[  0] ___assert_rtn$stub
0x0002598E	0x00000006	[  0] ___cxa_allocate_exception$stub
0x00025994	0x00000006	[  0] ___cxa_atexit$stub
0x0002599A	0x00000006	[  0] ___cxa_begin_catch$stub
0x000259A0	0x00000006	[  0] ___cxa_end_catch$stub
0x000259A6	0x00000006	[  0] ___cxa_free_exception$stub
0x000259AC	0x00000006	[  0] ___cxa_get_exception_ptr$stub
0x000259B2	0x00000006	[  0] ___cxa_rethrow$stub
0x000259B8	0x00000006	[  0] ___cxa_throw$stub
0x000259BE	0x00000006	[  0] ___divdi3$stub
0x000259C4	0x00000006	[  0] ___error$stub
0x000259CA	0x00000006	[  0] ___moddi3$stub
0x000259D0	0x00000006	[  0] ___stack_chk_fail$stub
0x000259D6	0x00000006	[  0] ___udivdi3$stub
0x000259DC	0x00000006	[  0] ___umoddi3$stub
0x000259E2	0x00000006	[  0] _bind$UNIX2003$stub
0x000259E8	0x00000006	[  0] _ceil$stub
0x000259EE	0x00000006	[  0] _close$UNIX2003$stub
0x000259F4	0x00000006	[  0] _free$stub
0x000259FA	0x00000006	[  0] _freeaddrinfo$stub
0x00025A00	0x00000006	[  0] _getaddrinfo$stub
0x00025A06	0x00000006	[  0] _getnameinfo$stub
0x00025A0C	0x00000006	[  0] _getpeername$UNIX2003$stub
0x00025A12	0x00000006	[  0] _getsockname$UNIX2003$stub
0x00025A18	0x00000006	[  0] _getsockopt$stub
0x00025A1E	0x00000006	[  0] _gettimeofday$stub
0x00025A24	0x00000006	[  0] _log10$stub
0x00025A2A	0x00000006	[  0] _malloc$stub
0x00025A30	0x00000006	[  0] _memcpy$stub
0x00025A36	0x00000006	[  0] _memmove$stub
0x00025A3C	0x00000006	[  0] _memset$stub
0x00025A42	0x00000006	[  0] _nanosleep$UNIX2003$stub
0x00025A48	0x00000006	[  0] _pow$stub
0x00025A4E	0x00000006	[  0] _printf$stub
0x00025A54	0x00000006	[  0] _pthread_cond_broadcast$stub
0x00025A5A	0x00000006	[  0] _pthread_cond_destroy$stub
0x00025A60	0x00000006	[  0] _pthread_cond_init$UNIX2003$stub
0x00025A66	0x00000006	[  0] _pthread_cond_signal$stub
0x00025A6C	0x00000006	[  0] _pthread_cond_timedwait$UNIX2003$stub
0x00025A72	0x00000006	[  0] _pthread_cond_wait$UNIX2003$stub
0x00025A78	0x00000006	[  0] _pthread_create$stub
0x00025A7E	0x00000006	[  0] _pthread_getspecific$stub
0x00025A84	0x00000006	[  0] _pthread_join$UNIX2003$stub
0x00025A8A	0x00000006	[  0] _pthread_key_create$stub
0x00025A90	0x00000006	[  0] _pthread_key_delete$stub
0x00025A96	0x00000006	[  0] _pthread_mutex_destroy$stub
0x00025A9C	0x00000006	[  0] _pthread_mutex_init$stub
0x00025AA2	0x00000006	[  0] _pthread_mutex_lock$stub
0x00025AA8	0x00000006	[  0] _pthread_mutex_trylock$stub
0x00025AAE	0x00000006	[  0] _pthread_mutex_unlock$stub
0x00025AB4	0x00000006	[  0] _pthread_setspecific$stub
0x00025ABA	0x00000006	[  0] _puts$stub
0x00025AC0	0x00000006	[  0] _rand$stub
0x00025AC6	0x00000006	[  0] _recvmsg$UNIX2003$stub
0x00025ACC	0x00000006	[  0] _select$UNIX2003$stub
0x00025AD2	0x00000006	[  0] _sendmsg$UNIX2003$stub
0x00025AD8	0x00000006	[  0] _setsockopt$stub
0x00025ADE	0x00000006	[  0] _socket$stub
0x00025AE4	0x00000006	[  0] _sprintf$stub
0x00025AEA	0x00000006	[  0] _srand$stub
0x00025AF0	0x00000006	[  0] _strerror_r$stub
0x00025AF6	0x00000006	[  0] _strlen$stub
0x00025AFC	0x00000006	[  0] _usleep$UNIX2003$stub
0x00025B02	0x0000000C	[  0]  stub helpers
0x00025B0E	0x0000000A	[  0] _pthread_mutex_lock$stubHelper
0x00025B18	0x0000000A	[  0] _pthread_mutex_trylock$stubHelper
0x00025B22	0x0000000A	[  0] _pthread_mutex_unlock$stubHelper
0x00025B2C	0x0000000A	[  0] _pthread_setspecific$stubHelper
0x00025B36	0x0000000A	[  0] _puts$stubHelper
0x00025B40	0x0000000A	[  0] _pthread_mutex_init$stubHelper
0x00025B4A	0x0000000A	[  0] _pthread_mutex_destroy$stubHelper
0x00025B54	0x0000000A	[  0] _pthread_key_delete$stubHelper
0x00025B5E	0x0000000A	[  0] _pthread_key_create$stubHelper
0x00025B68	0x0000000A	[  0] _pthread_join$UNIX2003$stubHelper
0x00025B72	0x0000000A	[  0] _pthread_cond_broadcast$stubHelper
0x00025B7C	0x0000000A	[  0] _printf$stubHelper
0x00025B86	0x0000000A	[  0] _pow$stubHelper
0x00025B90	0x0000000A	[  0] _nanosleep$UNIX2003$stubHelper
0x00025B9A	0x0000000A	[  0] _memset$stubHelper
0x00025BA4	0x0000000A	[  0] _memmove$stubHelper
0x00025BAE	0x0000000A	[  0] _recvmsg$UNIX2003$stubHelper
0x00025BB8	0x0000000A	[  0] _select$UNIX2003$stubHelper
0x00025BC2	0x0000000A	[  0] _sendmsg$UNIX2003$stubHelper
0x00025BCC	0x0000000A	[  0] _setsockopt$stubHelper
0x00025BD6	0x0000000A	[  0] _socket$stubHelper
0x00025BE0	0x0000000A	[  0] _sprintf$stubHelper
0x00025BEA	0x0000000A	[  0] _srand$stubHelper
0x00025BF4	0x0000000A	[  0] _strerror_r$stubHelper
0x00025BFE	0x0000000A	[  0] _strlen$stubHelper
0x00025C08	0x0000000A	[  0] _memcpy$stubHelper
0x00025C12	0x0000000A	[  0] _pthread_cond_destroy$stubHelper
0x00025C1C	0x0000000A	[  0] _pthread_cond_init$UNIX2003$stubHelper
0x00025C26	0x0000000A	[  0] _pthread_cond_signal$stubHelper
0x00025C30	0x0000000A	[  0] _pthread_cond_timedwait$UNIX2003$stubHelper
0x00025C3A	0x0000000A	[  0] _pthread_cond_wait$UNIX2003$stubHelper
0x00025C44	0x0000000A	[  0] _pthread_create$stubHelper
0x00025C4E	0x0000000A	[  0] _pthread_getspecific$stubHelper
0x00025C58	0x0000000A	[  0] _rand$stubHelper
0x00025C62	0x0000000A	[  0] ___cxa_end_catch$stubHelper
0x00025C6C	0x0000000A	[  0] ___cxa_free_exception$stubHelper
0x00025C76	0x0000000A	[  0] ___cxa_get_exception_ptr$stubHelper
0x00025C80	0x0000000A	[  0] ___cxa_rethrow$stubHelper
0x00025C8A	0x0000000A	[  0] ___cxa_throw$stubHelper
0x00025C94	0x0000000A	[  0] ___divdi3$stubHelper
0x00025C9E	0x0000000A	[  0] ___error$stubHelper
0x00025CA8	0x0000000A	[  0] ___moddi3$stubHelper
0x00025CB2	0x0000000A	[  0] ___stack_chk_fail$stubHelper
0x00025CBC	0x0000000A	[  0] ___udivdi3$stubHelper
0x00025CC6	0x0000000A	[  0] ___umoddi3$stubHelper
0x00025CD0	0x0000000A	[  0] _bind$UNIX2003$stubHelper
0x00025CDA	0x0000000A	[  0] _ceil$stubHelper
0x00025CE4	0x0000000A	[  0] _close$UNIX2003$stubHelper
0x00025CEE	0x0000000A	[  0] _free$stubHelper
0x00025CF8	0x0000000A	[  0] _freeaddrinfo$stubHelper
0x00025D02	0x0000000A	[  0] _getaddrinfo$stubHelper
0x00025D0C	0x0000000A	[  0] _getnameinfo$stubHelper
0x00025D16	0x0000000A	[  0] _getpeername$UNIX2003$stubHelper
0x00025D20	0x0000000A	[  0] _usleep$UNIX2003$stubHelper
0x00025D2A	0x0000000A	[  0] _malloc$stubHelper
0x00025D34	0x0000000A	[  0] _log10$stubHelper
0x00025D3E	0x0000000A	[  0] _gettimeofday$stubHelper
0x00025D48	0x0000000A	[  0] _getsockopt$stubHelper
0x00025D52	0x0000000A	[  0] _getsockname$UNIX2003$stubHelper
0x00025D5C	0x0000000A	[  0] __Znwm$stubHelper
0x00025D66	0x0000000A	[  0] __Znam$stubHelper
0x00025D70	0x0000000A	[  0] __ZdlPv$stubHelper
0x00025D7A	0x0000000A	[  0] __ZdaPv$stubHelper
0x00025D84	0x0000000A	[  0] __ZSt9terminatev$stubHelper
0x00025D8E	0x0000000A	[  0] __ZSt29_Rb_tree_insert_and_rebalancebPSt18_Rb_tree_node_baseS0_RS_$stubHelper
0x00025D98	0x0000000A	[  0] __ZSt28_Rb_tree_rebalance_for_erasePSt18_Rb_tree_node_baseRS_$stubHelper
0x00025DA2	0x0000000A	[  0] __ZSt20__throw_length_errorPKc$stubHelper
0x00025DAC	0x0000000A	[  0] __ZSt18_Rb_tree_incrementPSt18_Rb_tree_node_base$stubHelper
0x00025DB6	0x0000000A	[  0] __ZSt18_Rb_tree_incrementPKSt18_Rb_tree_node_base$stubHelper
0x00025DC0	0x0000000A	[  0] __ZSt18_Rb_tree_decrementPSt18_Rb_tree_node_base$stubHelper
0x00025DCA	0x0000000A	[  0] __ZSt18_Rb_tree_decrementPKSt18_Rb_tree_node_base$stubHelper
0x00025DD4	0x0000000A	[  0] __ZSt17__throw_bad_allocv$stubHelper
0x00025DDE	0x0000000A	[  0] __ZNSs6assignERKSs$stubHelper
0x00025DE8	0x0000000A	[  0] __ZNSs6assignEPKcm$stubHelper
0x00025DF2	0x0000000A	[  0] __ZNSs6appendEPKcm$stubHelper
0x00025DFC	0x0000000A	[  0] __ZNSs4_Rep10_M_destroyERKSaIcE$stubHelper
0x00025E06	0x0000000A	[  0] __ZNSo5writeEPKci$stubHelper
0x00025E10	0x0000000A	[  0] __ZNSo5seekpESt4fposI11__mbstate_tE$stubHelper
0x00025E1A	0x0000000A	[  0] __ZNSi5seekgESt4fposI11__mbstate_tE$stubHelper
0x00025E24	0x0000000A	[  0] __ZNSi4readEPci$stubHelper
0x00025E2E	0x0000000A	[  0] __Unwind_Resume$stubHelper
0x00025E38	0x0000000A	[  0] ___cxa_allocate_exception$stubHelper
0x00025E42	0x0000000A	[  0] ___assert_rtn$stubHelper
0x00025E4C	0x0000000A	[  0] ___cxa_atexit$stubHelper
0x00025E56	0x0000000A	[  0] ___cxa_begin_catch$stubHelper
0x00025E60	0x00000048	[  2] __ZN16CRendezvousQueue6insertERKiS1_PK8sockaddr.lsda
0x00025EA8	0x0000005C	[  2] __ZN10CUnitQueue8increaseEv.lsda
0x00025F04	0x0000005C	[  2] __ZN10CUnitQueue4initERKiS1_S1_.lsda
0x00025F60	0x00000038	[  2] __ZN16CRendezvousQueue8retrieveEPK8sockaddrRi.lsda
0x00025F98	0x00000048	[  2] __ZN9CSndQueue4initEPK8CChannelPK6CTimer.lsda
0x00025FE0	0x0000005C	[  2] __ZN9CSndUList6insertERKxPK4CUDT.lsda
0x0002603C	0x0000002B	[  2] __ZN9CSndUList3popERP8sockaddrR7CPacket.lsda
0x00026067	0x00000038	[  2] __ZN9CSndQueue6workerEPv.lsda
0x0002609F	0x00000045	[  2] __ZN9CSndUList6updateEPK4CUDTRKb.lsda
0x000260E4	0x0000001E	[  2] __ZNSt5dequeIP7CPacketSaIS1_EE17_M_reallocate_mapEmb.lsda
0x00026102	0x0000003A	[  2] __ZN9CRcvQueue11setNewEntryEP4CUDT.lsda
0x0002613C	0x00000034	[  2] __ZNSt11_Deque_baseIP7CPacketSaIS1_EE15_M_create_nodesEPPS1_S5_.lsda
0x00026170	0x0000005C	[  2] __ZNSt11_Deque_baseIP7CPacketSaIS1_EE17_M_initialize_mapEm.lsda
0x000261CC	0x00000045	[  2] __ZN9CRcvQueue8recvfromERKiR7CPacket.lsda
0x00026211	0x0000001E	[  2] __ZN16CRendezvousQueueD2Ev.lsda
0x0002622F	0x0000001E	[  2] __ZN16CRendezvousQueueC2Ev.lsda
0x0002624D	0x00000047	[  2] __ZN9CRcvQueue4initERKiS1_S1_S1_PK8CChannelPK6CTimer.lsda
0x00026294	0x00000050	[  2] __ZNSt8_Rb_treeIiSt4pairIKiSt5queueIP7CPacketSt5dequeIS4_SaIS4_EEEESt10_Select1stIS9_ESt4lessIiESaIS9_EE9_M_insertEPSt18_Rb_tree_node_baseSH_RKS9_.lsda
0x000262E4	0x0000002B	[  2] __ZN9CRcvQueueC2Ev.lsda
0x0002630F	0x00000045	[  2] __ZN9CRcvQueueD2Ev.lsda
0x00026354	0x0000005F	[  2] __ZN9CRcvQueue8storePktERKiP7CPacket.lsda
0x000263B3	0x00000038	[  2] __ZN9CRcvQueue6workerEPv.lsda
0x000263EC	0x00000045	[  6] __ZN6CEPoll12remove_ssockEiRKiPS0_.lsda
0x00026431	0x00000045	[  6] __ZN6CEPoll12remove_usockEiRKiPS0_.lsda
0x00026476	0x000000A1	[  6] __ZN6CEPoll7releaseEi.lsda
0x00026517	0x00000038	[  6] __ZN6CEPoll12disable_readERKiRSt3setIiSt4lessIiESaIiEE.lsda
0x0002654F	0x00000039	[  6] __ZN6CEPoll13disable_writeERKiRSt3setIiSt4lessIiESaIiEE.lsda
0x00026588	0x00000040	[  6] __ZNSt8_Rb_treeIiiSt9_IdentityIiESt4lessIiESaIiEE7_M_copyEPKSt13_Rb_tree_nodeIiEPS7_.lsda
0x000265C8	0x000000A0	[  6] __ZNSt8_Rb_treeIiSt4pairIKi10CEPollDescESt10_Select1stIS3_ESt4lessIiESaIS3_EE9_M_insertEPSt18_Rb_tree_node_baseSB_RKS3_.lsda
0x00026668	0x00000045	[  6] __ZN6CEPoll9add_usockEiRKiPS0_.lsda
0x000266AD	0x00000038	[  6] __ZN6CEPoll11enable_readERKiRSt3setIiSt4lessIiESaIiEE.lsda
0x000266E5	0x00000038	[  6] __ZN6CEPoll12enable_writeERKiRSt3setIiSt4lessIiESaIiEE.lsda
0x0002671D	0x0000002B	[  6] __ZN6CEPoll4waitEiPSt3setIiSt4lessIiESaIiEES5_xS5_S5_.lsda
0x00026748	0x00000045	[  6] __ZN6CEPoll9add_ssockEiRKiPS0_.lsda
0x0002678D	0x00000079	[  6] __ZNSt8_Rb_treeIiSt4pairIKi10CEPollDescESt10_Select1stIS3_ESt4lessIiESaIS3_EE8_M_eraseEPSt13_Rb_tree_nodeIS3_E.lsda
0x00026806	0x0000002B	[  6] __ZN6CEPollC2Ev.lsda
0x00026831	0x00000038	[  6] __ZN6CEPollD2Ev.lsda
0x00026869	0x0000029C	[  6] __ZN6CEPoll6createEv.lsda
0x00026B08	0x00000045	[  7] __ZN4CUDT8sendCtrlERKiPvS2_S1_.lsda
0x00026B4D	0x0000002B	[  7] __ZN4CUDTC2ERKS_.lsda
0x00026B78	0x00000079	[  7] __ZN4CUDT6getOptE6UDTOptPvRi.lsda
0x00026BF1	0x00000200	[  7] __ZN4CUDT6setOptE6UDTOptPKvRKi.lsda
0x00026DF1	0x000000E2	[  7] __ZN4CUDT7recvmsgEPcRKi.lsda
0x00026ED3	0x000000C8	[  7] __ZN4CUDT7sendmsgEPKcRKiS3_RKb.lsda
0x00026F9B	0x000000D5	[  7] __ZN4CUDT4sendEPKcRKi.lsda
0x00027070	0x000000BB	[  7] __ZN4CUDT4recvEPcRKi.lsda
0x0002712B	0x00000061	[  7] __ZN4CUDT5closeEv.lsda
0x0002718C	0x00000148	[  7] __ZN4CUDT7connectEPK8sockaddrP10CHandShake.lsda
0x000272D4	0x00000094	[  7] __ZN4CUDT6listenEv.lsda
0x00027368	0x00000045	[  7] __ZN4CUDT4openEv.lsda
0x000273AD	0x0000002B	[  7] __ZN10CCCFactoryI6CUDTCCE6createEv.lsda
0x000273D8	0x00000038	[  7] __ZN4CUDT6sampleEP8CPerfMonb.lsda
0x00027410	0x00000054	[  7] __ZN4CUDT8packDataER7CPacketRy.lsda
0x00027464	0x000000F8	[  7] __ZN4CUDT8sendfileERSt13basic_fstreamIcSt11char_traitsIcEERxRKxRKi.lsda
0x0002755C	0x000000F8	[  7] __ZN4CUDT8recvfileERSt13basic_fstreamIcSt11char_traitsIcEERxRKxRKi.lsda
0x00027654	0x0000002B	[  7] __ZN4CUDTC2Ev.lsda
0x0002767F	0x00000039	[  7] __ZN4CUDTD2Ev.lsda
0x000276B8	0x00000241	[  7] __ZN4CUDT7connectEPK8sockaddr.lsda
0x000278F9	0x0000001E	[  8] __ZN13CUDTExceptionC2Eiii.lsda
0x00027917	0x0000002B	[  9] __ZN8CChannel13setUDPSockOptEv.lsda
0x00027942	0x00000079	[  9] __ZN8CChannel4openEPK8sockaddr.lsda
0x000279BB	0x00000038	[ 11] __ZN6CCacheC2Ev.lsda
0x000279F3	0x00000052	[ 11] __ZN6CCacheD2Ev.lsda
0x00027A45	0x00000038	[ 11] __ZN6CCacheC2ERKj.lsda
0x00027A7D	0x00000038	[ 11] __ZN6CCache6updateEPK8sockaddrRKiP10CInfoBlock.lsda
0x00027AB8	0x00000074	[ 12] __ZN10CSndBuffer8increaseEv.lsda
0x00027B2C	0x00000038	[ 12] __ZN10CSndBuffer7ackDataERKi.lsda
0x00027B64	0x00000038	[ 12] __ZN10CSndBuffer8readDataEPPciRiS2_.lsda
0x00027B9C	0x0000002C	[ 13] __ZN10CUDTUnited8getErrorEv.lsda
0x00027BC8	0x000000AC	[ 13] __ZN4CUDT13epoll_releaseEi.lsda
0x00027C74	0x000000AC	[ 13] __ZN4CUDT10epoll_waitEiPSt3setIiSt4lessIiESaIiEES5_xS5_S5_.lsda
0x00027D20	0x000000AC	[ 13] __ZN4CUDT18epoll_remove_ssockEiiPKi.lsda
0x00027DCC	0x000000AC	[ 13] __ZN4CUDT15epoll_add_ssockEiiPKi.lsda
0x00027E78	0x000000A9	[ 13] __ZN4CUDT12epoll_createEv.lsda
0x00027F21	0x0000002B	[ 13] __ZN10CUDTUnited7cleanupEv.lsda
0x00027F4C	0x0000002B	[ 13] __ZN10CUDTUnited7startupEv.lsda
0x00027F77	0x00000039	[ 13] __ZN10CUDTUnited9updateMuxEP10CUDTSocketPKS0_.lsda
0x00027FB0	0x00000109	[ 13] __ZN10CUDTUnited9updateMuxEP10CUDTSocketPK8sockaddrPKi.lsda
0x000280B9	0x0000002B	[ 13] __ZN10CUDTUnited6locateEiPK8sockaddrRKiS4_.lsda
0x000280E4	0x0000002C	[ 13] __ZN10CUDTUnited18epoll_remove_usockEiiPKi.lsda
0x00028110	0x000000A9	[ 13] __ZN4CUDT18epoll_remove_usockEiiPKi.lsda
0x000281B9	0x0000002B	[ 13] __ZN10CUDTUnited15epoll_add_usockEiiPKi.lsda
0x000281E4	0x000000A9	[ 13] __ZN4CUDT15epoll_add_usockEiiPKi.lsda
0x0002828D	0x00000053	[ 13] __ZN10CUDTUnited11getsocknameEiP8sockaddrPi.lsda
0x000282E0	0x000000A9	[ 13] __ZN4CUDT11getsocknameEiP8sockaddrPi.lsda
0x00028389	0x00000087	[ 13] __ZN10CUDTUnited7connectEiPK8sockaddrRKi.lsda
0x00028410	0x000000D5	[ 13] __ZN4CUDT7connectEiPK8sockaddri.lsda
0x000284E5	0x00000053	[ 13] __ZN10CUDTUnited4bindEii.lsda
0x00028538	0x000000B8	[ 13] __ZN4CUDT4bindEii.lsda
0x000285F0	0x0000006C	[ 13] __ZN10CUDTUnited4bindEiPK8sockaddrRKi.lsda
0x0002865C	0x000000B8	[ 13] __ZN4CUDT4bindEiPK8sockaddri.lsda
0x00028714	0x00000054	[ 13] __ZN10CUDTUnited5closeEi.lsda
0x00028768	0x000000A9	[ 13] __ZN4CUDT5closeEi.lsda
0x00028811	0x00000053	[ 13] __ZN10CUDTUnited11getpeernameEiP8sockaddrPi.lsda
0x00028864	0x000000A9	[ 13] __ZN4CUDT11getpeernameEiP8sockaddrPi.lsda
0x0002890D	0x0000003B	[ 13] __ZN10CUDTUnited6lookupEi.lsda
0x00028948	0x00000028	[ 13] __ZN4CUDT12getUDTHandleEi.lsda
0x00028970	0x000000AC	[ 13] __ZN4CUDT7perfmonEiP8CPerfMonb.lsda
0x00028A1C	0x000000AC	[ 13] __ZN4CUDT8recvfileEiRSt13basic_fstreamIcSt11char_traitsIcEERxRKxRKi.lsda
0x00028AC8	0x000000D8	[ 13] __ZN4CUDT8sendfileEiRSt13basic_fstreamIcSt11char_traitsIcEERxRKxRKi.lsda
0x00028BA0	0x000000AC	[ 13] __ZN4CUDT7recvmsgEiPci.lsda
0x00028C4C	0x000000D8	[ 13] __ZN4CUDT7sendmsgEiPKciib.lsda
0x00028D24	0x000000AC	[ 13] __ZN4CUDT4recvEiPcii.lsda
0x00028DD0	0x000000D8	[ 13] __ZN4CUDT4sendEiPKcii.lsda
0x00028EA8	0x000000AC	[ 13] __ZN4CUDT10setsockoptEii6UDTOptPKvi.lsda
0x00028F54	0x000000AC	[ 13] __ZN4CUDT10getsockoptEii6UDTOptPvPi.lsda
0x00029000	0x000000FD	[ 13] __ZN4CUDT8selectExERKSt6vectorIiSaIiEEPS2_S5_S5_x.lsda
0x000290FD	0x0000002B	[ 13] __ZNSt8_Rb_treeIxSt4pairIKxSt3setIiSt4lessIiESaIiEEESt10_Select1stIS7_ES3_IxESaIS7_EE8_M_eraseEPSt13_Rb_tree_nodeIS7_E.lsda
0x00029128	0x0000006C	[ 13] __ZN10CUDTUnitedC2Ev.lsda
0x00029194	0x00000094	[ 13] __ZN10CUDTUnitedD2Ev.lsda
0x00029228	0x000000B8	[ 13] __ZN10CUDTUnited6listenEiRKi.lsda
0x000292E0	0x000000B8	[ 13] __ZN4CUDT6listenEii.lsda
0x00029398	0x00000038	[ 13] __ZN10CUDTSocketD2Ev.lsda
0x000293D0	0x00000114	[ 13] __ZN10CUDTUnited9newSocketERKiS1_.lsda
0x000294E4	0x000000C4	[ 13] __ZN4CUDT6socketEiii.lsda
0x000295A8	0x00000050	[ 13] __ZNSt8_Rb_treeIxSt4pairIKxSt3setIiSt4lessIiESaIiEEESt10_Select1stIS7_ES3_IxESaIS7_EE9_M_insertEPSt18_Rb_tree_node_baseSE_RKS7_.lsda
0x000295F8	0x00000088	[ 13] __ZN10CUDTUnited6acceptEiP8sockaddrPi.lsda
0x00029680	0x00000088	[ 13] __ZN4CUDT6acceptEiP8sockaddrPi.lsda
0x00029708	0x000000D8	[ 13] __ZN10CUDTUnited6selectEPSt3setIiSt4lessIiESaIiEES5_S5_PK7timeval.lsda
0x000297E0	0x000000FD	[ 13] __ZN4CUDT6selectEiPSt3setIiSt4lessIiESaIiEES5_S5_PK7timeval.lsda
0x000298DD	0x0000002B	[ 13] __ZN10CUDTUnited12removeSocketEi.lsda
0x00029908	0x00000038	[ 13] __ZN10CUDTUnited18checkBrokenSocketsEv.lsda
0x00029940	0x00000038	[ 13] __ZN10CUDTUnited14garbageCollectEPv.lsda
0x00029978	0x00000154	[ 13] __ZN10CUDTUnited13newConnectionEiPK8sockaddrP10CHandShake.lsda
0x00029ACC	0x00000038	[ 14] _Java_com_barchart_udt_SocketUDT_testInvalidClose0.lsda
0x00029B04	0x00000038	[ 14] _Java_com_barchart_udt_SocketUDT_initInstance1.lsda
0x00029B3C	0x00000038	[ 14] _UDT_ReturnSendError.lsda
0x00029B74	0x00000038	[ 14] _UDT_ReturnReceiveError.lsda
0x00029BAC	0x00000038	[ 14] _Java_com_barchart_udt_SocketUDT_listen0.lsda
0x00029BE4	0x00000038	[ 14] _Java_com_barchart_udt_SocketUDT_close0.lsda
0x00029C1C	0x00000038	[ 14] _Java_com_barchart_udt_SocketUDT_initInstance0.lsda
0x00029C54	0x00000038	[ 14] _Java_com_barchart_udt_SocketUDT_stopClass0.lsda
0x00029C8C	0x00000038	[ 14] _Java_com_barchart_udt_SocketUDT_initClass0.lsda
0x00029CC4	0x00000038	[ 14] _Java_com_barchart_udt_SocketUDT_connect0.lsda
0x00029CFC	0x00000038	[ 14] _Java_com_barchart_udt_SocketUDT_bind0.lsda
0x00029D34	0x00000038	[ 14] _Java_com_barchart_udt_SocketUDT_updateMonitor0.lsda
0x00029D6C	0x00000038	[ 14] _Java_com_barchart_udt_SocketUDT_getOption0.lsda
0x00029DA4	0x00000038	[ 14] _Java_com_barchart_udt_SocketUDT_accept0.lsda
0x00029DDC	0x00000038	[ 14] _Java_com_barchart_udt_SocketUDT_setOption0.lsda
0x00029E14	0x00000052	[ 14] _Java_com_barchart_udt_SocketUDT_selectEx1.lsda
0x00029E66	0x00000045	[ 14] _Java_com_barchart_udt_SocketUDT_selectEx0.lsda
0x00029EAB	0x000000A1	[ 14] _Java_com_barchart_udt_SocketUDT_select1.lsda
0x00029F4C	0x000000A1	[ 14] _Java_com_barchart_udt_SocketUDT_select0.lsda
0x00029FF0	0x00000AC0	[  0] unwind info
0x0002AAB0	0x0000001C	[  1] CIE
0x0002AACC	0x0000002C	[  1] __ZN14CPktTimeWindow13probe2ArrivalEv.eh
0x0002AAF8	0x00000024	[  1] __ZN14CPktTimeWindow13probe1ArrivalEv.eh
0x0002AB1C	0x0000002C	[  1] __ZN14CPktTimeWindow12onPktArrivalEv.eh
0x0002AB48	0x0000002C	[  1] __ZN10CACKWindow11acknowledgeERKiRi.eh
0x0002AB74	0x0000002C	[  1] __ZN10CACKWindow5storeERKiS1_.eh
0x0002ABA0	0x00000028	[  1] __ZN14CPktTimeWindowC2ERKiS1_.eh
0x0002ABC8	0x00000028	[  1] __ZN14CPktTimeWindowC2Ev.eh
0x0002ABF0	0x00000028	[  1] __ZN10CACKWindowC2ERKi.eh
0x0002AC18	0x00000028	[  1] __ZN10CACKWindowC2Ev.eh
0x0002AC40	0x00000020	[  2] CIE
0x0002AC60	0x00000030	[  2] __ZNSt8_Rb_treeIiSt4pairIKiSt5queueIP7CPacketSt5dequeIS4_SaIS4_EEEESt10_Select1stIS9_ESt4lessIiESaIS9_EE4findERS1_.eh
0x0002AC90	0x0000002C	[  2] __ZNSt8_Rb_treeIiSt4pairIKiSt5queueIP7CPacketSt5dequeIS4_SaIS4_EEEESt10_Select1stIS9_ESt4lessIiESaIS9_EE11lower_boundERS1_.eh
0x0002ACBC	0x00000030	[  2] __ZNSt6vectorIN16CRendezvousQueue3CRLESaIS1_EE5eraseEN9__gnu_cxx17__normal_iteratorIPS1_S3_EE.eh
0x0002ACEC	0x00000030	[  2] __ZN9CRcvQueue14removeListenerEPK4CUDT.eh
0x0002AD1C	0x00000030	[  2] __ZN9CRcvQueue11setListenerEPK4CUDT.eh
0x0002AD4C	0x00000030	[  2] __ZN9CSndUList15getNextProcTimeEv.eh
0x0002AD7C	0x00000030	[  2] __ZN9CSndUList6removeEPK4CUDT.eh
0x0002ADAC	0x00000030	[  2] __ZN5CHash6insertERKiPK4CUDT.eh
0x0002ADDC	0x0000002C	[  2] __ZNSt5dequeIP7CPacketSaIS1_EE16_M_pop_front_auxEv.eh
0x0002AE08	0x00000030	[  2] __ZNSt6vectorIN16CRendezvousQueue3CRLESaIS1_EE13_M_insert_auxEN9__gnu_cxx17__normal_iteratorIPS1_S3_EERKS1_.eh
0x0002AE38	0x00000030	[  2] __ZNSt6vectorIN16CRendezvousQueue3CRLESaIS1_EE6insertEN9__gnu_cxx17__normal_iteratorIPS1_S3_EERKS1_.eh
0x0002AE68	0x00000030	[  2] __ZN16CRendezvousQueue6insertERKiS1_PK8sockaddr.eh
0x0002AE98	0x00000030	[  2] __ZN10CUnitQueueD2Ev.eh
0x0002AEC8	0x00000030	[  2] __ZN5CHash4initERKi.eh
0x0002AEF8	0x00000030	[  2] __ZN10CUnitQueue8increaseEv.eh
0x0002AF28	0x00000030	[  2] __ZN10CUnitQueue16getNextAvailUnitEv.eh
0x0002AF58	0x00000030	[  2] __ZN10CUnitQueue4initERKiS1_S1_.eh
0x0002AF88	0x00000030	[  2] __ZN16CRendezvousQueue8retrieveEPK8sockaddrRi.eh
0x0002AFB8	0x00000030	[  2] __ZN9CRcvUList6updateEPK4CUDT.eh
0x0002AFE8	0x00000030	[  2] __ZN9CRcvUList6insertEPK4CUDT.eh
0x0002B018	0x00000030	[  2] __ZN9CSndUListC2Ev.eh
0x0002B048	0x00000030	[  2] __ZN9CSndQueue4initEPK8CChannelPK6CTimer.eh
0x0002B078	0x00000030	[  2] __ZN9CSndQueueC2Ev.eh
0x0002B0A8	0x0000002C	[  2] __ZN9CSndQueue6sendtoEPK8sockaddrR7CPacket.eh
0x0002B0D4	0x00000030	[  2] __ZN9CSndQueueD2Ev.eh
0x0002B104	0x00000030	[  2] __ZN9CSndUList7insert_ERKxPK4CUDT.eh
0x0002B134	0x00000030	[  2] __ZN9CSndUList6insertERKxPK4CUDT.eh
0x0002B164	0x00000030	[  2] __ZN9CSndUList3popERP8sockaddrR7CPacket.eh
0x0002B194	0x00000030	[  2] __ZN9CSndQueue6workerEPv.eh
0x0002B1C4	0x00000030	[  2] __ZN9CSndUList6updateEPK4CUDTRKb.eh
0x0002B1F4	0x00000030	[  2] __ZN16CRendezvousQueue6removeERKi.eh
0x0002B224	0x00000030	[  2] __ZNSt5dequeIP7CPacketSaIS1_EE17_M_reallocate_mapEmb.eh
0x0002B254	0x00000030	[  2] __ZNSt6vectorIP4CUDTSaIS1_EE13_M_insert_auxEN9__gnu_cxx17__normal_iteratorIPS1_S3_EERKS1_.eh
0x0002B284	0x00000030	[  2] __ZNSt6vectorIP4CUDTSaIS1_EE6insertEN9__gnu_cxx17__normal_iteratorIPS1_S3_EERKS1_.eh
0x0002B2B4	0x00000030	[  2] __ZN9CRcvQueue11setNewEntryEP4CUDT.eh
0x0002B2E4	0x00000030	[  2] __ZNSt6vectorIP4CUDTSaIS1_EE5eraseEN9__gnu_cxx17__normal_iteratorIPS1_S3_EE.eh
0x0002B314	0x00000030	[  2] __ZN9CRcvQueue11getNewEntryEv.eh
0x0002B344	0x00000030	[  2] __ZNSt11_Deque_baseIP7CPacketSaIS1_EE16_M_destroy_nodesEPPS1_S5_.eh
0x0002B374	0x00000030	[  2] __ZNSt11_Deque_baseIP7CPacketSaIS1_EE15_M_create_nodesEPPS1_S5_.eh
0x0002B3A4	0x00000030	[  2] __ZNSt11_Deque_baseIP7CPacketSaIS1_EE17_M_initialize_mapEm.eh
0x0002B3D4	0x0000002C	[  2] __ZNSt11_Deque_baseIP7CPacketSaIS1_EED2Ev.eh
0x0002B400	0x00000030	[  2] __ZNSt5dequeIP7CPacketSaIS1_EE16_M_push_back_auxERKS1_.eh
0x0002B430	0x00000030	[  2] __ZN9CRcvQueue8recvfromERKiR7CPacket.eh
0x0002B460	0x00000030	[  2] __ZN16CRendezvousQueueD2Ev.eh
0x0002B490	0x00000030	[  2] __ZN16CRendezvousQueueC2Ev.eh
0x0002B4C0	0x00000030	[  2] __ZN9CRcvQueue4initERKiS1_S1_S1_PK8CChannelPK6CTimer.eh
0x0002B4F0	0x00000030	[  2] __ZNSt8_Rb_treeIiSt4pairIKiSt5queueIP7CPacketSt5dequeIS4_SaIS4_EEEESt10_Select1stIS9_ESt4lessIiESaIS9_EE9_M_insertEPSt18_Rb_tree_node_baseSH_RKS9_.eh
0x0002B520	0x00000030	[  2] __ZNSt8_Rb_treeIiSt4pairIKiSt5queueIP7CPacketSt5dequeIS4_SaIS4_EEEESt10_Select1stIS9_ESt4lessIiESaIS9_EE16_M_insert_uniqueERKS9_.eh
0x0002B550	0x00000030	[  2] __ZNSt8_Rb_treeIiSt4pairIKiSt5queueIP7CPacketSt5dequeIS4_SaIS4_EEEESt10_Select1stIS9_ESt4lessIiESaIS9_EE16_M_insert_uniqueESt17_Rb_tree_iteratorIS9_ERKS9_.eh
0x0002B580	0x00000030	[  2] __ZNSt8_Rb_treeIiSt4pairIKiSt5queueIP7CPacketSt5dequeIS4_SaIS4_EEEESt10_Select1stIS9_ESt4lessIiESaIS9_EE8_M_eraseEPSt13_Rb_tree_nodeIS9_E.eh
0x0002B5B0	0x00000030	[  2] __ZN9CRcvQueueC2Ev.eh
0x0002B5E0	0x00000030	[  2] __ZN9CRcvQueueD2Ev.eh
0x0002B610	0x00000030	[  2] __ZN9CRcvQueue8storePktERKiP7CPacket.eh
0x0002B640	0x00000030	[  2] __ZN9CRcvQueue6workerEPv.eh
0x0002B670	0x0000001C	[  3] CIE
0x0002B68C	0x0000002C	[  3] __ZNK7CPacket5cloneEv.eh
0x0002B6B8	0x0000001C	[  5] CIE
0x0002B6D4	0x0000002C	[  5] __ZN12CRcvLossList12getLossArrayEPiRiRKiS3_.eh
0x0002B700	0x0000002C	[  5] __ZN12CRcvLossList6removeERKi.eh
0x0002B72C	0x0000002C	[  5] __ZN12CRcvLossList6removeERKiS1_.eh
0x0002B758	0x0000002C	[  5] __ZN12CRcvLossListC2ERKi.eh
0x0002B784	0x0000002C	[  5] __ZN12CSndLossList13getLossLengthEv.eh
0x0002B7B0	0x0000002C	[  5] __ZN12CSndLossListC2ERKi.eh
0x0002B7DC	0x0000002C	[  5] __ZN12CSndLossList6removeERKi.eh
0x0002B808	0x0000002C	[  5] __ZN12CSndLossList10getLostSeqEv.eh
0x0002B834	0x0000002C	[  5] __ZN12CSndLossList6insertERKiS1_.eh
0x0002B860	0x0000002C	[  5] __ZN12CRcvLossList6insertERKiS1_.eh
0x0002B88C	0x00000020	[  6] CIE
0x0002B8AC	0x00000030	[  6] __ZNSt8_Rb_treeIiSt4pairIKi10CEPollDescESt10_Select1stIS3_ESt4lessIiESaIS3_EE4findERS1_.eh
0x0002B8DC	0x0000002C	[  6] __ZNSt8_Rb_treeIiSt4pairIKi10CEPollDescESt10_Select1stIS3_ESt4lessIiESaIS3_EE11lower_boundERS1_.eh
0x0002B908	0x0000002C	[  6] __ZNSt8_Rb_treeIiiSt9_IdentityIiESt4lessIiESaIiEE11lower_boundERKi.eh
0x0002B934	0x0000002C	[  6] __ZNSt8_Rb_treeIiiSt9_IdentityIiESt4lessIiESaIiEE11upper_boundERKi.eh
0x0002B960	0x00000030	[  6] __ZNSt8_Rb_treeIiiSt9_IdentityIiESt4lessIiESaIiEE8_M_eraseEPSt13_Rb_tree_nodeIiE.eh
0x0002B990	0x00000030	[  6] __ZNSt6vectorIiSaIiEE13_M_insert_auxEN9__gnu_cxx17__normal_iteratorIPiS1_EERKi.eh
0x0002B9C0	0x00000030	[  6] __ZNSt8_Rb_treeIiiSt9_IdentityIiESt4lessIiESaIiEE5eraseESt17_Rb_tree_iteratorIiES7_.eh
0x0002B9F0	0x00000030	[  6] __ZNSt8_Rb_treeIiiSt9_IdentityIiESt4lessIiESaIiEE5eraseERKi.eh
0x0002BA20	0x00000030	[  6] __ZN6CEPoll12remove_ssockEiRKiPS0_.eh
0x0002BA50	0x00000030	[  6] __ZN6CEPoll12remove_usockEiRKiPS0_.eh
0x0002BA80	0x00000030	[  6] __ZN6CEPoll7releaseEi.eh
0x0002BAB0	0x00000030	[  6] __ZN6CEPoll12disable_readERKiRSt3setIiSt4lessIiESaIiEE.eh
0x0002BAE0	0x00000030	[  6] __ZN6CEPoll13disable_writeERKiRSt3setIiSt4lessIiESaIiEE.eh
0x0002BB10	0x00000030	[  6] __ZNSt8_Rb_treeIiiSt9_IdentityIiESt4lessIiESaIiEE7_M_copyEPKSt13_Rb_tree_nodeIiEPS7_.eh
0x0002BB40	0x00000030	[  6] __ZNSt8_Rb_treeIiiSt9_IdentityIiESt4lessIiESaIiEEaSERKS5_.eh
0x0002BB70	0x00000030	[  6] __ZNSt8_Rb_treeIiSt4pairIKi10CEPollDescESt10_Select1stIS3_ESt4lessIiESaIS3_EE9_M_insertEPSt18_Rb_tree_node_baseSB_RKS3_.eh
0x0002BBA0	0x00000030	[  6] __ZNSt8_Rb_treeIiSt4pairIKi10CEPollDescESt10_Select1stIS3_ESt4lessIiESaIS3_EE16_M_insert_uniqueERKS3_.eh
0x0002BBD0	0x00000030	[  6] __ZNSt8_Rb_treeIiSt4pairIKi10CEPollDescESt10_Select1stIS3_ESt4lessIiESaIS3_EE16_M_insert_uniqueESt17_Rb_tree_iteratorIS3_ERKS3_.eh
0x0002BC00	0x00000030	[  6] __ZNSt8_Rb_treeIiiSt9_IdentityIiESt4lessIiESaIiEE9_M_insertEPSt18_Rb_tree_node_baseS7_RKi.eh
0x0002BC30	0x00000030	[  6] __ZNSt8_Rb_treeIiiSt9_IdentityIiESt4lessIiESaIiEE16_M_insert_uniqueERKi.eh
0x0002BC60	0x00000030	[  6] __ZN6CEPoll9add_usockEiRKiPS0_.eh
0x0002BC90	0x00000030	[  6] __ZN6CEPoll11enable_readERKiRSt3setIiSt4lessIiESaIiEE.eh
0x0002BCC0	0x00000030	[  6] __ZN6CEPoll12enable_writeERKiRSt3setIiSt4lessIiESaIiEE.eh
0x0002BCF0	0x00000030	[  6] __ZN6CEPoll4waitEiPSt3setIiSt4lessIiESaIiEES5_xS5_S5_.eh
0x0002BD20	0x00000030	[  6] __ZN6CEPoll9add_ssockEiRKiPS0_.eh
0x0002BD50	0x00000030	[  6] __ZNSt8_Rb_treeIiSt4pairIKi10CEPollDescESt10_Select1stIS3_ESt4lessIiESaIS3_EE8_M_eraseEPSt13_Rb_tree_nodeIS3_E.eh
0x0002BD80	0x00000030	[  6] __ZN6CEPollC2Ev.eh
0x0002BDB0	0x00000030	[  6] __ZN6CEPollD2Ev.eh
0x0002BDE0	0x00000030	[  6] __ZN6CEPoll6createEv.eh
0x0002BE10	0x00000020	[  7] CIE
0x0002BE30	0x0000002C	[  7] __Z41__static_initialization_and_destruction_0ii.eh
0x0002BE5C	0x00000028	[  7] __ZN10CCCFactoryI6CUDTCCED0Ev.eh
0x0002BE84	0x00000028	[  7] __ZN10CCCFactoryI6CUDTCCED1Ev.eh
0x0002BEAC	0x00000028	[  7] __ZN17CCCVirtualFactoryD0Ev.eh
0x0002BED4	0x00000028	[  7] __ZN17CCCVirtualFactoryD1Ev.eh
0x0002BEFC	0x0000002C	[  7] __ZN4CUDT11removeEPollEi.eh
0x0002BF28	0x0000002C	[  7] __ZN10CCCFactoryI6CUDTCCE5cloneEv.eh
0x0002BF54	0x00000030	[  7] __ZN4CUDT8addEPollEi.eh
0x0002BF84	0x00000030	[  7] __ZN4CUDT6listenEP8sockaddrR7CPacket.eh
0x0002BFB4	0x00000030	[  7] __ZN4CUDT12releaseSynchEv.eh
0x0002BFE4	0x00000030	[  7] __ZN4CUDT8sendCtrlERKiPvS2_S1_.eh
0x0002C014	0x0000002C	[  7] __ZN4CUDT12destroySynchEv.eh
0x0002C040	0x0000002C	[  7] __ZN4CUDT9initSynchEv.eh
0x0002C06C	0x00000030	[  7] __ZN4CUDTC2ERKS_.eh
0x0002C09C	0x00000030	[  7] __ZN4CUDT6getOptE6UDTOptPvRi.eh
0x0002C0CC	0x00000030	[  7] __ZN4CUDT6setOptE6UDTOptPKvRKi.eh
0x0002C0FC	0x00000030	[  7] __ZN4CUDT7recvmsgEPcRKi.eh
0x0002C12C	0x00000030	[  7] __ZN4CUDT7sendmsgEPKcRKiS3_RKb.eh
0x0002C15C	0x00000030	[  7] __ZN4CUDT4sendEPKcRKi.eh
0x0002C18C	0x00000030	[  7] __ZN4CUDT4recvEPcRKi.eh
0x0002C1BC	0x00000030	[  7] __ZN4CUDT5closeEv.eh
0x0002C1EC	0x00000030	[  7] __ZN4CUDT7connectEPK8sockaddrP10CHandShake.eh
0x0002C21C	0x00000030	[  7] __ZN4CUDT6listenEv.eh
0x0002C24C	0x00000030	[  7] __ZN4CUDT4openEv.eh
0x0002C27C	0x00000030	[  7] __ZN10CCCFactoryI6CUDTCCE6createEv.eh
0x0002C2AC	0x00000030	[  7] __ZN4CUDT6sampleEP8CPerfMonb.eh
0x0002C2DC	0x00000030	[  7] __ZN4CUDT11checkTimersEv.eh
0x0002C30C	0x00000030	[  7] __ZN4CUDT11processDataEP5CUnit.eh
0x0002C33C	0x00000030	[  7] __ZN4CUDT11processCtrlER7CPacket.eh
0x0002C36C	0x00000030	[  7] __ZN4CUDT8packDataER7CPacketRy.eh
0x0002C39C	0x00000030	[  7] __ZN4CUDT8sendfileERSt13basic_fstreamIcSt11char_traitsIcEERxRKxRKi.eh
0x0002C3CC	0x00000030	[  7] __ZN4CUDT8recvfileERSt13basic_fstreamIcSt11char_traitsIcEERxRKxRKi.eh
0x0002C3FC	0x00000030	[  7] __ZN4CUDTC2Ev.eh
0x0002C42C	0x00000030	[  7] __ZN4CUDTD2Ev.eh
0x0002C45C	0x00000030	[  7] __ZN4CUDT7connectEPK8sockaddr.eh
0x0002C48C	0x00000020	[  8] CIE
0x0002C4AC	0x00000030	[  8] __ZN4CMD57computeEPKcPh.eh
0x0002C4DC	0x00000028	[  8] __ZN6CGuard10createCondER22_opaque_pthread_cond_t.eh
0x0002C504	0x0000002C	[  8] __ZN6CTimerD2Ev.eh
0x0002C530	0x00000028	[  8] __ZN6CGuard11createMutexER23_opaque_pthread_mutex_t.eh
0x0002C558	0x00000030	[  8] __ZN6CTimerC2Ev.eh
0x0002C588	0x0000002C	[  8] __ZN6CGuardC2ER23_opaque_pthread_mutex_t.eh
0x0002C5B4	0x00000028	[  8] __ZN6CTimer5sleepEv.eh
0x0002C5DC	0x00000030	[  8] __ZN6CTimer7getTimeEv.eh
0x0002C60C	0x00000030	[  8] __ZN6CTimer12waitForEventEv.eh
0x0002C63C	0x00000030	[  8] __ZN6CTimer7sleeptoERKy.eh
0x0002C66C	0x00000028	[  8] __ZN6CTimer5sleepERKy.eh
0x0002C694	0x0000002C	[  8] __ZN6CTimer12triggerEventEv.eh
0x0002C6C0	0x00000028	[  8] __ZN6CTimer16readCPUFrequencyEv.eh
0x0002C6E8	0x0000002C	[  8] __Z41__static_initialization_and_destruction_0ii.eh
0x0002C714	0x00000030	[  8] __ZN13CUDTExceptionC2Eiii.eh
0x0002C744	0x00000030	[  8] __ZN13CUDTException15getErrorMessageEv.eh
0x0002C774	0x00000020	[  9] CIE
0x0002C794	0x00000028	[  9] __ZNK8CChannel11getPeerAddrEP8sockaddr.eh
0x0002C7BC	0x00000028	[  9] __ZNK8CChannel11getSockAddrEP8sockaddr.eh
0x0002C7E4	0x0000002C	[  9] __ZN8CChannel13getRcvBufSizeEv.eh
0x0002C810	0x0000002C	[  9] __ZN8CChannel13getSndBufSizeEv.eh
0x0002C83C	0x00000030	[  9] __ZN8CChannel13setUDPSockOptEv.eh
0x0002C86C	0x00000030	[  9] __ZN8CChannel4openEPK8sockaddr.eh
0x0002C89C	0x00000030	[  9] __ZNK8CChannel8recvfromEP8sockaddrR7CPacket.eh
0x0002C8CC	0x00000030	[  9] __ZNK8CChannel6sendtoEPK8sockaddrR7CPacket.eh
0x0002C8FC	0x0000001C	[ 10] CIE
0x0002C918	0x00000024	[ 10] __ZN3CCC4initEv.eh
0x0002C93C	0x00000024	[ 10] __ZN3CCC5closeEv.eh
0x0002C960	0x00000024	[ 10] __ZN3CCC5onACKERKi.eh
0x0002C984	0x00000024	[ 10] __ZN3CCC6onLossEPKiRS0_.eh
0x0002C9A8	0x00000024	[ 10] __ZN3CCC9onTimeoutEv.eh
0x0002C9CC	0x00000024	[ 10] __ZN3CCC9onPktSentEPK7CPacket.eh
0x0002C9F0	0x00000024	[ 10] __ZN3CCC13onPktReceivedEPK7CPacket.eh
0x0002CA14	0x00000024	[ 10] __ZN3CCC16processCustomMsgEPK7CPacket.eh
0x0002CA38	0x0000002C	[ 10] __ZN6CUDTCC4initEv.eh
0x0002CA64	0x0000002C	[ 10] __ZN6CUDTCC5onACKERKi.eh
0x0002CA90	0x0000002C	[ 10] __ZN6CUDTCCD0Ev.eh
0x0002CABC	0x00000024	[ 10] __ZN6CUDTCCD1Ev.eh
0x0002CAE0	0x0000002C	[ 10] __ZN3CCC12setUserParamEPKcRKi.eh
0x0002CB0C	0x0000002C	[ 10] __ZN3CCC11getPerfInfoEv.eh
0x0002CB38	0x00000028	[ 10] __ZNK3CCC13sendCustomMsgER7CPacket.eh
0x0002CB60	0x00000020	[ 11] CIE
0x0002CB80	0x00000030	[ 11] __ZNSt8_Rb_treeIP10CInfoBlockS1_St9_IdentityIS1_E7CIPCompSaIS1_EE4findERKS1_.eh
0x0002CBB0	0x00000030	[ 11] __ZNSt8_Rb_treeIP10CInfoBlockS1_St9_IdentityIS1_E7CTSCompSaIS1_EE11lower_boundERKS1_.eh
0x0002CBE0	0x00000030	[ 11] __ZNSt8_Rb_treeIP10CInfoBlockS1_St9_IdentityIS1_E7CTSCompSaIS1_EE11upper_boundERKS1_.eh
0x0002CC10	0x00000030	[ 11] __ZNSt8_Rb_treeIP10CInfoBlockS1_St9_IdentityIS1_E7CIPCompSaIS1_EE11lower_boundERKS1_.eh
0x0002CC40	0x00000030	[ 11] __ZNSt8_Rb_treeIP10CInfoBlockS1_St9_IdentityIS1_E7CIPCompSaIS1_EE11upper_boundERKS1_.eh
0x0002CC70	0x00000030	[ 11] __ZNSt8_Rb_treeIP10CInfoBlockS1_St9_IdentityIS1_E7CTSCompSaIS1_EE8_M_eraseEPSt13_Rb_tree_nodeIS1_E.eh
0x0002CCA0	0x00000030	[ 11] __ZNSt8_Rb_treeIP10CInfoBlockS1_St9_IdentityIS1_E7CIPCompSaIS1_EE8_M_eraseEPSt13_Rb_tree_nodeIS1_E.eh
0x0002CCD0	0x00000030	[ 11] __ZNSt8_Rb_treeIP10CInfoBlockS1_St9_IdentityIS1_E7CTSCompSaIS1_EE5eraseESt17_Rb_tree_iteratorIS1_ES8_.eh
0x0002CD00	0x00000030	[ 11] __ZNSt8_Rb_treeIP10CInfoBlockS1_St9_IdentityIS1_E7CTSCompSaIS1_EE5eraseERKS1_.eh
0x0002CD30	0x00000030	[ 11] __ZNSt8_Rb_treeIP10CInfoBlockS1_St9_IdentityIS1_E7CTSCompSaIS1_EE9_M_insertEPSt18_Rb_tree_node_baseS8_RKS1_.eh
0x0002CD60	0x00000030	[ 11] __ZNSt8_Rb_treeIP10CInfoBlockS1_St9_IdentityIS1_E7CTSCompSaIS1_EE16_M_insert_uniqueERKS1_.eh
0x0002CD90	0x00000030	[ 11] __ZNSt8_Rb_treeIP10CInfoBlockS1_St9_IdentityIS1_E7CIPCompSaIS1_EE5eraseESt17_Rb_tree_iteratorIS1_ES8_.eh
0x0002CDC0	0x00000030	[ 11] __ZNSt8_Rb_treeIP10CInfoBlockS1_St9_IdentityIS1_E7CIPCompSaIS1_EE5eraseERKS1_.eh
0x0002CDF0	0x00000030	[ 11] __ZN6CCache6lookupEPK8sockaddrRKiP10CInfoBlock.eh
0x0002CE20	0x00000030	[ 11] __ZN6CCacheC2Ev.eh
0x0002CE50	0x00000030	[ 11] __ZN6CCacheD2Ev.eh
0x0002CE80	0x00000030	[ 11] __ZN6CCacheC2ERKj.eh
0x0002CEB0	0x00000030	[ 11] __ZNSt8_Rb_treeIP10CInfoBlockS1_St9_IdentityIS1_E7CIPCompSaIS1_EE9_M_insertEPSt18_Rb_tree_node_baseS8_RKS1_.eh
0x0002CEE0	0x00000030	[ 11] __ZNSt8_Rb_treeIP10CInfoBlockS1_St9_IdentityIS1_E7CIPCompSaIS1_EE16_M_insert_uniqueERKS1_.eh
0x0002CF10	0x00000030	[ 11] __ZN6CCache6updateEPK8sockaddrRKiP10CInfoBlock.eh
0x0002CF40	0x00000020	[ 12] CIE
0x0002CF60	0x00000030	[ 12] __ZN10CRcvBuffer7scanMsgERiS0_Rb.eh
0x0002CF90	0x00000028	[ 12] __ZN10CRcvBuffer12getRcvMsgNumEv.eh
0x0002CFB8	0x00000030	[ 12] __ZN10CRcvBuffer7readMsgEPcRKi.eh
0x0002CFE8	0x00000030	[ 12] __ZN10CRcvBuffer10readBufferEPcRKi.eh
0x0002D018	0x00000030	[ 12] __ZN10CRcvBuffer16readBufferToFileERSt13basic_fstreamIcSt11char_traitsIcEERKi.eh
0x0002D048	0x0000002C	[ 12] __ZN10CRcvBufferC2ERKiP10CUnitQueue.eh
0x0002D074	0x0000002C	[ 12] __ZN10CRcvBufferC2EP10CUnitQueue.eh
0x0002D0A0	0x00000030	[ 12] __ZN10CSndBuffer8increaseEv.eh
0x0002D0D0	0x00000030	[ 12] __ZN10CSndBuffer7ackDataERKi.eh
0x0002D100	0x00000030	[ 12] __ZN10CSndBuffer8readDataEPPciRiS2_.eh
0x0002D130	0x00000030	[ 12] __ZN10CSndBuffer9addBufferEPKcRKiS3_RKb.eh
0x0002D160	0x00000030	[ 12] __ZN10CSndBufferC2ERKiS1_.eh
0x0002D190	0x00000030	[ 12] __ZN10CSndBuffer17addBufferFromFileERSt13basic_fstreamIcSt11char_traitsIcEERKi.eh
0x0002D1C0	0x00000020	[ 13] CIE
0x0002D1E0	0x00000028	[ 13] __ZN10CUDTUnited10TLSDestroyEPv.eh
0x0002D208	0x00000030	[ 13] __ZNSt8_Rb_treeIiSt4pairIKiP10CUDTSocketESt10_Select1stIS4_ESt4lessIiESaIS4_EE4findERS1_.eh
0x0002D238	0x00000030	[ 13] __ZNSt8_Rb_treeIxSt4pairIKxSt3setIiSt4lessIiESaIiEEESt10_Select1stIS7_ES3_IxESaIS7_EE4findERS1_.eh
0x0002D268	0x00000030	[ 13] __ZNSt8_Rb_treeIiSt4pairIKi12CMultiplexerESt10_Select1stIS3_ESt4lessIiESaIS3_EE4findERS1_.eh
0x0002D298	0x0000002C	[ 13] __ZNSt8_Rb_treeIiSt4pairIKiP10CUDTSocketESt10_Select1stIS4_ESt4lessIiESaIS4_EE11lower_boundERS1_.eh
0x0002D2C4	0x00000030	[ 13] __ZNSt8_Rb_treeIxSt4pairIKxSt3setIiSt4lessIiESaIiEEESt10_Select1stIS7_ES3_IxESaIS7_EE11lower_boundERS1_.eh
0x0002D2F4	0x0000002C	[ 13] __ZNSt8_Rb_treeIiSt4pairIKi12CMultiplexerESt10_Select1stIS3_ESt4lessIiESaIS3_EE11lower_boundERS1_.eh
0x0002D320	0x0000002C	[ 13] __ZNSt8_Rb_treeIiSt4pairIKiP10CUDTSocketESt10_Select1stIS4_ESt4lessIiESaIS4_EE11upper_boundERS1_.eh
0x0002D34C	0x00000030	[ 13] __ZNSt8_Rb_treeIiSt4pairIKi12CMultiplexerESt10_Select1stIS3_ESt4lessIiESaIS3_EE8_M_eraseEPSt13_Rb_tree_nodeIS3_E.eh
0x0002D37C	0x00000030	[ 13] __ZNSt8_Rb_treeIiSt4pairIKiP10CUDTSocketESt10_Select1stIS4_ESt4lessIiESaIS4_EE8_M_eraseEPSt13_Rb_tree_nodeIS4_E.eh
0x0002D3AC	0x00000030	[ 13] __ZNSt8_Rb_treeIiSt4pairIKi12CMultiplexerESt10_Select1stIS3_ESt4lessIiESaIS3_EE9_M_insertEPSt18_Rb_tree_node_baseSB_RKS3_.eh
0x0002D3DC	0x00000030	[ 13] __ZNSt8_Rb_treeIiSt4pairIKiP10CUDTSocketESt10_Select1stIS4_ESt4lessIiESaIS4_EE9_M_insertEPSt18_Rb_tree_node_baseSC_RKS4_.eh
0x0002D40C	0x00000030	[ 13] __ZNSt8_Rb_treeIiSt4pairIKiP10CUDTSocketESt10_Select1stIS4_ESt4lessIiESaIS4_EE16_M_insert_uniqueERKS4_.eh
0x0002D43C	0x00000030	[ 13] __ZN10CUDTUnited8getErrorEv.eh
0x0002D46C	0x0000002C	[ 13] __ZN4CUDT12getlasterrorEv.eh
0x0002D498	0x00000030	[ 13] __ZN10CUDTUnited8setErrorEP13CUDTException.eh
0x0002D4C8	0x00000030	[ 13] __ZN4CUDT13epoll_releaseEi.eh
0x0002D4F8	0x00000030	[ 13] __ZN4CUDT10epoll_waitEiPSt3setIiSt4lessIiESaIiEES5_xS5_S5_.eh
0x0002D528	0x00000028	[ 13] __ZN10CUDTUnited18epoll_remove_ssockEiiPKi.eh
0x0002D550	0x00000030	[ 13] __ZN4CUDT18epoll_remove_ssockEiiPKi.eh
0x0002D580	0x00000028	[ 13] __ZN10CUDTUnited15epoll_add_ssockEiiPKi.eh
0x0002D5A8	0x00000030	[ 13] __ZN4CUDT15epoll_add_ssockEiiPKi.eh
0x0002D5D8	0x00000030	[ 13] __ZN4CUDT12epoll_createEv.eh
0x0002D608	0x00000030	[ 13] __ZN10CUDTUnited7cleanupEv.eh
0x0002D638	0x0000002C	[ 13] __ZN4CUDT7cleanupEv.eh
0x0002D664	0x00000030	[ 13] __ZN10CUDTSocketC2Ev.eh
0x0002D694	0x00000030	[ 13] __ZN10CUDTUnited7startupEv.eh
0x0002D6C4	0x0000002C	[ 13] __ZN4CUDT7startupEv.eh
0x0002D6F0	0x00000030	[ 13] __ZNSt8_Rb_treeIiSt4pairIKi12CMultiplexerESt10_Select1stIS3_ESt4lessIiESaIS3_EE16_M_insert_uniqueERKS3_.eh
0x0002D720	0x00000030	[ 13] __ZNSt8_Rb_treeIiSt4pairIKi12CMultiplexerESt10_Select1stIS3_ESt4lessIiESaIS3_EE16_M_insert_uniqueESt17_Rb_tree_iteratorIS3_ERKS3_.eh
0x0002D750	0x00000030	[ 13] __ZN10CUDTUnited9updateMuxEP10CUDTSocketPKS0_.eh
0x0002D780	0x00000030	[ 13] __ZN10CUDTUnited9updateMuxEP10CUDTSocketPK8sockaddrPKi.eh
0x0002D7B0	0x00000030	[ 13] __ZNSt6vectorIP10CUDTSocketSaIS1_EE13_M_insert_auxEN9__gnu_cxx17__normal_iteratorIPS1_S3_EERKS1_.eh
0x0002D7E0	0x00000030	[ 13] __ZNSt6vectorIP10CUDTSocketSaIS1_EE6insertEN9__gnu_cxx17__normal_iteratorIPS1_S3_EERKS1_.eh
0x0002D810	0x00000030	[ 13] __ZNSt8_Rb_treeIiSt4pairIKiP10CUDTSocketESt10_Select1stIS4_ESt4lessIiESaIS4_EE16_M_insert_uniqueESt17_Rb_tree_iteratorIS4_ERKS4_.eh
0x0002D840	0x00000030	[ 13] __ZN10CUDTUnited6locateEiPK8sockaddrRKiS4_.eh
0x0002D870	0x00000030	[ 13] __ZNSt8_Rb_treeIiSt4pairIKiP10CUDTSocketESt10_Select1stIS4_ESt4lessIiESaIS4_EE5eraseESt17_Rb_tree_iteratorIS4_ESC_.eh
0x0002D8A0	0x00000030	[ 13] __ZNSt8_Rb_treeIiSt4pairIKiP10CUDTSocketESt10_Select1stIS4_ESt4lessIiESaIS4_EE5eraseERS1_.eh
0x0002D8D0	0x00000030	[ 13] __ZN10CUDTUnited6locateEi.eh
0x0002D900	0x00000030	[ 13] __ZN10CUDTUnited18epoll_remove_usockEiiPKi.eh
0x0002D930	0x00000030	[ 13] __ZN4CUDT18epoll_remove_usockEiiPKi.eh
0x0002D960	0x00000030	[ 13] __ZN10CUDTUnited15epoll_add_usockEiiPKi.eh
0x0002D990	0x00000030	[ 13] __ZN4CUDT15epoll_add_usockEiiPKi.eh
0x0002D9C0	0x00000030	[ 13] __ZN10CUDTUnited11getsocknameEiP8sockaddrPi.eh
0x0002D9F0	0x00000030	[ 13] __ZN4CUDT11getsocknameEiP8sockaddrPi.eh
0x0002DA20	0x00000030	[ 13] __ZN10CUDTUnited7connectEiPK8sockaddrRKi.eh
0x0002DA50	0x00000030	[ 13] __ZN4CUDT7connectEiPK8sockaddri.eh
0x0002DA80	0x00000030	[ 13] __ZN10CUDTUnited4bindEii.eh
0x0002DAB0	0x00000030	[ 13] __ZN4CUDT4bindEii.eh
0x0002DAE0	0x00000030	[ 13] __ZN10CUDTUnited4bindEiPK8sockaddrRKi.eh
0x0002DB10	0x00000030	[ 13] __ZN4CUDT4bindEiPK8sockaddri.eh
0x0002DB40	0x00000030	[ 13] __ZN10CUDTUnited5closeEi.eh
0x0002DB70	0x00000030	[ 13] __ZN4CUDT5closeEi.eh
0x0002DBA0	0x00000030	[ 13] __ZN10CUDTUnited9getStatusEi.eh
0x0002DBD0	0x00000030	[ 13] __ZN10CUDTUnited11getpeernameEiP8sockaddrPi.eh
0x0002DC00	0x00000030	[ 13] __ZN4CUDT11getpeernameEiP8sockaddrPi.eh
0x0002DC30	0x00000030	[ 13] __ZN10CUDTUnited6lookupEi.eh
0x0002DC60	0x0000002C	[ 13] __ZN4CUDT12getUDTHandleEi.eh
0x0002DC8C	0x00000030	[ 13] __ZN4CUDT7perfmonEiP8CPerfMonb.eh
0x0002DCBC	0x00000030	[ 13] __ZN4CUDT8recvfileEiRSt13basic_fstreamIcSt11char_traitsIcEERxRKxRKi.eh
0x0002DCEC	0x00000028	[ 13] __ZN3UDT8recvfileEiRSt13basic_fstreamIcSt11char_traitsIcEERxxi.eh
0x0002DD14	0x00000030	[ 13] __ZN4CUDT8sendfileEiRSt13basic_fstreamIcSt11char_traitsIcEERxRKxRKi.eh
0x0002DD44	0x00000028	[ 13] __ZN3UDT8sendfileEiRSt13basic_fstreamIcSt11char_traitsIcEERxxi.eh
0x0002DD6C	0x00000030	[ 13] __ZN4CUDT7recvmsgEiPci.eh
0x0002DD9C	0x00000030	[ 13] __ZN4CUDT7sendmsgEiPKciib.eh
0x0002DDCC	0x00000030	[ 13] __ZN4CUDT4recvEiPcii.eh
0x0002DDFC	0x00000030	[ 13] __ZN4CUDT4sendEiPKcii.eh
0x0002DE2C	0x00000030	[ 13] __ZN4CUDT10setsockoptEii6UDTOptPKvi.eh
0x0002DE5C	0x00000030	[ 13] __ZN4CUDT10getsockoptEii6UDTOptPvPi.eh
0x0002DE8C	0x00000030	[ 13] __ZN10CUDTUnited8selectExERKSt6vectorIiSaIiEEPS2_S5_S5_x.eh
0x0002DEBC	0x00000030	[ 13] __ZN4CUDT8selectExERKSt6vectorIiSaIiEEPS2_S5_S5_x.eh
0x0002DEEC	0x00000030	[ 13] __ZNSt8_Rb_treeIxSt4pairIKxSt3setIiSt4lessIiESaIiEEESt10_Select1stIS7_ES3_IxESaIS7_EE8_M_eraseEPSt13_Rb_tree_nodeIS7_E.eh
0x0002DF1C	0x00000030	[ 13] __ZN10CUDTUnitedC2Ev.eh
0x0002DF4C	0x00000030	[ 13] __ZN10CUDTUnitedD2Ev.eh
0x0002DF7C	0x00000030	[ 13] __ZN10CUDTUnited6listenEiRKi.eh
0x0002DFAC	0x00000030	[ 13] __ZN4CUDT6listenEii.eh
0x0002DFDC	0x00000030	[ 13] __ZN10CUDTSocketD2Ev.eh
0x0002E00C	0x00000030	[ 13] __ZN10CUDTUnited9newSocketERKiS1_.eh
0x0002E03C	0x00000030	[ 13] __ZN4CUDT6socketEiii.eh
0x0002E06C	0x00000030	[ 13] __ZNSt8_Rb_treeIxSt4pairIKxSt3setIiSt4lessIiESaIiEEESt10_Select1stIS7_ES3_IxESaIS7_EE9_M_insertEPSt18_Rb_tree_node_baseSE_RKS7_.eh
0x0002E09C	0x00000030	[ 13] __ZNSt8_Rb_treeIxSt4pairIKxSt3setIiSt4lessIiESaIiEEESt10_Select1stIS7_ES3_IxESaIS7_EE16_M_insert_uniqueERKS7_.eh
0x0002E0CC	0x00000030	[ 13] __ZNSt8_Rb_treeIxSt4pairIKxSt3setIiSt4lessIiESaIiEEESt10_Select1stIS7_ES3_IxESaIS7_EE16_M_insert_uniqueESt17_Rb_tree_iteratorIS7_ERKS7_.eh
0x0002E0FC	0x00000030	[ 13] __ZNSt8_Rb_treeIiiSt9_IdentityIiESt4lessIiESaIiEE9_M_insertEPKSt18_Rb_tree_node_baseS8_RKi.eh
0x0002E12C	0x00000030	[ 13] __ZNSt8_Rb_treeIiiSt9_IdentityIiESt4lessIiESaIiEE16_M_insert_uniqueESt23_Rb_tree_const_iteratorIiERKi.eh
0x0002E15C	0x00000030	[ 13] __ZN10CUDTUnited6acceptEiP8sockaddrPi.eh
0x0002E18C	0x00000030	[ 13] __ZN4CUDT6acceptEiP8sockaddrPi.eh
0x0002E1BC	0x00000030	[ 13] __ZN10CUDTUnited6selectEPSt3setIiSt4lessIiESaIiEES5_S5_PK7timeval.eh
0x0002E1EC	0x00000030	[ 13] __ZN4CUDT6selectEiPSt3setIiSt4lessIiESaIiEES5_S5_PK7timeval.eh
0x0002E21C	0x00000030	[ 13] __ZN10CUDTUnited12removeSocketEi.eh
0x0002E24C	0x00000030	[ 13] __ZN10CUDTUnited18checkBrokenSocketsEv.eh
0x0002E27C	0x00000030	[ 13] __ZN10CUDTUnited14garbageCollectEPv.eh
0x0002E2AC	0x00000030	[ 13] __ZN10CUDTUnited13newConnectionEiPK8sockaddrP10CHandShake.eh
0x0002E2DC	0x00000020	[ 14] CIE
0x0002E2FC	0x0000002C	[ 14] _UDT_GetSocketID.eh
0x0002E328	0x0000002C	[ 14] _UDT_SetSocketID.eh
0x0002E354	0x00000030	[ 14] _UDT_InitFieldMonitor.eh
0x0002E384	0x00000030	[ 14] _UDT_InitFieldRefAll.eh
0x0002E3B4	0x00000030	[ 14] __ZSt6__findIN9__gnu_cxx17__normal_iteratorIPiSt6vectorIiSaIiEEEElET_S7_S7_RKT0_St26random_access_iterator_tag.eh
0x0002E3E4	0x00000030	[ 14] _UDT_InitMethodRefAll.eh
0x0002E414	0x00000030	[ 14] _X_InitMethodRef.eh
0x0002E444	0x00000030	[ 14] _XXX_ThrowSocketExceptionMessage.eh
0x0002E474	0x00000030	[ 14] _X_InitClassReference.eh
0x0002E4A4	0x00000030	[ 14] _UDT_InitClassRefAll.eh
0x0002E4D4	0x0000002C	[ 14] _Java_com_barchart_udt_SocketUDT_testCrashJVM0.eh
0x0002E500	0x00000028	[ 14] _Java_com_barchart_udt_SocketUDT_clearError0.eh
0x0002E528	0x00000028	[ 14] _Java_com_barchart_udt_SocketUDT_getErrorCode0.eh
0x0002E550	0x00000028	[ 14] __ZN7JNIEnv_14CallLongMethodEP8_jobjectP10_jmethodIDz.eh
0x0002E578	0x00000028	[ 14] __ZN7JNIEnv_13CallIntMethodEP8_jobjectP10_jmethodIDz.eh
0x0002E5A0	0x00000028	[ 14] __ZN7JNIEnv_17CallBooleanMethodEP8_jobjectP10_jmethodIDz.eh
0x0002E5C8	0x00000028	[ 14] __ZN7JNIEnv_16CallObjectMethodEP8_jobjectP10_jmethodIDz.eh
0x0002E5F0	0x00000030	[ 14] _Java_com_barchart_udt_SocketUDT_testIterateSet0.eh
0x0002E620	0x00000028	[ 14] __ZN7JNIEnv_9NewObjectEP7_jclassP10_jmethodIDz.eh
0x0002E648	0x00000030	[ 14] _UDT_NewExceptionUDT.eh
0x0002E678	0x00000030	[ 14] _UDT_ThrowExceptionUDT_ErrorInfo.eh
0x0002E6A8	0x00000030	[ 14] _Java_com_barchart_udt_SocketUDT_testInvalidClose0.eh
0x0002E6D8	0x00000030	[ 14] _Java_com_barchart_udt_SocketUDT_initInstance1.eh
0x0002E708	0x00000030	[ 14] _UDT_ThrowExceptionUDT_Message.eh
0x0002E738	0x00000030	[ 14] _X_IsValidRange.eh
0x0002E768	0x0000002C	[ 14] _UDT_NewLingerUDT.eh
0x0002E794	0x00000030	[ 14] _X_NewInetAddress.eh
0x0002E7C4	0x0000002C	[ 14] _X_NewLong.eh
0x0002E7F0	0x0000002C	[ 14] _X_NewInteger.eh
0x0002E81C	0x0000002C	[ 14] _X_NewBoolean.eh
0x0002E848	0x00000030	[ 14] _UDT_CopySetToArray.eh
0x0002E878	0x00000030	[ 14] _UDT_CopyArrayToSet.eh
0x0002E8A8	0x00000030	[ 14] _UDT_ReturnSendError.eh
0x0002E8D8	0x00000030	[ 14] _UDT_ReturnReceiveError.eh
0x0002E908	0x00000030	[ 14] _Java_com_barchart_udt_SocketUDT_receive2.eh
0x0002E938	0x00000030	[ 14] _Java_com_barchart_udt_SocketUDT_listen0.eh
0x0002E968	0x0000002C	[ 14] _UDT_IsSocketOpen.eh
0x0002E994	0x00000028	[ 14] _Java_com_barchart_udt_SocketUDT_isOpen0.eh
0x0002E9BC	0x00000030	[ 14] _Java_com_barchart_udt_SocketUDT_close0.eh
0x0002E9EC	0x00000030	[ 14] _Java_com_barchart_udt_SocketUDT_initInstance0.eh
0x0002EA1C	0x00000030	[ 14] _Java_com_barchart_udt_SocketUDT_stopClass0.eh
0x0002EA4C	0x00000030	[ 14] _Java_com_barchart_udt_SocketUDT_initClass0.eh
0x0002EA7C	0x00000030	[ 14] _X_IsSockaddrEqualsInetSocketAddress.eh
0x0002EAAC	0x00000030	[ 14] _X_NewInetSocketAddress.eh
0x0002EADC	0x00000030	[ 14] _X_ConvertInetSocketAddressToSockaddr.eh
0x0002EB0C	0x0000002C	[ 14] _X_InitSockAddr.eh
0x0002EB38	0x00000030	[ 14] _Java_com_barchart_udt_SocketUDT_connect0.eh
0x0002EB68	0x00000030	[ 14] _Java_com_barchart_udt_SocketUDT_bind0.eh
0x0002EB98	0x00000030	[ 14] _Java_com_barchart_udt_SocketUDT_receive0.eh
0x0002EBC8	0x00000030	[ 14] _X_ConvertSockaddrToInetSocketAddress.eh
0x0002EBF8	0x00000030	[ 14] _Java_com_barchart_udt_SocketUDT_updateMonitor0.eh
0x0002EC28	0x00000030	[ 14] _Java_com_barchart_udt_SocketUDT_hasLoadedLocalSocketAddress.eh
0x0002EC58	0x00000030	[ 14] _Java_com_barchart_udt_SocketUDT_hasLoadedRemoteSocketAddress.eh
0x0002EC88	0x00000030	[ 14] _Java_com_barchart_udt_SocketUDT_testGetSetArray0.eh
0x0002ECB8	0x00000030	[ 14] _Java_com_barchart_udt_SocketUDT_getOption0.eh
0x0002ECE8	0x00000030	[ 14] _Java_com_barchart_udt_SocketUDT_accept0.eh
0x0002ED18	0x00000030	[ 14] _Java_com_barchart_udt_SocketUDT_setOption0.eh
0x0002ED48	0x00000030	[ 14] _Java_com_barchart_udt_SocketUDT_testFillArray0.eh
0x0002ED78	0x00000030	[ 14] _Java_com_barchart_udt_SocketUDT_testIterateArray0.eh
0x0002EDA8	0x00000030	[ 14] _Java_com_barchart_udt_SocketUDT_send1.eh
0x0002EDD8	0x00000030	[ 14] _Java_com_barchart_udt_SocketUDT_getErrorMessage0.eh
0x0002EE08	0x00000030	[ 14] _Java_com_barchart_udt_SocketUDT_send0.eh
0x0002EE38	0x00000030	[ 14] _Java_com_barchart_udt_SocketUDT_receive1.eh
0x0002EE68	0x00000030	[ 14] _Java_com_barchart_udt_SocketUDT_testFillBuffer0.eh
0x0002EE98	0x00000030	[ 14] _Java_com_barchart_udt_SocketUDT_testDirectIntBufferAccess0.eh
0x0002EEC8	0x00000030	[ 14] _Java_com_barchart_udt_SocketUDT_testDirectByteBufferAccess0.eh
0x0002EEF8	0x00000030	[ 14] _Java_com_barchart_udt_SocketUDT_send2.eh
0x0002EF28	0x00000030	[ 14] _Java_com_barchart_udt_SocketUDT_selectEx1.eh
0x0002EF58	0x00000030	[ 14] _Java_com_barchart_udt_SocketUDT_selectEx0.eh
0x0002EF88	0x00000030	[ 14] _Java_com_barchart_udt_SocketUDT_select1.eh
0x0002EFB8	0x00000030	[ 14] _Java_com_barchart_udt_SocketUDT_select0.eh
0x0002F000	0x00000004	[  7] initializer$0
0x0002F004	0x00000004	[  8] initializer$0
0x0002F008	0x00000004	[  0] dyld_stub_binder$non_lazy_pointer
0x0002F00C	0x00000004	[  0] none
0x0002F010	0x00000004	[  1] ___gxx_personality_v0$non_lazy_ptr
0x0002F014	0x00000004	[  2] __ZN7CPacket13m_iPktHdrSizeE$non_lazy_ptr
0x0002F018	0x00000004	[  2] __ZN13CUDTExceptionD1Ev$non_lazy_ptr
0x0002F01C	0x00000004	[  2] __ZTI13CUDTException$non_lazy_ptr
0x0002F020	0x00000004	[  4] ___stack_chk_guard$non_lazy_ptr
0x0002F024	0x00000004	[  5] __ZN6CSeqNo11m_iMaxSeqNoE$non_lazy_ptr
0x0002F028	0x00000004	[  5] __ZN6CSeqNo10m_iSeqNoTHE$non_lazy_ptr
0x0002F02C	0x00000004	[  7] __ZN10CHandShake14m_iContentSizeE$non_lazy_ptr
0x0002F030	0x00000004	[  7] ___dso_handle$non_lazy_ptr
0x0002F034	0x00000004	[  7] __ZTV10CCCFactoryI6CUDTCCE$non_lazy_ptr
0x0002F038	0x00000004	[  7] __ZTV17CCCVirtualFactory$non_lazy_ptr
0x0002F03C	0x00000004	[  7] __ZN13CUDTException5EFILEE$non_lazy_ptr
0x0002F040	0x00000004	[  8] __ZNSs4_Rep20_S_empty_rep_storageE$non_lazy_ptr
0x0002F044	0x00000004	[ 10] __ZN4CUDT14m_iSYNIntervalE$non_lazy_ptr
0x0002F048	0x00000004	[ 12] __ZN6CMsgNo11m_iMaxMsgNoE$non_lazy_ptr
0x0002F04C	0x00000004	[ 13] __ZN4CUDT12INVALID_SOCKE$non_lazy_ptr
0x0002F050	0x00000004	[ 13] __ZN4CUDT5ERRORE$non_lazy_ptr
0x0002F054	0x00000004	[ 13] __ZN10CUDTUnited10TLSDestroyEPv$non_lazy_ptr
0x0002F058	0x00000004	[ 13] __ZTISt9bad_alloc$non_lazy_ptr
0x0002F05C	0x00000004	[ 13] __ZN4CUDT11s_UDTUnitedE$non_lazy_ptr
0x0002F060	0x00000004	[ 14] __ZN13CUDTException9EASYNCRCVE$non_lazy_ptr
0x0002F064	0x00000004	[ 14] __ZN3UDT12INVALID_SOCKE$non_lazy_ptr
0x0002F068	0x00000004	[ 14] __ZN13CUDTException9EASYNCSNDE$non_lazy_ptr
0x0002F06C	0x00000004	[ 14] __ZN3UDT5ERRORE$non_lazy_ptr
0x0002F070	0x00000004	[  0] __Unwind_Resume$lazy_pointer
0x0002F074	0x00000004	[  0] __ZN7JNIEnv_13CallIntMethodEP8_jobjectP10_jmethodIDz$lazy_pointer
0x0002F078	0x00000004	[  0] __ZN7JNIEnv_14CallLongMethodEP8_jobjectP10_jmethodIDz$lazy_pointer
0x0002F07C	0x00000004	[  0] __ZN7JNIEnv_16CallObjectMethodEP8_jobjectP10_jmethodIDz$lazy_pointer
0x0002F080	0x00000004	[  0] __ZN7JNIEnv_17CallBooleanMethodEP8_jobjectP10_jmethodIDz$lazy_pointer
0x0002F084	0x00000004	[  0] __ZN7JNIEnv_9NewObjectEP7_jclassP10_jmethodIDz$lazy_pointer
0x0002F088	0x00000004	[  0] __ZNSi4readEPci$lazy_pointer
0x0002F08C	0x00000004	[  0] __ZNSi5seekgESt4fposI11__mbstate_tE$lazy_pointer
0x0002F090	0x00000004	[  0] __ZNSo5seekpESt4fposI11__mbstate_tE$lazy_pointer
0x0002F094	0x00000004	[  0] __ZNSo5writeEPKci$lazy_pointer
0x0002F098	0x00000004	[  0] __ZNSs4_Rep10_M_destroyERKSaIcE$lazy_pointer
0x0002F09C	0x00000004	[  0] __ZNSs6appendEPKcm$lazy_pointer
0x0002F0A0	0x00000004	[  0] __ZNSs6assignEPKcm$lazy_pointer
0x0002F0A4	0x00000004	[  0] __ZNSs6assignERKSs$lazy_pointer
0x0002F0A8	0x00000004	[  0] __ZNSt11_Deque_baseIP7CPacketSaIS1_EE15_M_create_nodesEPPS1_S5_$lazy_pointer
0x0002F0AC	0x00000004	[  0] __ZNSt11_Deque_baseIP7CPacketSaIS1_EE16_M_destroy_nodesEPPS1_S5_$lazy_pointer
0x0002F0B0	0x00000004	[  0] __ZNSt11_Deque_baseIP7CPacketSaIS1_EE17_M_initialize_mapEm$lazy_pointer
0x0002F0B4	0x00000004	[  0] __ZNSt11_Deque_baseIP7CPacketSaIS1_EED2Ev$lazy_pointer
0x0002F0B8	0x00000004	[  0] __ZNSt5dequeIP7CPacketSaIS1_EE16_M_pop_front_auxEv$lazy_pointer
0x0002F0BC	0x00000004	[  0] __ZNSt5dequeIP7CPacketSaIS1_EE16_M_push_back_auxERKS1_$lazy_pointer
0x0002F0C0	0x00000004	[  0] __ZNSt5dequeIP7CPacketSaIS1_EE17_M_reallocate_mapEmb$lazy_pointer
0x0002F0C4	0x00000004	[  0] __ZNSt6vectorIN16CRendezvousQueue3CRLESaIS1_EE13_M_insert_auxEN9__gnu_cxx17__normal_iteratorIPS1_S3_EERKS1_$lazy_pointer
0x0002F0C8	0x00000004	[  0] __ZNSt6vectorIN16CRendezvousQueue3CRLESaIS1_EE5eraseEN9__gnu_cxx17__normal_iteratorIPS1_S3_EE$lazy_pointer
0x0002F0CC	0x00000004	[  0] __ZNSt6vectorIN16CRendezvousQueue3CRLESaIS1_EE6insertEN9__gnu_cxx17__normal_iteratorIPS1_S3_EERKS1_$lazy_pointer
0x0002F0D0	0x00000004	[  0] __ZNSt6vectorIP10CUDTSocketSaIS1_EE13_M_insert_auxEN9__gnu_cxx17__normal_iteratorIPS1_S3_EERKS1_$lazy_pointer
0x0002F0D4	0x00000004	[  0] __ZNSt6vectorIP10CUDTSocketSaIS1_EE6insertEN9__gnu_cxx17__normal_iteratorIPS1_S3_EERKS1_$lazy_pointer
0x0002F0D8	0x00000004	[  0] __ZNSt6vectorIP4CUDTSaIS1_EE13_M_insert_auxEN9__gnu_cxx17__normal_iteratorIPS1_S3_EERKS1_$lazy_pointer
0x0002F0DC	0x00000004	[  0] __ZNSt6vectorIP4CUDTSaIS1_EE5eraseEN9__gnu_cxx17__normal_iteratorIPS1_S3_EE$lazy_pointer
0x0002F0E0	0x00000004	[  0] __ZNSt6vectorIP4CUDTSaIS1_EE6insertEN9__gnu_cxx17__normal_iteratorIPS1_S3_EERKS1_$lazy_pointer
0x0002F0E4	0x00000004	[  0] __ZNSt6vectorIiSaIiEE13_M_insert_auxEN9__gnu_cxx17__normal_iteratorIPiS1_EERKi$lazy_pointer
0x0002F0E8	0x00000004	[  0] __ZNSt8_Rb_treeIP10CInfoBlockS1_St9_IdentityIS1_E7CIPCompSaIS1_EE11lower_boundERKS1_$lazy_pointer
0x0002F0EC	0x00000004	[  0] __ZNSt8_Rb_treeIP10CInfoBlockS1_St9_IdentityIS1_E7CIPCompSaIS1_EE11upper_boundERKS1_$lazy_pointer
0x0002F0F0	0x00000004	[  0] __ZNSt8_Rb_treeIP10CInfoBlockS1_St9_IdentityIS1_E7CIPCompSaIS1_EE16_M_insert_uniqueERKS1_$lazy_pointer
0x0002F0F4	0x00000004	[  0] __ZNSt8_Rb_treeIP10CInfoBlockS1_St9_IdentityIS1_E7CIPCompSaIS1_EE4findERKS1_$lazy_pointer
0x0002F0F8	0x00000004	[  0] __ZNSt8_Rb_treeIP10CInfoBlockS1_St9_IdentityIS1_E7CIPCompSaIS1_EE5eraseERKS1_$lazy_pointer
0x0002F0FC	0x00000004	[  0] __ZNSt8_Rb_treeIP10CInfoBlockS1_St9_IdentityIS1_E7CIPCompSaIS1_EE5eraseESt17_Rb_tree_iteratorIS1_ES8_$lazy_pointer
0x0002F100	0x00000004	[  0] __ZNSt8_Rb_treeIP10CInfoBlockS1_St9_IdentityIS1_E7CIPCompSaIS1_EE8_M_eraseEPSt13_Rb_tree_nodeIS1_E$lazy_pointer
0x0002F104	0x00000004	[  0] __ZNSt8_Rb_treeIP10CInfoBlockS1_St9_IdentityIS1_E7CIPCompSaIS1_EE9_M_insertEPSt18_Rb_tree_node_baseS8_RKS1_$lazy_pointer
0x0002F108	0x00000004	[  0] __ZNSt8_Rb_treeIP10CInfoBlockS1_St9_IdentityIS1_E7CTSCompSaIS1_EE11lower_boundERKS1_$lazy_pointer
0x0002F10C	0x00000004	[  0] __ZNSt8_Rb_treeIP10CInfoBlockS1_St9_IdentityIS1_E7CTSCompSaIS1_EE11upper_boundERKS1_$lazy_pointer
0x0002F110	0x00000004	[  0] __ZNSt8_Rb_treeIP10CInfoBlockS1_St9_IdentityIS1_E7CTSCompSaIS1_EE16_M_insert_uniqueERKS1_$lazy_pointer
0x0002F114	0x00000004	[  0] __ZNSt8_Rb_treeIP10CInfoBlockS1_St9_IdentityIS1_E7CTSCompSaIS1_EE5eraseERKS1_$lazy_pointer
0x0002F118	0x00000004	[  0] __ZNSt8_Rb_treeIP10CInfoBlockS1_St9_IdentityIS1_E7CTSCompSaIS1_EE5eraseESt17_Rb_tree_iteratorIS1_ES8_$lazy_pointer
0x0002F11C	0x00000004	[  0] __ZNSt8_Rb_treeIP10CInfoBlockS1_St9_IdentityIS1_E7CTSCompSaIS1_EE8_M_eraseEPSt13_Rb_tree_nodeIS1_E$lazy_pointer
0x0002F120	0x00000004	[  0] __ZNSt8_Rb_treeIP10CInfoBlockS1_St9_IdentityIS1_E7CTSCompSaIS1_EE9_M_insertEPSt18_Rb_tree_node_baseS8_RKS1_$lazy_pointer
0x0002F124	0x00000004	[  0] __ZNSt8_Rb_treeIiSt4pairIKi10CEPollDescESt10_Select1stIS3_ESt4lessIiESaIS3_EE11lower_boundERS1_$lazy_pointer
0x0002F128	0x00000004	[  0] __ZNSt8_Rb_treeIiSt4pairIKi10CEPollDescESt10_Select1stIS3_ESt4lessIiESaIS3_EE16_M_insert_uniqueERKS3_$lazy_pointer
0x0002F12C	0x00000004	[  0] __ZNSt8_Rb_treeIiSt4pairIKi10CEPollDescESt10_Select1stIS3_ESt4lessIiESaIS3_EE16_M_insert_uniqueESt17_Rb_tree_iteratorIS3_ERKS3_$lazy_pointer
0x0002F130	0x00000004	[  0] __ZNSt8_Rb_treeIiSt4pairIKi10CEPollDescESt10_Select1stIS3_ESt4lessIiESaIS3_EE4findERS1_$lazy_pointer
0x0002F134	0x00000004	[  0] __ZNSt8_Rb_treeIiSt4pairIKi10CEPollDescESt10_Select1stIS3_ESt4lessIiESaIS3_EE8_M_eraseEPSt13_Rb_tree_nodeIS3_E$lazy_pointer
0x0002F138	0x00000004	[  0] __ZNSt8_Rb_treeIiSt4pairIKi10CEPollDescESt10_Select1stIS3_ESt4lessIiESaIS3_EE9_M_insertEPSt18_Rb_tree_node_baseSB_RKS3_$lazy_pointer
0x0002F13C	0x00000004	[  0] __ZNSt8_Rb_treeIiSt4pairIKi12CMultiplexerESt10_Select1stIS3_ESt4lessIiESaIS3_EE11lower_boundERS1_$lazy_pointer
0x0002F140	0x00000004	[  0] __ZNSt8_Rb_treeIiSt4pairIKi12CMultiplexerESt10_Select1stIS3_ESt4lessIiESaIS3_EE16_M_insert_uniqueERKS3_$lazy_pointer
0x0002F144	0x00000004	[  0] __ZNSt8_Rb_treeIiSt4pairIKi12CMultiplexerESt10_Select1stIS3_ESt4lessIiESaIS3_EE16_M_insert_uniqueESt17_Rb_tree_iteratorIS3_ERKS3_$lazy_pointer
0x0002F148	0x00000004	[  0] __ZNSt8_Rb_treeIiSt4pairIKi12CMultiplexerESt10_Select1stIS3_ESt4lessIiESaIS3_EE4findERS1_$lazy_pointer
0x0002F14C	0x00000004	[  0] __ZNSt8_Rb_treeIiSt4pairIKi12CMultiplexerESt10_Select1stIS3_ESt4lessIiESaIS3_EE8_M_eraseEPSt13_Rb_tree_nodeIS3_E$lazy_pointer
0x0002F150	0x00000004	[  0] __ZNSt8_Rb_treeIiSt4pairIKi12CMultiplexerESt10_Select1stIS3_ESt4lessIiESaIS3_EE9_M_insertEPSt18_Rb_tree_node_baseSB_RKS3_$lazy_pointer
0x0002F154	0x00000004	[  0] __ZNSt8_Rb_treeIiSt4pairIKiP10CUDTSocketESt10_Select1stIS4_ESt4lessIiESaIS4_EE11lower_boundERS1_$lazy_pointer
0x0002F158	0x00000004	[  0] __ZNSt8_Rb_treeIiSt4pairIKiP10CUDTSocketESt10_Select1stIS4_ESt4lessIiESaIS4_EE11upper_boundERS1_$lazy_pointer
0x0002F15C	0x00000004	[  0] __ZNSt8_Rb_treeIiSt4pairIKiP10CUDTSocketESt10_Select1stIS4_ESt4lessIiESaIS4_EE16_M_insert_uniqueERKS4_$lazy_pointer
0x0002F160	0x00000004	[  0] __ZNSt8_Rb_treeIiSt4pairIKiP10CUDTSocketESt10_Select1stIS4_ESt4lessIiESaIS4_EE16_M_insert_uniqueESt17_Rb_tree_iteratorIS4_ERKS4_$lazy_pointer
0x0002F164	0x00000004	[  0] __ZNSt8_Rb_treeIiSt4pairIKiP10CUDTSocketESt10_Select1stIS4_ESt4lessIiESaIS4_EE4findERS1_$lazy_pointer
0x0002F168	0x00000004	[  0] __ZNSt8_Rb_treeIiSt4pairIKiP10CUDTSocketESt10_Select1stIS4_ESt4lessIiESaIS4_EE5eraseERS1_$lazy_pointer
0x0002F16C	0x00000004	[  0] __ZNSt8_Rb_treeIiSt4pairIKiP10CUDTSocketESt10_Select1stIS4_ESt4lessIiESaIS4_EE5eraseESt17_Rb_tree_iteratorIS4_ESC_$lazy_pointer
0x0002F170	0x00000004	[  0] __ZNSt8_Rb_treeIiSt4pairIKiP10CUDTSocketESt10_Select1stIS4_ESt4lessIiESaIS4_EE8_M_eraseEPSt13_Rb_tree_nodeIS4_E$lazy_pointer
0x0002F174	0x00000004	[  0] __ZNSt8_Rb_treeIiSt4pairIKiP10CUDTSocketESt10_Select1stIS4_ESt4lessIiESaIS4_EE9_M_insertEPSt18_Rb_tree_node_baseSC_RKS4_$lazy_pointer
0x0002F178	0x00000004	[  0] __ZNSt8_Rb_treeIiSt4pairIKiSt5queueIP7CPacketSt5dequeIS4_SaIS4_EEEESt10_Select1stIS9_ESt4lessIiESaIS9_EE11lower_boundERS1_$lazy_pointer
0x0002F17C	0x00000004	[  0] __ZNSt8_Rb_treeIiSt4pairIKiSt5queueIP7CPacketSt5dequeIS4_SaIS4_EEEESt10_Select1stIS9_ESt4lessIiESaIS9_EE16_M_insert_uniqueERKS9_$lazy_pointer
0x0002F180	0x00000004	[  0] __ZNSt8_Rb_treeIiSt4pairIKiSt5queueIP7CPacketSt5dequeIS4_SaIS4_EEEESt10_Select1stIS9_ESt4lessIiESaIS9_EE16_M_insert_uniqueESt17_Rb_tree_iteratorIS9_ERKS9_$lazy_pointer
0x0002F184	0x00000004	[  0] __ZNSt8_Rb_treeIiSt4pairIKiSt5queueIP7CPacketSt5dequeIS4_SaIS4_EEEESt10_Select1stIS9_ESt4lessIiESaIS9_EE4findERS1_$lazy_pointer
0x0002F188	0x00000004	[  0] __ZNSt8_Rb_treeIiSt4pairIKiSt5queueIP7CPacketSt5dequeIS4_SaIS4_EEEESt10_Select1stIS9_ESt4lessIiESaIS9_EE8_M_eraseEPSt13_Rb_tree_nodeIS9_E$lazy_pointer
0x0002F18C	0x00000004	[  0] __ZNSt8_Rb_treeIiSt4pairIKiSt5queueIP7CPacketSt5dequeIS4_SaIS4_EEEESt10_Select1stIS9_ESt4lessIiESaIS9_EE9_M_insertEPSt18_Rb_tree_node_baseSH_RKS9_$lazy_pointer
0x0002F190	0x00000004	[  0] __ZNSt8_Rb_treeIiiSt9_IdentityIiESt4lessIiESaIiEE11lower_boundERKi$lazy_pointer
0x0002F194	0x00000004	[  0] __ZNSt8_Rb_treeIiiSt9_IdentityIiESt4lessIiESaIiEE11upper_boundERKi$lazy_pointer
0x0002F198	0x00000004	[  0] __ZNSt8_Rb_treeIiiSt9_IdentityIiESt4lessIiESaIiEE16_M_insert_uniqueERKi$lazy_pointer
0x0002F19C	0x00000004	[  0] __ZNSt8_Rb_treeIiiSt9_IdentityIiESt4lessIiESaIiEE16_M_insert_uniqueESt23_Rb_tree_const_iteratorIiERKi$lazy_pointer
0x0002F1A0	0x00000004	[  0] __ZNSt8_Rb_treeIiiSt9_IdentityIiESt4lessIiESaIiEE5eraseERKi$lazy_pointer
0x0002F1A4	0x00000004	[  0] __ZNSt8_Rb_treeIiiSt9_IdentityIiESt4lessIiESaIiEE5eraseESt17_Rb_tree_iteratorIiES7_$lazy_pointer
0x0002F1A8	0x00000004	[  0] __ZNSt8_Rb_treeIiiSt9_IdentityIiESt4lessIiESaIiEE7_M_copyEPKSt13_Rb_tree_nodeIiEPS7_$lazy_pointer
0x0002F1AC	0x00000004	[  0] __ZNSt8_Rb_treeIiiSt9_IdentityIiESt4lessIiESaIiEE8_M_eraseEPSt13_Rb_tree_nodeIiE$lazy_pointer
0x0002F1B0	0x00000004	[  0] __ZNSt8_Rb_treeIiiSt9_IdentityIiESt4lessIiESaIiEE9_M_insertEPKSt18_Rb_tree_node_baseS8_RKi$lazy_pointer
0x0002F1B4	0x00000004	[  0] __ZNSt8_Rb_treeIiiSt9_IdentityIiESt4lessIiESaIiEE9_M_insertEPSt18_Rb_tree_node_baseS7_RKi$lazy_pointer
0x0002F1B8	0x00000004	[  0] __ZNSt8_Rb_treeIiiSt9_IdentityIiESt4lessIiESaIiEEaSERKS5_$lazy_pointer
0x0002F1BC	0x00000004	[  0] __ZNSt8_Rb_treeIxSt4pairIKxSt3setIiSt4lessIiESaIiEEESt10_Select1stIS7_ES3_IxESaIS7_EE11lower_boundERS1_$lazy_pointer
0x0002F1C0	0x00000004	[  0] __ZNSt8_Rb_treeIxSt4pairIKxSt3setIiSt4lessIiESaIiEEESt10_Select1stIS7_ES3_IxESaIS7_EE16_M_insert_uniqueERKS7_$lazy_pointer
0x0002F1C4	0x00000004	[  0] __ZNSt8_Rb_treeIxSt4pairIKxSt3setIiSt4lessIiESaIiEEESt10_Select1stIS7_ES3_IxESaIS7_EE16_M_insert_uniqueESt17_Rb_tree_iteratorIS7_ERKS7_$lazy_pointer
0x0002F1C8	0x00000004	[  0] __ZNSt8_Rb_treeIxSt4pairIKxSt3setIiSt4lessIiESaIiEEESt10_Select1stIS7_ES3_IxESaIS7_EE4findERS1_$lazy_pointer
0x0002F1CC	0x00000004	[  0] __ZNSt8_Rb_treeIxSt4pairIKxSt3setIiSt4lessIiESaIiEEESt10_Select1stIS7_ES3_IxESaIS7_EE8_M_eraseEPSt13_Rb_tree_nodeIS7_E$lazy_pointer
0x0002F1D0	0x00000004	[  0] __ZNSt8_Rb_treeIxSt4pairIKxSt3setIiSt4lessIiESaIiEEESt10_Select1stIS7_ES3_IxESaIS7_EE9_M_insertEPSt18_Rb_tree_node_baseSE_RKS7_$lazy_pointer
0x0002F1D4	0x00000004	[  0] __ZSt17__throw_bad_allocv$lazy_pointer
0x0002F1D8	0x00000004	[  0] __ZSt18_Rb_tree_decrementPKSt18_Rb_tree_node_base$lazy_pointer
0x0002F1DC	0x00000004	[  0] __ZSt18_Rb_tree_decrementPSt18_Rb_tree_node_base$lazy_pointer
0x0002F1E0	0x00000004	[  0] __ZSt18_Rb_tree_incrementPKSt18_Rb_tree_node_base$lazy_pointer
0x0002F1E4	0x00000004	[  0] __ZSt18_Rb_tree_incrementPSt18_Rb_tree_node_base$lazy_pointer
0x0002F1E8	0x00000004	[  0] __ZSt20__throw_length_errorPKc$lazy_pointer
0x0002F1EC	0x00000004	[  0] __ZSt28_Rb_tree_rebalance_for_erasePSt18_Rb_tree_node_baseRS_$lazy_pointer
0x0002F1F0	0x00000004	[  0] __ZSt29_Rb_tree_insert_and_rebalancebPSt18_Rb_tree_node_baseS0_RS_$lazy_pointer
0x0002F1F4	0x00000004	[  0] __ZSt6__findIN9__gnu_cxx17__normal_iteratorIPiSt6vectorIiSaIiEEEElET_S7_S7_RKT0_St26random_access_iterator_tag$lazy_pointer
0x0002F1F8	0x00000004	[  0] __ZSt9terminatev$lazy_pointer
0x0002F1FC	0x00000004	[  0] __ZdaPv$lazy_pointer
0x0002F200	0x00000004	[  0] __ZdlPv$lazy_pointer
0x0002F204	0x00000004	[  0] __Znam$lazy_pointer
0x0002F208	0x00000004	[  0] __Znwm$lazy_pointer
0x0002F20C	0x00000004	[  0] ___assert_rtn$lazy_pointer
0x0002F210	0x00000004	[  0] ___cxa_allocate_exception$lazy_pointer
0x0002F214	0x00000004	[  0] ___cxa_atexit$lazy_pointer
0x0002F218	0x00000004	[  0] ___cxa_begin_catch$lazy_pointer
0x0002F21C	0x00000004	[  0] ___cxa_end_catch$lazy_pointer
0x0002F220	0x00000004	[  0] ___cxa_free_exception$lazy_pointer
0x0002F224	0x00000004	[  0] ___cxa_get_exception_ptr$lazy_pointer
0x0002F228	0x00000004	[  0] ___cxa_rethrow$lazy_pointer
0x0002F22C	0x00000004	[  0] ___cxa_throw$lazy_pointer
0x0002F230	0x00000004	[  0] ___divdi3$lazy_pointer
0x0002F234	0x00000004	[  0] ___error$lazy_pointer
0x0002F238	0x00000004	[  0] ___moddi3$lazy_pointer
0x0002F23C	0x00000004	[  0] ___stack_chk_fail$lazy_pointer
0x0002F240	0x00000004	[  0] ___udivdi3$lazy_pointer
0x0002F244	0x00000004	[  0] ___umoddi3$lazy_pointer
0x0002F248	0x00000004	[  0] _bind$UNIX2003$lazy_pointer
0x0002F24C	0x00000004	[  0] _ceil$lazy_pointer
0x0002F250	0x00000004	[  0] _close$UNIX2003$lazy_pointer
0x0002F254	0x00000004	[  0] _free$lazy_pointer
0x0002F258	0x00000004	[  0] _freeaddrinfo$lazy_pointer
0x0002F25C	0x00000004	[  0] _getaddrinfo$lazy_pointer
0x0002F260	0x00000004	[  0] _getnameinfo$lazy_pointer
0x0002F264	0x00000004	[  0] _getpeername$UNIX2003$lazy_pointer
0x0002F268	0x00000004	[  0] _getsockname$UNIX2003$lazy_pointer
0x0002F26C	0x00000004	[  0] _getsockopt$lazy_pointer
0x0002F270	0x00000004	[  0] _gettimeofday$lazy_pointer
0x0002F274	0x00000004	[  0] _log10$lazy_pointer
0x0002F278	0x00000004	[  0] _malloc$lazy_pointer
0x0002F27C	0x00000004	[  0] _memcpy$lazy_pointer
0x0002F280	0x00000004	[  0] _memmove$lazy_pointer
0x0002F284	0x00000004	[  0] _memset$lazy_pointer
0x0002F288	0x00000004	[  0] _nanosleep$UNIX2003$lazy_pointer
0x0002F28C	0x00000004	[  0] _pow$lazy_pointer
0x0002F290	0x00000004	[  0] _printf$lazy_pointer
0x0002F294	0x00000004	[  0] _pthread_cond_broadcast$lazy_pointer
0x0002F298	0x00000004	[  0] _pthread_cond_destroy$lazy_pointer
0x0002F29C	0x00000004	[  0] _pthread_cond_init$UNIX2003$lazy_pointer
0x0002F2A0	0x00000004	[  0] _pthread_cond_signal$lazy_pointer
0x0002F2A4	0x00000004	[  0] _pthread_cond_timedwait$UNIX2003$lazy_pointer
0x0002F2A8	0x00000004	[  0] _pthread_cond_wait$UNIX2003$lazy_pointer
0x0002F2AC	0x00000004	[  0] _pthread_create$lazy_pointer
0x0002F2B0	0x00000004	[  0] _pthread_getspecific$lazy_pointer
0x0002F2B4	0x00000004	[  0] _pthread_join$UNIX2003$lazy_pointer
0x0002F2B8	0x00000004	[  0] _pthread_key_create$lazy_pointer
0x0002F2BC	0x00000004	[  0] _pthread_key_delete$lazy_pointer
0x0002F2C0	0x00000004	[  0] _pthread_mutex_destroy$lazy_pointer
0x0002F2C4	0x00000004	[  0] _pthread_mutex_init$lazy_pointer
0x0002F2C8	0x00000004	[  0] _pthread_mutex_lock$lazy_pointer
0x0002F2CC	0x00000004	[  0] _pthread_mutex_trylock$lazy_pointer
0x0002F2D0	0x00000004	[  0] _pthread_mutex_unlock$lazy_pointer
0x0002F2D4	0x00000004	[  0] _pthread_setspecific$lazy_pointer
0x0002F2D8	0x00000004	[  0] _puts$lazy_pointer
0x0002F2DC	0x00000004	[  0] _rand$lazy_pointer
0x0002F2E0	0x00000004	[  0] _recvmsg$UNIX2003$lazy_pointer
0x0002F2E4	0x00000004	[  0] _select$UNIX2003$lazy_pointer
0x0002F2E8	0x00000004	[  0] _sendmsg$UNIX2003$lazy_pointer
0x0002F2EC	0x00000004	[  0] _setsockopt$lazy_pointer
0x0002F2F0	0x00000004	[  0] _socket$lazy_pointer
0x0002F2F4	0x00000004	[  0] _sprintf$lazy_pointer
0x0002F2F8	0x00000004	[  0] _srand$lazy_pointer
0x0002F2FC	0x00000004	[  0] _strerror_r$lazy_pointer
0x0002F300	0x00000004	[  0] _strlen$lazy_pointer
0x0002F304	0x00000004	[  0] _usleep$UNIX2003$lazy_pointer
0x0002F320	0x00000018	[  7] __ZTV10CCCFactoryI6CUDTCCE
0x0002F338	0x0000000C	[  7] __ZTI10CCCFactoryI6CUDTCCE
0x0002F344	0x0000000C	[  7] __ZTI17CCCVirtualFactory
0x0002F350	0x00000018	[  7] __ZTV17CCCVirtualFactory
0x0002F368	0x0000001C	[  8] __ZTV13CUDTException
0x0002F384	0x00000008	[  8] __ZTI13CUDTException
0x0002F3A0	0x00000040	[ 10] __ZTV6CUDTCC
0x0002F3E0	0x00000030	[ 10] __ZTV3CCC
0x0002F410	0x0000000C	[ 10] __ZTI6CUDTCC
0x0002F41C	0x00000008	[ 10] __ZTI3CCC
0x0002F440	0x0000002C	[  8] __ZN6CTimer11m_EventLockE
0x0002F46C	0x0000001C	[  8] __ZN6CTimer11m_EventCondE
0x0002F4A0	0x000001E8	[  7] __ZN4CUDT11s_UDTUnitedE
0x0002F688	0x00000008	[  8] __ZN6CTimer17s_ullCPUFrequencyE
0x0002F690	0x00000004	[ 14] __ZL21jdk_clsSet_iteratorID
0x0002F694	0x00000004	[ 14] __ZL22jdk_clsIterator_nextID
0x0002F698	0x00000004	[ 14] __ZL25jdk_clsIterator_hasNextID
0x0002F69C	0x00000004	[ 14] __ZL13udts_SocketID
0x0002F6A0	0x00000004	[ 14] __ZL21udts_IsSelectedReadID
0x0002F6A4	0x00000004	[ 14] __ZL22udts_IsSelectedWriteID
0x0002F6A8	0x00000004	[ 14] __ZL26udts_IsSelectedExceptionID
0x0002F6AC	0x00000004	[ 14] __ZL14udts_MonitorID
0x0002F6B0	0x00000004	[ 14] __ZL16udtm_msTimeStamp
0x0002F6B4	0x00000004	[ 14] __ZL17udtm_pktSentTotal
0x0002F6B8	0x00000004	[ 14] __ZL17udtm_pktRecvTotal
0x0002F6BC	0x00000004	[ 14] __ZL20udtm_pktSndLossTotal
0x0002F6C0	0x00000004	[ 14] __ZL20udtm_pktRcvLossTotal
0x0002F6C4	0x00000004	[ 14] __ZL20udtm_pktRetransTotal
0x0002F6C8	0x00000004	[ 14] __ZL20udtm_pktSentACKTotal
0x0002F6CC	0x00000004	[ 14] __ZL20udtm_pktRecvACKTotal
0x0002F6D0	0x00000004	[ 14] __ZL20udtm_pktSentNAKTotal
0x0002F6D4	0x00000004	[ 14] __ZL20udtm_pktRecvNAKTotal
0x0002F6D8	0x00000004	[ 14] __ZL23udtm_usSndDurationTotal
0x0002F6DC	0x00000004	[ 14] __ZL12udtm_pktSent
0x0002F6E0	0x00000004	[ 14] __ZL12udtm_pktRecv
0x0002F6E4	0x00000004	[ 14] __ZL15udtm_pktSndLoss
0x0002F6E8	0x00000004	[ 14] __ZL15udtm_pktRcvLoss
0x0002F6EC	0x00000004	[ 14] __ZL15udtm_pktRetrans
0x0002F6F0	0x00000004	[ 14] __ZL15udtm_pktSentACK
0x0002F6F4	0x00000004	[ 14] __ZL15udtm_pktRecvACK
0x0002F6F8	0x00000004	[ 14] __ZL15udtm_pktSentNAK
0x0002F6FC	0x00000004	[ 14] __ZL15udtm_pktRecvNAK
0x0002F700	0x00000004	[ 14] __ZL17udtm_mbpsSendRate
0x0002F704	0x00000004	[ 14] __ZL17udtm_mbpsRecvRate
0x0002F708	0x00000004	[ 14] __ZL18udtm_usSndDuration
0x0002F70C	0x00000004	[ 14] __ZL19udtm_usPktSndPeriod
0x0002F710	0x00000004	[ 14] __ZL18udtm_pktFlowWindow
0x0002F714	0x00000004	[ 14] __ZL24udtm_pktCongestionWindow
0x0002F718	0x00000004	[ 14] __ZL18udtm_pktFlightSize
0x0002F71C	0x00000004	[ 14] __ZL10udtm_msRTT
0x0002F720	0x00000004	[ 14] __ZL18udtm_mbpsBandwidth
0x0002F724	0x00000004	[ 14] __ZL20udtm_byteAvailSndBuf
0x0002F728	0x00000004	[ 14] __ZL20udtm_byteAvailRcvBuf
0x0002F72C	0x00000004	[ 14] __ZL14jdk_clsBoolean
0x0002F730	0x00000004	[ 14] __ZL14jdk_clsInteger
0x0002F734	0x00000004	[ 14] __ZL16udt_clsLingerUDT
0x0002F738	0x00000004	[ 14] __ZL11jdk_clsLong
0x0002F73C	0x00000004	[ 14] __ZL17udt_clsFactoryUDT
0x0002F740	0x00000004	[ 14] __ZL25udts_LocalSocketAddressID
0x0002F744	0x00000004	[ 14] __ZL26udts_RemoteSocketAddressID
0x0002F748	0x00000004	[ 14] __ZL11udts_TypeID
0x0002F74C	0x00000004	[ 14] __ZL24udt_clsSocketUDT_initID1
0x0002F750	0x00000004	[ 14] __ZL16udt_clsSocketUDT
0x0002F754	0x00000004	[ 14] __ZL21jdk_clsBoolean_initID
0x0002F758	0x00000004	[ 14] __ZL21jdk_clsInteger_initID
0x0002F75C	0x00000004	[ 14] __ZL18jdk_clsLong_initID
0x0002F760	0x00000004	[ 14] __ZL19jdk_clsInet4Address
0x0002F764	0x00000004	[ 14] __ZL26jdk_clsInet4Address_initID
0x0002F768	0x00000004	[ 14] __ZL24jdk_clsInetSocketAddress
0x0002F76C	0x00000004	[ 14] __ZL31jdk_clsInetSocketAddress_initID
0x0002F770	0x00000004	[ 14] __ZL10jdk_clsSet
0x0002F774	0x00000004	[ 14] __ZL16jdk_clsSet_addID
0x0002F778	0x00000004	[ 14] __ZL21jdk_clsSet_containsID
0x0002F77C	0x00000004	[ 14] __ZL15jdk_clsIterator
0x0002F780	0x00000004	[ 14] __ZL19udt_clsExceptionUDT
0x0002F784	0x00000004	[ 14] __ZL27udt_clsExceptionUDT_initID0
0x0002F788	0x00000004	[ 14] __ZL23udt_clsLingerUDT_initID
0x0002F78C	0x00000004	[ 14] __ZL12ia_AddressID
0x0002F790	0x00000004	[ 14] __ZL17isa_InetAddressID
0x0002F794	0x00000004	[ 14] __ZL10isa_PortID
0x0002F798	0x00000004	[ 14] __ZL14udt_clsTypeUDT
0x0002F79C	0x00000004	[ 14] __ZL15udtt_TypeCodeID
0x0002F7A0	0x00000004	[ 14] __ZL19jdk_clsInet6Address
0x0002F7A4	0x00000004	[ 14] __ZL22jdk_clsSocketException
0x0002F7A8	0x00000004	[ 14] __ZL17udt_clsMonitorUDT
