Archive member included because of file (symbol)

/usr/lib/gcc/x86_64-linux-gnu/4.4.3/32/libgcc.a(_divdi3.o)
                              native/jni/com_barchart_udt_SocketUDT.o (__divdi3)
/usr/lib/gcc/x86_64-linux-gnu/4.4.3/32/libgcc.a(_moddi3.o)
                              native/jni/com_barchart_udt_SocketUDT.o (__moddi3)
/usr/lib/gcc/x86_64-linux-gnu/4.4.3/32/libgcc.a(_udivdi3.o)
                              native/udt/src/queue.o (__udivdi3)
/usr/lib/gcc/x86_64-linux-gnu/4.4.3/32/libgcc.a(_umoddi3.o)
                              native/udt/src/queue.o (__umoddi3)
/usr/lib/gcc/x86_64-linux-gnu/4.4.3/32/libgcc_eh.a(unwind-dw2.o)
                              native/udt/src/queue.o (_Unwind_Resume)
/usr/lib/gcc/x86_64-linux-gnu/4.4.3/32/libgcc_eh.a(unwind-dw2-fde-glibc.o)
                              /usr/lib/gcc/x86_64-linux-gnu/4.4.3/32/libgcc_eh.a(unwind-dw2.o) (_Unwind_Find_FDE)
/usr/lib32/libc_nonshared.a(stack_chk_fail_local.oS)
                              native/udt/src/md5.o (__stack_chk_fail_local)

Discarded input sections

 .note.GNU-stack
                0x0000000000000000        0x0 /usr/lib/gcc/x86_64-linux-gnu/4.4.3/../../../../lib32/crti.o
 .gnu_debuglink
                0x0000000000000000        0xc /usr/lib/gcc/x86_64-linux-gnu/4.4.3/../../../../lib32/crti.o
 .group         0x0000000000000000        0x8 /usr/lib/gcc/x86_64-linux-gnu/4.4.3/32/crtbeginS.o
 .note.GNU-stack
                0x0000000000000000        0x0 /usr/lib/gcc/x86_64-linux-gnu/4.4.3/32/crtbeginS.o
 .group         0x0000000000000000        0x8 native/udt/src/window.o
 .group         0x0000000000000000        0x8 native/udt/src/window.o
 .text.__i686.get_pc_thunk.bx
                0x0000000000000000        0x4 native/udt/src/window.o
 .note.GNU-stack
                0x0000000000000000        0x0 native/udt/src/window.o
 .group         0x0000000000000000        0x8 native/udt/src/queue.o
 .group         0x0000000000000000        0x8 native/udt/src/queue.o
 .group         0x0000000000000000        0x8 native/udt/src/queue.o
 .group         0x0000000000000000        0x8 native/udt/src/queue.o
 .group         0x0000000000000000        0x8 native/udt/src/queue.o
 .group         0x0000000000000000        0x8 native/udt/src/queue.o
 .group         0x0000000000000000        0x8 native/udt/src/queue.o
 .group         0x0000000000000000        0x8 native/udt/src/queue.o
 .group         0x0000000000000000        0x8 native/udt/src/queue.o
 .group         0x0000000000000000        0x8 native/udt/src/queue.o
 .data.DW.ref.__gxx_personality_v0
                0x0000000000000000        0x4 native/udt/src/queue.o
 .text.__i686.get_pc_thunk.bx
                0x0000000000000000        0x4 native/udt/src/queue.o
 .note.GNU-stack
                0x0000000000000000        0x0 native/udt/src/queue.o
 .group         0x0000000000000000        0x8 native/udt/src/packet.o
 .group         0x0000000000000000        0x8 native/udt/src/packet.o
 .data.DW.ref.__gxx_personality_v0
                0x0000000000000000        0x4 native/udt/src/packet.o
 .text.__i686.get_pc_thunk.bx
                0x0000000000000000        0x4 native/udt/src/packet.o
 .note.GNU-stack
                0x0000000000000000        0x0 native/udt/src/packet.o
 .group         0x0000000000000000        0x8 native/udt/src/md5.o
 .group         0x0000000000000000        0x8 native/udt/src/md5.o
 .data.DW.ref.__gxx_personality_v0
                0x0000000000000000        0x4 native/udt/src/md5.o
 .text.__i686.get_pc_thunk.bx
                0x0000000000000000        0x4 native/udt/src/md5.o
 .note.GNU-stack
                0x0000000000000000        0x0 native/udt/src/md5.o
 .group         0x0000000000000000        0x8 native/udt/src/list.o
 .group         0x0000000000000000        0x8 native/udt/src/list.o
 .data.DW.ref.__gxx_personality_v0
                0x0000000000000000        0x4 native/udt/src/list.o
 .text.__i686.get_pc_thunk.bx
                0x0000000000000000        0x4 native/udt/src/list.o
 .note.GNU-stack
                0x0000000000000000        0x0 native/udt/src/list.o
 .group         0x0000000000000000        0x8 native/udt/src/epoll.o
 .group         0x0000000000000000        0x8 native/udt/src/epoll.o
 .group         0x0000000000000000        0x8 native/udt/src/epoll.o
 .group         0x0000000000000000        0x8 native/udt/src/epoll.o
 .group         0x0000000000000000        0x8 native/udt/src/epoll.o
 .group         0x0000000000000000        0x8 native/udt/src/epoll.o
 .group         0x0000000000000000        0x8 native/udt/src/epoll.o
 .group         0x0000000000000000        0x8 native/udt/src/epoll.o
 .group         0x0000000000000000        0x8 native/udt/src/epoll.o
 .group         0x0000000000000000        0x8 native/udt/src/epoll.o
 .group         0x0000000000000000        0x8 native/udt/src/epoll.o
 .group         0x0000000000000000        0x8 native/udt/src/epoll.o
 .data.DW.ref.__gxx_personality_v0
                0x0000000000000000        0x4 native/udt/src/epoll.o
 .text.__i686.get_pc_thunk.bx
                0x0000000000000000        0x4 native/udt/src/epoll.o
 .note.GNU-stack
                0x0000000000000000        0x0 native/udt/src/epoll.o
 .group         0x0000000000000000        0x8 native/udt/src/core.o
 .group         0x0000000000000000        0x8 native/udt/src/core.o
 .group         0x0000000000000000        0x8 native/udt/src/core.o
 .group         0x0000000000000000        0x8 native/udt/src/core.o
 .group         0x0000000000000000        0x8 native/udt/src/core.o
 .group         0x0000000000000000        0x8 native/udt/src/core.o
 .group         0x0000000000000000        0x8 native/udt/src/core.o
 .group         0x0000000000000000        0x8 native/udt/src/core.o
 .group         0x0000000000000000        0x8 native/udt/src/core.o
 .group         0x0000000000000000        0x8 native/udt/src/core.o
 .group         0x0000000000000000        0x8 native/udt/src/core.o
 .group         0x0000000000000000        0x8 native/udt/src/core.o
 .group         0x0000000000000000        0x8 native/udt/src/core.o
 .group         0x0000000000000000        0x8 native/udt/src/core.o
 .group         0x0000000000000000        0x8 native/udt/src/core.o
 .group         0x0000000000000000        0x8 native/udt/src/core.o
 .group         0x0000000000000000        0x8 native/udt/src/core.o
 .group         0x0000000000000000        0x8 native/udt/src/core.o
 .group         0x0000000000000000        0x8 native/udt/src/core.o
 .text._ZNSt8_Rb_treeIiiSt9_IdentityIiESt4lessIiESaIiEE8_M_eraseEPSt13_Rb_tree_nodeIiE
                0x0000000000000000       0x4b native/udt/src/core.o
 .text._ZNSt3setIiSt4lessIiESaIiEED1Ev
                0x0000000000000000       0x32 native/udt/src/core.o
 .text._ZNSt8_Rb_treeIiiSt9_IdentityIiESt4lessIiESaIiEE10_M_insert_EPKSt18_Rb_tree_node_baseS8_RKi
                0x0000000000000000       0xa0 native/udt/src/core.o
 .data.DW.ref.__gxx_personality_v0
                0x0000000000000000        0x4 native/udt/src/core.o
 .text.__i686.get_pc_thunk.bx
                0x0000000000000000        0x4 native/udt/src/core.o
 .note.GNU-stack
                0x0000000000000000        0x0 native/udt/src/core.o
 .group         0x0000000000000000        0x8 native/udt/src/common.o
 .group         0x0000000000000000        0x8 native/udt/src/common.o
 .group         0x0000000000000000        0x8 native/udt/src/common.o
 .group         0x0000000000000000        0x8 native/udt/src/common.o
 .group         0x0000000000000000        0x8 native/udt/src/common.o
 .group         0x0000000000000000        0x8 native/udt/src/common.o
 .data.DW.ref.__gxx_personality_v0
                0x0000000000000000        0x4 native/udt/src/common.o
 .text.__i686.get_pc_thunk.cx
                0x0000000000000000        0x4 native/udt/src/common.o
 .text.__i686.get_pc_thunk.bx
                0x0000000000000000        0x4 native/udt/src/common.o
 .note.GNU-stack
                0x0000000000000000        0x0 native/udt/src/common.o
 .group         0x0000000000000000        0x8 native/udt/src/channel.o
 .group         0x0000000000000000        0x8 native/udt/src/channel.o
 .data.DW.ref.__gxx_personality_v0
                0x0000000000000000        0x4 native/udt/src/channel.o
 .text.__i686.get_pc_thunk.bx
                0x0000000000000000        0x4 native/udt/src/channel.o
 .note.GNU-stack
                0x0000000000000000        0x0 native/udt/src/channel.o
 .group         0x0000000000000000        0x8 native/udt/src/ccc.o
 .group         0x0000000000000000        0x8 native/udt/src/ccc.o
 .group         0x0000000000000000        0x8 native/udt/src/ccc.o
 .group         0x0000000000000000        0x8 native/udt/src/ccc.o
 .group         0x0000000000000000        0x8 native/udt/src/ccc.o
 .group         0x0000000000000000        0x8 native/udt/src/ccc.o
 .group         0x0000000000000000        0x8 native/udt/src/ccc.o
 .group         0x0000000000000000        0x8 native/udt/src/ccc.o
 .group         0x0000000000000000        0x8 native/udt/src/ccc.o
 .group         0x0000000000000000        0x8 native/udt/src/ccc.o
 .group         0x0000000000000000        0x8 native/udt/src/ccc.o
 .group         0x0000000000000000        0x8 native/udt/src/ccc.o
 .group         0x0000000000000000        0x8 native/udt/src/ccc.o
 .group         0x0000000000000000        0x8 native/udt/src/ccc.o
 .group         0x0000000000000000        0x8 native/udt/src/ccc.o
 .group         0x0000000000000000        0x8 native/udt/src/ccc.o
 .group         0x0000000000000000        0x8 native/udt/src/ccc.o
 .group         0x0000000000000000        0x8 native/udt/src/ccc.o
 .group         0x0000000000000000        0x8 native/udt/src/ccc.o
 .group         0x0000000000000000        0x8 native/udt/src/ccc.o
 .data.DW.ref.__gxx_personality_v0
                0x0000000000000000        0x4 native/udt/src/ccc.o
 .text.__i686.get_pc_thunk.cx
                0x0000000000000000        0x4 native/udt/src/ccc.o
 .text.__i686.get_pc_thunk.bx
                0x0000000000000000        0x4 native/udt/src/ccc.o
 .note.GNU-stack
                0x0000000000000000        0x0 native/udt/src/ccc.o
 .group         0x0000000000000000        0x8 native/udt/src/cache.o
 .group         0x0000000000000000        0x8 native/udt/src/cache.o
 .group         0x0000000000000000        0x8 native/udt/src/cache.o
 .group         0x0000000000000000        0x8 native/udt/src/cache.o
 .group         0x0000000000000000        0x8 native/udt/src/cache.o
 .group         0x0000000000000000        0x8 native/udt/src/cache.o
 .group         0x0000000000000000        0x8 native/udt/src/cache.o
 .group         0x0000000000000000        0x8 native/udt/src/cache.o
 .group         0x0000000000000000        0x8 native/udt/src/cache.o
 .group         0x0000000000000000        0x8 native/udt/src/cache.o
 .data.DW.ref.__gxx_personality_v0
                0x0000000000000000        0x4 native/udt/src/cache.o
 .text.__i686.get_pc_thunk.bx
                0x0000000000000000        0x4 native/udt/src/cache.o
 .note.GNU-stack
                0x0000000000000000        0x0 native/udt/src/cache.o
 .group         0x0000000000000000        0x8 native/udt/src/buffer.o
 .group         0x0000000000000000        0x8 native/udt/src/buffer.o
 .data.DW.ref.__gxx_personality_v0
                0x0000000000000000        0x4 native/udt/src/buffer.o
 .text.__i686.get_pc_thunk.bx
                0x0000000000000000        0x4 native/udt/src/buffer.o
 .note.GNU-stack
                0x0000000000000000        0x0 native/udt/src/buffer.o
 .group         0x0000000000000000        0x8 native/udt/src/api.o
 .group         0x0000000000000000        0x8 native/udt/src/api.o
 .group         0x0000000000000000        0x8 native/udt/src/api.o
 .group         0x0000000000000000        0x8 native/udt/src/api.o
 .group         0x0000000000000000        0x8 native/udt/src/api.o
 .group         0x0000000000000000        0x8 native/udt/src/api.o
 .group         0x0000000000000000        0x8 native/udt/src/api.o
 .group         0x0000000000000000        0x8 native/udt/src/api.o
 .group         0x0000000000000000        0x8 native/udt/src/api.o
 .group         0x0000000000000000        0x8 native/udt/src/api.o
 .group         0x0000000000000000        0x8 native/udt/src/api.o
 .group         0x0000000000000000        0x8 native/udt/src/api.o
 .group         0x0000000000000000        0x8 native/udt/src/api.o
 .group         0x0000000000000000        0x8 native/udt/src/api.o
 .group         0x0000000000000000        0x8 native/udt/src/api.o
 .group         0x0000000000000000        0x8 native/udt/src/api.o
 .group         0x0000000000000000        0x8 native/udt/src/api.o
 .group         0x0000000000000000        0x8 native/udt/src/api.o
 .group         0x0000000000000000        0x8 native/udt/src/api.o
 .group         0x0000000000000000        0x8 native/udt/src/api.o
 .group         0x0000000000000000        0x8 native/udt/src/api.o
 .group         0x0000000000000000        0x8 native/udt/src/api.o
 .group         0x0000000000000000        0x8 native/udt/src/api.o
 .group         0x0000000000000000        0x8 native/udt/src/api.o
 .group         0x0000000000000000        0x8 native/udt/src/api.o
 .group         0x0000000000000000        0x8 native/udt/src/api.o
 .group         0x0000000000000000        0x8 native/udt/src/api.o
 .group         0x0000000000000000        0x8 native/udt/src/api.o
 .text._ZNSt8_Rb_treeIiiSt9_IdentityIiESt4lessIiESaIiEE8_M_eraseEPSt13_Rb_tree_nodeIiE
                0x0000000000000000       0x4b native/udt/src/api.o
 .text._ZNSt3setIiSt4lessIiESaIiEED1Ev
                0x0000000000000000       0x32 native/udt/src/api.o
 .text._ZNSt8_Rb_treeIiiSt9_IdentityIiESt4lessIiESaIiEE10_M_insert_EPKSt18_Rb_tree_node_baseS8_RKi
                0x0000000000000000       0xa0 native/udt/src/api.o
 .text._ZNSt8_Rb_treeIiiSt9_IdentityIiESt4lessIiESaIiEE7_M_copyEPKSt13_Rb_tree_nodeIiEPS7_
                0x0000000000000000      0x11f native/udt/src/api.o
 .text._ZNSt6vectorIiSaIiEE13_M_insert_auxEN9__gnu_cxx17__normal_iteratorIPiS1_EERKi
                0x0000000000000000      0x17f native/udt/src/api.o
 .data.DW.ref.__gxx_personality_v0
                0x0000000000000000        0x4 native/udt/src/api.o
 .text.__i686.get_pc_thunk.bx
                0x0000000000000000        0x4 native/udt/src/api.o
 .note.GNU-stack
                0x0000000000000000        0x0 native/udt/src/api.o
 .group         0x0000000000000000        0x8 native/jni/com_barchart_udt_SocketUDT.o
 .group         0x0000000000000000        0x8 native/jni/com_barchart_udt_SocketUDT.o
 .group         0x0000000000000000        0x8 native/jni/com_barchart_udt_SocketUDT.o
 .group         0x0000000000000000        0x8 native/jni/com_barchart_udt_SocketUDT.o
 .group         0x0000000000000000        0x8 native/jni/com_barchart_udt_SocketUDT.o
 .group         0x0000000000000000        0x8 native/jni/com_barchart_udt_SocketUDT.o
 .group         0x0000000000000000        0x8 native/jni/com_barchart_udt_SocketUDT.o
 .group         0x0000000000000000        0x8 native/jni/com_barchart_udt_SocketUDT.o
 .group         0x0000000000000000        0x8 native/jni/com_barchart_udt_SocketUDT.o
 .group         0x0000000000000000        0x8 native/jni/com_barchart_udt_SocketUDT.o
 .group         0x0000000000000000        0x8 native/jni/com_barchart_udt_SocketUDT.o
 .group         0x0000000000000000        0x8 native/jni/com_barchart_udt_SocketUDT.o
 .text._ZNSt8_Rb_treeIiiSt9_IdentityIiESt4lessIiESaIiEE8_M_eraseEPSt13_Rb_tree_nodeIiE
                0x0000000000000000       0x4b native/jni/com_barchart_udt_SocketUDT.o
 .text._ZNSt3setIiSt4lessIiESaIiEED1Ev
                0x0000000000000000       0x32 native/jni/com_barchart_udt_SocketUDT.o
 .text._ZNSt8_Rb_treeIiiSt9_IdentityIiESt4lessIiESaIiEE10_M_insert_EPKSt18_Rb_tree_node_baseS8_RKi
                0x0000000000000000       0xa0 native/jni/com_barchart_udt_SocketUDT.o
 .text._ZNSt6vectorIiSaIiEE13_M_insert_auxEN9__gnu_cxx17__normal_iteratorIPiS1_EERKi
                0x0000000000000000      0x17f native/jni/com_barchart_udt_SocketUDT.o
 .data.DW.ref.__gxx_personality_v0
                0x0000000000000000        0x4 native/jni/com_barchart_udt_SocketUDT.o
 .text.__i686.get_pc_thunk.bx
                0x0000000000000000        0x4 native/jni/com_barchart_udt_SocketUDT.o
 .note.GNU-stack
                0x0000000000000000        0x0 native/jni/com_barchart_udt_SocketUDT.o
 .note.GNU-stack
                0x0000000000000000        0x0 /usr/lib/gcc/x86_64-linux-gnu/4.4.3/32/libgcc.a(_divdi3.o)
 .note.GNU-stack
                0x0000000000000000        0x0 /usr/lib/gcc/x86_64-linux-gnu/4.4.3/32/libgcc.a(_moddi3.o)
 .note.GNU-stack
                0x0000000000000000        0x0 /usr/lib/gcc/x86_64-linux-gnu/4.4.3/32/libgcc.a(_udivdi3.o)
 .note.GNU-stack
                0x0000000000000000        0x0 /usr/lib/gcc/x86_64-linux-gnu/4.4.3/32/libgcc.a(_umoddi3.o)
 .group         0x0000000000000000        0x8 /usr/lib/gcc/x86_64-linux-gnu/4.4.3/32/libgcc_eh.a(unwind-dw2.o)
 .group         0x0000000000000000        0x8 /usr/lib/gcc/x86_64-linux-gnu/4.4.3/32/libgcc_eh.a(unwind-dw2.o)
 .text.__i686.get_pc_thunk.cx
                0x0000000000000000        0x4 /usr/lib/gcc/x86_64-linux-gnu/4.4.3/32/libgcc_eh.a(unwind-dw2.o)
 .text.__i686.get_pc_thunk.bx
                0x0000000000000000        0x4 /usr/lib/gcc/x86_64-linux-gnu/4.4.3/32/libgcc_eh.a(unwind-dw2.o)
 .note.GNU-stack
                0x0000000000000000        0x0 /usr/lib/gcc/x86_64-linux-gnu/4.4.3/32/libgcc_eh.a(unwind-dw2.o)
 .group         0x0000000000000000        0x8 /usr/lib/gcc/x86_64-linux-gnu/4.4.3/32/libgcc_eh.a(unwind-dw2-fde-glibc.o)
 .text.__i686.get_pc_thunk.bx
                0x0000000000000000        0x4 /usr/lib/gcc/x86_64-linux-gnu/4.4.3/32/libgcc_eh.a(unwind-dw2-fde-glibc.o)
 .note.GNU-stack
                0x0000000000000000        0x0 /usr/lib/gcc/x86_64-linux-gnu/4.4.3/32/libgcc_eh.a(unwind-dw2-fde-glibc.o)
 .group         0x0000000000000000        0x8 /usr/lib32/libc_nonshared.a(stack_chk_fail_local.oS)
 .text.__i686.get_pc_thunk.bx
                0x0000000000000000        0x4 /usr/lib32/libc_nonshared.a(stack_chk_fail_local.oS)
 .note.GNU-stack
                0x0000000000000000        0x0 /usr/lib32/libc_nonshared.a(stack_chk_fail_local.oS)
 .group         0x0000000000000000        0x8 /usr/lib/gcc/x86_64-linux-gnu/4.4.3/32/crtendS.o
 .text.__i686.get_pc_thunk.bx
                0x0000000000000000        0x4 /usr/lib/gcc/x86_64-linux-gnu/4.4.3/32/crtendS.o
 .note.GNU-stack
                0x0000000000000000        0x0 /usr/lib/gcc/x86_64-linux-gnu/4.4.3/32/crtendS.o
 .note.GNU-stack
                0x0000000000000000        0x0 /usr/lib/gcc/x86_64-linux-gnu/4.4.3/../../../../lib32/crtn.o
 .gnu_debuglink
                0x0000000000000000        0xc /usr/lib/gcc/x86_64-linux-gnu/4.4.3/../../../../lib32/crtn.o

Memory Configuration

Name             Origin             Length             Attributes
*default*        0x0000000000000000 0xffffffffffffffff

Linker script and memory map

LOAD /usr/lib/gcc/x86_64-linux-gnu/4.4.3/../../../../lib32/crti.o
LOAD /usr/lib/gcc/x86_64-linux-gnu/4.4.3/32/crtbeginS.o
LOAD native/udt/src/window.o
LOAD native/udt/src/queue.o
LOAD native/udt/src/packet.o
LOAD native/udt/src/md5.o
LOAD native/udt/src/list.o
LOAD native/udt/src/epoll.o
LOAD native/udt/src/core.o
LOAD native/udt/src/common.o
LOAD native/udt/src/channel.o
LOAD native/udt/src/ccc.o
LOAD native/udt/src/cache.o
LOAD native/udt/src/buffer.o
LOAD native/udt/src/api.o
LOAD native/jni/com_barchart_udt_SocketUDT.o
LOAD /usr/lib/gcc/x86_64-linux-gnu/4.4.3/../../../../lib32/libstdc++.so
LOAD /usr/lib/gcc/x86_64-linux-gnu/4.4.3/../../../../lib32/libm.so
LOAD /usr/lib/gcc/x86_64-linux-gnu/4.4.3/32/libgcc.a
LOAD /usr/lib/gcc/x86_64-linux-gnu/4.4.3/32/libgcc_eh.a
LOAD /usr/lib/gcc/x86_64-linux-gnu/4.4.3/../../../../lib32/libpthread.so
START GROUP
LOAD /lib32/libpthread.so.0
LOAD /usr/lib32/libpthread_nonshared.a
END GROUP
LOAD /usr/lib/gcc/x86_64-linux-gnu/4.4.3/../../../../lib32/libc.so
START GROUP
LOAD /lib32/libc.so.6
LOAD /usr/lib32/libc_nonshared.a
LOAD /lib32/ld-linux.so.2
END GROUP
LOAD /usr/lib/gcc/x86_64-linux-gnu/4.4.3/32/libgcc.a
LOAD /usr/lib/gcc/x86_64-linux-gnu/4.4.3/32/libgcc_eh.a
LOAD /usr/lib/gcc/x86_64-linux-gnu/4.4.3/32/crtendS.o
LOAD /usr/lib/gcc/x86_64-linux-gnu/4.4.3/../../../../lib32/crtn.o
                0x0000000000000114                . = (0x0 + SIZEOF_HEADERS)

.note.gnu.build-id
                0x0000000000000114       0x24
 *(.note.gnu.build-id)
 .note.gnu.build-id
                0x0000000000000114       0x24 /usr/lib/gcc/x86_64-linux-gnu/4.4.3/../../../../lib32/crti.o

.hash           0x0000000000000138     0x1308
 *(.hash)
 .hash          0x0000000000000138     0x1308 /usr/lib/gcc/x86_64-linux-gnu/4.4.3/../../../../lib32/crti.o

.gnu.hash       0x0000000000001440     0x1394
 *(.gnu.hash)
 .gnu.hash      0x0000000000001440     0x1394 /usr/lib/gcc/x86_64-linux-gnu/4.4.3/../../../../lib32/crti.o

.dynsym         0x00000000000027d4     0x2b70
 *(.dynsym)
 .dynsym        0x00000000000027d4     0x2b70 /usr/lib/gcc/x86_64-linux-gnu/4.4.3/../../../../lib32/crti.o

.dynstr         0x0000000000005344     0x5769
 *(.dynstr)
 .dynstr        0x0000000000005344     0x5769 /usr/lib/gcc/x86_64-linux-gnu/4.4.3/../../../../lib32/crti.o

.gnu.version    0x000000000000aaae      0x56e
 *(.gnu.version)
 .gnu.version   0x000000000000aaae      0x56e /usr/lib/gcc/x86_64-linux-gnu/4.4.3/../../../../lib32/crti.o

.gnu.version_d  0x000000000000b01c        0x0
 *(.gnu.version_d)
 .gnu.version_d
                0x0000000000000000        0x0 /usr/lib/gcc/x86_64-linux-gnu/4.4.3/../../../../lib32/crti.o

.gnu.version_r  0x000000000000b01c      0x120
 *(.gnu.version_r)
 .gnu.version_r
                0x000000000000b01c      0x120 /usr/lib/gcc/x86_64-linux-gnu/4.4.3/../../../../lib32/crti.o

.rel.dyn        0x000000000000b13c      0x2d8
 *(.rel.init)
 *(.rel.text .rel.text.* .rel.gnu.linkonce.t.*)
 .rel.text      0x0000000000000000        0x0 /usr/lib/gcc/x86_64-linux-gnu/4.4.3/../../../../lib32/crti.o
 .rel.text._ZNSt11_Deque_baseIP7CPacketSaIS1_EED2Ev
                0x0000000000000000        0x0 /usr/lib/gcc/x86_64-linux-gnu/4.4.3/../../../../lib32/crti.o
 .rel.text._ZNSt8_Rb_treeIiSt4pairIKiSt5queueIP7CPacketSt5dequeIS4_SaIS4_EEEESt10_Select1stIS9_ESt4lessIiESaIS9_EE8_M_eraseEPSt13_Rb_tree_nodeIS9_E
                0x0000000000000000        0x0 /usr/lib/gcc/x86_64-linux-gnu/4.4.3/../../../../lib32/crti.o
 .rel.text._ZNSt11_Deque_baseIP7CPacketSaIS1_EE17_M_initialize_mapEj
                0x0000000000000000        0x0 /usr/lib/gcc/x86_64-linux-gnu/4.4.3/../../../../lib32/crti.o
 .rel.text._ZNSt8_Rb_treeIiSt4pairIKiSt5queueIP7CPacketSt5dequeIS4_SaIS4_EEEESt10_Select1stIS9_ESt4lessIiESaIS9_EE10_M_insert_EPKSt18_Rb_tree_node_baseSI_RKS9_
                0x0000000000000000        0x0 /usr/lib/gcc/x86_64-linux-gnu/4.4.3/../../../../lib32/crti.o
 .rel.text._ZNSt8_Rb_treeIiSt4pairIKiSt5queueIP7CPacketSt5dequeIS4_SaIS4_EEEESt10_Select1stIS9_ESt4lessIiESaIS9_EE16_M_insert_uniqueERKS9_
                0x0000000000000000        0x0 /usr/lib/gcc/x86_64-linux-gnu/4.4.3/../../../../lib32/crti.o
 .rel.text._ZNSt8_Rb_treeIiSt4pairIKiSt5queueIP7CPacketSt5dequeIS4_SaIS4_EEEESt10_Select1stIS9_ESt4lessIiESaIS9_EE17_M_insert_unique_ESt23_Rb_tree_const_iteratorIS9_ERKS9_
                0x0000000000000000        0x0 /usr/lib/gcc/x86_64-linux-gnu/4.4.3/../../../../lib32/crti.o
 .rel.text._ZNSt6vectorIP4CUDTSaIS1_EE13_M_insert_auxEN9__gnu_cxx17__normal_iteratorIPS1_S3_EERKS1_
                0x0000000000000000        0x0 /usr/lib/gcc/x86_64-linux-gnu/4.4.3/../../../../lib32/crti.o
 .rel.text._ZNSt6vectorIN16CRendezvousQueue3CRLESaIS1_EE13_M_insert_auxEN9__gnu_cxx17__normal_iteratorIPS1_S3_EERKS1_
                0x0000000000000000        0x0 /usr/lib/gcc/x86_64-linux-gnu/4.4.3/../../../../lib32/crti.o
 .rel.text._ZNSt8_Rb_treeIiiSt9_IdentityIiESt4lessIiESaIiEE8_M_eraseEPSt13_Rb_tree_nodeIiE
                0x0000000000000000        0x0 /usr/lib/gcc/x86_64-linux-gnu/4.4.3/../../../../lib32/crti.o
 .rel.text._ZNSt3setIiSt4lessIiESaIiEED1Ev
                0x0000000000000000        0x0 /usr/lib/gcc/x86_64-linux-gnu/4.4.3/../../../../lib32/crti.o
 .rel.text._ZNSt8_Rb_treeIiiSt9_IdentityIiESt4lessIiESaIiEE7_M_copyEPKSt13_Rb_tree_nodeIiEPS7_
                0x0000000000000000        0x0 /usr/lib/gcc/x86_64-linux-gnu/4.4.3/../../../../lib32/crti.o
 .rel.text._ZNSt8_Rb_treeIiiSt9_IdentityIiESt4lessIiESaIiEE10_M_insert_EPKSt18_Rb_tree_node_baseS8_RKi
                0x0000000000000000        0x0 /usr/lib/gcc/x86_64-linux-gnu/4.4.3/../../../../lib32/crti.o
 .rel.text._ZN10CEPollDescD1Ev
                0x0000000000000000        0x0 /usr/lib/gcc/x86_64-linux-gnu/4.4.3/../../../../lib32/crti.o
 .rel.text._ZNSt6vectorIiSaIiEE13_M_insert_auxEN9__gnu_cxx17__normal_iteratorIPiS1_EERKi
                0x0000000000000000        0x0 /usr/lib/gcc/x86_64-linux-gnu/4.4.3/../../../../lib32/crti.o
 .rel.text._ZNSt8_Rb_treeIiSt4pairIKi10CEPollDescESt10_Select1stIS3_ESt4lessIiESaIS3_EE10_M_insert_EPKSt18_Rb_tree_node_baseSC_RKS3_
                0x0000000000000000        0x0 /usr/lib/gcc/x86_64-linux-gnu/4.4.3/../../../../lib32/crti.o
 .rel.text._ZNSt8_Rb_treeIiSt4pairIKi10CEPollDescESt10_Select1stIS3_ESt4lessIiESaIS3_EE16_M_insert_uniqueERKS3_
                0x0000000000000000        0x0 /usr/lib/gcc/x86_64-linux-gnu/4.4.3/../../../../lib32/crti.o
 .rel.text._ZNSt8_Rb_treeIiSt4pairIKi10CEPollDescESt10_Select1stIS3_ESt4lessIiESaIS3_EE17_M_insert_unique_ESt23_Rb_tree_const_iteratorIS3_ERKS3_
                0x0000000000000000        0x0 /usr/lib/gcc/x86_64-linux-gnu/4.4.3/../../../../lib32/crti.o
 .rel.text._ZNSt8_Rb_treeIiSt4pairIKi10CEPollDescESt10_Select1stIS3_ESt4lessIiESaIS3_EE8_M_eraseEPSt13_Rb_tree_nodeIS3_E
                0x0000000000000000        0x0 /usr/lib/gcc/x86_64-linux-gnu/4.4.3/../../../../lib32/crti.o
 .rel.text._ZN17CCCVirtualFactoryD1Ev
                0x0000000000000000        0x0 /usr/lib/gcc/x86_64-linux-gnu/4.4.3/../../../../lib32/crti.o
 .rel.text._ZN10CCCFactoryI6CUDTCCED1Ev
                0x0000000000000000        0x0 /usr/lib/gcc/x86_64-linux-gnu/4.4.3/../../../../lib32/crti.o
 .rel.text._ZN10CCCFactoryI6CUDTCCED0Ev
                0x0000000000000000        0x0 /usr/lib/gcc/x86_64-linux-gnu/4.4.3/../../../../lib32/crti.o
 .rel.text._ZN17CCCVirtualFactoryD0Ev
                0x0000000000000000        0x0 /usr/lib/gcc/x86_64-linux-gnu/4.4.3/../../../../lib32/crti.o
 .rel.text._ZN10CCCFactoryI6CUDTCCE5cloneEv
                0x0000000000000000        0x0 /usr/lib/gcc/x86_64-linux-gnu/4.4.3/../../../../lib32/crti.o
 .rel.text._ZN13CUDTExceptionaSERKS_
                0x0000000000000000        0x0 /usr/lib/gcc/x86_64-linux-gnu/4.4.3/../../../../lib32/crti.o
 .rel.text._ZN10CCCFactoryI6CUDTCCE6createEv
                0x0000000000000000        0x0 /usr/lib/gcc/x86_64-linux-gnu/4.4.3/../../../../lib32/crti.o
 .rel.text._ZN6CUDTCCD0Ev
                0x0000000000000000        0x0 /usr/lib/gcc/x86_64-linux-gnu/4.4.3/../../../../lib32/crti.o
 .rel.text._ZN6CUDTCCD1Ev
                0x0000000000000000        0x0 /usr/lib/gcc/x86_64-linux-gnu/4.4.3/../../../../lib32/crti.o
 .rel.text._ZNSt8_Rb_treeIP10CInfoBlockS1_St9_IdentityIS1_E7CTSCompSaIS1_EE8_M_eraseEPSt13_Rb_tree_nodeIS1_E
                0x0000000000000000        0x0 /usr/lib/gcc/x86_64-linux-gnu/4.4.3/../../../../lib32/crti.o
 .rel.text._ZNSt8_Rb_treeIP10CInfoBlockS1_St9_IdentityIS1_E7CIPCompSaIS1_EE8_M_eraseEPSt13_Rb_tree_nodeIS1_E
                0x0000000000000000        0x0 /usr/lib/gcc/x86_64-linux-gnu/4.4.3/../../../../lib32/crti.o
 .rel.text._ZNSt8_Rb_treeIP10CInfoBlockS1_St9_IdentityIS1_E7CTSCompSaIS1_EE5eraseERKS1_
                0x0000000000000000        0x0 /usr/lib/gcc/x86_64-linux-gnu/4.4.3/../../../../lib32/crti.o
 .rel.text._ZNSt8_Rb_treeIP10CInfoBlockS1_St9_IdentityIS1_E7CIPCompSaIS1_EE5eraseERKS1_
                0x0000000000000000        0x0 /usr/lib/gcc/x86_64-linux-gnu/4.4.3/../../../../lib32/crti.o
 .rel.text._ZNSt8_Rb_treeIP10CInfoBlockS1_St9_IdentityIS1_E7CIPCompSaIS1_EE10_M_insert_EPKSt18_Rb_tree_node_baseS9_RKS1_
                0x0000000000000000        0x0 /usr/lib/gcc/x86_64-linux-gnu/4.4.3/../../../../lib32/crti.o
 .rel.text._ZNSt8_Rb_treeIP10CInfoBlockS1_St9_IdentityIS1_E7CIPCompSaIS1_EE16_M_insert_uniqueERKS1_
                0x0000000000000000        0x0 /usr/lib/gcc/x86_64-linux-gnu/4.4.3/../../../../lib32/crti.o
 .rel.text._ZNSt8_Rb_treeIP10CInfoBlockS1_St9_IdentityIS1_E7CTSCompSaIS1_EE10_M_insert_EPKSt18_Rb_tree_node_baseS9_RKS1_
                0x0000000000000000        0x0 /usr/lib/gcc/x86_64-linux-gnu/4.4.3/../../../../lib32/crti.o
 .rel.text._ZNSt8_Rb_treeIP10CInfoBlockS1_St9_IdentityIS1_E7CTSCompSaIS1_EE16_M_insert_uniqueERKS1_
                0x0000000000000000        0x0 /usr/lib/gcc/x86_64-linux-gnu/4.4.3/../../../../lib32/crti.o
 .rel.text._ZNSt8_Rb_treeIiSt4pairIKiP10CUDTSocketESt10_Select1stIS4_ESt4lessIiESaIS4_EE8_M_eraseEPSt13_Rb_tree_nodeIS4_E
                0x0000000000000000        0x0 /usr/lib/gcc/x86_64-linux-gnu/4.4.3/../../../../lib32/crti.o
 .rel.text._ZNSt3mapIiP10CUDTSocketSt4lessIiESaISt4pairIKiS1_EEED1Ev
                0x0000000000000000        0x0 /usr/lib/gcc/x86_64-linux-gnu/4.4.3/../../../../lib32/crti.o
 .rel.text._ZNSt8_Rb_treeIiSt4pairIKi12CMultiplexerESt10_Select1stIS3_ESt4lessIiESaIS3_EE8_M_eraseEPSt13_Rb_tree_nodeIS3_E
                0x0000000000000000        0x0 /usr/lib/gcc/x86_64-linux-gnu/4.4.3/../../../../lib32/crti.o
 .rel.text._ZNSt8_Rb_treeIiSt4pairIKiP10CUDTSocketESt10_Select1stIS4_ESt4lessIiESaIS4_EE10_M_insert_EPKSt18_Rb_tree_node_baseSD_RKS4_
                0x0000000000000000        0x0 /usr/lib/gcc/x86_64-linux-gnu/4.4.3/../../../../lib32/crti.o
 .rel.text._ZNSt8_Rb_treeIiSt4pairIKi12CMultiplexerESt10_Select1stIS3_ESt4lessIiESaIS3_EE10_M_insert_EPKSt18_Rb_tree_node_baseSC_RKS3_
                0x0000000000000000        0x0 /usr/lib/gcc/x86_64-linux-gnu/4.4.3/../../../../lib32/crti.o
 .rel.text._ZNSt8_Rb_treeIiSt4pairIKiP10CUDTSocketESt10_Select1stIS4_ESt4lessIiESaIS4_EE16_M_insert_uniqueERKS4_
                0x0000000000000000        0x0 /usr/lib/gcc/x86_64-linux-gnu/4.4.3/../../../../lib32/crti.o
 .rel.text._ZNSt8_Rb_treeIiSt4pairIKiP10CUDTSocketESt10_Select1stIS4_ESt4lessIiESaIS4_EE17_M_insert_unique_ESt23_Rb_tree_const_iteratorIS4_ERKS4_
                0x0000000000000000        0x0 /usr/lib/gcc/x86_64-linux-gnu/4.4.3/../../../../lib32/crti.o
 .rel.text._ZNSt8_Rb_treeIiSt4pairIKi12CMultiplexerESt10_Select1stIS3_ESt4lessIiESaIS3_EE16_M_insert_uniqueERKS3_
                0x0000000000000000        0x0 /usr/lib/gcc/x86_64-linux-gnu/4.4.3/../../../../lib32/crti.o
 .rel.text._ZNSt8_Rb_treeIiSt4pairIKi12CMultiplexerESt10_Select1stIS3_ESt4lessIiESaIS3_EE17_M_insert_unique_ESt23_Rb_tree_const_iteratorIS3_ERKS3_
                0x0000000000000000        0x0 /usr/lib/gcc/x86_64-linux-gnu/4.4.3/../../../../lib32/crti.o
 .rel.text._ZNSt8_Rb_treeIiiSt9_IdentityIiESt4lessIiESaIiEE16_M_insert_uniqueERKi
                0x0000000000000000        0x0 /usr/lib/gcc/x86_64-linux-gnu/4.4.3/../../../../lib32/crti.o
 .rel.text._ZNSt8_Rb_treeIiiSt9_IdentityIiESt4lessIiESaIiEE17_M_insert_unique_ESt23_Rb_tree_const_iteratorIiERKi
                0x0000000000000000        0x0 /usr/lib/gcc/x86_64-linux-gnu/4.4.3/../../../../lib32/crti.o
 .rel.text._ZNSt3setIiSt4lessIiESaIiEE5eraseERKi
                0x0000000000000000        0x0 /usr/lib/gcc/x86_64-linux-gnu/4.4.3/../../../../lib32/crti.o
 .rel.text._ZNSt8_Rb_treeIxSt4pairIKxSt3setIiSt4lessIiESaIiEEESt10_Select1stIS7_ES3_IxESaIS7_EE8_M_eraseEPSt13_Rb_tree_nodeIS7_E
                0x0000000000000000        0x0 /usr/lib/gcc/x86_64-linux-gnu/4.4.3/../../../../lib32/crti.o
 .rel.text._ZNSt8_Rb_treeIxSt4pairIKxSt3setIiSt4lessIiESaIiEEESt10_Select1stIS7_ES3_IxESaIS7_EE10_M_insert_EPKSt18_Rb_tree_node_baseSF_RKS7_
                0x0000000000000000        0x0 /usr/lib/gcc/x86_64-linux-gnu/4.4.3/../../../../lib32/crti.o
 .rel.text._ZNSt8_Rb_treeIxSt4pairIKxSt3setIiSt4lessIiESaIiEEESt10_Select1stIS7_ES3_IxESaIS7_EE16_M_insert_uniqueERKS7_
                0x0000000000000000        0x0 /usr/lib/gcc/x86_64-linux-gnu/4.4.3/../../../../lib32/crti.o
 .rel.text._ZNSt8_Rb_treeIxSt4pairIKxSt3setIiSt4lessIiESaIiEEESt10_Select1stIS7_ES3_IxESaIS7_EE17_M_insert_unique_ESt23_Rb_tree_const_iteratorIS7_ERKS7_
                0x0000000000000000        0x0 /usr/lib/gcc/x86_64-linux-gnu/4.4.3/../../../../lib32/crti.o
 .rel.text._ZNSt6vectorIP10CUDTSocketSaIS1_EE13_M_insert_auxEN9__gnu_cxx17__normal_iteratorIPS1_S3_EERKS1_
                0x0000000000000000        0x0 /usr/lib/gcc/x86_64-linux-gnu/4.4.3/../../../../lib32/crti.o
 .rel.text._ZNSt6vectorIP10CUDTSocketSaIS1_EE6insertEN9__gnu_cxx17__normal_iteratorIPS1_S3_EERKS1_
                0x0000000000000000        0x0 /usr/lib/gcc/x86_64-linux-gnu/4.4.3/../../../../lib32/crti.o
 .rel.text._ZNSt6vectorIiSaIiEED1Ev
                0x0000000000000000        0x0 /usr/lib/gcc/x86_64-linux-gnu/4.4.3/../../../../lib32/crti.o
 *(.rel.fini)
 *(.rel.rodata .rel.rodata.* .rel.gnu.linkonce.r.*)
 *(.rel.data.rel.ro* .rel.gnu.linkonce.d.rel.ro.*)
 .rel.data.rel.ro._ZTV10CCCFactoryI6CUDTCCE
                0x000000000000b13c       0x28 /usr/lib/gcc/x86_64-linux-gnu/4.4.3/../../../../lib32/crti.o
 .rel.data.rel.ro._ZTI10CCCFactoryI6CUDTCCE
                0x000000000000b164       0x18 /usr/lib/gcc/x86_64-linux-gnu/4.4.3/../../../../lib32/crti.o
 .rel.data.rel.ro._ZTI17CCCVirtualFactory
                0x000000000000b17c       0x10 /usr/lib/gcc/x86_64-linux-gnu/4.4.3/../../../../lib32/crti.o
 .rel.data.rel.ro._ZTV17CCCVirtualFactory
                0x000000000000b18c       0x28 /usr/lib/gcc/x86_64-linux-gnu/4.4.3/../../../../lib32/crti.o
 .rel.data.rel.ro._ZTV13CUDTException
                0x000000000000b1b4       0x30 /usr/lib/gcc/x86_64-linux-gnu/4.4.3/../../../../lib32/crti.o
 .rel.data.rel.ro._ZTI13CUDTException
                0x000000000000b1e4       0x10 /usr/lib/gcc/x86_64-linux-gnu/4.4.3/../../../../lib32/crti.o
 .rel.data.rel.ro._ZTV6CUDTCC
                0x000000000000b1f4       0x58 /usr/lib/gcc/x86_64-linux-gnu/4.4.3/../../../../lib32/crti.o
 .rel.data.rel.ro._ZTV3CCC
                0x000000000000b24c       0x58 /usr/lib/gcc/x86_64-linux-gnu/4.4.3/../../../../lib32/crti.o
 .rel.data.rel.ro._ZTI6CUDTCC
                0x000000000000b2a4       0x18 /usr/lib/gcc/x86_64-linux-gnu/4.4.3/../../../../lib32/crti.o
 .rel.data.rel.ro._ZTI3CCC
                0x000000000000b2bc       0x10 /usr/lib/gcc/x86_64-linux-gnu/4.4.3/../../../../lib32/crti.o
 *(.rel.data .rel.data.* .rel.gnu.linkonce.d.*)
 .rel.data.rel  0x000000000000b2cc        0x8 /usr/lib/gcc/x86_64-linux-gnu/4.4.3/../../../../lib32/crti.o
 .rel.data.DW.ref.__gxx_personality_v0
                0x000000000000b2d4        0x8 /usr/lib/gcc/x86_64-linux-gnu/4.4.3/../../../../lib32/crti.o
 .rel.data.DW.ref._ZTI13CUDTException
                0x000000000000b2dc        0x8 /usr/lib/gcc/x86_64-linux-gnu/4.4.3/../../../../lib32/crti.o
 .rel.data.DW.ref._ZTISt9bad_alloc
                0x000000000000b2e4        0x8 /usr/lib/gcc/x86_64-linux-gnu/4.4.3/../../../../lib32/crti.o
 *(.rel.tdata .rel.tdata.* .rel.gnu.linkonce.td.*)
 *(.rel.tbss .rel.tbss.* .rel.gnu.linkonce.tb.*)
 *(.rel.ctors)
 .rel.ctors     0x000000000000b2ec       0x10 /usr/lib/gcc/x86_64-linux-gnu/4.4.3/../../../../lib32/crti.o
 *(.rel.dtors)
 *(.rel.got)
 .rel.got       0x000000000000b2fc      0x118 /usr/lib/gcc/x86_64-linux-gnu/4.4.3/../../../../lib32/crti.o
 *(.rel.bss .rel.bss.* .rel.gnu.linkonce.b.*)
 *(.rel.ifunc)
 .rel.ifunc     0x0000000000000000        0x0 /usr/lib/gcc/x86_64-linux-gnu/4.4.3/../../../../lib32/crti.o
 .rel.eh_frame  0x0000000000000000        0x0 /usr/lib/gcc/x86_64-linux-gnu/4.4.3/../../../../lib32/crti.o
 .rel.gcc_except_table
                0x0000000000000000        0x0 /usr/lib/gcc/x86_64-linux-gnu/4.4.3/../../../../lib32/crti.o

.rel.plt        0x000000000000b414      0xe08
 *(.rel.plt)
 .rel.plt       0x000000000000b414      0xe08 /usr/lib/gcc/x86_64-linux-gnu/4.4.3/../../../../lib32/crti.o
 *(.rel.iplt)

.init           0x000000000000c21c       0x30
 *(.init)
 .init          0x000000000000c21c       0x22 /usr/lib/gcc/x86_64-linux-gnu/4.4.3/../../../../lib32/crti.o
                0x000000000000c21c                _init
 .init          0x000000000000c23e        0x5 /usr/lib/gcc/x86_64-linux-gnu/4.4.3/32/crtbeginS.o
 .init          0x000000000000c243        0x5 /usr/lib/gcc/x86_64-linux-gnu/4.4.3/32/crtendS.o
 .init          0x000000000000c248        0x4 /usr/lib/gcc/x86_64-linux-gnu/4.4.3/../../../../lib32/crtn.o

.plt            0x000000000000c24c     0x1c20
 *(.plt)
 .plt           0x000000000000c24c     0x1c20 /usr/lib/gcc/x86_64-linux-gnu/4.4.3/../../../../lib32/crti.o
 *(.iplt)

.text           0x000000000000de70    0x2d5e8
 *(.text.unlikely .text.*_unlikely)
 *(.text .stub .text.* .gnu.linkonce.t.*)
 .text          0x000000000000de70        0x0 /usr/lib/gcc/x86_64-linux-gnu/4.4.3/../../../../lib32/crti.o
 .text          0x000000000000de70       0xb7 /usr/lib/gcc/x86_64-linux-gnu/4.4.3/32/crtbeginS.o
 .text.__i686.get_pc_thunk.bx
                0x000000000000df27        0x4 /usr/lib/gcc/x86_64-linux-gnu/4.4.3/32/crtbeginS.o
                0x000000000000df27                __i686.get_pc_thunk.bx
 *fill*         0x000000000000df2b        0x5 90909090
 .text          0x000000000000df30      0xcbe native/udt/src/window.o
                0x000000000000df30                _ZNK14CPktTimeWindow15getMinPktSndIntEv
                0x000000000000df40                _ZN14CPktTimeWindow9onPktSentERKi
                0x000000000000df70                _ZN14CPktTimeWindow13probe2ArrivalEv
                0x000000000000dfd0                _ZN14CPktTimeWindow13probe1ArrivalEv
                0x000000000000e010                _ZN14CPktTimeWindow12onPktArrivalEv
                0x000000000000e070                _ZN10CACKWindow11acknowledgeERKiRi
                0x000000000000e250                _ZN10CACKWindow5storeERKiS1_
                0x000000000000e2d0                _ZNK14CPktTimeWindow12getBandwidthEv
                0x000000000000e3e0                _ZNK14CPktTimeWindow14getPktRcvSpeedEv
                0x000000000000e4f0                _ZN14CPktTimeWindowD1Ev
                0x000000000000e540                _ZN14CPktTimeWindowD2Ev
                0x000000000000e590                _ZN10CACKWindowD1Ev
                0x000000000000e5e0                _ZN10CACKWindowD2Ev
                0x000000000000e630                _ZN14CPktTimeWindowC1ERKiS1_
                0x000000000000e720                _ZN14CPktTimeWindowC2ERKiS1_
                0x000000000000e810                _ZN14CPktTimeWindowC1Ev
                0x000000000000e900                _ZN14CPktTimeWindowC2Ev
                0x000000000000e9f0                _ZN10CACKWindowC1ERKi
                0x000000000000ea70                _ZN10CACKWindowC2ERKi
                0x000000000000eaf0                _ZN10CACKWindowC1Ev
                0x000000000000eb70                _ZN10CACKWindowC2Ev
 *fill*         0x000000000000ebee        0x2 90909090
 .text          0x000000000000ebf0     0x360d native/udt/src/queue.o
                0x000000000000ebf0                _ZN10CUnitQueueC2Ev
                0x000000000000ec30                _ZN10CUnitQueueC1Ev
                0x000000000000ec70                _ZN10CUnitQueue6shrinkEv
                0x000000000000ec80                _ZN9CSndUList7remove_EPK4CUDT
                0x000000000000edf0                _ZN9CRcvUListC2Ev
                0x000000000000ee10                _ZN9CRcvUListC1Ev
                0x000000000000ee30                _ZN9CRcvUListD2Ev
                0x000000000000ee40                _ZN9CRcvUListD1Ev
                0x000000000000ee50                _ZN9CRcvUList6removeEPK4CUDT
                0x000000000000eed0                _ZN5CHashC2Ev
                0x000000000000eef0                _ZN5CHashC1Ev
                0x000000000000ef10                _ZN5CHash6lookupERKi
                0x000000000000ef60                _ZN9CRcvQueue10ifNewEntryEv
                0x000000000000ef80                _ZN9CRcvQueue14removeListenerEPK4CUDT
                0x000000000000efe0                _ZN9CRcvQueue11setListenerEPK4CUDT
                0x000000000000f050                _ZN9CSndUList15getNextProcTimeEv
                0x000000000000f0c0                _ZN9CSndUList6removeEPK4CUDT
                0x000000000000f130                _ZN5CHash6insertERKiPK4CUDT
                0x000000000000f1a0                _ZN5CHash6removeERKi
                0x000000000000f220                _ZN5CHashD1Ev
                0x000000000000f290                _ZN5CHashD2Ev
                0x000000000000f300                _ZN10CUnitQueueD1Ev
                0x000000000000f390                _ZN10CUnitQueueD2Ev
                0x000000000000f420                _ZN9CRcvQueue8recvfromERKiR7CPacket
                0x000000000000f720                _ZN5CHash4initERKi
                0x000000000000f780                _ZN10CUnitQueue8increaseEv
                0x000000000000f9b0                _ZN10CUnitQueue16getNextAvailUnitEv
                0x000000000000fa60                _ZN10CUnitQueue4initERKiS1_S1_
                0x000000000000fc30                _ZN16CRendezvousQueue8retrieveEPK8sockaddrRi
                0x000000000000fcf0                _ZN9CRcvUList6updateEPK4CUDT
                0x000000000000fd80                _ZN9CRcvUList6insertEPK4CUDT
                0x000000000000fe00                _ZN16CRendezvousQueueD1Ev
                0x000000000000fe60                _ZN16CRendezvousQueueD2Ev
                0x000000000000fec0                _ZN9CSndUListD1Ev
                0x000000000000ff00                _ZN9CSndUListD2Ev
                0x000000000000ff40                _ZN16CRendezvousQueueC1Ev
                0x000000000000ffa0                _ZN9CRcvQueue4initERKiS1_S1_S1_PK8CChannelPK6CTimer
                0x0000000000010100                _ZN16CRendezvousQueueC2Ev
                0x0000000000010160                _ZN9CSndUListC1Ev
                0x00000000000101f0                _ZN9CSndQueue4initEPK8CChannelPK6CTimer
                0x0000000000010300                _ZN9CSndUListC2Ev
                0x0000000000010390                _ZN9CRcvQueueC1Ev
                0x0000000000010510                _ZN9CRcvQueueC2Ev
                0x0000000000010690                _ZN9CSndQueueC1Ev
                0x0000000000010730                _ZN9CSndQueueC2Ev
                0x00000000000107d0                _ZN9CSndQueue6sendtoEPK8sockaddrR7CPacket
                0x0000000000010820                _ZN9CSndQueueD1Ev
                0x00000000000108c0                _ZN9CSndQueueD2Ev
                0x0000000000010960                _ZN9CSndUList7insert_ERKxPK4CUDT
                0x0000000000010af0                _ZN9CSndUList6insertERKxPK4CUDT
                0x0000000000010bc0                _ZN9CSndUList3popERP8sockaddrR7CPacket
                0x0000000000010cc0                _ZN9CSndQueue6workerEPv
                0x0000000000010e10                _ZN9CSndUList6updateEPK4CUDTRKb
                0x0000000000010ee0                _ZN9CRcvQueueD1Ev
                0x00000000000110e0                _ZN9CRcvQueueD2Ev
                0x00000000000112e0                _ZN9CRcvQueue11getNewEntryEv
                0x0000000000011380                _ZN16CRendezvousQueue6removeERKi
                0x0000000000011580                _ZN9CRcvQueue11setNewEntryEP4CUDT
                0x0000000000011620                _ZN16CRendezvousQueue6insertERKiS1_PK8sockaddr
                0x0000000000011710                _ZN9CRcvQueue8storePktERKiP7CPacket
                0x0000000000011d60                _ZN9CRcvQueue6workerEPv
 *fill*         0x00000000000121fd        0x3 90909090
 .text._ZNSt11_Deque_baseIP7CPacketSaIS1_EED2Ev
                0x0000000000012200       0x56 native/udt/src/queue.o
                0x0000000000012200                _ZNSt11_Deque_baseIP7CPacketSaIS1_EED2Ev
 *fill*         0x0000000000012256        0xa 90909090
 .text._ZNSt8_Rb_treeIiSt4pairIKiSt5queueIP7CPacketSt5dequeIS4_SaIS4_EEEESt10_Select1stIS9_ESt4lessIiESaIS9_EE8_M_eraseEPSt13_Rb_tree_nodeIS9_E
                0x0000000000012260       0x56 native/udt/src/queue.o
                0x0000000000012260                _ZNSt8_Rb_treeIiSt4pairIKiSt5queueIP7CPacketSt5dequeIS4_SaIS4_EEEESt10_Select1stIS9_ESt4lessIiESaIS9_EE8_M_eraseEPSt13_Rb_tree_nodeIS9_E
 *fill*         0x00000000000122b6        0xa 90909090
 .text._ZNSt11_Deque_baseIP7CPacketSaIS1_EE17_M_initialize_mapEj
                0x00000000000122c0      0x11e native/udt/src/queue.o
                0x00000000000122c0                _ZNSt11_Deque_baseIP7CPacketSaIS1_EE17_M_initialize_mapEj
 *fill*         0x00000000000123de        0x2 90909090
 .text._ZNSt8_Rb_treeIiSt4pairIKiSt5queueIP7CPacketSt5dequeIS4_SaIS4_EEEESt10_Select1stIS9_ESt4lessIiESaIS9_EE10_M_insert_EPKSt18_Rb_tree_node_baseSI_RKS9_
                0x00000000000123e0      0x1e4 native/udt/src/queue.o
                0x00000000000123e0                _ZNSt8_Rb_treeIiSt4pairIKiSt5queueIP7CPacketSt5dequeIS4_SaIS4_EEEESt10_Select1stIS9_ESt4lessIiESaIS9_EE10_M_insert_EPKSt18_Rb_tree_node_baseSI_RKS9_
 *fill*         0x00000000000125c4        0xc 90909090
 .text._ZNSt8_Rb_treeIiSt4pairIKiSt5queueIP7CPacketSt5dequeIS4_SaIS4_EEEESt10_Select1stIS9_ESt4lessIiESaIS9_EE16_M_insert_uniqueERKS9_
                0x00000000000125d0       0xbf native/udt/src/queue.o
                0x00000000000125d0                _ZNSt8_Rb_treeIiSt4pairIKiSt5queueIP7CPacketSt5dequeIS4_SaIS4_EEEESt10_Select1stIS9_ESt4lessIiESaIS9_EE16_M_insert_uniqueERKS9_
 *fill*         0x000000000001268f        0x1 90909090
 .text._ZNSt8_Rb_treeIiSt4pairIKiSt5queueIP7CPacketSt5dequeIS4_SaIS4_EEEESt10_Select1stIS9_ESt4lessIiESaIS9_EE17_M_insert_unique_ESt23_Rb_tree_const_iteratorIS9_ERKS9_
                0x0000000000012690      0x185 native/udt/src/queue.o
                0x0000000000012690                _ZNSt8_Rb_treeIiSt4pairIKiSt5queueIP7CPacketSt5dequeIS4_SaIS4_EEEESt10_Select1stIS9_ESt4lessIiESaIS9_EE17_M_insert_unique_ESt23_Rb_tree_const_iteratorIS9_ERKS9_
 *fill*         0x0000000000012815        0xb 90909090
 .text._ZNSt6vectorIP4CUDTSaIS1_EE13_M_insert_auxEN9__gnu_cxx17__normal_iteratorIPS1_S3_EERKS1_
                0x0000000000012820      0x17f native/udt/src/queue.o
                0x0000000000012820                _ZNSt6vectorIP4CUDTSaIS1_EE13_M_insert_auxEN9__gnu_cxx17__normal_iteratorIPS1_S3_EERKS1_
 *fill*         0x000000000001299f        0x1 90909090
 .text._ZNSt6vectorIN16CRendezvousQueue3CRLESaIS1_EE13_M_insert_auxEN9__gnu_cxx17__normal_iteratorIPS1_S3_EERKS1_
                0x00000000000129a0      0x1c5 native/udt/src/queue.o
                0x00000000000129a0                _ZNSt6vectorIN16CRendezvousQueue3CRLESaIS1_EE13_M_insert_auxEN9__gnu_cxx17__normal_iteratorIPS1_S3_EERKS1_
 *fill*         0x0000000000012b65        0xb 90909090
 .text          0x0000000000012b70      0x4eb native/udt/src/packet.o
                0x0000000000012b70                _ZN7CPacketC2Ev
                0x0000000000012bd0                _ZN7CPacketC1Ev
                0x0000000000012c30                _ZN7CPacketD2Ev
                0x0000000000012c40                _ZN7CPacketD1Ev
                0x0000000000012c50                _ZNK7CPacket9getLengthEv
                0x0000000000012c60                _ZN7CPacket9setLengthERKi
                0x0000000000012c70                _ZN7CPacket4packERKiPvS2_S1_
                0x0000000000012d70                _ZN7CPacket15getPacketVectorEv
                0x0000000000012d80                _ZNK7CPacket7getFlagEv
                0x0000000000012d90                _ZNK7CPacket7getTypeEv
                0x0000000000012db0                _ZNK7CPacket15getExtendedTypeEv
                0x0000000000012dc0                _ZNK7CPacket11getAckSeqNoEv
                0x0000000000012dd0                _ZNK7CPacket14getMsgBoundaryEv
                0x0000000000012de0                _ZNK7CPacket15getMsgOrderFlagEv
                0x0000000000012e00                _ZNK7CPacket9getMsgSeqEv
                0x0000000000012e10                _ZN10CHandShakeC2Ev
                0x0000000000012e70                _ZN10CHandShakeC1Ev
                0x0000000000012ed0                _ZN10CHandShake9serializeEPcRKi
                0x0000000000012f40                _ZN10CHandShake11deserializeEPKcRKi
                0x0000000000012fb0                _ZNK7CPacket5cloneEv
 *fill*         0x000000000001305b        0x5 90909090
 .text          0x0000000000013060      0xc17 native/udt/src/md5.o
                0x0000000000013060                md5_init
                0x0000000000013a50                md5_append
                0x0000000000013bb0                md5_finish
 *fill*         0x0000000000013c77        0x9 90909090
 .text          0x0000000000013c80     0x1d12 native/udt/src/list.o
                0x0000000000013c80                _ZNK12CRcvLossList4findERKiS1_
                0x0000000000013dc0                _ZNK12CRcvLossList13getLossLengthEv
                0x0000000000013dd0                _ZNK12CRcvLossList15getFirstLostSeqEv
                0x0000000000013df0                _ZN12CRcvLossList12getLossArrayEPiRiRKiS3_
                0x0000000000013ed0                _ZN12CRcvLossList6removeERKi
                0x0000000000014390                _ZN12CRcvLossList6removeERKiS1_
                0x0000000000014470                _ZN12CRcvLossList6insertERKiS1_
                0x0000000000014640                _ZN12CRcvLossListD1Ev
                0x00000000000146a0                _ZN12CRcvLossListD2Ev
                0x0000000000014700                _ZN12CRcvLossListC1ERKi
                0x00000000000147e0                _ZN12CRcvLossListC2ERKi
                0x00000000000148c0                _ZN12CSndLossList13getLossLengthEv
                0x0000000000014910                _ZN12CSndLossList10getLostSeqEv
                0x0000000000014a90                _ZN12CSndLossList6removeERKi
                0x0000000000014fa0                _ZN12CSndLossList6insertERKiS1_
                0x0000000000015720                _ZN12CSndLossListD1Ev
                0x0000000000015780                _ZN12CSndLossListD2Ev
                0x00000000000157e0                _ZN12CSndLossListC1ERKi
                0x00000000000158c0                _ZN12CSndLossListC2ERKi
 *fill*         0x0000000000015992        0xe 90909090
 .text          0x00000000000159a0     0x2a4d native/udt/src/epoll.o
                0x00000000000159a0                _ZN6CEPoll12remove_ssockEiRKiPS0_
                0x0000000000015c90                _ZN6CEPoll9add_ssockEiRKiPS0_
                0x0000000000015ed0                _ZN6CEPoll4waitEiPSt3setIiSt4lessIiESaIiEES5_xS5_S5_
                0x0000000000016590                _ZN6CEPoll9add_usockEiRKiPS0_
                0x0000000000016710                _ZN6CEPoll12disable_readERKiRSt3setIiSt4lessIiESaIiEE
                0x0000000000016b40                _ZN6CEPoll13disable_writeERKiRSt3setIiSt4lessIiESaIiEE
                0x0000000000016f70                _ZN6CEPoll11enable_readERKiRSt3setIiSt4lessIiESaIiEE
                0x0000000000017320                _ZN6CEPoll12enable_writeERKiRSt3setIiSt4lessIiESaIiEE
                0x00000000000176d0                _ZN6CEPoll12remove_usockEiRKiPS0_
                0x0000000000017920                _ZN6CEPollC2Ev
                0x00000000000179a0                _ZN6CEPollD1Ev
                0x0000000000017a10                _ZN6CEPollD2Ev
                0x0000000000017a80                _ZN6CEPollC1Ev
                0x0000000000017b00                _ZN6CEPoll7releaseEi
                0x0000000000017ca0                _ZN6CEPoll6createEv
 *fill*         0x00000000000183ed        0x3 90909090
 .text._ZNSt8_Rb_treeIiiSt9_IdentityIiESt4lessIiESaIiEE8_M_eraseEPSt13_Rb_tree_nodeIiE
                0x00000000000183f0       0x4b native/udt/src/epoll.o
                0x00000000000183f0                _ZNSt8_Rb_treeIiiSt9_IdentityIiESt4lessIiESaIiEE8_M_eraseEPSt13_Rb_tree_nodeIiE
 *fill*         0x000000000001843b        0x5 90909090
 .text._ZNSt3setIiSt4lessIiESaIiEED1Ev
                0x0000000000018440       0x32 native/udt/src/epoll.o
                0x0000000000018440                _ZNSt3setIiSt4lessIiESaIiEED1Ev
 *fill*         0x0000000000018472        0xe 90909090
 .text._ZNSt8_Rb_treeIiiSt9_IdentityIiESt4lessIiESaIiEE7_M_copyEPKSt13_Rb_tree_nodeIiEPS7_
                0x0000000000018480      0x11f native/udt/src/epoll.o
                0x0000000000018480                _ZNSt8_Rb_treeIiiSt9_IdentityIiESt4lessIiESaIiEE7_M_copyEPKSt13_Rb_tree_nodeIiEPS7_
 *fill*         0x000000000001859f        0x1 90909090
 .text._ZNSt8_Rb_treeIiiSt9_IdentityIiESt4lessIiESaIiEE10_M_insert_EPKSt18_Rb_tree_node_baseS8_RKi
                0x00000000000185a0       0xa0 native/udt/src/epoll.o
                0x00000000000185a0                _ZNSt8_Rb_treeIiiSt9_IdentityIiESt4lessIiESaIiEE10_M_insert_EPKSt18_Rb_tree_node_baseS8_RKi
 .text._ZN10CEPollDescD1Ev
                0x0000000000018640       0xad native/udt/src/epoll.o
                0x0000000000018640                _ZN10CEPollDescD1Ev
 *fill*         0x00000000000186ed        0x3 90909090
 .text._ZNSt6vectorIiSaIiEE13_M_insert_auxEN9__gnu_cxx17__normal_iteratorIPiS1_EERKi
                0x00000000000186f0      0x17f native/udt/src/epoll.o
                0x00000000000186f0                _ZNSt6vectorIiSaIiEE13_M_insert_auxEN9__gnu_cxx17__normal_iteratorIPiS1_EERKi
 *fill*         0x000000000001886f        0x1 90909090
 .text._ZNSt8_Rb_treeIiSt4pairIKi10CEPollDescESt10_Select1stIS3_ESt4lessIiESaIS3_EE10_M_insert_EPKSt18_Rb_tree_node_baseSC_RKS3_
                0x0000000000018870      0x283 native/udt/src/epoll.o
                0x0000000000018870                _ZNSt8_Rb_treeIiSt4pairIKi10CEPollDescESt10_Select1stIS3_ESt4lessIiESaIS3_EE10_M_insert_EPKSt18_Rb_tree_node_baseSC_RKS3_
 *fill*         0x0000000000018af3        0xd 90909090
 .text._ZNSt8_Rb_treeIiSt4pairIKi10CEPollDescESt10_Select1stIS3_ESt4lessIiESaIS3_EE16_M_insert_uniqueERKS3_
                0x0000000000018b00       0xbf native/udt/src/epoll.o
                0x0000000000018b00                _ZNSt8_Rb_treeIiSt4pairIKi10CEPollDescESt10_Select1stIS3_ESt4lessIiESaIS3_EE16_M_insert_uniqueERKS3_
 *fill*         0x0000000000018bbf        0x1 90909090
 .text._ZNSt8_Rb_treeIiSt4pairIKi10CEPollDescESt10_Select1stIS3_ESt4lessIiESaIS3_EE17_M_insert_unique_ESt23_Rb_tree_const_iteratorIS3_ERKS3_
                0x0000000000018bc0      0x185 native/udt/src/epoll.o
                0x0000000000018bc0                _ZNSt8_Rb_treeIiSt4pairIKi10CEPollDescESt10_Select1stIS3_ESt4lessIiESaIS3_EE17_M_insert_unique_ESt23_Rb_tree_const_iteratorIS3_ERKS3_
 *fill*         0x0000000000018d45        0xb 90909090
 .text._ZNSt8_Rb_treeIiSt4pairIKi10CEPollDescESt10_Select1stIS3_ESt4lessIiESaIS3_EE8_M_eraseEPSt13_Rb_tree_nodeIS3_E
                0x0000000000018d50       0xca native/udt/src/epoll.o
                0x0000000000018d50                _ZNSt8_Rb_treeIiSt4pairIKi10CEPollDescESt10_Select1stIS3_ESt4lessIiESaIS3_EE8_M_eraseEPSt13_Rb_tree_nodeIS3_E
 *fill*         0x0000000000018e1a        0x6 90909090
 .text          0x0000000000018e20     0x8f45 native/udt/src/core.o
                0x0000000000018e70                _ZN4CUDT11removeEPollEi
                0x0000000000019020                _ZN4CUDT8addEPollEi
                0x00000000000191c0                _ZN4CUDT6listenEP8sockaddrR7CPacket
                0x00000000000195f0                _ZN4CUDT12releaseSynchEv
                0x0000000000019690                _ZN4CUDT8sendCtrlERKiPvS2_S1_
                0x0000000000019eb0                _ZN4CUDT11checkTimersEv
                0x000000000001a570                _ZN4CUDT11processDataEP5CUnit
                0x000000000001aa00                _ZN4CUDT8packDataER7CPacketRy
                0x000000000001af70                _ZN4CUDT11processCtrlER7CPacket
                0x000000000001c140                _ZN4CUDT12destroySynchEv
                0x000000000001c1d0                _ZN4CUDT9initSynchEv
                0x000000000001c2a0                _ZN4CUDTC1ERKS_
                0x000000000001c430                _ZN4CUDTC2ERKS_
                0x000000000001c5c0                _ZN4CUDTC1Ev
                0x000000000001c760                _ZN4CUDTC2Ev
                0x000000000001c900                _ZN4CUDT6getOptE6UDTOptPvRi
                0x000000000001cc50                _ZN4CUDT6setOptE6UDTOptPKvRKi
                0x000000000001d540                _ZN4CUDT6sampleEP8CPerfMonb
                0x000000000001da40                _ZN4CUDT8recvfileERSt13basic_fstreamIcSt11char_traitsIcEERxRKxRKi
                0x000000000001df90                _ZN4CUDT8sendfileERSt13basic_fstreamIcSt11char_traitsIcEERxRKxRKi
                0x000000000001e550                _ZN4CUDT7recvmsgEPcRKi
                0x000000000001ea00                _ZN4CUDT7sendmsgEPKcRKiS3_RKb
                0x000000000001efb0                _ZN4CUDT4sendEPKcRKi
                0x000000000001f560                _ZN4CUDT4recvEPcRKi
                0x000000000001fa40                _ZN4CUDT5closeEv
                0x000000000001fd30                _ZN4CUDT7connectEPK8sockaddrP10CHandShake
                0x0000000000020440                _ZN4CUDT6listenEv
                0x0000000000020600                _ZN4CUDT4openEv
                0x0000000000020a20                _ZN4CUDTD2Ev
                0x0000000000020b80                _ZN4CUDTD1Ev
                0x0000000000020ce0                _ZN4CUDT7connectEPK8sockaddr
 *fill*         0x0000000000021d65        0xb 90909090
 .text._ZN17CCCVirtualFactoryD1Ev
                0x0000000000021d70       0x1e native/udt/src/core.o
                0x0000000000021d70                _ZN17CCCVirtualFactoryD1Ev
 *fill*         0x0000000000021d8e        0x2 90909090
 .text._ZN10CCCFactoryI6CUDTCCED1Ev
                0x0000000000021d90       0x1e native/udt/src/core.o
                0x0000000000021d90                _ZN10CCCFactoryI6CUDTCCED1Ev
 *fill*         0x0000000000021dae        0x2 90909090
 .text._ZN10CCCFactoryI6CUDTCCED0Ev
                0x0000000000021db0       0x2e native/udt/src/core.o
                0x0000000000021db0                _ZN10CCCFactoryI6CUDTCCED0Ev
 *fill*         0x0000000000021dde        0x2 90909090
 .text._ZN17CCCVirtualFactoryD0Ev
                0x0000000000021de0       0x2e native/udt/src/core.o
                0x0000000000021de0                _ZN17CCCVirtualFactoryD0Ev
 *fill*         0x0000000000021e0e        0x2 90909090
 .text._ZN10CCCFactoryI6CUDTCCE5cloneEv
                0x0000000000021e10       0x2f native/udt/src/core.o
                0x0000000000021e10                _ZN10CCCFactoryI6CUDTCCE5cloneEv
 *fill*         0x0000000000021e3f        0x1 90909090
 .text._ZN13CUDTExceptionaSERKS_
                0x0000000000021e40       0x77 native/udt/src/core.o
                0x0000000000021e40                _ZN13CUDTExceptionaSERKS_
 *fill*         0x0000000000021eb7        0x9 90909090
 .text._ZN10CCCFactoryI6CUDTCCE6createEv
                0x0000000000021ec0       0x4f native/udt/src/core.o
                0x0000000000021ec0                _ZN10CCCFactoryI6CUDTCCE6createEv
 .text.__i686.get_pc_thunk.cx
                0x0000000000021f0f        0x4 native/udt/src/core.o
                0x0000000000021f0f                __i686.get_pc_thunk.cx
 *fill*         0x0000000000021f13        0xd 90909090
 .text          0x0000000000021f20     0x1451 native/udt/src/common.o
                0x0000000000021f20                _ZN6CTimer5rdtscERy
                0x0000000000021f30                _ZN6CTimer15getCPUFrequencyEv
                0x0000000000021f50                _ZN13CUDTExceptionC2ERKS_
                0x0000000000021fa0                _ZN13CUDTExceptionC1ERKS_
                0x0000000000021ff0                _ZNK13CUDTException12getErrorCodeEv
                0x0000000000022010                _ZN13CUDTException5clearEv
                0x0000000000022030                _ZN10CIPAddress5ipcmpEPK8sockaddrS2_RKi
                0x00000000000220a0                _ZN10CIPAddress4ntopEPK8sockaddrPjRKi
                0x0000000000022160                _ZN10CIPAddress4ptonEP8sockaddrPKjRKi
                0x00000000000221c0                _ZN4CMD57computeEPKcPh
                0x0000000000022250                _ZN13CUDTExceptionC1Eiii
                0x00000000000222d0                _ZN13CUDTExceptionC2Eiii
                0x0000000000022350                _ZN6CGuard11releaseCondER14pthread_cond_t
                0x0000000000022380                _ZN6CGuard10createCondER14pthread_cond_t
                0x00000000000223b0                _ZN6CGuard12releaseMutexER15pthread_mutex_t
                0x00000000000223e0                _ZN6CTimerD1Ev
                0x0000000000022420                _ZN6CTimerD2Ev
                0x0000000000022460                _ZN6CGuard11createMutexER15pthread_mutex_t
                0x0000000000022490                _ZN6CTimerC1Ev
                0x0000000000022510                _ZN6CTimerC2Ev
                0x0000000000022590                _ZN6CGuard7leaveCSER15pthread_mutex_t
                0x00000000000225c0                _ZN6CGuardD1Ev
                0x00000000000225f0                _ZN6CGuardD2Ev
                0x0000000000022620                _ZN6CGuard7enterCSER15pthread_mutex_t
                0x0000000000022650                _ZN6CGuardC1ER15pthread_mutex_t
                0x0000000000022690                _ZN6CGuardC2ER15pthread_mutex_t
                0x00000000000226d0                _ZN6CTimer5sleepEv
                0x0000000000022700                _ZN6CTimer7getTimeEv
                0x0000000000022750                _ZN6CTimer12waitForEventEv
                0x00000000000227f0                _ZN6CTimer7sleeptoERKy
                0x0000000000022910                _ZN6CTimer5sleepERKy
                0x0000000000022960                _ZN6CTimer12triggerEventEv
                0x0000000000022990                _ZN6CTimer4tickEv
                0x00000000000229c0                _ZN6CTimer9interruptEv
                0x0000000000022a00                _ZN6CTimer16readCPUFrequencyEv
                0x0000000000022ac0                _ZN13CUDTExceptionD0Ev
                0x0000000000022bc0                _ZN13CUDTExceptionD1Ev
                0x0000000000022cb0                _ZN13CUDTExceptionD2Ev
                0x0000000000022da0                _ZN13CUDTException15getErrorMessageEv
 *fill*         0x0000000000023371        0xf 90909090
 .text          0x0000000000023380      0x8da native/udt/src/channel.o
                0x0000000000023380                _ZN8CChannelC2Ev
                0x00000000000233b0                _ZN8CChannelC1Ev
                0x00000000000233e0                _ZN8CChannelC2ERKi
                0x0000000000023410                _ZN8CChannelC1ERKi
                0x0000000000023440                _ZN8CChannelD2Ev
                0x0000000000023450                _ZN8CChannelD1Ev
                0x0000000000023460                _ZN8CChannel13setSndBufSizeERKi
                0x0000000000023470                _ZN8CChannel13setRcvBufSizeERKi
                0x0000000000023480                _ZNK8CChannel8recvfromEP8sockaddrR7CPacket
                0x00000000000235b0                _ZNK8CChannel6sendtoEPK8sockaddrR7CPacket
                0x0000000000023720                _ZNK8CChannel11getPeerAddrEP8sockaddr
                0x0000000000023770                _ZNK8CChannel11getSockAddrEP8sockaddr
                0x00000000000237c0                _ZN8CChannel13getRcvBufSizeEv
                0x0000000000023820                _ZN8CChannel13getSndBufSizeEv
                0x0000000000023880                _ZNK8CChannel5closeEv
                0x00000000000238b0                _ZN8CChannel13setUDPSockOptEv
                0x0000000000023a10                _ZN8CChannel4openEi
                0x0000000000023a40                _ZN8CChannel4openEPK8sockaddr
 *fill*         0x0000000000023c5a        0x6 90909090
 .text          0x0000000000023c60      0xbaa native/udt/src/ccc.o
                0x0000000000023c60                _ZN3CCCC2Ev
                0x0000000000023d00                _ZN3CCCC1Ev
                0x0000000000023da0                _ZN3CCC11setACKTimerERKi
                0x0000000000023dc0                _ZN3CCC14setACKIntervalERKi
                0x0000000000023dd0                _ZN3CCC6setRTOERKi
                0x0000000000023df0                _ZN3CCC6setMSSERKi
                0x0000000000023e00                _ZN3CCC12setBandwidthERKi
                0x0000000000023e10                _ZN3CCC15setSndCurrSeqNoERKi
                0x0000000000023e20                _ZN3CCC10setRcvRateERKi
                0x0000000000023e30                _ZN3CCC14setMaxCWndSizeERKi
                0x0000000000023e40                _ZN3CCC6setRTTERKi
                0x0000000000023e50                _ZN6CUDTCCC2Ev
                0x0000000000023f00                _ZN6CUDTCCC1Ev
                0x0000000000023fb0                _ZN6CUDTCC9onTimeoutEv
                0x0000000000024010                _ZN6CUDTCC6onLossEPKiRS0_
                0x00000000000241f0                _ZN6CUDTCC4initEv
                0x00000000000242a0                _ZN6CUDTCC5onACKERKi
                0x0000000000024620                _ZN3CCCD0Ev
                0x0000000000024670                _ZN3CCCD1Ev
                0x00000000000246b0                _ZN3CCCD2Ev
                0x00000000000246f0                _ZN3CCC12setUserParamEPKcRKi
                0x0000000000024760                _ZN3CCC11getPerfInfoEv
                0x00000000000247b0                _ZNK3CCC13sendCustomMsgER7CPacket
 *fill*         0x000000000002480a        0x6 90909090
 .text._ZN3CCC4initEv
                0x0000000000024810        0x5 native/udt/src/ccc.o
                0x0000000000024810                _ZN3CCC4initEv
 *fill*         0x0000000000024815        0xb 90909090
 .text._ZN3CCC5closeEv
                0x0000000000024820        0x5 native/udt/src/ccc.o
                0x0000000000024820                _ZN3CCC5closeEv
 *fill*         0x0000000000024825        0xb 90909090
 .text._ZN3CCC5onACKERKi
                0x0000000000024830        0x5 native/udt/src/ccc.o
                0x0000000000024830                _ZN3CCC5onACKERKi
 *fill*         0x0000000000024835        0xb 90909090
 .text._ZN3CCC6onLossEPKiRS0_
                0x0000000000024840        0x5 native/udt/src/ccc.o
                0x0000000000024840                _ZN3CCC6onLossEPKiRS0_
 *fill*         0x0000000000024845        0xb 90909090
 .text._ZN3CCC9onTimeoutEv
                0x0000000000024850        0x5 native/udt/src/ccc.o
                0x0000000000024850                _ZN3CCC9onTimeoutEv
 *fill*         0x0000000000024855        0xb 90909090
 .text._ZN3CCC9onPktSentEPK7CPacket
                0x0000000000024860        0x5 native/udt/src/ccc.o
                0x0000000000024860                _ZN3CCC9onPktSentEPK7CPacket
 *fill*         0x0000000000024865        0xb 90909090
 .text._ZN3CCC13onPktReceivedEPK7CPacket
                0x0000000000024870        0x5 native/udt/src/ccc.o
                0x0000000000024870                _ZN3CCC13onPktReceivedEPK7CPacket
 *fill*         0x0000000000024875        0xb 90909090
 .text._ZN3CCC16processCustomMsgEPK7CPacket
                0x0000000000024880        0x5 native/udt/src/ccc.o
                0x0000000000024880                _ZN3CCC16processCustomMsgEPK7CPacket
 *fill*         0x0000000000024885        0xb 90909090
 .text._ZN6CUDTCCD0Ev
                0x0000000000024890       0x3f native/udt/src/ccc.o
                0x0000000000024890                _ZN6CUDTCCD0Ev
 *fill*         0x00000000000248cf        0x1 90909090
 .text._ZN6CUDTCCD1Ev
                0x00000000000248d0       0x2e native/udt/src/ccc.o
                0x00000000000248d0                _ZN6CUDTCCD1Ev
 .text.__i686.get_pc_thunk.dx
                0x00000000000248fe        0x4 native/udt/src/ccc.o
                0x00000000000248fe                __i686.get_pc_thunk.dx
 *fill*         0x0000000000024902        0xe 90909090
 .text          0x0000000000024910      0x7ca native/udt/src/cache.o
                0x0000000000024910                _ZNK7CIPCompclEPK10CInfoBlockS2_
                0x0000000000024970                _ZNK7CTSCompclEPK10CInfoBlockS2_
                0x00000000000249b0                _ZN6CCache7convertEPK8sockaddrRKiPj
                0x0000000000024a00                _ZN6CCacheC1ERKj
                0x0000000000024a90                _ZN6CCacheC2ERKj
                0x0000000000024b20                _ZN6CCacheC1Ev
                0x0000000000024bb0                _ZN6CCacheC2Ev
                0x0000000000024c40                _ZN6CCacheD2Ev
                0x0000000000024d00                _ZN6CCache6updateEPK8sockaddrRKiP10CInfoBlock
                0x0000000000024ef0                _ZN6CCache6lookupEPK8sockaddrRKiP10CInfoBlock
                0x0000000000025020                _ZN6CCacheD1Ev
 *fill*         0x00000000000250da        0x6 90909090
 .text._ZNSt8_Rb_treeIP10CInfoBlockS1_St9_IdentityIS1_E7CTSCompSaIS1_EE8_M_eraseEPSt13_Rb_tree_nodeIS1_E
                0x00000000000250e0       0x4b native/udt/src/cache.o
                0x00000000000250e0                _ZNSt8_Rb_treeIP10CInfoBlockS1_St9_IdentityIS1_E7CTSCompSaIS1_EE8_M_eraseEPSt13_Rb_tree_nodeIS1_E
 *fill*         0x000000000002512b        0x5 90909090
 .text._ZNSt8_Rb_treeIP10CInfoBlockS1_St9_IdentityIS1_E7CIPCompSaIS1_EE8_M_eraseEPSt13_Rb_tree_nodeIS1_E
                0x0000000000025130       0x4b native/udt/src/cache.o
                0x0000000000025130                _ZNSt8_Rb_treeIP10CInfoBlockS1_St9_IdentityIS1_E7CIPCompSaIS1_EE8_M_eraseEPSt13_Rb_tree_nodeIS1_E
 *fill*         0x000000000002517b        0x5 90909090
 .text._ZNSt8_Rb_treeIP10CInfoBlockS1_St9_IdentityIS1_E7CTSCompSaIS1_EE5eraseERKS1_
                0x0000000000025180      0x1e3 native/udt/src/cache.o
                0x0000000000025180                _ZNSt8_Rb_treeIP10CInfoBlockS1_St9_IdentityIS1_E7CTSCompSaIS1_EE5eraseERKS1_
 *fill*         0x0000000000025363        0xd 90909090
 .text._ZNSt8_Rb_treeIP10CInfoBlockS1_St9_IdentityIS1_E7CIPCompSaIS1_EE5eraseERKS1_
                0x0000000000025370      0x1e3 native/udt/src/cache.o
                0x0000000000025370                _ZNSt8_Rb_treeIP10CInfoBlockS1_St9_IdentityIS1_E7CIPCompSaIS1_EE5eraseERKS1_
 *fill*         0x0000000000025553        0xd 90909090
 .text._ZNSt8_Rb_treeIP10CInfoBlockS1_St9_IdentityIS1_E7CIPCompSaIS1_EE10_M_insert_EPKSt18_Rb_tree_node_baseS9_RKS1_
                0x0000000000025560       0xb7 native/udt/src/cache.o
                0x0000000000025560                _ZNSt8_Rb_treeIP10CInfoBlockS1_St9_IdentityIS1_E7CIPCompSaIS1_EE10_M_insert_EPKSt18_Rb_tree_node_baseS9_RKS1_
 *fill*         0x0000000000025617        0x9 90909090
 .text._ZNSt8_Rb_treeIP10CInfoBlockS1_St9_IdentityIS1_E7CIPCompSaIS1_EE16_M_insert_uniqueERKS1_
                0x0000000000025620       0xf4 native/udt/src/cache.o
                0x0000000000025620                _ZNSt8_Rb_treeIP10CInfoBlockS1_St9_IdentityIS1_E7CIPCompSaIS1_EE16_M_insert_uniqueERKS1_
 *fill*         0x0000000000025714        0xc 90909090
 .text._ZNSt8_Rb_treeIP10CInfoBlockS1_St9_IdentityIS1_E7CTSCompSaIS1_EE10_M_insert_EPKSt18_Rb_tree_node_baseS9_RKS1_
                0x0000000000025720       0xb7 native/udt/src/cache.o
                0x0000000000025720                _ZNSt8_Rb_treeIP10CInfoBlockS1_St9_IdentityIS1_E7CTSCompSaIS1_EE10_M_insert_EPKSt18_Rb_tree_node_baseS9_RKS1_
 *fill*         0x00000000000257d7        0x9 90909090
 .text._ZNSt8_Rb_treeIP10CInfoBlockS1_St9_IdentityIS1_E7CTSCompSaIS1_EE16_M_insert_uniqueERKS1_
                0x00000000000257e0       0xf4 native/udt/src/cache.o
                0x00000000000257e0                _ZNSt8_Rb_treeIP10CInfoBlockS1_St9_IdentityIS1_E7CTSCompSaIS1_EE16_M_insert_uniqueERKS1_
 *fill*         0x00000000000258d4        0xc 90909090
 .text          0x00000000000258e0     0x15b4 native/udt/src/buffer.o
                0x00000000000258e0                _ZN10CSndBuffer8readDataEPPcRi
                0x0000000000025920                _ZNK10CSndBuffer14getCurrBufSizeEv
                0x0000000000025930                _ZN10CRcvBuffer7addDataEP5CUniti
                0x00000000000259a0                _ZNK10CRcvBuffer14getRcvDataSizeEv
                0x00000000000259c0                _ZNK10CRcvBuffer15getAvailBufSizeEv
                0x0000000000025a00                _ZN10CRcvBuffer7dropMsgERKi
                0x0000000000025a80                _ZN10CRcvBuffer7scanMsgERiS0_Rb
                0x0000000000025d10                _ZN10CRcvBuffer12getRcvMsgNumEv
                0x0000000000025d50                _ZN10CRcvBuffer7readMsgEPcRKi
                0x0000000000025e80                _ZN10CRcvBuffer10readBufferEPcRKi
                0x0000000000026010                _ZN10CRcvBuffer7ackDataERKi
                0x0000000000026060                _ZN10CRcvBuffer16readBufferToFileERSt13basic_fstreamIcSt11char_traitsIcEERKi
                0x00000000000261c0                _ZN10CRcvBufferD1Ev
                0x0000000000026220                _ZN10CRcvBufferD2Ev
                0x0000000000026280                _ZN10CRcvBufferC1ERKiP10CUnitQueue
                0x0000000000026300                _ZN10CRcvBufferC2ERKiP10CUnitQueue
                0x0000000000026380                _ZN10CRcvBufferC1EP10CUnitQueue
                0x00000000000263f0                _ZN10CRcvBufferC2EP10CUnitQueue
                0x0000000000026460                _ZN10CSndBuffer8increaseEv
                0x0000000000026660                _ZN10CSndBuffer7ackDataERKi
                0x00000000000266e0                _ZN10CSndBuffer8readDataEPPciRiS2_
                0x0000000000026840                _ZN10CSndBuffer17addBufferFromFileERSt13basic_fstreamIcSt11char_traitsIcEERKi
                0x0000000000026990                _ZN10CSndBuffer9addBufferEPKcRKiS3_RKb
                0x0000000000026b00                _ZN10CSndBufferD1Ev
                0x0000000000026b90                _ZN10CSndBufferD2Ev
                0x0000000000026c20                _ZN10CSndBufferC1ERKiS1_
                0x0000000000026d60                _ZN10CSndBufferC2ERKiS1_
 *fill*         0x0000000000026e94        0xc 90909090
 .text          0x0000000000026ea0     0x8cf7 native/udt/src/api.o
                0x0000000000026ea0                _ZN10CUDTUnited6locateEi
                0x0000000000026f30                _ZN10CUDTUnited9getStatusEi
                0x0000000000026fd0                _ZN10CUDTUnited9updateMuxEP10CUDTSocketPKS0_
                0x00000000000270c0                _ZN10CUDTUnited9updateMuxEP10CUDTSocketPK8sockaddrPKi
                0x0000000000027590                _ZN10CUDTUnited8getErrorEv
                0x0000000000027630                _ZN4CUDT12getlasterrorEv
                0x0000000000027660                _ZN3UDT12getlasterrorEv
                0x0000000000027680                _ZN10CUDTUnited8setErrorEP13CUDTException
                0x00000000000276d0                _ZN10CUDTUnited6locateEiPK8sockaddrRKiS4_
                0x0000000000027820                _ZN10CUDTUnited13epoll_releaseEi
                0x0000000000027850                _ZN4CUDT13epoll_releaseEi
                0x00000000000279a0                _ZN3UDT13epoll_releaseEi
                0x00000000000279d0                _ZN10CUDTUnited10epoll_waitEiPSt3setIiSt4lessIiESaIiEES5_xS5_S5_
                0x0000000000027a30                _ZN4CUDT10epoll_waitEiPSt3setIiSt4lessIiESaIiEES5_xS5_S5_
                0x0000000000027bb0                _ZN3UDT10epoll_waitEiPSt3setIiSt4lessIiESaIiEES5_xS5_S5_
                0x0000000000027c00                _ZN10CUDTUnited18epoll_remove_ssockEiiPKi
                0x0000000000027c40                _ZN4CUDT18epoll_remove_ssockEiiPKi
                0x0000000000027da0                _ZN10CUDTUnited18epoll_remove_usockEiiPKi
                0x0000000000027e70                _ZN4CUDT18epoll_remove_usockEiiPKi
                0x0000000000027fd0                _ZN3UDT18epoll_remove_ssockEiiPKi
                0x0000000000028010                _ZN3UDT18epoll_remove_usockEiiPKi
                0x0000000000028050                _ZN10CUDTUnited6lookupEi
                0x0000000000028150                _ZN4CUDT12getUDTHandleEi
                0x0000000000028190                _ZN4CUDT7perfmonEiP8CPerfMonb
                0x0000000000028300                _ZN3UDT7perfmonEiP8CPerfMonb
                0x0000000000028340                _ZN4CUDT8recvfileEiRSt13basic_fstreamIcSt11char_traitsIcEERxRKxRKi
                0x00000000000284c0                _ZN3UDT8recvfileEiRSt13basic_fstreamIcSt11char_traitsIcEERxxi
                0x0000000000028510                _ZN4CUDT8sendfileEiRSt13basic_fstreamIcSt11char_traitsIcEERxRKxRKi
                0x0000000000028700                _ZN3UDT8sendfileEiRSt13basic_fstreamIcSt11char_traitsIcEERxxi
                0x0000000000028750                _ZN4CUDT7recvmsgEiPci
                0x00000000000288c0                _ZN3UDT7recvmsgEiPci
                0x0000000000028900                _ZN4CUDT7sendmsgEiPKciib
                0x0000000000028ae0                _ZN3UDT7sendmsgEiPKciib
                0x0000000000028b20                _ZN4CUDT4recvEiPcii
                0x0000000000028c90                _ZN3UDT4recvEiPcii
                0x0000000000028cd0                _ZN4CUDT4sendEiPKcii
                0x0000000000028ea0                _ZN3UDT4sendEiPKcii
                0x0000000000028ee0                _ZN4CUDT10setsockoptEii6UDTOptPKvi
                0x0000000000029050                _ZN3UDT10setsockoptEii6UDTOptPKvi
                0x0000000000029090                _ZN4CUDT10getsockoptEii6UDTOptPvPi
                0x0000000000029200                _ZN3UDT10getsockoptEii6UDTOptPvPi
                0x0000000000029240                _ZN10CUDTUnited15epoll_add_ssockEiiPKi
                0x0000000000029280                _ZN4CUDT15epoll_add_ssockEiiPKi
                0x00000000000293e0                _ZN3UDT15epoll_add_ssockEiiPKi
                0x0000000000029420                _ZN10CUDTUnited15epoll_add_usockEiiPKi
                0x00000000000294f0                _ZN4CUDT15epoll_add_usockEiiPKi
                0x0000000000029650                _ZN3UDT15epoll_add_usockEiiPKi
                0x0000000000029690                _ZN10CUDTUnited12epoll_createEv
                0x00000000000296c0                _ZN4CUDT12epoll_createEv
                0x0000000000029810                _ZN3UDT12epoll_createEv
                0x0000000000029830                _ZN10CUDTUnited11getsocknameEiP8sockaddrPi
                0x00000000000299a0                _ZN4CUDT11getsocknameEiP8sockaddrPi
                0x0000000000029b00                _ZN3UDT11getsocknameEiP8sockaddrPi
                0x0000000000029b40                _ZN10CUDTUnited11getpeernameEiP8sockaddrPi
                0x0000000000029cc0                _ZN4CUDT11getpeernameEiP8sockaddrPi
                0x0000000000029e20                _ZN3UDT11getpeernameEiP8sockaddrPi
                0x0000000000029e60                _ZN10CUDTUnited4bindEiPK8sockaddrRKi
                0x000000000002a020                _ZN4CUDT4bindEiPK8sockaddri
                0x000000000002a1a0                _ZN3UDT4bindEiPK8sockaddri
                0x000000000002a1e0                _ZN10CUDTUnited7connectEiPK8sockaddrRKi
                0x000000000002a4a0                _ZN4CUDT7connectEiPK8sockaddri
                0x000000000002a670                _ZN3UDT7connectEiPK8sockaddri
                0x000000000002a6b0                _ZN10CUDTUnited6acceptEiP8sockaddrPi
                0x000000000002aa80                _ZN4CUDT6acceptEiP8sockaddrPi
                0x000000000002ab90                _ZN3UDT6acceptEiP8sockaddrPi
                0x000000000002abd0                _ZN10CUDTUnited6listenEiRKi
                0x000000000002ae50                _ZN4CUDT6listenEii
                0x000000000002afc0                _ZN3UDT6listenEii
                0x000000000002aff0                _ZN10CUDTUnited4bindEii
                0x000000000002b1d0                _ZN4CUDT4bindEii
                0x000000000002b340                _ZN3UDT4bindEii
                0x000000000002b370                _ZN10CUDTUnited7cleanupEv
                0x000000000002b440                _ZN4CUDT7cleanupEv
                0x000000000002b470                _ZN3UDT7cleanupEv
                0x000000000002b490                _ZN10CUDTSocketC1Ev
                0x000000000002b570                _ZN10CUDTSocketC2Ev
                0x000000000002b650                _ZN10CUDTUnited7startupEv
                0x000000000002b730                _ZN4CUDT7startupEv
                0x000000000002b760                _ZN3UDT7startupEv
                0x000000000002b780                _ZN10CUDTUnited5closeEi
                0x000000000002ba90                _ZN4CUDT5closeEi
                0x000000000002bbe0                _ZN3UDT5closeEi
                0x000000000002bc10                _ZN10CUDTUnitedC2Ev
                0x000000000002beb0                _ZN10CUDTSocketD1Ev
                0x000000000002bf70                _ZN10CUDTSocketD2Ev
                0x000000000002c030                _ZN10CUDTUnited13newConnectionEiPK8sockaddrP10CHandShake
                0x000000000002c680                _ZN10CUDTUnited9newSocketERKiS1_
                0x000000000002c9a0                _ZN4CUDT6socketEiii
                0x000000000002cb30                _ZN3UDT6socketEiii
                0x000000000002cb70                _ZN10CUDTUnited8selectExERKSt6vectorIiSaIiEEPS2_S5_S5_x
                0x000000000002ce30                _ZN4CUDT8selectExERKSt6vectorIiSaIiEEPS2_S5_S5_x
                0x000000000002d090                _ZN3UDT8selectExERKSt6vectorIiSaIiEEPS2_S5_S5_x
                0x000000000002d0e0                _ZN10CUDTUnited6selectEPSt3setIiSt4lessIiESaIiEES5_S5_PK7timeval
                0x000000000002dbf0                _ZN4CUDT6selectEiPSt3setIiSt4lessIiESaIiEES5_S5_PK7timeval
                0x000000000002de50                _ZN3UDT6selectEiPSt3setIiSt4lessIiESaIiEES5_S5_PK7timeval
                0x000000000002de90                _ZN10CUDTUnited12removeSocketEi
                0x000000000002e800                _ZN10CUDTUnited18checkBrokenSocketsEv
                0x000000000002f040                _ZN10CUDTUnited14garbageCollectEPv
                0x000000000002f660                _ZN10CUDTUnitedD2Ev
                0x000000000002f7b0                _ZN10CUDTUnitedD1Ev
                0x000000000002f900                _ZN10CUDTUnitedC1Ev
 *fill*         0x000000000002fb97        0x9 90909090
 .text._ZN10CUDTUnited10TLSDestroyEPv
                0x000000000002fba0       0x17 native/udt/src/api.o
                0x000000000002fba0                _ZN10CUDTUnited10TLSDestroyEPv
 *fill*         0x000000000002fbb7        0x9 90909090
 .text._ZNSt8_Rb_treeIiSt4pairIKiP10CUDTSocketESt10_Select1stIS4_ESt4lessIiESaIS4_EE8_M_eraseEPSt13_Rb_tree_nodeIS4_E
                0x000000000002fbc0       0x4b native/udt/src/api.o
                0x000000000002fbc0                _ZNSt8_Rb_treeIiSt4pairIKiP10CUDTSocketESt10_Select1stIS4_ESt4lessIiESaIS4_EE8_M_eraseEPSt13_Rb_tree_nodeIS4_E
 *fill*         0x000000000002fc0b        0x5 90909090
 .text._ZNSt3mapIiP10CUDTSocketSt4lessIiESaISt4pairIKiS1_EEED1Ev
                0x000000000002fc10       0x32 native/udt/src/api.o
                0x000000000002fc10                _ZNSt3mapIiP10CUDTSocketSt4lessIiESaISt4pairIKiS1_EEED1Ev
 *fill*         0x000000000002fc42        0xe 90909090
 .text._ZNSt8_Rb_treeIiSt4pairIKi12CMultiplexerESt10_Select1stIS3_ESt4lessIiESaIS3_EE8_M_eraseEPSt13_Rb_tree_nodeIS3_E
                0x000000000002fc50       0x4b native/udt/src/api.o
                0x000000000002fc50                _ZNSt8_Rb_treeIiSt4pairIKi12CMultiplexerESt10_Select1stIS3_ESt4lessIiESaIS3_EE8_M_eraseEPSt13_Rb_tree_nodeIS3_E
 *fill*         0x000000000002fc9b        0x5 90909090
 .text._ZNSt8_Rb_treeIiSt4pairIKiP10CUDTSocketESt10_Select1stIS4_ESt4lessIiESaIS4_EE10_M_insert_EPKSt18_Rb_tree_node_baseSD_RKS4_
                0x000000000002fca0       0xa8 native/udt/src/api.o
                0x000000000002fca0                _ZNSt8_Rb_treeIiSt4pairIKiP10CUDTSocketESt10_Select1stIS4_ESt4lessIiESaIS4_EE10_M_insert_EPKSt18_Rb_tree_node_baseSD_RKS4_
 *fill*         0x000000000002fd48        0x8 90909090
 .text._ZNSt8_Rb_treeIiSt4pairIKi12CMultiplexerESt10_Select1stIS3_ESt4lessIiESaIS3_EE10_M_insert_EPKSt18_Rb_tree_node_baseSC_RKS3_
                0x000000000002fd50       0xdf native/udt/src/api.o
                0x000000000002fd50                _ZNSt8_Rb_treeIiSt4pairIKi12CMultiplexerESt10_Select1stIS3_ESt4lessIiESaIS3_EE10_M_insert_EPKSt18_Rb_tree_node_baseSC_RKS3_
 *fill*         0x000000000002fe2f        0x1 90909090
 .text._ZNSt8_Rb_treeIiSt4pairIKiP10CUDTSocketESt10_Select1stIS4_ESt4lessIiESaIS4_EE16_M_insert_uniqueERKS4_
                0x000000000002fe30       0xbf native/udt/src/api.o
                0x000000000002fe30                _ZNSt8_Rb_treeIiSt4pairIKiP10CUDTSocketESt10_Select1stIS4_ESt4lessIiESaIS4_EE16_M_insert_uniqueERKS4_
 *fill*         0x000000000002feef        0x1 90909090
 .text._ZNSt8_Rb_treeIiSt4pairIKiP10CUDTSocketESt10_Select1stIS4_ESt4lessIiESaIS4_EE17_M_insert_unique_ESt23_Rb_tree_const_iteratorIS4_ERKS4_
                0x000000000002fef0      0x185 native/udt/src/api.o
                0x000000000002fef0                _ZNSt8_Rb_treeIiSt4pairIKiP10CUDTSocketESt10_Select1stIS4_ESt4lessIiESaIS4_EE17_M_insert_unique_ESt23_Rb_tree_const_iteratorIS4_ERKS4_
 *fill*         0x0000000000030075        0xb 90909090
 .text._ZNSt8_Rb_treeIiSt4pairIKi12CMultiplexerESt10_Select1stIS3_ESt4lessIiESaIS3_EE16_M_insert_uniqueERKS3_
                0x0000000000030080       0xbf native/udt/src/api.o
                0x0000000000030080                _ZNSt8_Rb_treeIiSt4pairIKi12CMultiplexerESt10_Select1stIS3_ESt4lessIiESaIS3_EE16_M_insert_uniqueERKS3_
 *fill*         0x000000000003013f        0x1 90909090
 .text._ZNSt8_Rb_treeIiSt4pairIKi12CMultiplexerESt10_Select1stIS3_ESt4lessIiESaIS3_EE17_M_insert_unique_ESt23_Rb_tree_const_iteratorIS3_ERKS3_
                0x0000000000030140      0x185 native/udt/src/api.o
                0x0000000000030140                _ZNSt8_Rb_treeIiSt4pairIKi12CMultiplexerESt10_Select1stIS3_ESt4lessIiESaIS3_EE17_M_insert_unique_ESt23_Rb_tree_const_iteratorIS3_ERKS3_
 *fill*         0x00000000000302c5        0xb 90909090
 .text._ZNSt8_Rb_treeIiiSt9_IdentityIiESt4lessIiESaIiEE16_M_insert_uniqueERKi
                0x00000000000302d0       0xbf native/udt/src/api.o
                0x00000000000302d0                _ZNSt8_Rb_treeIiiSt9_IdentityIiESt4lessIiESaIiEE16_M_insert_uniqueERKi
 *fill*         0x000000000003038f        0x1 90909090
 .text._ZNSt8_Rb_treeIiiSt9_IdentityIiESt4lessIiESaIiEE17_M_insert_unique_ESt23_Rb_tree_const_iteratorIiERKi
                0x0000000000030390      0x185 native/udt/src/api.o
                0x0000000000030390                _ZNSt8_Rb_treeIiiSt9_IdentityIiESt4lessIiESaIiEE17_M_insert_unique_ESt23_Rb_tree_const_iteratorIiERKi
 *fill*         0x0000000000030515        0xb 90909090
 .text._ZNSt3setIiSt4lessIiESaIiEE5eraseERKi
                0x0000000000030520      0x181 native/udt/src/api.o
                0x0000000000030520                _ZNSt3setIiSt4lessIiESaIiEE5eraseERKi
 *fill*         0x00000000000306a1        0xf 90909090
 .text._ZNSt8_Rb_treeIxSt4pairIKxSt3setIiSt4lessIiESaIiEEESt10_Select1stIS7_ES3_IxESaIS7_EE8_M_eraseEPSt13_Rb_tree_nodeIS7_E
                0x00000000000306b0       0x65 native/udt/src/api.o
                0x00000000000306b0                _ZNSt8_Rb_treeIxSt4pairIKxSt3setIiSt4lessIiESaIiEEESt10_Select1stIS7_ES3_IxESaIS7_EE8_M_eraseEPSt13_Rb_tree_nodeIS7_E
 *fill*         0x0000000000030715        0xb 90909090
 .text._ZNSt8_Rb_treeIxSt4pairIKxSt3setIiSt4lessIiESaIiEEESt10_Select1stIS7_ES3_IxESaIS7_EE10_M_insert_EPKSt18_Rb_tree_node_baseSF_RKS7_
                0x0000000000030720      0x151 native/udt/src/api.o
                0x0000000000030720                _ZNSt8_Rb_treeIxSt4pairIKxSt3setIiSt4lessIiESaIiEEESt10_Select1stIS7_ES3_IxESaIS7_EE10_M_insert_EPKSt18_Rb_tree_node_baseSF_RKS7_
 *fill*         0x0000000000030871        0xf 90909090
 .text._ZNSt8_Rb_treeIxSt4pairIKxSt3setIiSt4lessIiESaIiEEESt10_Select1stIS7_ES3_IxESaIS7_EE16_M_insert_uniqueERKS7_
                0x0000000000030880       0xdd native/udt/src/api.o
                0x0000000000030880                _ZNSt8_Rb_treeIxSt4pairIKxSt3setIiSt4lessIiESaIiEEESt10_Select1stIS7_ES3_IxESaIS7_EE16_M_insert_uniqueERKS7_
 *fill*         0x000000000003095d        0x3 90909090
 .text._ZNSt8_Rb_treeIxSt4pairIKxSt3setIiSt4lessIiESaIiEEESt10_Select1stIS7_ES3_IxESaIS7_EE17_M_insert_unique_ESt23_Rb_tree_const_iteratorIS7_ERKS7_
                0x0000000000030960      0x1da native/udt/src/api.o
                0x0000000000030960                _ZNSt8_Rb_treeIxSt4pairIKxSt3setIiSt4lessIiESaIiEEESt10_Select1stIS7_ES3_IxESaIS7_EE17_M_insert_unique_ESt23_Rb_tree_const_iteratorIS7_ERKS7_
 *fill*         0x0000000000030b3a        0x6 90909090
 .text._ZNSt6vectorIP10CUDTSocketSaIS1_EE13_M_insert_auxEN9__gnu_cxx17__normal_iteratorIPS1_S3_EERKS1_
                0x0000000000030b40      0x17f native/udt/src/api.o
                0x0000000000030b40                _ZNSt6vectorIP10CUDTSocketSaIS1_EE13_M_insert_auxEN9__gnu_cxx17__normal_iteratorIPS1_S3_EERKS1_
 *fill*         0x0000000000030cbf        0x1 90909090
 .text._ZNSt6vectorIP10CUDTSocketSaIS1_EE6insertEN9__gnu_cxx17__normal_iteratorIPS1_S3_EERKS1_
                0x0000000000030cc0       0x7d native/udt/src/api.o
                0x0000000000030cc0                _ZNSt6vectorIP10CUDTSocketSaIS1_EE6insertEN9__gnu_cxx17__normal_iteratorIPS1_S3_EERKS1_
 *fill*         0x0000000000030d3d        0x3 90909090
 .text          0x0000000000030d40     0x53f2 native/jni/com_barchart_udt_SocketUDT.o
                0x0000000000030d40                UDT_GetSocketID
                0x0000000000030d80                UDT_SetSocketID
                0x0000000000030dc0                UDT_InitFieldMonitor
                0x00000000000312a0                UDT_InitFieldRefAll
                0x00000000000314f0                Java_com_barchart_udt_SocketUDT_getSignatureJNI0
                0x0000000000031500                Java_com_barchart_udt_SocketUDT_testEmptyCall0
                0x0000000000031510                Java_com_barchart_udt_SocketUDT_testIterateArray0
                0x0000000000031560                Java_com_barchart_udt_SocketUDT_testMakeArray0
                0x0000000000031580                Java_com_barchart_udt_SocketUDT_testGetSetArray0
                0x0000000000031610                Java_com_barchart_udt_SocketUDT_testFillArray0
                0x0000000000031680                Java_com_barchart_udt_SocketUDT_testFillBuffer0
                0x00000000000316f0                Java_com_barchart_udt_SocketUDT_testSocketStatus0
                0x0000000000031700                Java_com_barchart_udt_SocketUDT_testDirectIntBufferAccess0
                0x0000000000031790                Java_com_barchart_udt_SocketUDT_testDirectByteBufferAccess0
                0x0000000000031810                Java_com_barchart_udt_SocketUDT_testCrashJVM0
                0x0000000000031850                UDT_InitMethodRefAll
                0x0000000000031bd0                X_InitMethodRef
                0x0000000000031c60                XXX_ThrowSocketExceptionMessage
                0x0000000000031d00                X_InitClassReference
                0x0000000000031db0                UDT_InitClassRefAll
                0x0000000000031f80                Java_com_barchart_udt_SocketUDT_clearError0
                0x0000000000031fb0                Java_com_barchart_udt_SocketUDT_getErrorMessage0
                0x0000000000032020                Java_com_barchart_udt_SocketUDT_getErrorCode0
                0x0000000000032050                Java_com_barchart_udt_SocketUDT_testIterateSet0
                0x00000000000320c0                UDT_NewExceptionUDT
                0x0000000000032170                UDT_ThrowExceptionUDT_ErrorInfo
                0x0000000000032240                Java_com_barchart_udt_SocketUDT_testInvalidClose0
                0x00000000000322d0                Java_com_barchart_udt_SocketUDT_initInstance1
                0x0000000000032360                UDT_ThrowExceptionUDT_Message
                0x0000000000032410                X_IsValidRange
                0x00000000000324e0                UDT_NewLingerUDT
                0x0000000000032580                X_NewInetAddress
                0x0000000000032680                X_NewLong
                0x0000000000032710                X_NewInteger
                0x0000000000032790                X_NewBoolean
                0x0000000000032810                UDT_CopySetToArray
                0x0000000000032860                UDT_CopyArrayToSet
                0x00000000000329a0                Java_com_barchart_udt_SocketUDT_updateMonitor0
                0x0000000000032f30                UDT_ReturnSendError
                0x0000000000032fc0                Java_com_barchart_udt_SocketUDT_send2
                0x0000000000033100                Java_com_barchart_udt_SocketUDT_send1
                0x00000000000332d0                Java_com_barchart_udt_SocketUDT_send0
                0x0000000000033410                UDT_ReturnReceiveError
                0x00000000000334a0                Java_com_barchart_udt_SocketUDT_receive2
                0x00000000000335c0                Java_com_barchart_udt_SocketUDT_receive1
                0x0000000000033760                Java_com_barchart_udt_SocketUDT_receive0
                0x00000000000338c0                Java_com_barchart_udt_SocketUDT_listen0
                0x0000000000033970                Java_com_barchart_udt_SocketUDT_setOption0
                0x0000000000033c60                Java_com_barchart_udt_SocketUDT_getOption0
                0x0000000000033e60                UDT_IsSocketOpen
                0x0000000000033ed0                Java_com_barchart_udt_SocketUDT_isOpen0
                0x0000000000033f00                Java_com_barchart_udt_SocketUDT_close0
                0x0000000000033fe0                Java_com_barchart_udt_SocketUDT_accept0
                0x0000000000034190                Java_com_barchart_udt_SocketUDT_initInstance0
                0x0000000000034250                Java_com_barchart_udt_SocketUDT_stopClass0
                0x00000000000342e0                Java_com_barchart_udt_SocketUDT_initClass0
                0x0000000000034390                X_IsSockaddrEqualsInetSocketAddress
                0x00000000000344a0                X_NewInetSocketAddress
                0x00000000000345b0                Java_com_barchart_udt_SocketUDT_hasLoadedLocalSocketAddress
                0x00000000000346a0                Java_com_barchart_udt_SocketUDT_hasLoadedRemoteSocketAddress
                0x0000000000034790                X_ConvertSockaddrToInetSocketAddress
                0x00000000000348b0                X_ConvertInetSocketAddressToSockaddr
                0x00000000000349b0                X_InitSockAddr
                0x0000000000034a20                Java_com_barchart_udt_SocketUDT_connect0
                0x0000000000034b60                Java_com_barchart_udt_SocketUDT_bind0
                0x0000000000034c90                Java_com_barchart_udt_SocketUDT_select1
                0x0000000000035150                Java_com_barchart_udt_SocketUDT_select0
                0x00000000000358a0                Java_com_barchart_udt_SocketUDT_selectEx1
                0x0000000000035b20                Java_com_barchart_udt_SocketUDT_selectEx0
 *fill*         0x0000000000036132        0xe 90909090
 .text._ZN7JNIEnv_16CallObjectMethodEP8_jobjectP10_jmethodIDz
                0x0000000000036140       0x2b native/jni/com_barchart_udt_SocketUDT.o
                0x0000000000036140                _ZN7JNIEnv_16CallObjectMethodEP8_jobjectP10_jmethodIDz
 *fill*         0x000000000003616b        0x5 90909090
 .text._ZN7JNIEnv_17CallBooleanMethodEP8_jobjectP10_jmethodIDz
                0x0000000000036170       0x2b native/jni/com_barchart_udt_SocketUDT.o
                0x0000000000036170                _ZN7JNIEnv_17CallBooleanMethodEP8_jobjectP10_jmethodIDz
 *fill*         0x000000000003619b        0x5 90909090
 .text._ZN7JNIEnv_13CallIntMethodEP8_jobjectP10_jmethodIDz
                0x00000000000361a0       0x2b native/jni/com_barchart_udt_SocketUDT.o
                0x00000000000361a0                _ZN7JNIEnv_13CallIntMethodEP8_jobjectP10_jmethodIDz
 *fill*         0x00000000000361cb        0x5 90909090
 .text._ZN7JNIEnv_14CallLongMethodEP8_jobjectP10_jmethodIDz
                0x00000000000361d0       0x2b native/jni/com_barchart_udt_SocketUDT.o
                0x00000000000361d0                _ZN7JNIEnv_14CallLongMethodEP8_jobjectP10_jmethodIDz
 *fill*         0x00000000000361fb        0x5 90909090
 .text._ZN7JNIEnv_9NewObjectEP7_jclassP10_jmethodIDz
                0x0000000000036200       0x28 native/jni/com_barchart_udt_SocketUDT.o
                0x0000000000036200                _ZN7JNIEnv_9NewObjectEP7_jclassP10_jmethodIDz
 *fill*         0x0000000000036228        0x8 90909090
 .text._ZNSt6vectorIiSaIiEED1Ev
                0x0000000000036230       0x29 native/jni/com_barchart_udt_SocketUDT.o
                0x0000000000036230                _ZNSt6vectorIiSaIiEED1Ev
 *fill*         0x0000000000036259        0x7 90909090
 .text          0x0000000000036260      0x172 /usr/lib/gcc/x86_64-linux-gnu/4.4.3/32/libgcc.a(_divdi3.o)
                0x0000000000036260                __divdi3
 *fill*         0x00000000000363d2        0xe 90909090
 .text          0x00000000000363e0      0x1cc /usr/lib/gcc/x86_64-linux-gnu/4.4.3/32/libgcc.a(_moddi3.o)
                0x00000000000363e0                __moddi3
 *fill*         0x00000000000365ac        0x4 90909090
 .text          0x00000000000365b0      0x128 /usr/lib/gcc/x86_64-linux-gnu/4.4.3/32/libgcc.a(_udivdi3.o)
                0x00000000000365b0                __udivdi3
 *fill*         0x00000000000366d8        0x8 90909090
 .text          0x00000000000366e0      0x135 /usr/lib/gcc/x86_64-linux-gnu/4.4.3/32/libgcc.a(_umoddi3.o)
                0x00000000000366e0                __umoddi3
 *fill*         0x0000000000036815        0xb 90909090
 .text          0x0000000000036820     0x3119 /usr/lib/gcc/x86_64-linux-gnu/4.4.3/32/libgcc_eh.a(unwind-dw2.o)
                0x0000000000036870                _Unwind_GetCFA
                0x0000000000036880                _Unwind_GetIP
                0x0000000000036890                _Unwind_GetIPInfo
                0x00000000000368b0                _Unwind_SetIP
                0x00000000000368c0                _Unwind_GetLanguageSpecificData
                0x00000000000368d0                _Unwind_GetRegionStart
                0x00000000000368e0                _Unwind_GetDataRelBase
                0x00000000000368f0                _Unwind_GetTextRelBase
                0x0000000000036910                _Unwind_DeleteException
                0x0000000000036930                _Unwind_SetGR
                0x00000000000369a0                _Unwind_GetGR
                0x0000000000036ac0                _Unwind_FindEnclosingFunction
                0x00000000000391f0                _Unwind_Backtrace
                0x00000000000393a0                _Unwind_ForcedUnwind
                0x0000000000039520                _Unwind_Resume
                0x0000000000039600                __frame_state_for
                0x0000000000039700                _Unwind_RaiseException
                0x0000000000039860                _Unwind_Resume_or_Rethrow
 *fill*         0x0000000000039939        0x7 90909090
 .text          0x0000000000039940     0x1ab1 /usr/lib/gcc/x86_64-linux-gnu/4.4.3/32/libgcc_eh.a(unwind-dw2-fde-glibc.o)
                0x0000000000039940                __register_frame_info_bases
                0x00000000000399e0                __register_frame_info
                0x0000000000039a10                __register_frame_info_table_bases
                0x0000000000039ab0                __register_frame_info_table
                0x000000000003aa00                __register_frame_table
                0x000000000003aa40                __register_frame
                0x000000000003b0d0                _Unwind_Find_FDE
                0x000000000003b2b0                __deregister_frame_info_bases
                0x000000000003b3b0                __deregister_frame_info
                0x000000000003b3c0                __deregister_frame
 *fill*         0x000000000003b3f1        0xf 90909090
 .text          0x000000000003b400       0x14 /usr/lib32/libc_nonshared.a(stack_chk_fail_local.oS)
                0x000000000003b400                __stack_chk_fail_local
 *fill*         0x000000000003b414        0xc 90909090
 .text          0x000000000003b420       0x38 /usr/lib/gcc/x86_64-linux-gnu/4.4.3/32/crtendS.o
 .text          0x000000000003b458        0x0 /usr/lib/gcc/x86_64-linux-gnu/4.4.3/../../../../lib32/crtn.o
 *(.gnu.warning)

.fini           0x000000000003b458       0x1c
 *(.fini)
 .fini          0x000000000003b458       0x13 /usr/lib/gcc/x86_64-linux-gnu/4.4.3/../../../../lib32/crti.o
                0x000000000003b458                _fini
 .fini          0x000000000003b46b        0x5 /usr/lib/gcc/x86_64-linux-gnu/4.4.3/32/crtbeginS.o
 .fini          0x000000000003b470        0x4 /usr/lib/gcc/x86_64-linux-gnu/4.4.3/../../../../lib32/crtn.o
                0x000000000003b474                PROVIDE (__etext, .)
                0x000000000003b474                PROVIDE (_etext, .)
                0x000000000003b474                PROVIDE (etext, .)

.rodata         0x000000000003b480     0x156d
 *(.rodata .rodata.* .gnu.linkonce.r.*)
 .rodata.cst4   0x000000000003b480        0x4 native/udt/src/window.o
 *fill*         0x000000000003b484        0x4 00
 .rodata.cst8   0x000000000003b488        0x8 native/udt/src/queue.o
 .rodata        0x000000000003b490        0x8 native/udt/src/packet.o
                0x000000000003b490                _ZN7CPacket13m_iPktHdrSizeE
                0x000000000003b494                _ZN10CHandShake14m_iContentSizeE
 *fill*         0x000000000003b498        0x8 00
 .rodata        0x000000000003b4a0       0x44 native/udt/src/md5.o
 .rodata.str1.1
                0x000000000003b4e4        0xb native/udt/src/core.o
 *fill*         0x000000000003b4ef        0x1 00
 .rodata        0x000000000003b4f0       0x30 native/udt/src/core.o
                0x000000000003b4f0                _ZN4CUDT12INVALID_SOCKE
                0x000000000003b4f4                _ZN4CUDT5ERRORE
                0x000000000003b4f8                _ZN3UDT12INVALID_SOCKE
                0x000000000003b4fc                _ZN3UDT5ERRORE
                0x000000000003b500                _ZN6CSeqNo10m_iSeqNoTHE
                0x000000000003b504                _ZN6CSeqNo11m_iMaxSeqNoE
                0x000000000003b508                _ZN6CAckNo14m_iMaxAckSeqNoE
                0x000000000003b50c                _ZN6CMsgNo10m_iMsgNoTHE
                0x000000000003b510                _ZN6CMsgNo11m_iMaxMsgNoE
                0x000000000003b514                _ZN4CUDT10m_iVersionE
                0x000000000003b518                _ZN4CUDT14m_iSYNIntervalE
                0x000000000003b51c                _ZN4CUDT20m_iSelfClockIntervalE
 .rodata._ZTS10CCCFactoryI6CUDTCCE
                0x000000000003b520       0x16 native/udt/src/core.o
                0x000000000003b520                _ZTS10CCCFactoryI6CUDTCCE
 .rodata._ZTS17CCCVirtualFactory
                0x000000000003b536       0x14 native/udt/src/core.o
                0x000000000003b536                _ZTS17CCCVirtualFactory
 *fill*         0x000000000003b54a        0x2 00
 .rodata.cst4   0x000000000003b54c       0x14 native/udt/src/core.o
                                         0x18 (size before relaxing)
 .rodata.cst8   0x000000000003b560        0x8 native/udt/src/core.o
 .rodata.str1.1
                0x000000000003b568      0x1be native/udt/src/common.o
 *fill*         0x000000000003b726        0x2 00
 .rodata.str1.4
                0x000000000003b728      0x2e9 native/udt/src/common.o
 *fill*         0x000000000003ba11        0x3 00
 .rodata        0x000000000003ba14       0x90 native/udt/src/common.o
                0x000000000003ba14                _ZN13CUDTException7SUCCESSE
                0x000000000003ba18                _ZN13CUDTException10ECONNSETUPE
                0x000000000003ba1c                _ZN13CUDTException9ENOSERVERE
                0x000000000003ba20                _ZN13CUDTException8ECONNREJE
                0x000000000003ba24                _ZN13CUDTException9ESOCKFAILE
                0x000000000003ba28                _ZN13CUDTException8ESECFAILE
                0x000000000003ba2c                _ZN13CUDTException9ECONNFAILE
                0x000000000003ba30                _ZN13CUDTException9ECONNLOSTE
                0x000000000003ba34                _ZN13CUDTException7ENOCONNE
                0x000000000003ba38                _ZN13CUDTException9ERESOURCEE
                0x000000000003ba3c                _ZN13CUDTException7ETHREADE
                0x000000000003ba40                _ZN13CUDTException6ENOBUFE
                0x000000000003ba44                _ZN13CUDTException5EFILEE
                0x000000000003ba48                _ZN13CUDTException9EINVRDOFFE
                0x000000000003ba4c                _ZN13CUDTException7ERDPERME
                0x000000000003ba50                _ZN13CUDTException9EINVWROFFE
                0x000000000003ba54                _ZN13CUDTException7EWRPERME
                0x000000000003ba58                _ZN13CUDTException6EINVOPE
                0x000000000003ba5c                _ZN13CUDTException10EBOUNDSOCKE
                0x000000000003ba60                _ZN13CUDTException9ECONNSOCKE
                0x000000000003ba64                _ZN13CUDTException9EINVPARAME
                0x000000000003ba68                _ZN13CUDTException8EINVSOCKE
                0x000000000003ba6c                _ZN13CUDTException12EUNBOUNDSOCKE
                0x000000000003ba70                _ZN13CUDTException9ENOLISTENE
                0x000000000003ba74                _ZN13CUDTException10ERDVNOSERVE
                0x000000000003ba78                _ZN13CUDTException11ERDVUNBOUNDE
                0x000000000003ba7c                _ZN13CUDTException10ESTREAMILLE
                0x000000000003ba80                _ZN13CUDTException9EDGRAMILLE
                0x000000000003ba84                _ZN13CUDTException10EDUPLISTENE
                0x000000000003ba88                _ZN13CUDTException9ELARGEMSGE
                0x000000000003ba8c                _ZN13CUDTException10EINVPOLLIDE
                0x000000000003ba90                _ZN13CUDTException10EASYNCFAILE
                0x000000000003ba94                _ZN13CUDTException9EASYNCSNDE
                0x000000000003ba98                _ZN13CUDTException9EASYNCRCVE
                0x000000000003ba9c                _ZN13CUDTException8EPEERERRE
                0x000000000003baa0                _ZN13CUDTException8EUNKNOWNE
 .rodata._ZTS13CUDTException
                0x000000000003baa4       0x10 native/udt/src/common.o
                0x000000000003baa4                _ZTS13CUDTException
 .rodata.str1.1
                0x0000000000000000      0x1be native/udt/src/channel.o
                                          0x2 (size before relaxing)
 .rodata._ZTS6CUDTCC
                0x000000000003bab4        0x8 native/udt/src/ccc.o
                0x000000000003bab4                _ZTS6CUDTCC
 .rodata._ZTS3CCC
                0x000000000003babc        0x5 native/udt/src/ccc.o
                0x000000000003babc                _ZTS3CCC
 *fill*         0x000000000003bac1        0x3 00
 .rodata.cst4   0x000000000003bac4       0x18 native/udt/src/ccc.o
                                         0x24 (size before relaxing)
 *fill*         0x000000000003badc        0x4 00
 .rodata.cst8   0x000000000003bae0        0x8 native/udt/src/ccc.o
                                         0x10 (size before relaxing)
 .rodata.cst8   0x0000000000000000        0x8 native/udt/src/api.o
 .rodata.cst4   0x000000000003bae8        0x4 native/udt/src/api.o
 .rodata.str1.1
                0x000000000003baec      0x8ff native/jni/com_barchart_udt_SocketUDT.o
                                        0x907 (size before relaxing)
 *fill*         0x000000000003c3eb        0x1 00
 .rodata.str1.4
                0x000000000003c3ec      0x2e0 native/jni/com_barchart_udt_SocketUDT.o
                                        0x2dd (size before relaxing)
 *fill*         0x000000000003c6cc       0x14 00
 .rodata        0x000000000003c6e0      0x30d native/jni/com_barchart_udt_SocketUDT.o

.rodata1
 *(.rodata1)

.eh_frame_hdr   0x000000000003c9f0     0x127c
 *(.eh_frame_hdr)
 .eh_frame_hdr  0x000000000003c9f0     0x127c native/udt/src/window.o

.eh_frame       0x000000000003dc6c     0x4bc0
 *(.eh_frame)
 .eh_frame      0x000000000003dc6c      0x2bc native/udt/src/window.o
 .eh_frame      0x000000000003df28      0x95c native/udt/src/queue.o
                                        0x978 (size before relaxing)
 .eh_frame      0x000000000003e884      0x240 native/udt/src/packet.o
                                        0x27c (size before relaxing)
 .eh_frame      0x000000000003eac4       0x7c native/udt/src/md5.o
                                         0x98 (size before relaxing)
 .eh_frame      0x000000000003eb40      0x260 native/udt/src/list.o
                                        0x27c (size before relaxing)
 .eh_frame      0x000000000003eda0      0x38c native/udt/src/epoll.o
                                        0x3c8 (size before relaxing)
 .eh_frame      0x000000000003f12c      0x544 native/udt/src/core.o
                                        0x5e4 (size before relaxing)
 .eh_frame      0x000000000003f670      0x4cc native/udt/src/common.o
                                        0x4e8 (size before relaxing)
 .eh_frame      0x000000000003fb3c      0x220 native/udt/src/channel.o
                                        0x25c (size before relaxing)
 .eh_frame      0x000000000003fd5c      0x3cc native/udt/src/ccc.o
                                        0x3e8 (size before relaxing)
 .eh_frame      0x0000000000040128      0x25c native/udt/src/cache.o
                                        0x298 (size before relaxing)
 .eh_frame      0x0000000000040384      0x35c native/udt/src/buffer.o
                                        0x398 (size before relaxing)
 .eh_frame      0x00000000000406e0     0x100c native/udt/src/api.o
                                       0x10f4 (size before relaxing)
 .eh_frame      0x00000000000416ec      0x9b4 native/jni/com_barchart_udt_SocketUDT.o
                                        0xa78 (size before relaxing)
 .eh_frame      0x00000000000420a0       0x38 /usr/lib/gcc/x86_64-linux-gnu/4.4.3/32/libgcc.a(_divdi3.o)
 .eh_frame      0x00000000000420d8       0x20 /usr/lib/gcc/x86_64-linux-gnu/4.4.3/32/libgcc.a(_moddi3.o)
                                         0x38 (size before relaxing)
 .eh_frame      0x00000000000420f8       0x20 /usr/lib/gcc/x86_64-linux-gnu/4.4.3/32/libgcc.a(_udivdi3.o)
                                         0x38 (size before relaxing)
 .eh_frame      0x0000000000042118       0x20 /usr/lib/gcc/x86_64-linux-gnu/4.4.3/32/libgcc.a(_umoddi3.o)
                                         0x38 (size before relaxing)
 .eh_frame      0x0000000000042138      0x3e4 /usr/lib/gcc/x86_64-linux-gnu/4.4.3/32/libgcc_eh.a(unwind-dw2.o)
                                        0x3fc (size before relaxing)
 .eh_frame      0x000000000004251c      0x30c /usr/lib/gcc/x86_64-linux-gnu/4.4.3/32/libgcc_eh.a(unwind-dw2-fde-glibc.o)
                                        0x324 (size before relaxing)
 .eh_frame      0x0000000000042828        0x4 /usr/lib/gcc/x86_64-linux-gnu/4.4.3/32/crtendS.o

.gcc_except_table
                0x000000000004282c     0x1f17
 *(.gcc_except_table .gcc_except_table.*)
 .gcc_except_table
                0x000000000004282c      0x27c native/udt/src/queue.o
 .gcc_except_table
                0x0000000000042aa8       0x11 native/udt/src/packet.o
 *fill*         0x0000000000042ab9        0x3 00
 .gcc_except_table
                0x0000000000042abc      0x2e8 native/udt/src/epoll.o
 .gcc_except_table
                0x0000000000042da4      0x6a5 native/udt/src/core.o
 .gcc_except_table
                0x0000000000043449       0x48 native/udt/src/channel.o
 .gcc_except_table
                0x0000000000043491       0x7b native/udt/src/cache.o
 .gcc_except_table
                0x000000000004350c       0x63 native/udt/src/buffer.o
 *fill*         0x000000000004356f        0x1 00
 .gcc_except_table
                0x0000000000043570      0xfa6 native/udt/src/api.o
 .gcc_except_table
                0x0000000000044516      0x22d native/jni/com_barchart_udt_SocketUDT.o
                0x0000000000044743                . = (ALIGN (0x1000) - ((0x1000 - .) & 0xfff))
                0x0000000000045d47                . = (0x1000 DATA_SEGMENT_ALIGN 0x1000)

.eh_frame
 *(.eh_frame)

.gcc_except_table
 *(.gcc_except_table .gcc_except_table.*)

.tdata
 *(.tdata .tdata.* .gnu.linkonce.td.*)

.tbss
 *(.tbss .tbss.* .gnu.linkonce.tb.*)
 *(.tcommon)

.preinit_array
 *(.preinit_array)

.init_array
 *(SORT(.init_array.*))
 *(.init_array)

.fini_array
 *(.fini_array)
 *(SORT(.fini_array.*))

.ctors          0x0000000000045d48       0x10
 *crtbegin.o(.ctors)
 *crtbegin?.o(.ctors)
 .ctors         0x0000000000045d48        0x4 /usr/lib/gcc/x86_64-linux-gnu/4.4.3/32/crtbeginS.o
 *(EXCLUDE_FILE(*crtend?.o *crtend.o) .ctors)
 .ctors         0x0000000000045d4c        0x4 native/udt/src/core.o
 .ctors         0x0000000000045d50        0x4 native/udt/src/common.o
 *(SORT(.ctors.*))
 *(.ctors)
 .ctors         0x0000000000045d54        0x4 /usr/lib/gcc/x86_64-linux-gnu/4.4.3/32/crtendS.o

.dtors          0x0000000000045d58        0x8
 *crtbegin.o(.dtors)
 *crtbegin?.o(.dtors)
 .dtors         0x0000000000045d58        0x4 /usr/lib/gcc/x86_64-linux-gnu/4.4.3/32/crtbeginS.o
 *(EXCLUDE_FILE(*crtend?.o *crtend.o) .dtors)
 *(SORT(.dtors.*))
 *(.dtors)
 .dtors         0x0000000000045d5c        0x4 /usr/lib/gcc/x86_64-linux-gnu/4.4.3/32/crtendS.o
                0x0000000000045d5c                __DTOR_END__

.jcr            0x0000000000045d60        0x4
 *(.jcr)
 .jcr           0x0000000000045d60        0x0 /usr/lib/gcc/x86_64-linux-gnu/4.4.3/32/crtbeginS.o
 .jcr           0x0000000000045d60        0x4 /usr/lib/gcc/x86_64-linux-gnu/4.4.3/32/crtendS.o

.data.rel.ro    0x0000000000045d80      0x104
 *(.data.rel.ro.local* .gnu.linkonce.d.rel.ro.local.*)
 *(.data.rel.ro* .gnu.linkonce.d.rel.ro.*)
 .data.rel.ro._ZTV10CCCFactoryI6CUDTCCE
                0x0000000000045d80       0x18 native/udt/src/core.o
                0x0000000000045d80                _ZTV10CCCFactoryI6CUDTCCE
 .data.rel.ro._ZTI10CCCFactoryI6CUDTCCE
                0x0000000000045d98        0xc native/udt/src/core.o
                0x0000000000045d98                _ZTI10CCCFactoryI6CUDTCCE
 .data.rel.ro._ZTI17CCCVirtualFactory
                0x0000000000045da4        0x8 native/udt/src/core.o
                0x0000000000045da4                _ZTI17CCCVirtualFactory
 *fill*         0x0000000000045dac        0x4 00
 .data.rel.ro._ZTV17CCCVirtualFactory
                0x0000000000045db0       0x18 native/udt/src/core.o
                0x0000000000045db0                _ZTV17CCCVirtualFactory
 .data.rel.ro._ZTV13CUDTException
                0x0000000000045dc8       0x1c native/udt/src/common.o
                0x0000000000045dc8                _ZTV13CUDTException
 .data.rel.ro._ZTI13CUDTException
                0x0000000000045de4        0x8 native/udt/src/common.o
                0x0000000000045de4                _ZTI13CUDTException
 *fill*         0x0000000000045dec       0x14 00
 .data.rel.ro._ZTV6CUDTCC
                0x0000000000045e00       0x30 native/udt/src/ccc.o
                0x0000000000045e00                _ZTV6CUDTCC
 *fill*         0x0000000000045e30       0x10 00
 .data.rel.ro._ZTV3CCC
                0x0000000000045e40       0x30 native/udt/src/ccc.o
                0x0000000000045e40                _ZTV3CCC
 .data.rel.ro._ZTI6CUDTCC
                0x0000000000045e70        0xc native/udt/src/ccc.o
                0x0000000000045e70                _ZTI6CUDTCC
 .data.rel.ro._ZTI3CCC
                0x0000000000045e7c        0x8 native/udt/src/ccc.o
                0x0000000000045e7c                _ZTI3CCC

.dynamic        0x0000000000045e84       0xe0
 *(.dynamic)
 .dynamic       0x0000000000045e84       0xe0 /usr/lib/gcc/x86_64-linux-gnu/4.4.3/../../../../lib32/crti.o
                0x0000000000045e84                _DYNAMIC

.got            0x0000000000045f64       0x8c
 *(.got)
 .got           0x0000000000045f64       0x8c /usr/lib/gcc/x86_64-linux-gnu/4.4.3/../../../../lib32/crti.o
 *(.igot)
                0x0000000000045ff4                . = (. DATA_SEGMENT_RELRO_END 0xc)

.got.plt        0x0000000000045ff4      0x710
 *(.got.plt)
 .got.plt       0x0000000000045ff4      0x710 /usr/lib/gcc/x86_64-linux-gnu/4.4.3/../../../../lib32/crti.o
                0x0000000000045ff4                _GLOBAL_OFFSET_TABLE_
 *(.igot.plt)

.data           0x0000000000046708       0x18
 *(.data .data.* .gnu.linkonce.d.*)
 .data          0x0000000000046708        0x0 /usr/lib/gcc/x86_64-linux-gnu/4.4.3/../../../../lib32/crti.o
 .data          0x0000000000046708        0x0 /usr/lib/gcc/x86_64-linux-gnu/4.4.3/32/crtbeginS.o
 .data.rel      0x0000000000046708        0x4 /usr/lib/gcc/x86_64-linux-gnu/4.4.3/32/crtbeginS.o
                0x0000000000046708                __dso_handle
 .data          0x000000000004670c        0x0 native/udt/src/window.o
 .data.DW.ref.__gxx_personality_v0
                0x000000000004670c        0x4 native/udt/src/window.o
                0x000000000004670c                DW.ref.__gxx_personality_v0
 .data          0x0000000000046710        0x0 native/udt/src/queue.o
 .data          0x0000000000046710        0x0 native/udt/src/packet.o
 .data          0x0000000000046710        0x0 native/udt/src/md5.o
 .data          0x0000000000046710        0x0 native/udt/src/list.o
 .data          0x0000000000046710        0x0 native/udt/src/epoll.o
 .data          0x0000000000046710        0x0 native/udt/src/core.o
 .data          0x0000000000046710        0x0 native/udt/src/common.o
 .data          0x0000000000046710        0x0 native/udt/src/channel.o
 .data          0x0000000000046710        0x0 native/udt/src/ccc.o
 .data          0x0000000000046710        0x0 native/udt/src/cache.o
 .data          0x0000000000046710        0x0 native/udt/src/buffer.o
 .data          0x0000000000046710        0x0 native/udt/src/api.o
 .data.DW.ref._ZTI13CUDTException
                0x0000000000046710        0x4 native/udt/src/api.o
                0x0000000000046710                DW.ref._ZTI13CUDTException
 .data.DW.ref._ZTISt9bad_alloc
                0x0000000000046714        0x4 native/udt/src/api.o
                0x0000000000046714                DW.ref._ZTISt9bad_alloc
 .data          0x0000000000046718        0x0 native/jni/com_barchart_udt_SocketUDT.o
 .data          0x0000000000046718        0x0 /usr/lib/gcc/x86_64-linux-gnu/4.4.3/32/libgcc.a(_divdi3.o)
 .data          0x0000000000046718        0x0 /usr/lib/gcc/x86_64-linux-gnu/4.4.3/32/libgcc.a(_moddi3.o)
 .data          0x0000000000046718        0x0 /usr/lib/gcc/x86_64-linux-gnu/4.4.3/32/libgcc.a(_udivdi3.o)
 .data          0x0000000000046718        0x0 /usr/lib/gcc/x86_64-linux-gnu/4.4.3/32/libgcc.a(_umoddi3.o)
 .data          0x0000000000046718        0x0 /usr/lib/gcc/x86_64-linux-gnu/4.4.3/32/libgcc_eh.a(unwind-dw2.o)
 .data          0x0000000000046718        0x8 /usr/lib/gcc/x86_64-linux-gnu/4.4.3/32/libgcc_eh.a(unwind-dw2-fde-glibc.o)
 .data          0x0000000000046720        0x0 /usr/lib32/libc_nonshared.a(stack_chk_fail_local.oS)
 .data          0x0000000000046720        0x0 /usr/lib/gcc/x86_64-linux-gnu/4.4.3/32/crtendS.o
 .data          0x0000000000046720        0x0 /usr/lib/gcc/x86_64-linux-gnu/4.4.3/../../../../lib32/crtn.o

.data1
 *(.data1)
                0x0000000000046720                _edata = .
                0x0000000000046720                PROVIDE (edata, .)
                0x0000000000046720                __bss_start = .

.bss            0x0000000000046720      0x444
 *(.dynbss)
 .dynbss        0x0000000000000000        0x0 /usr/lib/gcc/x86_64-linux-gnu/4.4.3/../../../../lib32/crti.o
 *(.bss .bss.* .gnu.linkonce.b.*)
 .bss           0x0000000000046720        0x0 /usr/lib/gcc/x86_64-linux-gnu/4.4.3/../../../../lib32/crti.o
 .bss           0x0000000000046720        0x8 /usr/lib/gcc/x86_64-linux-gnu/4.4.3/32/crtbeginS.o
 .bss           0x0000000000046728        0x0 native/udt/src/window.o
 .bss           0x0000000000046728        0x0 native/udt/src/queue.o
 .bss           0x0000000000046728        0x0 native/udt/src/packet.o
 .bss           0x0000000000046728        0x0 native/udt/src/md5.o
 .bss           0x0000000000046728        0x0 native/udt/src/list.o
 .bss           0x0000000000046728        0x0 native/udt/src/epoll.o
 *fill*         0x0000000000046728       0x18 00
 .bss           0x0000000000046740      0x170 native/udt/src/core.o
                0x0000000000046740                _ZN4CUDT11s_UDTUnitedE
 *fill*         0x00000000000468b0       0x10 00
 .bss           0x00000000000468c0       0x50 native/udt/src/common.o
                0x00000000000468c0                _ZN6CTimer17s_ullCPUFrequencyE
                0x00000000000468c8                _ZN6CTimer11m_EventLockE
                0x00000000000468e0                _ZN6CTimer11m_EventCondE
 .bss           0x0000000000046910        0x0 native/udt/src/channel.o
 .bss           0x0000000000046910        0x0 native/udt/src/ccc.o
 .bss           0x0000000000046910        0x0 native/udt/src/cache.o
 .bss           0x0000000000046910        0x0 native/udt/src/buffer.o
 .bss           0x0000000000046910        0x0 native/udt/src/api.o
 .bss           0x0000000000046910      0x11c native/jni/com_barchart_udt_SocketUDT.o
 .bss           0x0000000000046a2c        0x0 /usr/lib/gcc/x86_64-linux-gnu/4.4.3/32/libgcc.a(_divdi3.o)
 .bss           0x0000000000046a2c        0x0 /usr/lib/gcc/x86_64-linux-gnu/4.4.3/32/libgcc.a(_moddi3.o)
 .bss           0x0000000000046a2c        0x0 /usr/lib/gcc/x86_64-linux-gnu/4.4.3/32/libgcc.a(_udivdi3.o)
 .bss           0x0000000000046a2c        0x0 /usr/lib/gcc/x86_64-linux-gnu/4.4.3/32/libgcc.a(_umoddi3.o)
 .bss           0x0000000000046a2c       0x16 /usr/lib/gcc/x86_64-linux-gnu/4.4.3/32/libgcc_eh.a(unwind-dw2.o)
 *fill*         0x0000000000046a42       0x1e 00
 .bss           0x0000000000046a60      0x104 /usr/lib/gcc/x86_64-linux-gnu/4.4.3/32/libgcc_eh.a(unwind-dw2-fde-glibc.o)
 .bss           0x0000000000046b64        0x0 /usr/lib32/libc_nonshared.a(stack_chk_fail_local.oS)
 .bss           0x0000000000046b64        0x0 /usr/lib/gcc/x86_64-linux-gnu/4.4.3/32/crtendS.o
 .bss           0x0000000000046b64        0x0 /usr/lib/gcc/x86_64-linux-gnu/4.4.3/../../../../lib32/crtn.o
 *(COMMON)
                0x0000000000046b64                . = ALIGN ((. != 0x0)?0x4:0x1)
                0x0000000000046b64                . = ALIGN (0x4)
                0x0000000000046b64                . = ALIGN (0x4)
                0x0000000000046b64                _end = .
                0x0000000000046b64                PROVIDE (end, .)
                0x0000000000046b64                . = DATA_SEGMENT_END (.)

.stab
 *(.stab)

.stabstr
 *(.stabstr)

.stab.excl
 *(.stab.excl)

.stab.exclstr
 *(.stab.exclstr)

.stab.index
 *(.stab.index)

.stab.indexstr
 *(.stab.indexstr)

.comment        0x0000000000000000       0x23
 *(.comment)
 .comment       0x0000000000000000       0x23 /usr/lib/gcc/x86_64-linux-gnu/4.4.3/32/crtbeginS.o
                                         0x24 (size before relaxing)
 .comment       0x0000000000000000       0x24 native/udt/src/window.o
 .comment       0x0000000000000000       0x24 native/udt/src/queue.o
 .comment       0x0000000000000000       0x24 native/udt/src/packet.o
 .comment       0x0000000000000000       0x24 native/udt/src/md5.o
 .comment       0x0000000000000000       0x24 native/udt/src/list.o
 .comment       0x0000000000000000       0x24 native/udt/src/epoll.o
 .comment       0x0000000000000000       0x24 native/udt/src/core.o
 .comment       0x0000000000000000       0x24 native/udt/src/common.o
 .comment       0x0000000000000000       0x24 native/udt/src/channel.o
 .comment       0x0000000000000000       0x24 native/udt/src/ccc.o
 .comment       0x0000000000000000       0x24 native/udt/src/cache.o
 .comment       0x0000000000000000       0x24 native/udt/src/buffer.o
 .comment       0x0000000000000000       0x24 native/udt/src/api.o
 .comment       0x0000000000000000       0x24 native/jni/com_barchart_udt_SocketUDT.o
 .comment       0x0000000000000000       0x24 /usr/lib/gcc/x86_64-linux-gnu/4.4.3/32/libgcc.a(_divdi3.o)
 .comment       0x0000000000000000       0x24 /usr/lib/gcc/x86_64-linux-gnu/4.4.3/32/libgcc.a(_moddi3.o)
 .comment       0x0000000000000000       0x24 /usr/lib/gcc/x86_64-linux-gnu/4.4.3/32/libgcc.a(_udivdi3.o)
 .comment       0x0000000000000000       0x24 /usr/lib/gcc/x86_64-linux-gnu/4.4.3/32/libgcc.a(_umoddi3.o)
 .comment       0x0000000000000000       0x24 /usr/lib/gcc/x86_64-linux-gnu/4.4.3/32/libgcc_eh.a(unwind-dw2.o)
 .comment       0x0000000000000000       0x24 /usr/lib/gcc/x86_64-linux-gnu/4.4.3/32/libgcc_eh.a(unwind-dw2-fde-glibc.o)
 .comment       0x0000000000000000       0x24 /usr/lib32/libc_nonshared.a(stack_chk_fail_local.oS)
 .comment       0x0000000000000000       0x24 /usr/lib/gcc/x86_64-linux-gnu/4.4.3/32/crtendS.o

.debug
 *(.debug)

.line
 *(.line)

.debug_srcinfo
 *(.debug_srcinfo)

.debug_sfnames
 *(.debug_sfnames)

.debug_aranges  0x0000000000000000      0x440
 *(.debug_aranges)
 .debug_aranges
                0x0000000000000000       0x20 native/udt/src/window.o
 .debug_aranges
                0x0000000000000020       0x60 native/udt/src/queue.o
 .debug_aranges
                0x0000000000000080       0x20 native/udt/src/packet.o
 .debug_aranges
                0x00000000000000a0       0x20 native/udt/src/md5.o
 .debug_aranges
                0x00000000000000c0       0x20 native/udt/src/list.o
 .debug_aranges
                0x00000000000000e0       0x70 native/udt/src/epoll.o
 .debug_aranges
                0x0000000000000150       0x70 native/udt/src/core.o
 .debug_aranges
                0x00000000000001c0       0x20 native/udt/src/common.o
 .debug_aranges
                0x00000000000001e0       0x20 native/udt/src/channel.o
 .debug_aranges
                0x0000000000000200       0x70 native/udt/src/ccc.o
 .debug_aranges
                0x0000000000000270       0x60 native/udt/src/cache.o
 .debug_aranges
                0x00000000000002d0       0x20 native/udt/src/buffer.o
 .debug_aranges
                0x00000000000002f0       0xe0 native/udt/src/api.o
 .debug_aranges
                0x00000000000003d0       0x70 native/jni/com_barchart_udt_SocketUDT.o

.debug_pubnames
                0x0000000000000000     0x592b
 *(.debug_pubnames)
 .debug_pubnames
                0x0000000000000000      0x2a7 native/udt/src/window.o
 .debug_pubnames
                0x00000000000002a7      0xd14 native/udt/src/queue.o
 .debug_pubnames
                0x0000000000000fbb      0x22e native/udt/src/packet.o
 .debug_pubnames
                0x00000000000011e9       0x3d native/udt/src/md5.o
 .debug_pubnames
                0x0000000000001226      0x240 native/udt/src/list.o
 .debug_pubnames
                0x0000000000001466      0x611 native/udt/src/epoll.o
 .debug_pubnames
                0x0000000000001a77      0x561 native/udt/src/core.o
 .debug_pubnames
                0x0000000000001fd8      0x813 native/udt/src/common.o
 .debug_pubnames
                0x00000000000027eb      0x1c4 native/udt/src/channel.o
 .debug_pubnames
                0x00000000000029af      0x27d native/udt/src/ccc.o
 .debug_pubnames
                0x0000000000002c2c      0x4ce native/udt/src/cache.o
 .debug_pubnames
                0x00000000000030fa      0x2f2 native/udt/src/buffer.o
 .debug_pubnames
                0x00000000000033ec     0x1886 native/udt/src/api.o
 .debug_pubnames
                0x0000000000004c72      0xcb9 native/jni/com_barchart_udt_SocketUDT.o

.debug_info     0x0000000000000000    0xbbad8
 *(.debug_info .gnu.linkonce.wi.*)
 .debug_info    0x0000000000000000     0x4d7c native/udt/src/window.o
 .debug_info    0x0000000000004d7c    0x1d4e1 native/udt/src/queue.o
 .debug_info    0x000000000002225d     0x4829 native/udt/src/packet.o
 .debug_info    0x0000000000026a86      0x371 native/udt/src/md5.o
 .debug_info    0x0000000000026df7     0x5792 native/udt/src/list.o
 .debug_info    0x000000000002c589     0xfd3d native/udt/src/epoll.o
 .debug_info    0x000000000003c2c6    0x16def native/udt/src/core.o
 .debug_info    0x00000000000530b5     0x6f28 native/udt/src/common.o
 .debug_info    0x0000000000059fdd     0x4cf0 native/udt/src/channel.o
 .debug_info    0x000000000005eccd    0x143c4 native/udt/src/ccc.o
 .debug_info    0x0000000000073091     0x9ae9 native/udt/src/cache.o
 .debug_info    0x000000000007cb7a     0x60fe native/udt/src/buffer.o
 .debug_info    0x0000000000082c78    0x24790 native/udt/src/api.o
 .debug_info    0x00000000000a7408    0x146d0 native/jni/com_barchart_udt_SocketUDT.o

.debug_abbrev   0x0000000000000000     0x72e0
 *(.debug_abbrev)
 .debug_abbrev  0x0000000000000000      0x6fa native/udt/src/window.o
 .debug_abbrev  0x00000000000006fa      0xacb native/udt/src/queue.o
 .debug_abbrev  0x00000000000011c5      0x64e native/udt/src/packet.o
 .debug_abbrev  0x0000000000001813      0x1bf native/udt/src/md5.o
 .debug_abbrev  0x00000000000019d2      0x7e0 native/udt/src/list.o
 .debug_abbrev  0x00000000000021b2      0x905 native/udt/src/epoll.o
 .debug_abbrev  0x0000000000002ab7      0xa79 native/udt/src/core.o
 .debug_abbrev  0x0000000000003530      0x988 native/udt/src/common.o
 .debug_abbrev  0x0000000000003eb8      0x685 native/udt/src/channel.o
 .debug_abbrev  0x000000000000453d      0x911 native/udt/src/ccc.o
 .debug_abbrev  0x0000000000004e4e      0x870 native/udt/src/cache.o
 .debug_abbrev  0x00000000000056be      0x824 native/udt/src/buffer.o
 .debug_abbrev  0x0000000000005ee2      0xa92 native/udt/src/api.o
 .debug_abbrev  0x0000000000006974      0x96c native/jni/com_barchart_udt_SocketUDT.o

.debug_line     0x0000000000000000    0x12766
 *(.debug_line)
 .debug_line    0x0000000000000000      0xc05 native/udt/src/window.o
 .debug_line    0x0000000000000c05     0x1c53 native/udt/src/queue.o
 .debug_line    0x0000000000002858      0xa6d native/udt/src/packet.o
 .debug_line    0x00000000000032c5      0x337 native/udt/src/md5.o
 .debug_line    0x00000000000035fc     0x10f2 native/udt/src/list.o
 .debug_line    0x00000000000046ee     0x20b1 native/udt/src/epoll.o
 .debug_line    0x000000000000679f     0x1ff1 native/udt/src/core.o
 .debug_line    0x0000000000008790      0xf68 native/udt/src/common.o
 .debug_line    0x00000000000096f8      0xbb2 native/udt/src/channel.o
 .debug_line    0x000000000000a2aa      0xdc0 native/udt/src/ccc.o
 .debug_line    0x000000000000b06a     0x1066 native/udt/src/cache.o
 .debug_line    0x000000000000c0d0      0xeb4 native/udt/src/buffer.o
 .debug_line    0x000000000000cf84     0x33e6 native/udt/src/api.o
 .debug_line    0x000000000001036a     0x23fc native/jni/com_barchart_udt_SocketUDT.o

.debug_frame
 *(.debug_frame)

.debug_str      0x0000000000000000    0x2f100
 *(.debug_str)
 .debug_str     0x0000000000000000     0x35bc native/udt/src/window.o
                                       0x3957 (size before relaxing)
 .debug_str     0x00000000000035bc    0x20982 native/udt/src/queue.o
                                      0x24baf (size before relaxing)
 .debug_str     0x0000000000023f3e       0x33 native/udt/src/packet.o
                                       0x38c3 (size before relaxing)
 .debug_str     0x0000000000023f71       0x91 native/udt/src/md5.o
                                        0x159 (size before relaxing)
 .debug_str     0x0000000000024002       0xea native/udt/src/list.o
                                       0x3be4 (size before relaxing)
 .debug_str     0x00000000000240ec     0x165d native/udt/src/epoll.o
                                       0xa759 (size before relaxing)
 .debug_str     0x0000000000025749      0x5f2 native/udt/src/core.o
                                      0x20cdb (size before relaxing)
 .debug_str     0x0000000000025d3b      0x4b0 native/udt/src/common.o
                                       0x427d (size before relaxing)
 .debug_str     0x00000000000261eb       0xed native/udt/src/channel.o
                                       0x3bfd (size before relaxing)
 .debug_str     0x00000000000262d8      0x47f native/udt/src/ccc.o
                                      0x2069c (size before relaxing)
 .debug_str     0x0000000000026757      0x3c4 native/udt/src/cache.o
                                       0x8c84 (size before relaxing)
 .debug_str     0x0000000000026b1b       0xe6 native/udt/src/buffer.o
                                       0x4380 (size before relaxing)
 .debug_str     0x0000000000026c01     0x2b26 native/udt/src/api.o
                                      0x24260 (size before relaxing)
 .debug_str     0x0000000000029727     0x59d9 native/jni/com_barchart_udt_SocketUDT.o
                                       0xd0c0 (size before relaxing)

.debug_loc      0x0000000000000000    0x18f63
 *(.debug_loc)
 .debug_loc     0x0000000000000000      0x9cc native/udt/src/window.o
 .debug_loc     0x00000000000009cc     0x2b7f native/udt/src/queue.o
 .debug_loc     0x000000000000354b      0x5b7 native/udt/src/packet.o
 .debug_loc     0x0000000000003b02      0x587 native/udt/src/md5.o
 .debug_loc     0x0000000000004089      0xe89 native/udt/src/list.o
 .debug_loc     0x0000000000004f12     0x2a5d native/udt/src/epoll.o
 .debug_loc     0x000000000000796f     0x2c5b native/udt/src/core.o
 .debug_loc     0x000000000000a5ca      0xf00 native/udt/src/common.o
 .debug_loc     0x000000000000b4ca      0x701 native/udt/src/channel.o
 .debug_loc     0x000000000000bbcb      0x950 native/udt/src/ccc.o
 .debug_loc     0x000000000000c51b      0xfe4 native/udt/src/cache.o
 .debug_loc     0x000000000000d4ff     0x15c7 native/udt/src/buffer.o
 .debug_loc     0x000000000000eac6     0x6540 native/udt/src/api.o
 .debug_loc     0x0000000000015006     0x3f5d native/jni/com_barchart_udt_SocketUDT.o

.debug_macinfo  0x0000000000000000    0xf5643
 *(.debug_macinfo)
 .debug_macinfo
                0x0000000000000000    0x12cbc native/udt/src/window.o
 .debug_macinfo
                0x0000000000012cbc    0x1217d native/udt/src/queue.o
 .debug_macinfo
                0x0000000000024e39    0x111bc native/udt/src/packet.o
 .debug_macinfo
                0x0000000000035ff5     0x2b17 native/udt/src/md5.o
 .debug_macinfo
                0x0000000000038b0c    0x11a85 native/udt/src/list.o
 .debug_macinfo
                0x000000000004a591    0x1254f native/udt/src/epoll.o
 .debug_macinfo
                0x000000000005cae0    0x14128 native/udt/src/core.o
 .debug_macinfo
                0x0000000000070c08    0x139b2 native/udt/src/common.o
 .debug_macinfo
                0x00000000000845ba    0x12f62 native/udt/src/channel.o
 .debug_macinfo
                0x000000000009751c    0x13181 native/udt/src/ccc.o
 .debug_macinfo
                0x00000000000aa69d    0x12123 native/udt/src/cache.o
 .debug_macinfo
                0x00000000000bc7c0    0x1325c native/udt/src/buffer.o
 .debug_macinfo
                0x00000000000cfa1c    0x120cc native/udt/src/api.o
 .debug_macinfo
                0x00000000000e1ae8    0x13b5b native/jni/com_barchart_udt_SocketUDT.o

.debug_weaknames
 *(.debug_weaknames)

.debug_funcnames
 *(.debug_funcnames)

.debug_typenames
 *(.debug_typenames)

.debug_varnames
 *(.debug_varnames)

.debug_pubtypes
 *(.debug_pubtypes)

.debug_ranges   0x0000000000000000     0xd460
 *(.debug_ranges)
 .debug_ranges  0x0000000000000000      0x1c0 native/udt/src/window.o
 .debug_ranges  0x00000000000001c0     0x1bc0 native/udt/src/queue.o
 .debug_ranges  0x0000000000001d80       0x58 native/udt/src/packet.o
 .debug_ranges  0x0000000000001dd8       0x70 native/udt/src/md5.o
 .debug_ranges  0x0000000000001e48      0x518 native/udt/src/list.o
 .debug_ranges  0x0000000000002360     0x2de0 native/udt/src/epoll.o
 .debug_ranges  0x0000000000005140      0xc78 native/udt/src/core.o
 .debug_ranges  0x0000000000005db8      0x560 native/udt/src/common.o
 .debug_ranges  0x0000000000006318      0x158 native/udt/src/channel.o
 .debug_ranges  0x0000000000006470      0x1b8 native/udt/src/ccc.o
 .debug_ranges  0x0000000000006628      0x880 native/udt/src/cache.o
 .debug_ranges  0x0000000000006ea8      0x440 native/udt/src/buffer.o
 .debug_ranges  0x00000000000072e8     0x4538 native/udt/src/api.o
 .debug_ranges  0x000000000000b820     0x1c40 native/jni/com_barchart_udt_SocketUDT.o

.gnu.attributes
 *(.gnu.attributes)

/DISCARD/
 *(.note.GNU-stack)
 *(.gnu_debuglink)
 *(.gnu.lto_*)
OUTPUT(libSocketUDT-linux-x86-32.so elf32-i386)
