# Path: libSocketUDT-macosx-x86-64.jnilib
# Arch: x86_64
# UUID:  0  0  0  0  0  0  0  0  0  0  0  0  0  0  0  0 
# Object files:
[  0] linker synthesized
[  1] native/udt/src/window.o
[  2] native/udt/src/queue.o
[  3] native/udt/src/packet.o
[  4] native/udt/src/md5.o
[  5] native/udt/src/list.o
[  6] native/udt/src/epoll.o
[  7] native/udt/src/core.o
[  8] native/udt/src/common.o
[  9] native/udt/src/channel.o
[ 10] native/udt/src/ccc.o
[ 11] native/udt/src/cache.o
[ 12] native/udt/src/buffer.o
[ 13] native/udt/src/api.o
[ 14] native/jni/com_barchart_udt_SocketUDT.o
# Sections:
# Address	Size    	Segment	Section
0x00001150	0x00039972	__TEXT	__text
0x0003AAC2	0x000018FC	__TEXT	__symbol_stub1
0x0003C3C0	0x000001B0	__TEXT	__const
0x0003C570	0x00001325	__TEXT	__cstring
0x0003D895	0x00000394	__TEXT	__stub_helper
0x0003DC2C	0x000044A2	__TEXT	__gcc_except_tab
0x000420D0	0x00000D40	__TEXT	__unwind_info
0x00042E10	0x000141D8	__TEXT	__eh_frame
0x00057000	0x00000010	__DATA	__mod_init_func
0x00057010	0x00000048	__DATA	__nl_symbol_ptr
0x00057058	0x00002150	__DATA	__la_symbol_ptr
0x000591C0	0x000001F0	__DATA	__const
0x000593C0	0x00000070	__DATA	__data
0x00059440	0x00000320	__DATA	__common
0x00059760	0x00000238	__DATA	__bss
# Symbols:
# Address	Size    	File  Name
0x00001150	0x0000000A	[  2] __ZNSt15binary_functionIiibEC2Ev
0x0000115A	0x00000018	[  2] __ZNSt4lessIiEC1Ev
0x00001172	0x00000062	[  6] __ZN6CEPollD1Ev
0x000011D4	0x0000005C	[  6] __ZN6CEPollC1Ev
0x00001230	0x00000012	[  6] __ZNSt8_Rb_treeIiSt4pairIKi10CEPollDescESt10_Select1stIS3_ESt4lessIiESaIS3_EE8_M_beginEv
0x00001242	0x00000012	[  6] __ZNSt8_Rb_treeIiiSt9_IdentityIiESt4lessIiESaIiEE8_M_beginEv
0x00001254	0x0000000A	[  6] __ZN9__gnu_cxx13new_allocatorIiEC2Ev
0x0000125E	0x0000000A	[  6] __ZN9__gnu_cxx13new_allocatorIiED2Ev
0x00001268	0x00000018	[  6] __ZNSaIiED1Ev
0x00001280	0x0000000A	[  6] __ZN9__gnu_cxx13new_allocatorISt4pairIKi10CEPollDescEEC2Ev
0x0000128A	0x00000018	[  6] __ZNSaISt4pairIKi10CEPollDescEEC1Ev
0x000012A2	0x0000000A	[  6] __ZN9__gnu_cxx13new_allocatorISt4pairIKi10CEPollDescEED2Ev
0x000012AC	0x00000018	[  6] __ZNSaISt4pairIKi10CEPollDescEED1Ev
0x000012C4	0x0000000A	[  6] __ZN9__gnu_cxx13new_allocatorISt13_Rb_tree_nodeISt4pairIKi10CEPollDescEEED2Ev
0x000012CE	0x00000018	[  6] __ZNSaISt13_Rb_tree_nodeISt4pairIKi10CEPollDescEEED2Ev
0x000012E6	0x00000018	[  6] __ZNSt8_Rb_treeIiSt4pairIKi10CEPollDescESt10_Select1stIS3_ESt4lessIiESaIS3_EE13_Rb_tree_implIS7_Lb0EED1Ev
0x000012FE	0x00000017	[  6] __ZNSaISt13_Rb_tree_nodeISt4pairIKi10CEPollDescEEED1Ev
0x00001315	0x00000012	[  6] __ZNSt8_Rb_treeIiSt4pairIKi10CEPollDescESt10_Select1stIS3_ESt4lessIiESaIS3_EE8_S_rightEPSt18_Rb_tree_node_base
0x00001327	0x00000013	[  6] __ZNSt8_Rb_treeIiSt4pairIKi10CEPollDescESt10_Select1stIS3_ESt4lessIiESaIS3_EE7_S_leftEPSt18_Rb_tree_node_base
0x0000133A	0x0000000A	[  6] __ZN9__gnu_cxx13new_allocatorISt13_Rb_tree_nodeIiEED2Ev
0x00001344	0x00000018	[  6] __ZNSaISt13_Rb_tree_nodeIiEED2Ev
0x0000135C	0x00000018	[  6] __ZNSt8_Rb_treeIiiSt9_IdentityIiESt4lessIiESaIiEE13_Rb_tree_implIS3_Lb0EED1Ev
0x00001374	0x0000000A	[  6] __ZN9__gnu_cxx13new_allocatorISt13_Rb_tree_nodeISt4pairIKi10CEPollDescEEEC2Ev
0x0000137E	0x0000001C	[  6] __ZNSaISt13_Rb_tree_nodeISt4pairIKi10CEPollDescEEEC1IS3_EERKSaIT_E
0x0000139A	0x0000000E	[  6] __ZN9__gnu_cxx13new_allocatorIiE7destroyEPi
0x000013A8	0x0000000E	[  6] __ZNKSt8_Rb_treeIiiSt9_IdentityIiESt4lessIiESaIiEE21_M_get_Node_allocatorEv
0x000013B6	0x0000000E	[  6] __ZN9__gnu_cxx13new_allocatorISt13_Rb_tree_nodeISt4pairIKi10CEPollDescEEEC2ERKS7_
0x000013C4	0x00000020	[  6] __ZNSaISt13_Rb_tree_nodeISt4pairIKi10CEPollDescEEEC2ERKS5_
0x000013E4	0x00000096	[  6] __ZNSt8_Rb_treeIiSt4pairIKi10CEPollDescESt10_Select1stIS3_ESt4lessIiESaIS3_EE13_Rb_tree_implIS7_Lb0EEC1ERKSaISt13_Rb_tree_nodeIS3_EERKS7_
0x0000147A	0x0000003E	[  6] __ZNSt8_Rb_treeIiSt4pairIKi10CEPollDescESt10_Select1stIS3_ESt4lessIiESaIS3_EEC1ERKS7_RKS8_
0x000014B8	0x0000003A	[  6] __ZNSt3mapIi10CEPollDescSt4lessIiESaISt4pairIKiS0_EEEC1Ev
0x000014F2	0x0000000E	[  6] __ZNKSt8_Rb_treeIiSt4pairIKi10CEPollDescESt10_Select1stIS3_ESt4lessIiESaIS3_EE21_M_get_Node_allocatorEv
0x00001500	0x0000001C	[  6] __ZNSaISt4pairIKi10CEPollDescEEC1ISt13_Rb_tree_nodeIS2_EEERKSaIT_E
0x0000151C	0x00000036	[  6] __ZNKSt8_Rb_treeIiSt4pairIKi10CEPollDescESt10_Select1stIS3_ESt4lessIiESaIS3_EE13get_allocatorEv
0x00001552	0x0000001C	[  6] __ZNSaIiEC1ISt13_Rb_tree_nodeIiEEERKSaIT_E
0x0000156E	0x00000036	[  6] __ZNKSt8_Rb_treeIiiSt9_IdentityIiESt4lessIiESaIiEE13get_allocatorEv
0x000015A4	0x00000020	[  6] __ZN9__gnu_cxx13new_allocatorISt13_Rb_tree_nodeIiEE10deallocateEPS2_m
0x000015C4	0x00000028	[  6] __ZNSt8_Rb_treeIiiSt9_IdentityIiESt4lessIiESaIiEE11_M_put_nodeEPSt13_Rb_tree_nodeIiE
0x000015EC	0x00000050	[  6] __ZNSt8_Rb_treeIiiSt9_IdentityIiESt4lessIiESaIiEE15_M_destroy_nodeEPSt13_Rb_tree_nodeIiE
0x0000163C	0x00000052	[  6] __ZNSt8_Rb_treeIiiSt9_IdentityIiESt4lessIiESaIiEE8_M_eraseEPSt13_Rb_tree_nodeIiE
0x0000168E	0x00000062	[  6] __ZNSt8_Rb_treeIiiSt9_IdentityIiESt4lessIiESaIiEED1Ev
0x000016F0	0x00000018	[  6] __ZNSt3setIiSt4lessIiESaIiEED1Ev
0x00001708	0x000000DA	[  6] __ZN10CEPollDescD1Ev
0x000017E2	0x0000001C	[  6] __ZNSt4pairIKi10CEPollDescED1Ev
0x000017FE	0x0000001C	[  6] __ZN9__gnu_cxx13new_allocatorISt4pairIKi10CEPollDescEE7destroyEPS4_
0x0000181A	0x00000020	[  6] __ZN9__gnu_cxx13new_allocatorISt13_Rb_tree_nodeISt4pairIKi10CEPollDescEEE10deallocateEPS6_m
0x0000183A	0x00000028	[  6] __ZNSt8_Rb_treeIiSt4pairIKi10CEPollDescESt10_Select1stIS3_ESt4lessIiESaIS3_EE11_M_put_nodeEPSt13_Rb_tree_nodeIS3_E
0x00001862	0x00000070	[  6] __ZNSt8_Rb_treeIiSt4pairIKi10CEPollDescESt10_Select1stIS3_ESt4lessIiESaIS3_EE15_M_destroy_nodeEPSt13_Rb_tree_nodeIS3_E
0x000018D2	0x00000052	[  6] __ZNSt8_Rb_treeIiSt4pairIKi10CEPollDescESt10_Select1stIS3_ESt4lessIiESaIS3_EE8_M_eraseEPSt13_Rb_tree_nodeIS3_E
0x00001924	0x00000062	[  6] __ZNSt8_Rb_treeIiSt4pairIKi10CEPollDescESt10_Select1stIS3_ESt4lessIiESaIS3_EED1Ev
0x00001986	0x00000018	[  6] __ZNSt3mapIi10CEPollDescSt4lessIiESaISt4pairIKiS0_EEED1Ev
0x0000199E	0x00000043	[  7] __Z41__static_initialization_and_destruction_0ii
0x000019E1	0x00000015	[  7] __GLOBAL__I__ZN4CUDT11s_UDTUnitedE
0x000019F8	0x0000000C	[  8] __ZN6CTimer16readCPUFrequencyEv
0x00001A06	0x00000018	[  8] __ZN6CGuard12releaseMutexER23_opaque_pthread_mutex_t
0x00001A1E	0x0000001C	[  8] __ZN6CGuard11createMutexER23_opaque_pthread_mutex_t
0x00001A3A	0x0000002C	[  8] __ZN6CTimer7getTimeEv
0x00001A66	0x0000002B	[  8] __Z41__static_initialization_and_destruction_0ii
0x00001A91	0x00000015	[  8] __GLOBAL__I__ZN6CTimer17s_ullCPUFrequencyE
0x00001AA6	0x0000009E	[ 11] __ZN6CCacheC1Ev
0x00001B44	0x00000012	[ 11] __ZNSt8_Rb_treeIP10CInfoBlockS1_St9_IdentityIS1_E7CIPCompSaIS1_EE8_M_beginEv
0x00001B56	0x00000012	[ 11] __ZNSt8_Rb_treeIP10CInfoBlockS1_St9_IdentityIS1_E7CTSCompSaIS1_EE8_M_beginEv
0x00001B68	0x0000000A	[ 11] __ZN9__gnu_cxx13new_allocatorIP10CInfoBlockEC2Ev
0x00001B72	0x00000018	[ 11] __ZNSaIP10CInfoBlockEC1Ev
0x00001B8A	0x0000000A	[ 11] __ZN9__gnu_cxx13new_allocatorIP10CInfoBlockED2Ev
0x00001B94	0x00000018	[ 11] __ZNSaIP10CInfoBlockED1Ev
0x00001BAC	0x0000000A	[ 11] __ZN9__gnu_cxx13new_allocatorISt13_Rb_tree_nodeIP10CInfoBlockEED2Ev
0x00001BB6	0x00000018	[ 11] __ZNSaISt13_Rb_tree_nodeIP10CInfoBlockEED2Ev
0x00001BCE	0x00000018	[ 11] __ZNSt8_Rb_treeIP10CInfoBlockS1_St9_IdentityIS1_E7CTSCompSaIS1_EE13_Rb_tree_implIS4_Lb0EED1Ev
0x00001BE6	0x00000018	[ 11] __ZNSt8_Rb_treeIP10CInfoBlockS1_St9_IdentityIS1_E7CIPCompSaIS1_EE13_Rb_tree_implIS4_Lb0EED1Ev
0x00001BFE	0x00000017	[ 11] __ZNSaISt13_Rb_tree_nodeIP10CInfoBlockEED1Ev
0x00001C15	0x00000012	[ 11] __ZNSt8_Rb_treeIP10CInfoBlockS1_St9_IdentityIS1_E7CIPCompSaIS1_EE8_S_rightEPSt18_Rb_tree_node_base
0x00001C27	0x00000012	[ 11] __ZNSt8_Rb_treeIP10CInfoBlockS1_St9_IdentityIS1_E7CIPCompSaIS1_EE7_S_leftEPSt18_Rb_tree_node_base
0x00001C39	0x00000012	[ 11] __ZNSt8_Rb_treeIP10CInfoBlockS1_St9_IdentityIS1_E7CTSCompSaIS1_EE8_S_rightEPSt18_Rb_tree_node_base
0x00001C4B	0x00000013	[ 11] __ZNSt8_Rb_treeIP10CInfoBlockS1_St9_IdentityIS1_E7CTSCompSaIS1_EE7_S_leftEPSt18_Rb_tree_node_base
0x00001C5E	0x0000000A	[ 11] __ZN9__gnu_cxx13new_allocatorISt13_Rb_tree_nodeIP10CInfoBlockEEC2Ev
0x00001C68	0x0000001C	[ 11] __ZNSaISt13_Rb_tree_nodeIP10CInfoBlockEEC1IS1_EERKSaIT_E
0x00001C84	0x0000000E	[ 11] __ZN9__gnu_cxx13new_allocatorIP10CInfoBlockE7destroyEPS2_
0x00001C92	0x0000000E	[ 11] __ZN9__gnu_cxx13new_allocatorISt13_Rb_tree_nodeIP10CInfoBlockEEC2ERKS5_
0x00001CA0	0x00000020	[ 11] __ZNSaISt13_Rb_tree_nodeIP10CInfoBlockEEC2ERKS3_
0x00001CC0	0x00000096	[ 11] __ZNSt8_Rb_treeIP10CInfoBlockS1_St9_IdentityIS1_E7CIPCompSaIS1_EE13_Rb_tree_implIS4_Lb0EEC1ERKSaISt13_Rb_tree_nodeIS1_EERKS4_
0x00001D56	0x0000003E	[ 11] __ZNSt8_Rb_treeIP10CInfoBlockS1_St9_IdentityIS1_E7CIPCompSaIS1_EEC1ERKS4_RKS5_
0x00001D94	0x00000032	[ 11] __ZNSt3setIP10CInfoBlock7CIPCompSaIS1_EEC1Ev
0x00001DC6	0x00000096	[ 11] __ZNSt8_Rb_treeIP10CInfoBlockS1_St9_IdentityIS1_E7CTSCompSaIS1_EE13_Rb_tree_implIS4_Lb0EEC1ERKSaISt13_Rb_tree_nodeIS1_EERKS4_
0x00001E5C	0x0000003E	[ 11] __ZNSt8_Rb_treeIP10CInfoBlockS1_St9_IdentityIS1_E7CTSCompSaIS1_EEC1ERKS4_RKS5_
0x00001E9A	0x00000032	[ 11] __ZNSt3setIP10CInfoBlock7CTSCompSaIS1_EEC1Ev
0x00001ECC	0x0000000E	[ 11] __ZNKSt8_Rb_treeIP10CInfoBlockS1_St9_IdentityIS1_E7CIPCompSaIS1_EE21_M_get_Node_allocatorEv
0x00001EDA	0x0000001C	[ 11] __ZNSaIP10CInfoBlockEC1ISt13_Rb_tree_nodeIS0_EEERKSaIT_E
0x00001EF6	0x00000036	[ 11] __ZNKSt8_Rb_treeIP10CInfoBlockS1_St9_IdentityIS1_E7CIPCompSaIS1_EE13get_allocatorEv
0x00001F2C	0x0000000E	[ 11] __ZNKSt8_Rb_treeIP10CInfoBlockS1_St9_IdentityIS1_E7CTSCompSaIS1_EE21_M_get_Node_allocatorEv
0x00001F3A	0x00000036	[ 11] __ZNKSt8_Rb_treeIP10CInfoBlockS1_St9_IdentityIS1_E7CTSCompSaIS1_EE13get_allocatorEv
0x00001F70	0x00000020	[ 11] __ZN9__gnu_cxx13new_allocatorISt13_Rb_tree_nodeIP10CInfoBlockEE10deallocateEPS4_m
0x00001F90	0x00000028	[ 11] __ZNSt8_Rb_treeIP10CInfoBlockS1_St9_IdentityIS1_E7CTSCompSaIS1_EE11_M_put_nodeEPSt13_Rb_tree_nodeIS1_E
0x00001FB8	0x00000050	[ 11] __ZNSt8_Rb_treeIP10CInfoBlockS1_St9_IdentityIS1_E7CTSCompSaIS1_EE15_M_destroy_nodeEPSt13_Rb_tree_nodeIS1_E
0x00002008	0x00000052	[ 11] __ZNSt8_Rb_treeIP10CInfoBlockS1_St9_IdentityIS1_E7CTSCompSaIS1_EE8_M_eraseEPSt13_Rb_tree_nodeIS1_E
0x0000205A	0x00000062	[ 11] __ZNSt8_Rb_treeIP10CInfoBlockS1_St9_IdentityIS1_E7CTSCompSaIS1_EED1Ev
0x000020BC	0x00000018	[ 11] __ZNSt3setIP10CInfoBlock7CTSCompSaIS1_EED1Ev
0x000020D4	0x00000028	[ 11] __ZNSt8_Rb_treeIP10CInfoBlockS1_St9_IdentityIS1_E7CIPCompSaIS1_EE11_M_put_nodeEPSt13_Rb_tree_nodeIS1_E
0x000020FC	0x00000050	[ 11] __ZNSt8_Rb_treeIP10CInfoBlockS1_St9_IdentityIS1_E7CIPCompSaIS1_EE15_M_destroy_nodeEPSt13_Rb_tree_nodeIS1_E
0x0000214C	0x00000052	[ 11] __ZNSt8_Rb_treeIP10CInfoBlockS1_St9_IdentityIS1_E7CIPCompSaIS1_EE8_M_eraseEPSt13_Rb_tree_nodeIS1_E
0x0000219E	0x00000062	[ 11] __ZNSt8_Rb_treeIP10CInfoBlockS1_St9_IdentityIS1_E7CIPCompSaIS1_EED1Ev
0x00002200	0x00000018	[ 11] __ZNSt3setIP10CInfoBlock7CIPCompSaIS1_EED1Ev
0x00002218	0x000002BE	[ 13] __ZN10CUDTUnitedC1Ev
0x000024D6	0x0000000A	[ 13] __ZNSt15binary_functionIxxbEC2Ev
0x000024E0	0x00000018	[ 13] __ZNSt4lessIxEC1Ev
0x000024F8	0x00000012	[ 13] __ZNSt8_Rb_treeIiSt4pairIKiP10CUDTSocketESt10_Select1stIS4_ESt4lessIiESaIS4_EE8_M_beginEv
0x0000250A	0x00000012	[ 13] __ZNSt8_Rb_treeIxSt4pairIKxSt3setIiSt4lessIiESaIiEEESt10_Select1stIS7_ES3_IxESaIS7_EE8_M_beginEv
0x0000251C	0x00000012	[ 13] __ZNSt8_Rb_treeIiSt4pairIKi12CMultiplexerESt10_Select1stIS3_ESt4lessIiESaIS3_EE8_M_beginEv
0x0000252E	0x0000000A	[ 13] __ZN9__gnu_cxx13new_allocatorISt4pairIKiP10CUDTSocketEEC2Ev
0x00002538	0x00000018	[ 13] __ZNSaISt4pairIKiP10CUDTSocketEEC1Ev
0x00002550	0x0000000A	[ 13] __ZN9__gnu_cxx13new_allocatorISt4pairIKiP10CUDTSocketEED2Ev
0x0000255A	0x00000018	[ 13] __ZNSaISt4pairIKiP10CUDTSocketEED1Ev
0x00002572	0x0000000A	[ 13] __ZN9__gnu_cxx13new_allocatorISt13_Rb_tree_nodeISt4pairIKiP10CUDTSocketEEED2Ev
0x0000257C	0x00000018	[ 13] __ZNSaISt13_Rb_tree_nodeISt4pairIKiP10CUDTSocketEEED2Ev
0x00002594	0x00000018	[ 13] __ZNSt8_Rb_treeIiSt4pairIKiP10CUDTSocketESt10_Select1stIS4_ESt4lessIiESaIS4_EE13_Rb_tree_implIS8_Lb0EED1Ev
0x000025AC	0x00000017	[ 13] __ZNSaISt13_Rb_tree_nodeISt4pairIKiP10CUDTSocketEEED1Ev
0x000025C3	0x00000012	[ 13] __ZNSt8_Rb_treeIiSt4pairIKiP10CUDTSocketESt10_Select1stIS4_ESt4lessIiESaIS4_EE8_S_rightEPSt18_Rb_tree_node_base
0x000025D5	0x00000013	[ 13] __ZNSt8_Rb_treeIiSt4pairIKiP10CUDTSocketESt10_Select1stIS4_ESt4lessIiESaIS4_EE7_S_leftEPSt18_Rb_tree_node_base
0x000025E8	0x0000000A	[ 13] __ZN9__gnu_cxx13new_allocatorISt4pairIKxSt3setIiSt4lessIiESaIiEEEEC2Ev
0x000025F2	0x00000018	[ 13] __ZNSaISt4pairIKxSt3setIiSt4lessIiESaIiEEEEC1Ev
0x0000260A	0x0000000A	[ 13] __ZN9__gnu_cxx13new_allocatorISt4pairIKxSt3setIiSt4lessIiESaIiEEEED2Ev
0x00002614	0x00000018	[ 13] __ZNSaISt4pairIKxSt3setIiSt4lessIiESaIiEEEED1Ev
0x0000262C	0x0000000A	[ 13] __ZN9__gnu_cxx13new_allocatorISt13_Rb_tree_nodeISt4pairIKxSt3setIiSt4lessIiESaIiEEEEED2Ev
0x00002636	0x00000018	[ 13] __ZNSaISt13_Rb_tree_nodeISt4pairIKxSt3setIiSt4lessIiESaIiEEEEED2Ev
0x0000264E	0x00000018	[ 13] __ZNSt8_Rb_treeIxSt4pairIKxSt3setIiSt4lessIiESaIiEEESt10_Select1stIS7_ES3_IxESaIS7_EE13_Rb_tree_implISA_Lb0EED1Ev
0x00002666	0x00000017	[ 13] __ZNSaISt13_Rb_tree_nodeISt4pairIKxSt3setIiSt4lessIiESaIiEEEEED1Ev
0x0000267D	0x00000012	[ 13] __ZNSt8_Rb_treeIxSt4pairIKxSt3setIiSt4lessIiESaIiEEESt10_Select1stIS7_ES3_IxESaIS7_EE8_S_rightEPSt18_Rb_tree_node_base
0x0000268F	0x00000013	[ 13] __ZNSt8_Rb_treeIxSt4pairIKxSt3setIiSt4lessIiESaIiEEESt10_Select1stIS7_ES3_IxESaIS7_EE7_S_leftEPSt18_Rb_tree_node_base
0x000026A2	0x0000000A	[ 13] __ZN9__gnu_cxx13new_allocatorISt4pairIKi12CMultiplexerEEC2Ev
0x000026AC	0x00000018	[ 13] __ZNSaISt4pairIKi12CMultiplexerEEC1Ev
0x000026C4	0x0000000A	[ 13] __ZN9__gnu_cxx13new_allocatorISt4pairIKi12CMultiplexerEED2Ev
0x000026CE	0x00000018	[ 13] __ZNSaISt4pairIKi12CMultiplexerEED1Ev
0x000026E6	0x0000000A	[ 13] __ZN9__gnu_cxx13new_allocatorISt13_Rb_tree_nodeISt4pairIKi12CMultiplexerEEED2Ev
0x000026F0	0x00000018	[ 13] __ZNSaISt13_Rb_tree_nodeISt4pairIKi12CMultiplexerEEED2Ev
0x00002708	0x00000018	[ 13] __ZNSt8_Rb_treeIiSt4pairIKi12CMultiplexerESt10_Select1stIS3_ESt4lessIiESaIS3_EE13_Rb_tree_implIS7_Lb0EED1Ev
0x00002720	0x00000017	[ 13] __ZNSaISt13_Rb_tree_nodeISt4pairIKi12CMultiplexerEEED1Ev
0x00002737	0x00000012	[ 13] __ZNSt8_Rb_treeIiSt4pairIKi12CMultiplexerESt10_Select1stIS3_ESt4lessIiESaIS3_EE8_S_rightEPSt18_Rb_tree_node_base
0x00002749	0x00000013	[ 13] __ZNSt8_Rb_treeIiSt4pairIKi12CMultiplexerESt10_Select1stIS3_ESt4lessIiESaIS3_EE7_S_leftEPSt18_Rb_tree_node_base
0x0000275C	0x0000000A	[ 13] __ZN9__gnu_cxx13new_allocatorISt13_Rb_tree_nodeISt4pairIKiP10CUDTSocketEEEC2Ev
0x00002766	0x0000001C	[ 13] __ZNSaISt13_Rb_tree_nodeISt4pairIKiP10CUDTSocketEEEC1IS4_EERKSaIT_E
0x00002782	0x0000000A	[ 13] __ZNSt4pairIKiP10CUDTSocketED1Ev
0x0000278C	0x0000001C	[ 13] __ZN9__gnu_cxx13new_allocatorISt4pairIKiP10CUDTSocketEE7destroyEPS5_
0x000027A8	0x0000000A	[ 13] __ZN9__gnu_cxx13new_allocatorISt13_Rb_tree_nodeISt4pairIKxSt3setIiSt4lessIiESaIiEEEEEC2Ev
0x000027B2	0x0000001C	[ 13] __ZNSaISt13_Rb_tree_nodeISt4pairIKxSt3setIiSt4lessIiESaIiEEEEEC1IS7_EERKSaIT_E
0x000027CE	0x0000000A	[ 13] __ZN9__gnu_cxx13new_allocatorISt13_Rb_tree_nodeISt4pairIKi12CMultiplexerEEEC2Ev
0x000027D8	0x0000001C	[ 13] __ZNSaISt13_Rb_tree_nodeISt4pairIKi12CMultiplexerEEEC1IS3_EERKSaIT_E
0x000027F4	0x0000000A	[ 13] __ZNSt4pairIKi12CMultiplexerED1Ev
0x000027FE	0x0000001C	[ 13] __ZN9__gnu_cxx13new_allocatorISt4pairIKi12CMultiplexerEE7destroyEPS4_
0x0000281A	0x0000000E	[ 13] __ZN9__gnu_cxx13new_allocatorISt13_Rb_tree_nodeISt4pairIKiP10CUDTSocketEEEC2ERKS8_
0x00002828	0x00000020	[ 13] __ZNSaISt13_Rb_tree_nodeISt4pairIKiP10CUDTSocketEEEC2ERKS6_
0x00002848	0x00000096	[ 13] __ZNSt8_Rb_treeIiSt4pairIKiP10CUDTSocketESt10_Select1stIS4_ESt4lessIiESaIS4_EE13_Rb_tree_implIS8_Lb0EEC1ERKSaISt13_Rb_tree_nodeIS4_EERKS8_
0x000028DE	0x0000003E	[ 13] __ZNSt8_Rb_treeIiSt4pairIKiP10CUDTSocketESt10_Select1stIS4_ESt4lessIiESaIS4_EEC1ERKS8_RKS9_
0x0000291C	0x0000003A	[ 13] __ZNSt3mapIiP10CUDTSocketSt4lessIiESaISt4pairIKiS1_EEEC1Ev
0x00002956	0x0000000E	[ 13] __ZNKSt8_Rb_treeIiSt4pairIKiP10CUDTSocketESt10_Select1stIS4_ESt4lessIiESaIS4_EE21_M_get_Node_allocatorEv
0x00002964	0x0000001C	[ 13] __ZNSaISt4pairIKiP10CUDTSocketEEC1ISt13_Rb_tree_nodeIS3_EEERKSaIT_E
0x00002980	0x00000036	[ 13] __ZNKSt8_Rb_treeIiSt4pairIKiP10CUDTSocketESt10_Select1stIS4_ESt4lessIiESaIS4_EE13get_allocatorEv
0x000029B6	0x0000000E	[ 13] __ZN9__gnu_cxx13new_allocatorISt13_Rb_tree_nodeISt4pairIKxSt3setIiSt4lessIiESaIiEEEEEC2ERKSB_
0x000029C4	0x00000020	[ 13] __ZNSaISt13_Rb_tree_nodeISt4pairIKxSt3setIiSt4lessIiESaIiEEEEEC2ERKS9_
0x000029E4	0x00000096	[ 13] __ZNSt8_Rb_treeIxSt4pairIKxSt3setIiSt4lessIiESaIiEEESt10_Select1stIS7_ES3_IxESaIS7_EE13_Rb_tree_implISA_Lb0EEC1ERKSaISt13_Rb_tree_nodeIS7_EERKSA_
0x00002A7A	0x0000003E	[ 13] __ZNSt8_Rb_treeIxSt4pairIKxSt3setIiSt4lessIiESaIiEEESt10_Select1stIS7_ES3_IxESaIS7_EEC1ERKSA_RKSB_
0x00002AB8	0x0000003A	[ 13] __ZNSt3mapIxSt3setIiSt4lessIiESaIiEES1_IxESaISt4pairIKxS4_EEEC1Ev
0x00002AF2	0x0000000E	[ 13] __ZNKSt8_Rb_treeIxSt4pairIKxSt3setIiSt4lessIiESaIiEEESt10_Select1stIS7_ES3_IxESaIS7_EE21_M_get_Node_allocatorEv
0x00002B00	0x0000001C	[ 13] __ZNSaISt4pairIKxSt3setIiSt4lessIiESaIiEEEEC1ISt13_Rb_tree_nodeIS6_EEERKSaIT_E
0x00002B1C	0x00000036	[ 13] __ZNKSt8_Rb_treeIxSt4pairIKxSt3setIiSt4lessIiESaIiEEESt10_Select1stIS7_ES3_IxESaIS7_EE13get_allocatorEv
0x00002B52	0x0000000E	[ 13] __ZN9__gnu_cxx13new_allocatorISt13_Rb_tree_nodeISt4pairIKi12CMultiplexerEEEC2ERKS7_
0x00002B60	0x00000020	[ 13] __ZNSaISt13_Rb_tree_nodeISt4pairIKi12CMultiplexerEEEC2ERKS5_
0x00002B80	0x00000096	[ 13] __ZNSt8_Rb_treeIiSt4pairIKi12CMultiplexerESt10_Select1stIS3_ESt4lessIiESaIS3_EE13_Rb_tree_implIS7_Lb0EEC1ERKSaISt13_Rb_tree_nodeIS3_EERKS7_
0x00002C16	0x0000003E	[ 13] __ZNSt8_Rb_treeIiSt4pairIKi12CMultiplexerESt10_Select1stIS3_ESt4lessIiESaIS3_EEC1ERKS7_RKS8_
0x00002C54	0x0000003A	[ 13] __ZNSt3mapIi12CMultiplexerSt4lessIiESaISt4pairIKiS0_EEEC1Ev
0x00002C8E	0x0000000E	[ 13] __ZNKSt8_Rb_treeIiSt4pairIKi12CMultiplexerESt10_Select1stIS3_ESt4lessIiESaIS3_EE21_M_get_Node_allocatorEv
0x00002C9C	0x0000001C	[ 13] __ZNSaISt4pairIKi12CMultiplexerEEC1ISt13_Rb_tree_nodeIS2_EEERKSaIT_E
0x00002CB8	0x00000036	[ 13] __ZNKSt8_Rb_treeIiSt4pairIKi12CMultiplexerESt10_Select1stIS3_ESt4lessIiESaIS3_EE13get_allocatorEv
0x00002CEE	0x00000020	[ 13] __ZN9__gnu_cxx13new_allocatorISt13_Rb_tree_nodeISt4pairIKiP10CUDTSocketEEE10deallocateEPS7_m
0x00002D0E	0x00000028	[ 13] __ZNSt8_Rb_treeIiSt4pairIKiP10CUDTSocketESt10_Select1stIS4_ESt4lessIiESaIS4_EE11_M_put_nodeEPSt13_Rb_tree_nodeIS4_E
0x00002D36	0x00000050	[ 13] __ZNSt8_Rb_treeIiSt4pairIKiP10CUDTSocketESt10_Select1stIS4_ESt4lessIiESaIS4_EE15_M_destroy_nodeEPSt13_Rb_tree_nodeIS4_E
0x00002D86	0x00000052	[ 13] __ZNSt8_Rb_treeIiSt4pairIKiP10CUDTSocketESt10_Select1stIS4_ESt4lessIiESaIS4_EE8_M_eraseEPSt13_Rb_tree_nodeIS4_E
0x00002DD8	0x00000062	[ 13] __ZNSt8_Rb_treeIiSt4pairIKiP10CUDTSocketESt10_Select1stIS4_ESt4lessIiESaIS4_EED1Ev
0x00002E3A	0x00000018	[ 13] __ZNSt3mapIiP10CUDTSocketSt4lessIiESaISt4pairIKiS1_EEED1Ev
0x00002E52	0x0000001C	[ 13] __ZNSt4pairIKxSt3setIiSt4lessIiESaIiEEED1Ev
0x00002E6E	0x0000001C	[ 13] __ZN9__gnu_cxx13new_allocatorISt4pairIKxSt3setIiSt4lessIiESaIiEEEE7destroyEPS8_
0x00002E8A	0x00000020	[ 13] __ZN9__gnu_cxx13new_allocatorISt13_Rb_tree_nodeISt4pairIKi12CMultiplexerEEE10deallocateEPS6_m
0x00002EAA	0x00000028	[ 13] __ZNSt8_Rb_treeIiSt4pairIKi12CMultiplexerESt10_Select1stIS3_ESt4lessIiESaIS3_EE11_M_put_nodeEPSt13_Rb_tree_nodeIS3_E
0x00002ED2	0x00000050	[ 13] __ZNSt8_Rb_treeIiSt4pairIKi12CMultiplexerESt10_Select1stIS3_ESt4lessIiESaIS3_EE15_M_destroy_nodeEPSt13_Rb_tree_nodeIS3_E
0x00002F22	0x00000052	[ 13] __ZNSt8_Rb_treeIiSt4pairIKi12CMultiplexerESt10_Select1stIS3_ESt4lessIiESaIS3_EE8_M_eraseEPSt13_Rb_tree_nodeIS3_E
0x00002F74	0x00000062	[ 13] __ZNSt8_Rb_treeIiSt4pairIKi12CMultiplexerESt10_Select1stIS3_ESt4lessIiESaIS3_EED1Ev
0x00002FD6	0x00000018	[ 13] __ZNSt3mapIi12CMultiplexerSt4lessIiESaISt4pairIKiS0_EEED1Ev
0x00002FEE	0x00000020	[ 13] __ZN9__gnu_cxx13new_allocatorISt13_Rb_tree_nodeISt4pairIKxSt3setIiSt4lessIiESaIiEEEEE10deallocateEPSA_m
0x0000300E	0x00000028	[ 13] __ZNSt8_Rb_treeIxSt4pairIKxSt3setIiSt4lessIiESaIiEEESt10_Select1stIS7_ES3_IxESaIS7_EE11_M_put_nodeEPSt13_Rb_tree_nodeIS7_E
0x00003036	0x00000070	[ 13] __ZNSt8_Rb_treeIxSt4pairIKxSt3setIiSt4lessIiESaIiEEESt10_Select1stIS7_ES3_IxESaIS7_EE15_M_destroy_nodeEPSt13_Rb_tree_nodeIS7_E
0x000030A6	0x00000052	[ 13] __ZNSt8_Rb_treeIxSt4pairIKxSt3setIiSt4lessIiESaIiEEESt10_Select1stIS7_ES3_IxESaIS7_EE8_M_eraseEPSt13_Rb_tree_nodeIS7_E
0x000030F8	0x00000062	[ 13] __ZNSt8_Rb_treeIxSt4pairIKxSt3setIiSt4lessIiESaIiEEESt10_Select1stIS7_ES3_IxESaIS7_EED1Ev
0x0000315A	0x00000018	[ 13] __ZNSt3mapIxSt3setIiSt4lessIiESaIiEES1_IxESaISt4pairIKxS4_EEED1Ev
0x00003172	0x00000012	[ 14] __ZNSt8_Rb_treeIiiSt9_IdentityIiESt4lessIiESaIiEE8_S_rightEPSt18_Rb_tree_node_base
0x00003184	0x00000012	[ 14] __ZNSt8_Rb_treeIiiSt9_IdentityIiESt4lessIiESaIiEE7_S_leftEPSt18_Rb_tree_node_base
0x00003198	0x00000000	[  0] minimal text
0x00003198	0x00000012	[  1] __ZNK14CPktTimeWindow15getMinPktSndIntEv
0x000031AA	0x0000004D	[  1] __ZN14CPktTimeWindow9onPktSentERKi
0x000031F7	0x00000117	[  1] __ZStL17__verify_groupingPKcmRKSs
0x0000330E	0x00000086	[  1] __ZN14CPktTimeWindow13probe2ArrivalEv
0x00003394	0x0000001E	[  1] __ZN14CPktTimeWindow13probe1ArrivalEv
0x000033B2	0x00000094	[  1] __ZN14CPktTimeWindow12onPktArrivalEv
0x00003446	0x00000254	[  1] __ZN10CACKWindow11acknowledgeERKiRi
0x0000369A	0x000000D0	[  1] __ZN10CACKWindow5storeERKiS1_
0x0000376A	0x00000172	[  1] __ZNK14CPktTimeWindow12getBandwidthEv
0x000038DC	0x0000018C	[  1] __ZNK14CPktTimeWindow14getPktRcvSpeedEv
0x00003A68	0x00000042	[  1] __ZN14CPktTimeWindowD1Ev
0x00003AAA	0x00000042	[  1] __ZN14CPktTimeWindowD2Ev
0x00003AEC	0x0000005A	[  1] __ZN10CACKWindowD1Ev
0x00003B46	0x0000005A	[  1] __ZN10CACKWindowD2Ev
0x00003BA0	0x0000014E	[  1] __ZN14CPktTimeWindowC1ERKiS1_
0x00003CEE	0x0000014E	[  1] __ZN14CPktTimeWindowC2ERKiS1_
0x00003E3C	0x00000142	[  1] __ZN14CPktTimeWindowC1Ev
0x00003F7E	0x00000142	[  1] __ZN14CPktTimeWindowC2Ev
0x000040C0	0x000000C8	[  1] __ZN10CACKWindowC1ERKi
0x00004188	0x000000C8	[  1] __ZN10CACKWindowC2ERKi
0x00004250	0x000000C2	[  1] __ZN10CACKWindowC1Ev
0x00004312	0x000000C1	[  1] __ZN10CACKWindowC2Ev
0x000043D4	0x0000005A	[  2] __ZN10CUnitQueueC2Ev
0x0000442E	0x0000005A	[  2] __ZN10CUnitQueueC1Ev
0x00004488	0x00000010	[  2] __ZN10CUnitQueue6shrinkEv
0x00004498	0x0000020A	[  2] __ZN9CSndUList7remove_EPK4CUDT
0x000046A2	0x00000022	[  2] __ZN9CRcvUListC2Ev
0x000046C4	0x00000022	[  2] __ZN9CRcvUListC1Ev
0x000046E6	0x0000000A	[  2] __ZN9CRcvUListD2Ev
0x000046F0	0x0000000A	[  2] __ZN9CRcvUListD1Ev
0x000046FA	0x000000DA	[  2] __ZN9CRcvUList6removeEPK4CUDT
0x000047D4	0x00000020	[  2] __ZN5CHashC2Ev
0x000047F4	0x00000020	[  2] __ZN5CHashC1Ev
0x00004814	0x0000007F	[  2] __ZN5CHash6lookupERKi
0x00004893	0x00000117	[  2] __ZStL17__verify_groupingPKcmRKSs
0x000049AA	0x00000024	[  2] __ZN9CRcvQueue10ifNewEntryEv
0x000049CE	0x00000052	[  2] __ZN9CRcvQueue14removeListenerEPK4CUDT
0x00004A20	0x00000062	[  2] __ZN9CRcvQueue11setListenerEPK4CUDT
0x00004A82	0x00000054	[  2] __ZN9CSndUList15getNextProcTimeEv
0x00004AD6	0x0000003A	[  2] __ZN9CSndUList6removeEPK4CUDT
0x00004B10	0x000000AE	[  2] __ZN5CHash6insertERKiPK4CUDT
0x00004BBE	0x000000D2	[  2] __ZN16CRendezvousQueue6removeERKi
0x00004C90	0x000000DA	[  2] __ZN5CHash6removeERKi
0x00004D6A	0x000000FE	[  2] __ZN9CRcvQueue8storePktERKiP7CPacket
0x00004E68	0x0000009C	[  2] __ZN9CRcvQueue11getNewEntryEv
0x00004F04	0x0000007C	[  2] __ZN9CRcvQueue11setNewEntryEP4CUDT
0x00004F80	0x000000E4	[  2] __ZN16CRendezvousQueue6insertERKiS1_PK8sockaddr
0x00005064	0x00000080	[  2] __ZN5CHashD1Ev
0x000050E4	0x00000080	[  2] __ZN5CHashD2Ev
0x00005164	0x000000D2	[  2] __ZN10CUnitQueueD1Ev
0x00005236	0x000000D2	[  2] __ZN10CUnitQueueD2Ev
0x00005308	0x00000358	[  2] __ZN9CRcvQueue8recvfromERKiR7CPacket
0x00005660	0x00000070	[  2] __ZN5CHash4initERKi
0x000056D0	0x000003C4	[  2] __ZN10CUnitQueue8increaseEv
0x00005A94	0x00000154	[  2] __ZN10CUnitQueue16getNextAvailUnitEv
0x00005BE8	0x00000332	[  2] __ZN10CUnitQueue4initERKiS1_S1_
0x00005F1A	0x00000116	[  2] __ZN16CRendezvousQueue8retrieveEPK8sockaddrRi
0x00006030	0x000000E0	[  2] __ZN9CRcvUList6updateEPK4CUDT
0x00006110	0x000000AA	[  2] __ZN9CRcvUList6insertEPK4CUDT
0x000061BA	0x000004B4	[  2] __ZN9CRcvQueue6workerEPv
0x0000666E	0x000000DC	[  2] __ZN16CRendezvousQueueD1Ev
0x0000674A	0x000000DC	[  2] __ZN16CRendezvousQueueD2Ev
0x00006826	0x00000034	[  2] __ZN9CSndUListD1Ev
0x0000685A	0x00000034	[  2] __ZN9CSndUListD2Ev
0x0000688E	0x00000292	[  2] __ZN9CRcvQueueD1Ev
0x00006B20	0x00000292	[  2] __ZN9CRcvQueueD2Ev
0x00006DB2	0x00000080	[  2] __ZN16CRendezvousQueueC1Ev
0x00006E32	0x00000186	[  2] __ZN9CRcvQueue4initERKiS1_S1_S1_PK8CChannelPK6CTimer
0x00006FB8	0x00000080	[  2] __ZN16CRendezvousQueueC2Ev
0x00007038	0x000000A0	[  2] __ZN9CSndUListC1Ev
0x000070D8	0x00000142	[  2] __ZN9CSndQueue4initEPK8CChannelPK6CTimer
0x0000721A	0x000000A0	[  2] __ZN9CSndUListC2Ev
0x000072BA	0x000001FE	[  2] __ZN9CRcvQueueC1Ev
0x000074B8	0x000001FE	[  2] __ZN9CRcvQueueC2Ev
0x000076B6	0x000000C0	[  2] __ZN9CSndQueueC1Ev
0x00007776	0x000000C0	[  2] __ZN9CSndQueueC2Ev
0x00007836	0x00000034	[  2] __ZN9CSndQueue6sendtoEPK8sockaddrR7CPacket
0x0000786A	0x0000009C	[  2] __ZN9CSndQueueD1Ev
0x00007906	0x0000009C	[  2] __ZN9CSndQueueD2Ev
0x000079A2	0x00000188	[  2] __ZN9CSndUList7insert_ERKxPK4CUDT
0x00007B2A	0x0000010E	[  2] __ZN9CSndUList6insertERKxPK4CUDT
0x00007C38	0x00000124	[  2] __ZN9CSndUList3popERP8sockaddrR7CPacket
0x00007D5C	0x0000017E	[  2] __ZN9CSndQueue6workerEPv
0x00007EDA	0x000000CC	[  2] __ZN9CSndUList6updateEPK4CUDTRKb
0x00007FA6	0x00000012	[  2] __ZnwmPv
0x00007FB8	0x0000000E	[  2] __ZdlPvS_
0x00007FC6	0x00000034	[  2] __ZSt16__deque_buf_sizem
0x00007FFA	0x00000038	[  2] __ZSt3minImERKT_S2_S2_
0x00008032	0x00000020	[  2] __ZN9__gnu_cxx17__normal_iteratorIPN16CRendezvousQueue3CRLESt6vectorIS2_SaIS2_EEEppEv
0x00008052	0x00000012	[  2] __ZNK9__gnu_cxx17__normal_iteratorIPN16CRendezvousQueue3CRLESt6vectorIS2_SaIS2_EEEptEv
0x00008064	0x00000026	[  2] __ZNKSt17_Rb_tree_iteratorISt4pairIKiSt5queueIP7CPacketSt5dequeIS4_SaIS4_EEEEEneERKSA_
0x0000808A	0x00000016	[  2] __ZNKSt17_Rb_tree_iteratorISt4pairIKiSt5queueIP7CPacketSt5dequeIS4_SaIS4_EEEEEptEv
0x000080A0	0x00000026	[  2] __ZNKSt17_Rb_tree_iteratorISt4pairIKiSt5queueIP7CPacketSt5dequeIS4_SaIS4_EEEEEeqERKSA_
0x000080C6	0x00000012	[  2] __ZNK9__gnu_cxx17__normal_iteratorIPP4CUDTSt6vectorIS2_SaIS2_EEEdeEv
0x000080D8	0x0000000A	[  2] __ZN9__gnu_cxx13new_allocatorIN16CRendezvousQueue3CRLEEC2Ev
0x000080E2	0x00000018	[  2] __ZNSaIN16CRendezvousQueue3CRLEEC1Ev
0x000080FA	0x0000000A	[  2] __ZN9__gnu_cxx13new_allocatorIN16CRendezvousQueue3CRLEED2Ev
0x00008104	0x00000018	[  2] __ZNSaIN16CRendezvousQueue3CRLEED1Ev
0x0000811C	0x00000018	[  2] __ZNSaIN16CRendezvousQueue3CRLEED2Ev
0x00008134	0x0000000E	[  2] __ZN9__gnu_cxx13new_allocatorIN16CRendezvousQueue3CRLEEC2ERKS3_
0x00008142	0x00000020	[  2] __ZNSaIN16CRendezvousQueue3CRLEEC1ERKS1_
0x00008162	0x00000020	[  2] __ZNSaIN16CRendezvousQueue3CRLEEC2ERKS1_
0x00008182	0x00000018	[  2] __ZNSt12_Vector_baseIN16CRendezvousQueue3CRLESaIS1_EE12_Vector_implD1Ev
0x0000819A	0x0000000E	[  2] __ZNSt12_Vector_baseIN16CRendezvousQueue3CRLESaIS1_EE19_M_get_Tp_allocatorEv
0x000081A8	0x0000001C	[  2] __ZN9__gnu_cxx17__normal_iteratorIPN16CRendezvousQueue3CRLESt6vectorIS2_SaIS2_EEEC1ERKS3_
0x000081C4	0x00000020	[  2] __ZNSt6vectorIN16CRendezvousQueue3CRLESaIS1_EE5beginEv
0x000081E4	0x00000024	[  2] __ZNSt6vectorIN16CRendezvousQueue3CRLESaIS1_EE3endEv
0x00008208	0x0000000E	[  2] __ZNK9__gnu_cxx17__normal_iteratorIPN16CRendezvousQueue3CRLESt6vectorIS2_SaIS2_EEE4baseEv
0x00008216	0x00000039	[  2] __ZN9__gnu_cxxneIPN16CRendezvousQueue3CRLESt6vectorIS2_SaIS2_EEEEbRKNS_17__normal_iteratorIT_T0_EESC_
0x0000824F	0x00000040	[  2] __ZN9__gnu_cxxmiIPN16CRendezvousQueue3CRLESt6vectorIS2_SaIS2_EEEENS_17__normal_iteratorIT_T0_E15difference_typeERKSA_SD_
0x0000828F	0x00000039	[  2] __ZN9__gnu_cxxeqIPN16CRendezvousQueue3CRLESt6vectorIS2_SaIS2_EEEEbRKNS_17__normal_iteratorIT_T0_EESC_
0x000082C8	0x0000004A	[  2] __ZN9__gnu_cxx13new_allocatorIN16CRendezvousQueue3CRLEE9constructEPS2_RKS2_
0x00008312	0x0000003E	[  2] __ZNK9__gnu_cxx17__normal_iteratorIPN16CRendezvousQueue3CRLESt6vectorIS2_SaIS2_EEEplERKl
0x00008350	0x0000000A	[  2] __ZN16CRendezvousQueue3CRLD1Ev
0x0000835A	0x0000001C	[  2] __ZN9__gnu_cxx13new_allocatorIN16CRendezvousQueue3CRLEE7destroyEPS2_
0x00008376	0x0000000A	[  2] __ZN9__gnu_cxx13new_allocatorIP4CUDTEC2Ev
0x00008380	0x00000018	[  2] __ZNSaIP4CUDTEC1Ev
0x00008398	0x0000000A	[  2] __ZN9__gnu_cxx13new_allocatorIP4CUDTED2Ev
0x000083A2	0x00000018	[  2] __ZNSaIP4CUDTED1Ev
0x000083BA	0x00000018	[  2] __ZNSaIP4CUDTED2Ev
0x000083D2	0x0000000E	[  2] __ZN9__gnu_cxx13new_allocatorIP4CUDTEC2ERKS3_
0x000083E0	0x00000020	[  2] __ZNSaIP4CUDTEC1ERKS1_
0x00008400	0x00000020	[  2] __ZNSaIP4CUDTEC2ERKS1_
0x00008420	0x00000018	[  2] __ZNSt12_Vector_baseIP4CUDTSaIS1_EE12_Vector_implD1Ev
0x00008438	0x0000000E	[  2] __ZNSt12_Vector_baseIP4CUDTSaIS1_EE19_M_get_Tp_allocatorEv
0x00008446	0x00000012	[  2] __ZNSt8_Rb_treeIiSt4pairIKiSt5queueIP7CPacketSt5dequeIS4_SaIS4_EEEESt10_Select1stIS9_ESt4lessIiESaIS9_EE8_M_beginEv
0x00008458	0x0000001C	[  2] __ZN9__gnu_cxx17__normal_iteratorIPP4CUDTSt6vectorIS2_SaIS2_EEEC1ERKS3_
0x00008474	0x00000020	[  2] __ZNSt6vectorIP4CUDTSaIS1_EE5beginEv
0x00008494	0x00000024	[  2] __ZNSt6vectorIP4CUDTSaIS1_EE3endEv
0x000084B8	0x0000003E	[  2] __ZN9__gnu_cxx13new_allocatorIP4CUDTE9constructEPS2_RKS2_
0x000084F6	0x0000003E	[  2] __ZNK9__gnu_cxx17__normal_iteratorIPP4CUDTSt6vectorIS2_SaIS2_EEEplERKl
0x00008534	0x0000000E	[  2] __ZN9__gnu_cxx13new_allocatorIP4CUDTE7destroyEPS2_
0x00008542	0x00000016	[  2] __ZNKSt17_Rb_tree_iteratorISt4pairIKiSt5queueIP7CPacketSt5dequeIS4_SaIS4_EEEEEdeEv
0x00008558	0x00000026	[  2] __ZNKSt4lessIiEclERKiS2_
0x0000857E	0x00000042	[  2] __ZNSt12_Vector_baseIN16CRendezvousQueue3CRLESaIS1_EE12_Vector_implC1ERKS2_
0x000085C0	0x00000020	[  2] __ZNSt12_Vector_baseIN16CRendezvousQueue3CRLESaIS1_EEC2ERKS2_
0x000085E0	0x00000020	[  2] __ZNSt6vectorIN16CRendezvousQueue3CRLESaIS1_EEC1ERKS2_
0x00008600	0x00000012	[  2] __ZNK9__gnu_cxx17__normal_iteratorIPN16CRendezvousQueue3CRLESt6vectorIS2_SaIS2_EEEdeEv
0x00008612	0x0000002A	[  2] __ZNKSt6vectorIN16CRendezvousQueue3CRLESaIS1_EE4sizeEv
0x0000863C	0x00000042	[  2] __ZNSt12_Vector_baseIP4CUDTSaIS1_EE12_Vector_implC1ERKS2_
0x0000867E	0x00000020	[  2] __ZNSt12_Vector_baseIP4CUDTSaIS1_EEC2ERKS2_
0x0000869E	0x00000020	[  2] __ZNSt6vectorIP4CUDTSaIS1_EEC1ERKS2_
0x000086BE	0x0000000A	[  2] __ZN9__gnu_cxx13new_allocatorISt4pairIKiSt5queueIP7CPacketSt5dequeIS5_SaIS5_EEEEEC2Ev
0x000086C8	0x00000018	[  2] __ZNSaISt4pairIKiSt5queueIP7CPacketSt5dequeIS3_SaIS3_EEEEEC1Ev
0x000086E0	0x0000000A	[  2] __ZN9__gnu_cxx13new_allocatorISt4pairIKiSt5queueIP7CPacketSt5dequeIS5_SaIS5_EEEEED2Ev
0x000086EA	0x00000018	[  2] __ZNSaISt4pairIKiSt5queueIP7CPacketSt5dequeIS3_SaIS3_EEEEED1Ev
0x00008702	0x0000000A	[  2] __ZN9__gnu_cxx13new_allocatorISt13_Rb_tree_nodeISt4pairIKiSt5queueIP7CPacketSt5dequeIS6_SaIS6_EEEEEED2Ev
0x0000870C	0x00000018	[  2] __ZNSaISt13_Rb_tree_nodeISt4pairIKiSt5queueIP7CPacketSt5dequeIS4_SaIS4_EEEEEED2Ev
0x00008724	0x00000018	[  2] __ZNSt8_Rb_treeIiSt4pairIKiSt5queueIP7CPacketSt5dequeIS4_SaIS4_EEEESt10_Select1stIS9_ESt4lessIiESaIS9_EE13_Rb_tree_implISD_Lb0EED1Ev
0x0000873C	0x00000017	[  2] __ZNSaISt13_Rb_tree_nodeISt4pairIKiSt5queueIP7CPacketSt5dequeIS4_SaIS4_EEEEEED1Ev
0x00008753	0x00000012	[  2] __ZNSt8_Rb_treeIiSt4pairIKiSt5queueIP7CPacketSt5dequeIS4_SaIS4_EEEESt10_Select1stIS9_ESt4lessIiESaIS9_EE8_S_rightEPSt18_Rb_tree_node_base
0x00008765	0x00000013	[  2] __ZNSt8_Rb_treeIiSt4pairIKiSt5queueIP7CPacketSt5dequeIS4_SaIS4_EEEESt10_Select1stIS9_ESt4lessIiESaIS9_EE7_S_leftEPSt18_Rb_tree_node_base
0x00008778	0x0000001A	[  2] __ZNSt17_Rb_tree_iteratorISt4pairIKiSt5queueIP7CPacketSt5dequeIS4_SaIS4_EEEEEC1EPSt13_Rb_tree_nodeIS9_E
0x00008792	0x00000026	[  2] __ZNSt8_Rb_treeIiSt4pairIKiSt5queueIP7CPacketSt5dequeIS4_SaIS4_EEEESt10_Select1stIS9_ESt4lessIiESaIS9_EE3endEv
0x000087B8	0x00000018	[  2] __ZNSt3mapIiSt5queueIP7CPacketSt5dequeIS2_SaIS2_EEESt4lessIiESaISt4pairIKiS6_EEE3endEv
0x000087D0	0x00000026	[  2] __ZNSt8_Rb_treeIiSt4pairIKiSt5queueIP7CPacketSt5dequeIS4_SaIS4_EEEESt10_Select1stIS9_ESt4lessIiESaIS9_EE5beginEv
0x000087F6	0x00000017	[  2] __ZNSt3mapIiSt5queueIP7CPacketSt5dequeIS2_SaIS2_EEESt4lessIiESaISt4pairIKiS6_EEE5beginEv
0x0000880D	0x00000025	[  2] __ZSteqIP7CPacketRS1_PS1_EbRKSt15_Deque_iteratorIT_T0_T1_ESA_
0x00008832	0x00000026	[  2] __ZNKSt5dequeIP7CPacketSaIS1_EE5emptyEv
0x00008858	0x0000001A	[  2] __ZNKSt5queueIP7CPacketSt5dequeIS1_SaIS1_EEE5emptyEv
0x00008872	0x00000012	[  2] __ZNKSt15_Deque_iteratorIP7CPacketRS1_PS1_EdeEv
0x00008884	0x0000000E	[  2] __ZN9__gnu_cxx13new_allocatorIP7CPacketE7destroyEPS2_
0x00008892	0x00000012	[  2] __ZNSt8_Rb_treeIiSt4pairIKiSt5queueIP7CPacketSt5dequeIS4_SaIS4_EEEESt10_Select1stIS9_ESt4lessIiESaIS9_EE6_M_endEv
0x000088A4	0x0000000A	[  2] __ZNSt14unary_functionISt4pairIKiSt5queueIP7CPacketSt5dequeIS4_SaIS4_EEEES1_EC2Ev
0x000088AE	0x00000018	[  2] __ZNSt10_Select1stISt4pairIKiSt5queueIP7CPacketSt5dequeIS4_SaIS4_EEEEEC1Ev
0x000088C6	0x0000000E	[  2] __ZNK9__gnu_cxx17__normal_iteratorIPP4CUDTSt6vectorIS2_SaIS2_EEE4baseEv
0x000088D4	0x00000039	[  2] __ZN9__gnu_cxxneIPP4CUDTSt6vectorIS2_SaIS2_EEEEbRKNS_17__normal_iteratorIT_T0_EESC_
0x0000890D	0x00000040	[  2] __ZN9__gnu_cxxmiIPP4CUDTSt6vectorIS2_SaIS2_EEEENS_17__normal_iteratorIT_T0_E15difference_typeERKSA_SD_
0x0000894D	0x00000039	[  2] __ZN9__gnu_cxxeqIPP4CUDTSt6vectorIS2_SaIS2_EEEEbRKNS_17__normal_iteratorIT_T0_EESC_
0x00008986	0x0000002A	[  2] __ZNKSt6vectorIP4CUDTSaIS1_EE4sizeEv
0x000089B0	0x0000001C	[  2] __ZN9__gnu_cxx17__normal_iteratorIPKP4CUDTSt6vectorIS2_SaIS2_EEEC1ERKS4_
0x000089CC	0x0000002C	[  2] __ZNKSt6vectorIP4CUDTSaIS1_EE3endEv
0x000089F8	0x0000002A	[  2] __ZNKSt6vectorIP4CUDTSaIS1_EE5beginEv
0x00008A22	0x0000000E	[  2] __ZNK9__gnu_cxx17__normal_iteratorIPKP4CUDTSt6vectorIS2_SaIS2_EEE4baseEv
0x00008A30	0x0000003A	[  2] __ZN9__gnu_cxxeqIPKP4CUDTSt6vectorIS2_SaIS2_EEEEbRKNS_17__normal_iteratorIT_T0_EESD_
0x00008A6A	0x00000038	[  2] __ZNKSt6vectorIP4CUDTSaIS1_EE5emptyEv
0x00008AA2	0x0000000E	[  2] __ZNKSt8_Rb_treeIiSt4pairIKiSt5queueIP7CPacketSt5dequeIS4_SaIS4_EEEESt10_Select1stIS9_ESt4lessIiESaIS9_EE8key_compEv
0x00008AB0	0x0000001C	[  2] __ZNKSt3mapIiSt5queueIP7CPacketSt5dequeIS2_SaIS2_EEESt4lessIiESaISt4pairIKiS6_EEE8key_compEv
0x00008ACC	0x0000000A	[  2] __ZN9__gnu_cxx13new_allocatorIP7CPacketEC2Ev
0x00008AD6	0x00000018	[  2] __ZNSaIP7CPacketEC1Ev
0x00008AEE	0x0000000A	[  2] __ZN9__gnu_cxx13new_allocatorIP7CPacketED2Ev
0x00008AF8	0x00000018	[  2] __ZNSaIP7CPacketED2Ev
0x00008B10	0x00000018	[  2] __ZNSaIP7CPacketED1Ev
0x00008B28	0x0000000E	[  2] __ZN9__gnu_cxx13new_allocatorIP7CPacketEC2ERKS3_
0x00008B36	0x00000020	[  2] __ZNSaIP7CPacketEC2ERKS1_
0x00008B56	0x00000020	[  2] __ZNSaIP7CPacketEC1ERKS1_
0x00008B76	0x00000018	[  2] __ZNSt11_Deque_baseIP7CPacketSaIS1_EE11_Deque_implD1Ev
0x00008B8E	0x0000000E	[  2] __ZNSt11_Deque_baseIP7CPacketSaIS1_EE19_M_get_Tp_allocatorEv
0x00008B9C	0x0000004C	[  2] __ZNSt15_Deque_iteratorIP7CPacketRS1_PS1_EC1ERKS4_
0x00008BE8	0x0000002A	[  2] __ZNSt5dequeIP7CPacketSaIS1_EE3endEv
0x00008C12	0x0000002A	[  2] __ZNSt5dequeIP7CPacketSaIS1_EE5beginEv
0x00008C3C	0x00000024	[  2] __ZNSt5dequeIP7CPacketSaIS1_EE5frontEv
0x00008C60	0x00000018	[  2] __ZNSt5queueIP7CPacketSt5dequeIS1_SaIS1_EEE5frontEv
0x00008C78	0x0000000E	[  2] __ZNKSt11_Deque_baseIP7CPacketSaIS1_EE19_M_get_Tp_allocatorEv
0x00008C86	0x0000003E	[  2] __ZN9__gnu_cxx13new_allocatorIP7CPacketE9constructEPS2_RKS2_
0x00008CC4	0x0000000E	[  2] __ZNKSt12_Vector_baseIN16CRendezvousQueue3CRLESaIS1_EE19_M_get_Tp_allocatorEv
0x00008CD2	0x00000014	[  2] __ZNK9__gnu_cxx13new_allocatorIN16CRendezvousQueue3CRLEE8max_sizeEv
0x00008CE6	0x0000001F	[  2] __ZNKSt6vectorIN16CRendezvousQueue3CRLESaIS1_EE8max_sizeEv
0x00008D05	0x0000000E	[  2] __ZSt13__destroy_auxIPP4CUDTEvT_S3_St11__true_type
0x00008D13	0x00000026	[  2] __ZSt8_DestroyIPP4CUDTEvT_S3_
0x00008D39	0x00000023	[  2] __ZSt8_DestroyIPP4CUDTS1_EvT_S3_SaIT0_E
0x00008D5C	0x0000000A	[  2] __ZN9__gnu_cxx13new_allocatorISt13_Rb_tree_nodeISt4pairIKiSt5queueIP7CPacketSt5dequeIS6_SaIS6_EEEEEEC2Ev
0x00008D66	0x0000001B	[  2] __ZNSaISt13_Rb_tree_nodeISt4pairIKiSt5queueIP7CPacketSt5dequeIS4_SaIS4_EEEEEEC1IS9_EERKSaIT_E
0x00008D81	0x00000013	[  2] __ZNSt8_Rb_treeIiSt4pairIKiSt5queueIP7CPacketSt5dequeIS4_SaIS4_EEEESt10_Select1stIS9_ESt4lessIiESaIS9_EE8_S_valueEPKSt13_Rb_tree_nodeIS9_E
0x00008D94	0x00000012	[  2] __ZNKSt10_Select1stISt4pairIKiSt5queueIP7CPacketSt5dequeIS4_SaIS4_EEEEEclERKS9_
0x00008DA6	0x00000036	[  2] __ZNSt8_Rb_treeIiSt4pairIKiSt5queueIP7CPacketSt5dequeIS4_SaIS4_EEEESt10_Select1stIS9_ESt4lessIiESaIS9_EE6_S_keyEPKSt13_Rb_tree_nodeIS9_E
0x00008DDC	0x0000008A	[  2] __ZNSt8_Rb_treeIiSt4pairIKiSt5queueIP7CPacketSt5dequeIS4_SaIS4_EEEESt10_Select1stIS9_ESt4lessIiESaIS9_EE11lower_boundERS1_
0x00008E66	0x0000001F	[  2] __ZNSt3mapIiSt5queueIP7CPacketSt5dequeIS2_SaIS2_EEESt4lessIiESaISt4pairIKiS6_EEE11lower_boundERSA_
0x00008E85	0x00000012	[  2] __ZNSt8_Rb_treeIiSt4pairIKiSt5queueIP7CPacketSt5dequeIS4_SaIS4_EEEESt10_Select1stIS9_ESt4lessIiESaIS9_EE8_S_valueEPKSt18_Rb_tree_node_base
0x00008E97	0x00000035	[  2] __ZNSt8_Rb_treeIiSt4pairIKiSt5queueIP7CPacketSt5dequeIS4_SaIS4_EEEESt10_Select1stIS9_ESt4lessIiESaIS9_EE6_S_keyEPKSt18_Rb_tree_node_base
0x00008ECC	0x000000DC	[  2] __ZNSt8_Rb_treeIiSt4pairIKiSt5queueIP7CPacketSt5dequeIS4_SaIS4_EEEESt10_Select1stIS9_ESt4lessIiESaIS9_EE4findERS1_
0x00008FA8	0x00000020	[  2] __ZNSt3mapIiSt5queueIP7CPacketSt5dequeIS2_SaIS2_EEESt4lessIiESaISt4pairIKiS6_EEE4findERSA_
0x00008FC8	0x0000000E	[  2] __ZNKSt12_Vector_baseIP4CUDTSaIS1_EE19_M_get_Tp_allocatorEv
0x00008FD6	0x00000014	[  2] __ZNK9__gnu_cxx13new_allocatorIP4CUDTE8max_sizeEv
0x00008FEA	0x00000020	[  2] __ZNKSt6vectorIP4CUDTSaIS1_EE8max_sizeEv
0x0000900A	0x00000012	[  2] __ZNSt5dequeIP7CPacketSaIS1_EE24_M_destroy_data_dispatchESt15_Deque_iteratorIS1_RS1_PS1_ES7_St11__true_type
0x0000901C	0x0000004C	[  2] __ZNSt5dequeIP7CPacketSaIS1_EE15_M_destroy_dataESt15_Deque_iteratorIS1_RS1_PS1_ES7_RKS2_
0x00009068	0x0000004C	[  2] __ZNSt15_Deque_iteratorIP7CPacketRKS1_PS2_EC1ERKS_IS1_RS1_PS1_E
0x000090B4	0x0000002A	[  2] __ZNKSt5dequeIP7CPacketSaIS1_EE3endEv
0x000090DE	0x0000002A	[  2] __ZNKSt5dequeIP7CPacketSaIS1_EE5beginEv
0x00009108	0x00000012	[  2] __ZNSt8_Rb_treeIiSt4pairIKiSt5queueIP7CPacketSt5dequeIS4_SaIS4_EEEESt10_Select1stIS9_ESt4lessIiESaIS9_EE12_M_rightmostEv
0x0000911A	0x00000012	[  2] __ZNKSt8_Rb_treeIiSt4pairIKiSt5queueIP7CPacketSt5dequeIS4_SaIS4_EEEESt10_Select1stIS9_ESt4lessIiESaIS9_EE4sizeEv
0x0000912C	0x00000012	[  2] __ZNSt8_Rb_treeIiSt4pairIKiSt5queueIP7CPacketSt5dequeIS4_SaIS4_EEEESt10_Select1stIS9_ESt4lessIiESaIS9_EE11_M_leftmostEv
0x0000913E	0x00000010	[  2] __ZNSt15_Deque_iteratorIP7CPacketRS1_PS1_E14_S_buffer_sizeEv
0x0000914E	0x00000050	[  2] __ZNSt15_Deque_iteratorIP7CPacketRS1_PS1_E11_M_set_nodeEPS3_
0x0000919E	0x0000008C	[  2] __ZStmiIP7CPacketRS1_PS1_ENSt15_Deque_iteratorIT_T0_T1_E15difference_typeERKS8_SB_
0x0000922A	0x00000024	[  2] __ZNKSt5dequeIP7CPacketSaIS1_EE4sizeEv
0x0000924E	0x00000017	[  2] __ZNKSt5queueIP7CPacketSt5dequeIS1_SaIS1_EEE4sizeEv
0x00009265	0x00000017	[  2] __ZSt8_DestroyIN16CRendezvousQueue3CRLEEvPT_
0x0000927C	0x0000002C	[  2] __ZSt13__destroy_auxIPN16CRendezvousQueue3CRLEEvT_S3_St12__false_type
0x000092A8	0x00000026	[  2] __ZSt8_DestroyIPN16CRendezvousQueue3CRLEEvT_S3_
0x000092CE	0x00000024	[  2] __ZSt8_DestroyIPN16CRendezvousQueue3CRLES1_EvT_S3_SaIT0_E
0x000092F2	0x00000052	[  2] __ZNSt6vectorIN16CRendezvousQueue3CRLESaIS1_EE15_M_erase_at_endEPS1_
0x00009344	0x0000001E	[  2] __ZNSt6vectorIN16CRendezvousQueue3CRLESaIS1_EE5clearEv
0x00009362	0x0000005C	[  2] __ZNSt6__copyILb0ESt26random_access_iterator_tagE4copyIPN16CRendezvousQueue3CRLES5_EET0_T_S7_S6_
0x000093BE	0x0000002B	[  2] __ZSt10__copy_auxIPN16CRendezvousQueue3CRLES2_ET0_T_S4_S3_
0x000093E9	0x00000064	[  2] __ZNSt13__copy_normalILb1ELb1EE8__copy_nIN9__gnu_cxx17__normal_iteratorIPN16CRendezvousQueue3CRLESt6vectorIS5_SaIS5_EEEESA_EET0_T_SC_SB_
0x0000944D	0x0000002F	[  2] __ZSt4copyIN9__gnu_cxx17__normal_iteratorIPN16CRendezvousQueue3CRLESt6vectorIS3_SaIS3_EEEES8_ET0_T_SA_S9_
0x0000947C	0x000000AC	[  2] __ZNSt6vectorIN16CRendezvousQueue3CRLESaIS1_EE5eraseEN9__gnu_cxx17__normal_iteratorIPS1_S3_EE
0x00009528	0x0000000E	[  2] __ZN9__gnu_cxx13new_allocatorISt13_Rb_tree_nodeISt4pairIKiSt5queueIP7CPacketSt5dequeIS6_SaIS6_EEEEEEC2ERKSD_
0x00009536	0x00000020	[  2] __ZNSaISt13_Rb_tree_nodeISt4pairIKiSt5queueIP7CPacketSt5dequeIS4_SaIS4_EEEEEEC2ERKSB_
0x00009556	0x00000096	[  2] __ZNSt8_Rb_treeIiSt4pairIKiSt5queueIP7CPacketSt5dequeIS4_SaIS4_EEEESt10_Select1stIS9_ESt4lessIiESaIS9_EE13_Rb_tree_implISD_Lb0EEC1ERKSaISt13_Rb_tree_nodeIS9_EERKSD_
0x000095EC	0x0000003E	[  2] __ZNSt8_Rb_treeIiSt4pairIKiSt5queueIP7CPacketSt5dequeIS4_SaIS4_EEEESt10_Select1stIS9_ESt4lessIiESaIS9_EEC1ERKSD_RKSE_
0x0000962A	0x0000003A	[  2] __ZNSt3mapIiSt5queueIP7CPacketSt5dequeIS2_SaIS2_EEESt4lessIiESaISt4pairIKiS6_EEEC1Ev
0x00009664	0x0000000E	[  2] __ZNKSt8_Rb_treeIiSt4pairIKiSt5queueIP7CPacketSt5dequeIS4_SaIS4_EEEESt10_Select1stIS9_ESt4lessIiESaIS9_EE21_M_get_Node_allocatorEv
0x00009672	0x0000001C	[  2] __ZNSaISt4pairIKiSt5queueIP7CPacketSt5dequeIS3_SaIS3_EEEEEC1ISt13_Rb_tree_nodeIS8_EEERKSaIT_E
0x0000968E	0x00000036	[  2] __ZNKSt8_Rb_treeIiSt4pairIKiSt5queueIP7CPacketSt5dequeIS4_SaIS4_EEEESt10_Select1stIS9_ESt4lessIiESaIS9_EE13get_allocatorEv
0x000096C4	0x0000003A	[  2] __ZNSt15_Deque_iteratorIP7CPacketRS1_PS1_EC1Ev
0x000096FE	0x00000050	[  2] __ZNSt11_Deque_baseIP7CPacketSaIS1_EE11_Deque_implC1ERKS2_
0x0000974E	0x00000038	[  2] __ZSt3maxImERKT_S2_S2_
0x00009786	0x0000002E	[  2] __ZNSt4pairISt17_Rb_tree_iteratorIS_IKiSt5queueIP7CPacketSt5dequeIS4_SaIS4_EEEEEbEC1ERKSA_RKb
0x000097B4	0x0000005C	[  2] __ZNSt15__copy_backwardILb0ESt26random_access_iterator_tagE8__copy_bIPN16CRendezvousQueue3CRLES5_EET0_T_S7_S6_
0x00009810	0x0000002B	[  2] __ZSt19__copy_backward_auxIPN16CRendezvousQueue3CRLES2_ET0_T_S4_S3_
0x0000983B	0x00000027	[  2] __ZNSt22__copy_backward_normalILb0ELb0EE10__copy_b_nIPN16CRendezvousQueue3CRLES4_EET0_T_S6_S5_
0x00009862	0x0000002F	[  2] __ZSt13copy_backwardIPN16CRendezvousQueue3CRLES2_ET0_T_S4_S3_
0x00009891	0x00000045	[  2] __ZSt10_ConstructIN16CRendezvousQueue3CRLES1_EvPT_RKT0_
0x000098D6	0x00000045	[  2] __ZSt24__uninitialized_copy_auxIPN16CRendezvousQueue3CRLES2_ET0_T_S4_S3_St12__false_type
0x0000991B	0x0000002E	[  2] __ZSt18uninitialized_copyIPN16CRendezvousQueue3CRLES2_ET0_T_S4_S3_
0x00009949	0x0000002B	[  2] __ZSt22__uninitialized_copy_aIPN16CRendezvousQueue3CRLES2_S1_ET0_T_S4_S3_SaIT1_E
0x00009974	0x0000000A	[  2] __ZN9__gnu_cxx13new_allocatorIPP7CPacketED2Ev
0x0000997E	0x00000018	[  2] __ZNSaIPP7CPacketED1Ev
0x00009996	0x00000014	[  2] __ZNK9__gnu_cxx13new_allocatorIP7CPacketE8max_sizeEv
0x000099AA	0x00000014	[  2] __ZNK9__gnu_cxx13new_allocatorIPP7CPacketE8max_sizeEv
0x000099BE	0x0000000A	[  2] __ZN9__gnu_cxx13new_allocatorIPP7CPacketEC2Ev
0x000099C8	0x0000001C	[  2] __ZNSaIPP7CPacketEC1IS0_EERKSaIT_E
0x000099E4	0x00000036	[  2] __ZNKSt11_Deque_baseIP7CPacketSaIS1_EE20_M_get_map_allocatorEv
0x00009A1A	0x00000014	[  2] __ZNK9__gnu_cxx13new_allocatorISt13_Rb_tree_nodeISt4pairIKiSt5queueIP7CPacketSt5dequeIS6_SaIS6_EEEEEE8max_sizeEv
0x00009A2E	0x00000012	[  2] __ZNKSt15_Deque_iteratorIP7CPacketRKS1_PS2_EdeEv
0x00009A40	0x0000005C	[  2] __ZNSt15_Deque_iteratorIP7CPacketRS1_PS1_EppEv
0x00009A9C	0x00000010	[  2] __ZNSt15_Deque_iteratorIP7CPacketRKS1_PS2_E14_S_buffer_sizeEv
0x00009AAC	0x0000008C	[  2] __ZStmiIP7CPacketRKS1_PS2_ENSt15_Deque_iteratorIT_T0_T1_E15difference_typeERKS9_SC_
0x00009B38	0x00000050	[  2] __ZNSt15_Deque_iteratorIP7CPacketRKS1_PS2_E11_M_set_nodeEPPS1_
0x00009B88	0x0000005C	[  2] __ZNSt15_Deque_iteratorIP7CPacketRKS1_PS2_EppEv
0x00009BE4	0x00000074	[  2] __ZNSt6__copyILb0ESt26random_access_iterator_tagE4copyISt15_Deque_iteratorIP7CPacketRKS5_PS6_ES3_IS5_RS5_PS5_EEET0_T_SE_SD_
0x00009C58	0x00000085	[  2] __ZSt10__copy_auxISt15_Deque_iteratorIP7CPacketRKS2_PS3_ES0_IS2_RS2_PS2_EET0_T_SB_SA_
0x00009CDD	0x00000081	[  2] __ZNSt13__copy_normalILb0ELb0EE8__copy_nISt15_Deque_iteratorIP7CPacketRKS4_PS5_ES2_IS4_RS4_PS4_EEET0_T_SD_SC_
0x00009D5E	0x00000089	[  2] __ZSt4copyISt15_Deque_iteratorIP7CPacketRKS2_PS3_ES0_IS2_RS2_PS2_EET0_T_SB_SA_
0x00009DE7	0x00000081	[  2] __ZSt24__uninitialized_copy_auxISt15_Deque_iteratorIP7CPacketRKS2_PS3_ES0_IS2_RS2_PS2_EET0_T_SB_SA_St11__true_type
0x00009E68	0x00000089	[  2] __ZSt18uninitialized_copyISt15_Deque_iteratorIP7CPacketRKS2_PS3_ES0_IS2_RS2_PS2_EET0_T_SB_SA_
0x00009EF1	0x00000085	[  2] __ZSt22__uninitialized_copy_aISt15_Deque_iteratorIP7CPacketRKS2_PS3_ES0_IS2_RS2_PS2_ES2_ET0_T_SB_SA_SaIT1_E
0x00009F76	0x0000004A	[  2] __ZN9__gnu_cxx13new_allocatorIPP7CPacketE8allocateEmPKv
0x00009FC0	0x0000006C	[  2] __ZNSt11_Deque_baseIP7CPacketSaIS1_EE15_M_allocate_mapEm
0x0000A02C	0x0000004A	[  2] __ZN9__gnu_cxx13new_allocatorIP7CPacketE8allocateEmPKv
0x0000A076	0x0000002C	[  2] __ZNSt11_Deque_baseIP7CPacketSaIS1_EE16_M_allocate_nodeEv
0x0000A0A2	0x00000056	[  2] __ZN9__gnu_cxx13new_allocatorISt13_Rb_tree_nodeISt4pairIKiSt5queueIP7CPacketSt5dequeIS6_SaIS6_EEEEEE8allocateEmPKv
0x0000A0F8	0x00000024	[  2] __ZNSt8_Rb_treeIiSt4pairIKiSt5queueIP7CPacketSt5dequeIS4_SaIS4_EEEESt10_Select1stIS9_ESt4lessIiESaIS9_EE11_M_get_nodeEv
0x0000A11C	0x0000004A	[  2] __ZN9__gnu_cxx13new_allocatorIP4CUDTE8allocateEmPKv
0x0000A166	0x00000028	[  2] __ZNSt12_Vector_baseIP4CUDTSaIS1_EE11_M_allocateEm
0x0000A18E	0x00000048	[  2] __ZN9__gnu_cxx13new_allocatorIN16CRendezvousQueue3CRLEE8allocateEmPKv
0x0000A1D6	0x00000028	[  2] __ZNSt12_Vector_baseIN16CRendezvousQueue3CRLESaIS1_EE11_M_allocateEm
0x0000A1FE	0x00000020	[  2] __ZN9__gnu_cxx13new_allocatorIP7CPacketE10deallocateEPS2_m
0x0000A21E	0x00000030	[  2] __ZNSt11_Deque_baseIP7CPacketSaIS1_EE18_M_deallocate_nodeEPS1_
0x0000A24E	0x00000040	[  2] __ZNSt11_Deque_baseIP7CPacketSaIS1_EE16_M_destroy_nodesEPPS1_S5_
0x0000A28E	0x00000088	[  2] __ZNSt11_Deque_baseIP7CPacketSaIS1_EE15_M_create_nodesEPPS1_S5_
0x0000A316	0x0000005C	[  2] __ZNSt5dequeIP7CPacketSaIS1_EE16_M_pop_front_auxEv
0x0000A372	0x0000005A	[  2] __ZNSt5dequeIP7CPacketSaIS1_EE9pop_frontEv
0x0000A3CC	0x00000018	[  2] __ZNSt5queueIP7CPacketSt5dequeIS1_SaIS1_EEE3popEv
0x0000A3E4	0x00000020	[  2] __ZN9__gnu_cxx13new_allocatorIPP7CPacketE10deallocateEPS3_m
0x0000A404	0x0000003E	[  2] __ZNSt11_Deque_baseIP7CPacketSaIS1_EE17_M_deallocate_mapEPPS1_m
0x0000A442	0x00000190	[  2] __ZNSt11_Deque_baseIP7CPacketSaIS1_EE17_M_initialize_mapEm
0x0000A5D2	0x00000056	[  2] __ZNSt11_Deque_baseIP7CPacketSaIS1_EEC2ERKS2_m
0x0000A628	0x00000024	[  2] __ZNSt5dequeIP7CPacketSaIS1_EEC1ERKS2_
0x0000A64C	0x00000058	[  2] __ZNSt11_Deque_baseIP7CPacketSaIS1_EED2Ev
0x0000A6A4	0x00000102	[  2] __ZNSt5dequeIP7CPacketSaIS1_EEC1ERKS3_
0x0000A7A6	0x00000020	[  2] __ZNSt5queueIP7CPacketSt5dequeIS1_SaIS1_EEEC1ERKS4_
0x0000A7C6	0x00000020	[  2] __ZNSt5queueIP7CPacketSt5dequeIS1_SaIS1_EEEC1ERKS5_
0x0000A7E6	0x00000034	[  2] __ZNSt4pairIKiSt5queueIP7CPacketSt5dequeIS3_SaIS3_EEEEC1ERS0_RKS7_
0x0000A81A	0x00000034	[  2] __ZNSt4pairIKiSt5queueIP7CPacketSt5dequeIS3_SaIS3_EEEEC1ERKS8_
0x0000A84E	0x00000066	[  2] __ZN9__gnu_cxx13new_allocatorISt4pairIKiSt5queueIP7CPacketSt5dequeIS5_SaIS5_EEEEE9constructEPSA_RKSA_
0x0000A8B4	0x00000058	[  2] __ZNSt5dequeIP7CPacketSaIS1_EED1Ev
0x0000A90C	0x00000018	[  2] __ZNSt5queueIP7CPacketSt5dequeIS1_SaIS1_EEED1Ev
0x0000A924	0x0000001C	[  2] __ZNSt4pairIKiSt5queueIP7CPacketSt5dequeIS3_SaIS3_EEEED1Ev
0x0000A940	0x0000001C	[  2] __ZN9__gnu_cxx13new_allocatorISt4pairIKiSt5queueIP7CPacketSt5dequeIS5_SaIS5_EEEEE7destroyEPSA_
0x0000A95C	0x00000020	[  2] __ZN9__gnu_cxx13new_allocatorISt13_Rb_tree_nodeISt4pairIKiSt5queueIP7CPacketSt5dequeIS6_SaIS6_EEEEEE10deallocateEPSC_m
0x0000A97C	0x00000028	[  2] __ZNSt8_Rb_treeIiSt4pairIKiSt5queueIP7CPacketSt5dequeIS4_SaIS4_EEEESt10_Select1stIS9_ESt4lessIiESaIS9_EE11_M_put_nodeEPSt13_Rb_tree_nodeIS9_E
0x0000A9A4	0x000000AC	[  2] __ZNSt8_Rb_treeIiSt4pairIKiSt5queueIP7CPacketSt5dequeIS4_SaIS4_EEEESt10_Select1stIS9_ESt4lessIiESaIS9_EE14_M_create_nodeERKS9_
0x0000AA50	0x00000050	[  2] __ZNSt8_Rb_treeIiSt4pairIKiSt5queueIP7CPacketSt5dequeIS4_SaIS4_EEEESt10_Select1stIS9_ESt4lessIiESaIS9_EE15_M_destroy_nodeEPSt13_Rb_tree_nodeIS9_E
0x0000AAA0	0x00000052	[  2] __ZNSt8_Rb_treeIiSt4pairIKiSt5queueIP7CPacketSt5dequeIS4_SaIS4_EEEESt10_Select1stIS9_ESt4lessIiESaIS9_EE8_M_eraseEPSt13_Rb_tree_nodeIS9_E
0x0000AAF2	0x00000062	[  2] __ZNSt8_Rb_treeIiSt4pairIKiSt5queueIP7CPacketSt5dequeIS4_SaIS4_EEEESt10_Select1stIS9_ESt4lessIiESaIS9_EED1Ev
0x0000AB54	0x00000018	[  2] __ZNSt3mapIiSt5queueIP7CPacketSt5dequeIS2_SaIS2_EEESt4lessIiESaISt4pairIKiS6_EEED1Ev
0x0000AB6C	0x00000020	[  2] __ZN9__gnu_cxx13new_allocatorIP4CUDTE10deallocateEPS2_m
0x0000AB8C	0x00000032	[  2] __ZNSt12_Vector_baseIP4CUDTSaIS1_EE13_M_deallocateEPS1_m
0x0000ABBE	0x0000004A	[  2] __ZNSt12_Vector_baseIP4CUDTSaIS1_EED2Ev
0x0000AC08	0x0000004E	[  2] __ZNSt6vectorIP4CUDTSaIS1_EED1Ev
0x0000AC56	0x00000020	[  2] __ZN9__gnu_cxx13new_allocatorIN16CRendezvousQueue3CRLEE10deallocateEPS2_m
0x0000AC76	0x00000032	[  2] __ZNSt12_Vector_baseIN16CRendezvousQueue3CRLESaIS1_EE13_M_deallocateEPS1_m
0x0000ACA8	0x0000004A	[  2] __ZNSt12_Vector_baseIN16CRendezvousQueue3CRLESaIS1_EED2Ev
0x0000ACF2	0x0000004E	[  2] __ZNSt6vectorIN16CRendezvousQueue3CRLESaIS1_EED1Ev
0x0000AD40	0x00000028	[  2] __ZNSt17_Rb_tree_iteratorISt4pairIKiSt5queueIP7CPacketSt5dequeIS4_SaIS4_EEEEEmmEv
0x0000AD68	0x00000028	[  2] __ZNSt17_Rb_tree_iteratorISt4pairIKiSt5queueIP7CPacketSt5dequeIS4_SaIS4_EEEEEppEv
0x0000AD90	0x000000CC	[  2] __ZNSt8_Rb_treeIiSt4pairIKiSt5queueIP7CPacketSt5dequeIS4_SaIS4_EEEESt10_Select1stIS9_ESt4lessIiESaIS9_EE9_M_insertEPSt18_Rb_tree_node_baseSH_RKS9_
0x0000AE5C	0x00000218	[  2] __ZNSt8_Rb_treeIiSt4pairIKiSt5queueIP7CPacketSt5dequeIS4_SaIS4_EEEESt10_Select1stIS9_ESt4lessIiESaIS9_EE16_M_insert_uniqueERKS9_
0x0000B074	0x000003B0	[  2] __ZNSt8_Rb_treeIiSt4pairIKiSt5queueIP7CPacketSt5dequeIS4_SaIS4_EEEESt10_Select1stIS9_ESt4lessIiESaIS9_EE16_M_insert_uniqueESt17_Rb_tree_iteratorIS9_ERKS9_
0x0000B424	0x00000028	[  2] __ZNSt3mapIiSt5queueIP7CPacketSt5dequeIS2_SaIS2_EEESt4lessIiESaISt4pairIKiS6_EEE6insertESt17_Rb_tree_iteratorISB_ERKSB_
0x0000B44C	0x000001D1	[  2] __ZNSt3mapIiSt5queueIP7CPacketSt5dequeIS2_SaIS2_EEESt4lessIiESaISt4pairIKiS6_EEEixERSA_
0x0000B61D	0x0000006E	[  2] __ZNSt15__copy_backwardILb1ESt26random_access_iterator_tagE8__copy_bIPP7CPacketEEPT_PKS6_S9_S7_
0x0000B68B	0x0000002B	[  2] __ZSt19__copy_backward_auxIPPP7CPacketS3_ET0_T_S5_S4_
0x0000B6B6	0x00000027	[  2] __ZNSt22__copy_backward_normalILb0ELb0EE10__copy_b_nIPPP7CPacketS5_EET0_T_S7_S6_
0x0000B6DD	0x0000002F	[  2] __ZSt13copy_backwardIPPP7CPacketS3_ET0_T_S5_S4_
0x0000B70C	0x0000005D	[  2] __ZNSt6__copyILb1ESt26random_access_iterator_tagE4copyIPP7CPacketEEPT_PKS6_S9_S7_
0x0000B769	0x0000002B	[  2] __ZSt10__copy_auxIPPP7CPacketS3_ET0_T_S5_S4_
0x0000B794	0x00000027	[  2] __ZNSt13__copy_normalILb0ELb0EE8__copy_nIPPP7CPacketS5_EET0_T_S7_S6_
0x0000B7BB	0x0000002F	[  2] __ZSt4copyIPPP7CPacketS3_ET0_T_S5_S4_
0x0000B7EA	0x00000204	[  2] __ZNSt5dequeIP7CPacketSaIS1_EE17_M_reallocate_mapEmb
0x0000B9EE	0x00000066	[  2] __ZNSt5dequeIP7CPacketSaIS1_EE22_M_reserve_map_at_backEm
0x0000BA54	0x0000008A	[  2] __ZNSt5dequeIP7CPacketSaIS1_EE16_M_push_back_auxERKS1_
0x0000BADE	0x00000066	[  2] __ZNSt5dequeIP7CPacketSaIS1_EE9push_backERKS1_
0x0000BB44	0x0000001F	[  2] __ZNSt5queueIP7CPacketSt5dequeIS1_SaIS1_EEE4pushERKS1_
0x0000BB63	0x0000005D	[  2] __ZNSt6__copyILb1ESt26random_access_iterator_tagE4copyIP4CUDTEEPT_PKS5_S8_S6_
0x0000BBC0	0x0000002B	[  2] __ZSt10__copy_auxIPP4CUDTS2_ET0_T_S4_S3_
0x0000BBEB	0x00000064	[  2] __ZNSt13__copy_normalILb1ELb1EE8__copy_nIN9__gnu_cxx17__normal_iteratorIPP4CUDTSt6vectorIS5_SaIS5_EEEESA_EET0_T_SC_SB_
0x0000BC4F	0x0000002F	[  2] __ZSt4copyIN9__gnu_cxx17__normal_iteratorIPP4CUDTSt6vectorIS3_SaIS3_EEEES8_ET0_T_SA_S9_
0x0000BC7E	0x000000AB	[  2] __ZNSt6vectorIP4CUDTSaIS1_EE5eraseEN9__gnu_cxx17__normal_iteratorIPS1_S3_EE
0x0000BD29	0x00000027	[  2] __ZNSt13__copy_normalILb0ELb0EE8__copy_nIPP4CUDTS4_EET0_T_S6_S5_
0x0000BD50	0x0000002F	[  2] __ZSt4copyIPP4CUDTS2_ET0_T_S4_S3_
0x0000BD7F	0x00000027	[  2] __ZSt24__uninitialized_copy_auxIPP4CUDTS2_ET0_T_S4_S3_St11__true_type
0x0000BDA6	0x0000002E	[  2] __ZSt18uninitialized_copyIPP4CUDTS2_ET0_T_S4_S3_
0x0000BDD4	0x0000002B	[  2] __ZSt22__uninitialized_copy_aIPP4CUDTS2_S1_ET0_T_S4_S3_SaIT1_E
0x0000BDFF	0x0000006E	[  2] __ZNSt15__copy_backwardILb1ESt26random_access_iterator_tagE8__copy_bIP4CUDTEEPT_PKS5_S8_S6_
0x0000BE6D	0x0000002B	[  2] __ZSt19__copy_backward_auxIPP4CUDTS2_ET0_T_S4_S3_
0x0000BE98	0x00000027	[  2] __ZNSt22__copy_backward_normalILb0ELb0EE10__copy_b_nIPP4CUDTS4_EET0_T_S6_S5_
0x0000BEBF	0x0000002F	[  2] __ZSt13copy_backwardIPP4CUDTS2_ET0_T_S4_S3_
0x0000BEEE	0x00000278	[  2] __ZNSt6vectorIP4CUDTSaIS1_EE13_M_insert_auxEN9__gnu_cxx17__normal_iteratorIPS1_S3_EERKS1_
0x0000C166	0x000000E4	[  2] __ZNSt6vectorIP4CUDTSaIS1_EE6insertEN9__gnu_cxx17__normal_iteratorIPS1_S3_EERKS1_
0x0000C24A	0x00000288	[  2] __ZNSt6vectorIN16CRendezvousQueue3CRLESaIS1_EE13_M_insert_auxEN9__gnu_cxx17__normal_iteratorIPS1_S3_EERKS1_
0x0000C4D2	0x000000E4	[  2] __ZNSt6vectorIN16CRendezvousQueue3CRLESaIS1_EE6insertEN9__gnu_cxx17__normal_iteratorIPS1_S3_EERKS1_
0x0000C5B6	0x00000018	[  2] __ZN5CUnitD1Ev
0x0000C5CE	0x00000048	[  2] __ZNSt8_Rb_treeIiSt4pairIKiSt5queueIP7CPacketSt5dequeIS4_SaIS4_EEEESt10_Select1stIS9_ESt4lessIiESaIS9_EE5eraseESt17_Rb_tree_iteratorIS9_E
0x0000C616	0x00000020	[  2] __ZNSt3mapIiSt5queueIP7CPacketSt5dequeIS2_SaIS2_EEESt4lessIiESaISt4pairIKiS6_EEE5eraseESt17_Rb_tree_iteratorISB_E
0x0000C636	0x00000017	[  2] __ZN5CUnitC1Ev
0x0000C64E	0x000000CE	[  3] __ZN7CPacketC2Ev
0x0000C71C	0x000000CE	[  3] __ZN7CPacketC1Ev
0x0000C7EA	0x0000000A	[  3] __ZN7CPacketD2Ev
0x0000C7F4	0x0000000A	[  3] __ZN7CPacketD1Ev
0x0000C7FE	0x00000012	[  3] __ZNK7CPacket9getLengthEv
0x0000C810	0x00000020	[  3] __ZN7CPacket9setLengthERKi
0x0000C830	0x00000296	[  3] __ZN7CPacket4packERKiPvS2_S1_
0x0000CAC6	0x00000012	[  3] __ZN7CPacket15getPacketVectorEv
0x0000CAD8	0x00000014	[  3] __ZNK7CPacket7getFlagEv
0x0000CAEC	0x0000001A	[  3] __ZNK7CPacket7getTypeEv
0x0000CB06	0x00000016	[  3] __ZNK7CPacket15getExtendedTypeEv
0x0000CB1C	0x00000012	[  3] __ZNK7CPacket11getAckSeqNoEv
0x0000CB2E	0x00000014	[  3] __ZNK7CPacket14getMsgBoundaryEv
0x0000CB42	0x0000001E	[  3] __ZNK7CPacket15getMsgOrderFlagEv
0x0000CB60	0x00000016	[  3] __ZNK7CPacket9getMsgSeqEv
0x0000CB76	0x00000086	[  3] __ZN10CHandShakeC2Ev
0x0000CBFC	0x00000086	[  3] __ZN10CHandShakeC1Ev
0x0000CC82	0x000000F6	[  3] __ZN10CHandShake9serializeEPcRKi
0x0000CD78	0x000000F7	[  3] __ZN10CHandShake11deserializeEPKcRKi
0x0000CE6F	0x00000117	[  3] __ZStL17__verify_groupingPKcmRKSs
0x0000CF86	0x00000096	[  3] __ZNK7CPacket5cloneEv
0x0000D01C	0x0000004E	[  4] _md5_init
0x0000D06A	0x00000E2F	[  4] __ZL11md5_processP11md5_state_sPKh
0x0000DE99	0x00000141	[  4] _md5_append
0x0000DFDA	0x000000F1	[  4] _md5_finish
0x0000E0CC	0x0000014C	[  5] __ZNK12CRcvLossList4findERKiS1_
0x0000E218	0x00000012	[  5] __ZNK12CRcvLossList13getLossLengthEv
0x0000E22A	0x0000003E	[  5] __ZNK12CRcvLossList15getFirstLostSeqEv
0x0000E268	0x00000118	[  5] __ZStL17__verify_groupingPKcmRKSs
0x0000E380	0x00000164	[  5] __ZN12CRcvLossList12getLossArrayEPiRiRKiS3_
0x0000E4E4	0x0000071E	[  5] __ZN12CRcvLossList6removeERKi
0x0000EC02	0x000000B6	[  5] __ZN12CRcvLossList6removeERKiS1_
0x0000ECB8	0x00000292	[  5] __ZN12CRcvLossList6insertERKiS1_
0x0000EF4A	0x00000074	[  5] __ZN12CRcvLossListD1Ev
0x0000EFBE	0x00000074	[  5] __ZN12CRcvLossListD2Ev
0x0000F032	0x0000015A	[  5] __ZN12CRcvLossListC1ERKi
0x0000F18C	0x0000015A	[  5] __ZN12CRcvLossListC2ERKi
0x0000F2E6	0x00000234	[  5] __ZN12CSndLossList10getLostSeqEv
0x0000F51A	0x00000038	[  5] __ZN12CSndLossList13getLossLengthEv
0x0000F552	0x000006C0	[  5] __ZN12CSndLossList6removeERKi
0x0000FC12	0x00000984	[  5] __ZN12CSndLossList6insertERKiS1_
0x00010596	0x00000068	[  5] __ZN12CSndLossListD1Ev
0x000105FE	0x00000068	[  5] __ZN12CSndLossListD2Ev
0x00010666	0x0000013E	[  5] __ZN12CSndLossListC1ERKi
0x000107A4	0x0000013E	[  5] __ZN12CSndLossListC2ERKi
0x000108E2	0x000000A1	[  5] __ZN6CSeqNo6seqoffERKiS1_
0x00010983	0x0000002B	[  5] __ZN6CSeqNo6incseqEi
0x000109AE	0x00000030	[  5] __ZN6CSeqNo6decseqERKi
0x000109DE	0x0000002F	[  6] __ZL17__darwin_fd_issetiPK6fd_set
0x00010A0D	0x00000117	[  6] __ZStL17__verify_groupingPKcmRKSs
0x00010B24	0x000001E8	[  6] __ZN6CEPoll12disable_readERKiRSt3setIiSt4lessIiESaIiEE
0x00010D0C	0x000001E6	[  6] __ZN6CEPoll13disable_writeERKiRSt3setIiSt4lessIiESaIiEE
0x00010EF2	0x0000020C	[  6] __ZN6CEPoll11enable_readERKiRSt3setIiSt4lessIiESaIiEE
0x000110FE	0x00000208	[  6] __ZN6CEPoll12enable_writeERKiRSt3setIiSt4lessIiESaIiEE
0x00011306	0x0000013E	[  6] __ZN6CEPoll6createEv
0x00011444	0x000000FC	[  6] __ZN6CEPoll7releaseEi
0x00011540	0x00000108	[  6] __ZN6CEPoll12remove_ssockEiRKiPS0_
0x00011648	0x00000108	[  6] __ZN6CEPoll12remove_usockEiRKiPS0_
0x00011750	0x0000014C	[  6] __ZN6CEPoll9add_ssockEiRKiPS0_
0x0001189C	0x0000014C	[  6] __ZN6CEPoll9add_usockEiRKiPS0_
0x000119E8	0x0000053C	[  6] __ZN6CEPoll4waitEiPSt3setIiSt4lessIiESaIiEES5_xS5_S5_
0x00011F24	0x00000062	[  6] __ZN6CEPollD2Ev
0x00011F86	0x0000005C	[  6] __ZN6CEPollC2Ev
0x00011FE2	0x00000029	[  6] __ZNSt18_Rb_tree_node_base10_S_minimumEPS_
0x0001200B	0x00000029	[  6] __ZNSt18_Rb_tree_node_base10_S_maximumEPS_
0x00012034	0x00000026	[  6] __ZNKSt17_Rb_tree_iteratorISt4pairIKi10CEPollDescEEeqERKS4_
0x0001205A	0x00000016	[  6] __ZNKSt17_Rb_tree_iteratorISt4pairIKi10CEPollDescEEptEv
0x00012070	0x00000026	[  6] __ZNKSt23_Rb_tree_const_iteratorIiEneERKS0_
0x00012096	0x00000016	[  6] __ZNKSt23_Rb_tree_const_iteratorIiEdeEv
0x000120AC	0x00000016	[  6] __ZNSt17_Rb_tree_iteratorISt4pairIKi10CEPollDescEEC1Ev
0x000120C2	0x00000020	[  6] __ZN9__gnu_cxx17__normal_iteratorIPiSt6vectorIiSaIiEEEppEv
0x000120E2	0x00000012	[  6] __ZNK9__gnu_cxx17__normal_iteratorIPiSt6vectorIiSaIiEEEdeEv
0x000120F4	0x00000016	[  6] __ZNKSt17_Rb_tree_iteratorISt4pairIKi10CEPollDescEEdeEv
0x0001210A	0x0000000A	[  6] __ZNSt14unary_functionIiiEC2Ev
0x00012114	0x00000018	[  6] __ZNSt9_IdentityIiEC1Ev
0x0001212C	0x0000001C	[  6] __ZNSt23_Rb_tree_const_iteratorIiEC1ERKSt17_Rb_tree_iteratorIiE
0x00012148	0x0000002E	[  6] __ZNSt4pairISt23_Rb_tree_const_iteratorIiEbEC1ERKS1_RKb
0x00012176	0x0000001C	[  6] __ZNKSt8_Rb_treeIiiSt9_IdentityIiESt4lessIiESaIiEE5emptyEv
0x00012192	0x0000001A	[  6] __ZNKSt3setIiSt4lessIiESaIiEE5emptyEv
0x000121AC	0x00000012	[  6] __ZNKSt8_Rb_treeIiiSt9_IdentityIiESt4lessIiESaIiEE4sizeEv
0x000121BE	0x00000018	[  6] __ZNKSt3setIiSt4lessIiESaIiEE4sizeEv
0x000121D6	0x00000018	[  6] __ZNSaIiEC1Ev
0x000121EE	0x00000018	[  6] __ZNSaIiED2Ev
0x00012206	0x0000000E	[  6] __ZN9__gnu_cxx13new_allocatorIiEC2ERKS1_
0x00012214	0x00000020	[  6] __ZNSaIiEC2ERKS_
0x00012234	0x00000020	[  6] __ZNSaIiEC1ERKS_
0x00012254	0x00000018	[  6] __ZNSt12_Vector_baseIiSaIiEE12_Vector_implD1Ev
0x0001226C	0x0000000E	[  6] __ZNSt12_Vector_baseIiSaIiEE19_M_get_Tp_allocatorEv
0x0001227A	0x0000003C	[  6] __ZN9__gnu_cxx13new_allocatorIiE9constructEPiRKi
0x000122B6	0x0000001C	[  6] __ZN9__gnu_cxx17__normal_iteratorIPiSt6vectorIiSaIiEEEC1ERKS1_
0x000122D2	0x00000020	[  6] __ZNSt6vectorIiSaIiEE5beginEv
0x000122F2	0x00000024	[  6] __ZNSt6vectorIiSaIiEE3endEv
0x00012316	0x0000000E	[  6] __ZNK9__gnu_cxx17__normal_iteratorIPiSt6vectorIiSaIiEEE4baseEv
0x00012324	0x0000003A	[  6] __ZN9__gnu_cxxneIPiSt6vectorIiSaIiEEEEbRKNS_17__normal_iteratorIT_T0_EESA_
0x0001235E	0x00000017	[  6] __ZNSaISt13_Rb_tree_nodeIiEED1Ev
0x00012376	0x0000000E	[  6] __ZNKSt8_Rb_treeIiSt4pairIKi10CEPollDescESt10_Select1stIS3_ESt4lessIiESaIS3_EE8key_compEv
0x00012384	0x0000001C	[  6] __ZNKSt3mapIi10CEPollDescSt4lessIiESaISt4pairIKiS0_EEE8key_compEv
0x000123A0	0x0000000A	[  6] __ZNSt14unary_functionISt4pairIKi10CEPollDescES1_EC2Ev
0x000123AA	0x00000018	[  6] __ZNSt10_Select1stISt4pairIKi10CEPollDescEEC1Ev
0x000123C2	0x00000012	[  6] __ZNKSt8_Rb_treeIiiSt9_IdentityIiESt4lessIiESaIiEE7_M_rootEv
0x000123D4	0x00000012	[  6] __ZNKSt8_Rb_treeIiiSt9_IdentityIiESt4lessIiESaIiEE8_M_beginEv
0x000123E6	0x00000012	[  6] __ZNSt8_Rb_treeIiiSt9_IdentityIiESt4lessIiESaIiEE6_M_endEv
0x000123F8	0x00000012	[  6] __ZNSt8_Rb_treeIiiSt9_IdentityIiESt4lessIiESaIiEE7_M_rootEv
0x0001240A	0x00000018	[  6] __ZNSt8_Rb_treeIiiSt9_IdentityIiESt4lessIiESaIiEE10_S_minimumEPSt18_Rb_tree_node_base
0x00012422	0x00000012	[  6] __ZNSt8_Rb_treeIiiSt9_IdentityIiESt4lessIiESaIiEE11_M_leftmostEv
0x00012434	0x00000018	[  6] __ZNSt8_Rb_treeIiiSt9_IdentityIiESt4lessIiESaIiEE10_S_maximumEPSt18_Rb_tree_node_base
0x0001244C	0x00000012	[  6] __ZNSt8_Rb_treeIiiSt9_IdentityIiESt4lessIiESaIiEE12_M_rightmostEv
0x0001245E	0x00000012	[  6] __ZNSt8_Rb_treeIiSt4pairIKi10CEPollDescESt10_Select1stIS3_ESt4lessIiESaIS3_EE6_M_endEv
0x00012470	0x0000001A	[  6] __ZNSt17_Rb_tree_iteratorISt4pairIKi10CEPollDescEEC1EPSt13_Rb_tree_nodeIS3_E
0x0001248A	0x00000026	[  6] __ZNSt8_Rb_treeIiSt4pairIKi10CEPollDescESt10_Select1stIS3_ESt4lessIiESaIS3_EE3endEv
0x000124B0	0x00000018	[  6] __ZNSt3mapIi10CEPollDescSt4lessIiESaISt4pairIKiS0_EEE3endEv
0x000124C8	0x00000012	[  6] __ZNKSt9_IdentityIiEclERKi
0x000124DA	0x0000001A	[  6] __ZNSt17_Rb_tree_iteratorIiEC1EPSt13_Rb_tree_nodeIiE
0x000124F4	0x00000026	[  6] __ZNSt8_Rb_treeIiiSt9_IdentityIiESt4lessIiESaIiEE5beginEv
0x0001251A	0x00000026	[  6] __ZNKSt17_Rb_tree_iteratorIiEeqERKS0_
0x00012540	0x0000002E	[  6] __ZNSt4pairISt17_Rb_tree_iteratorIiEbEC1ERKS1_RKb
0x0001256E	0x0000001A	[  6] __ZNSt23_Rb_tree_const_iteratorIiEC1EPKSt13_Rb_tree_nodeIiE
0x00012588	0x00000026	[  6] __ZNKSt8_Rb_treeIiiSt9_IdentityIiESt4lessIiESaIiEE5beginEv
0x000125AE	0x00000018	[  6] __ZNKSt3setIiSt4lessIiESaIiEE5beginEv
0x000125C6	0x00000026	[  6] __ZNKSt8_Rb_treeIiiSt9_IdentityIiESt4lessIiESaIiEE3endEv
0x000125EC	0x00000018	[  6] __ZNKSt3setIiSt4lessIiESaIiEE3endEv
0x00012604	0x00000042	[  6] __ZNSt12_Vector_baseIiSaIiEE12_Vector_implC1ERKS0_
0x00012646	0x00000020	[  6] __ZNSt12_Vector_baseIiSaIiEEC2ERKS0_
0x00012666	0x00000020	[  6] __ZNSt6vectorIiSaIiEEC1ERKS0_
0x00012686	0x0000002A	[  6] __ZNKSt6vectorIiSaIiEE4sizeEv
0x000126B0	0x0000000A	[  6] __ZN9__gnu_cxx13new_allocatorISt13_Rb_tree_nodeIiEEC2Ev
0x000126BA	0x0000001C	[  6] __ZNSaISt13_Rb_tree_nodeIiEEC1IiEERKSaIT_E
0x000126D6	0x00000012	[  6] __ZNSt8_Rb_treeIiSt4pairIKi10CEPollDescESt10_Select1stIS3_ESt4lessIiESaIS3_EE12_M_rightmostEv
0x000126E8	0x00000012	[  6] __ZNKSt10_Select1stISt4pairIKi10CEPollDescEEclERKS3_
0x000126FA	0x00000012	[  6] __ZNKSt8_Rb_treeIiSt4pairIKi10CEPollDescESt10_Select1stIS3_ESt4lessIiESaIS3_EE4sizeEv
0x0001270C	0x00000012	[  6] __ZNSt8_Rb_treeIiSt4pairIKi10CEPollDescESt10_Select1stIS3_ESt4lessIiESaIS3_EE11_M_leftmostEv
0x0001271E	0x00000012	[  6] __ZNSt8_Rb_treeIiiSt9_IdentityIiESt4lessIiESaIiEE8_S_rightEPKSt18_Rb_tree_node_base
0x00012730	0x00000012	[  6] __ZNSt8_Rb_treeIiiSt9_IdentityIiESt4lessIiESaIiEE7_S_leftEPKSt18_Rb_tree_node_base
0x00012742	0x00000012	[  6] __ZNSt8_Rb_treeIiSt4pairIKi10CEPollDescESt10_Select1stIS3_ESt4lessIiESaIS3_EE8_S_valueEPKSt13_Rb_tree_nodeIS3_E
0x00012754	0x00000036	[  6] __ZNSt8_Rb_treeIiSt4pairIKi10CEPollDescESt10_Select1stIS3_ESt4lessIiESaIS3_EE6_S_keyEPKSt13_Rb_tree_nodeIS3_E
0x0001278A	0x0000008A	[  6] __ZNSt8_Rb_treeIiSt4pairIKi10CEPollDescESt10_Select1stIS3_ESt4lessIiESaIS3_EE11lower_boundERS1_
0x00012814	0x0000001F	[  6] __ZNSt3mapIi10CEPollDescSt4lessIiESaISt4pairIKiS0_EEE11lower_boundERS4_
0x00012833	0x00000012	[  6] __ZNSt8_Rb_treeIiSt4pairIKi10CEPollDescESt10_Select1stIS3_ESt4lessIiESaIS3_EE8_S_valueEPKSt18_Rb_tree_node_base
0x00012845	0x00000035	[  6] __ZNSt8_Rb_treeIiSt4pairIKi10CEPollDescESt10_Select1stIS3_ESt4lessIiESaIS3_EE6_S_keyEPKSt18_Rb_tree_node_base
0x0001287A	0x000000DC	[  6] __ZNSt8_Rb_treeIiSt4pairIKi10CEPollDescESt10_Select1stIS3_ESt4lessIiESaIS3_EE4findERS1_
0x00012956	0x0000001F	[  6] __ZNSt3mapIi10CEPollDescSt4lessIiESaISt4pairIKiS0_EEE4findERS4_
0x00012976	0x00000012	[  6] __ZNSt8_Rb_treeIiiSt9_IdentityIiESt4lessIiESaIiEE8_S_valueEPKSt18_Rb_tree_node_base
0x00012988	0x00000036	[  6] __ZNSt8_Rb_treeIiiSt9_IdentityIiESt4lessIiESaIiEE6_S_keyEPKSt18_Rb_tree_node_base
0x000129BE	0x0000008A	[  6] __ZNSt8_Rb_treeIiiSt9_IdentityIiESt4lessIiESaIiEE11lower_boundERKi
0x00012A48	0x00000088	[  6] __ZNSt8_Rb_treeIiiSt9_IdentityIiESt4lessIiESaIiEE11upper_boundERKi
0x00012AD0	0x00000030	[  6] __ZNSt4pairISt17_Rb_tree_iteratorIiES1_EC1ERKS1_S4_
0x00012B00	0x0000005E	[  6] __ZNSt8_Rb_treeIiiSt9_IdentityIiESt4lessIiESaIiEE11equal_rangeERKi
0x00012B5E	0x00000026	[  6] __ZNSt8_Rb_treeIiiSt9_IdentityIiESt4lessIiESaIiEE3endEv
0x00012B84	0x00000025	[  6] __ZNKSt17_Rb_tree_iteratorIiEneERKS0_
0x00012BAA	0x0000000E	[  6] __ZNKSt12_Vector_baseIiSaIiEE19_M_get_Tp_allocatorEv
0x00012BB8	0x00000014	[  6] __ZNK9__gnu_cxx13new_allocatorIiE8max_sizeEv
0x00012BCC	0x00000020	[  6] __ZNKSt6vectorIiSaIiEE8max_sizeEv
0x00012BEC	0x0000000E	[  6] __ZN9__gnu_cxx13new_allocatorISt13_Rb_tree_nodeIiEEC2ERKS3_
0x00012BFA	0x00000020	[  6] __ZNSaISt13_Rb_tree_nodeIiEEC2ERKS1_
0x00012C1A	0x00000096	[  6] __ZNSt8_Rb_treeIiiSt9_IdentityIiESt4lessIiESaIiEE13_Rb_tree_implIS3_Lb0EEC1ERKSaISt13_Rb_tree_nodeIiEERKS3_
0x00012CB0	0x0000003E	[  6] __ZNSt8_Rb_treeIiiSt9_IdentityIiESt4lessIiESaIiEEC1ERKS3_RKS4_
0x00012CEE	0x0000003A	[  6] __ZNSt3setIiSt4lessIiESaIiEEC1Ev
0x00012D28	0x00000026	[  6] __ZNSt8_Rb_treeIiSt4pairIKi10CEPollDescESt10_Select1stIS3_ESt4lessIiESaIS3_EE5beginEv
0x00012D4E	0x0000002E	[  6] __ZNSt4pairISt17_Rb_tree_iteratorIS_IKi10CEPollDescEEbEC1ERKS4_RKb
0x00012D7C	0x00000014	[  6] __ZNK9__gnu_cxx13new_allocatorISt13_Rb_tree_nodeIiEE8max_sizeEv
0x00012D90	0x00000014	[  6] __ZNK9__gnu_cxx13new_allocatorISt13_Rb_tree_nodeISt4pairIKi10CEPollDescEEE8max_sizeEv
0x00012DA4	0x0000006E	[  6] __ZNSt15__copy_backwardILb1ESt26random_access_iterator_tagE8__copy_bIiEEPT_PKS3_S6_S4_
0x00012E12	0x0000002B	[  6] __ZSt19__copy_backward_auxIPiS0_ET0_T_S2_S1_
0x00012E3E	0x0000002F	[  6] __ZSt13copy_backwardIPiS0_ET0_T_S2_S1_
0x00012E6E	0x0000002B	[  6] __ZSt10__copy_auxIPiS0_ET0_T_S2_S1_
0x00012E9A	0x0000002F	[  6] __ZSt4copyIPiS0_ET0_T_S2_S1_
0x00012ECA	0x0000002E	[  6] __ZSt18uninitialized_copyIPiS0_ET0_T_S2_S1_
0x00012EF8	0x0000002C	[  6] __ZSt22__uninitialized_copy_aIPiS0_iET0_T_S2_S1_SaIT1_E
0x00012F24	0x0000004A	[  6] __ZN9__gnu_cxx13new_allocatorIiE8allocateEmPKv
0x00012F6E	0x00000028	[  6] __ZNSt12_Vector_baseIiSaIiEE11_M_allocateEm
0x00012F96	0x00000052	[  6] __ZN9__gnu_cxx13new_allocatorISt13_Rb_tree_nodeIiEE8allocateEmPKv
0x00012FE8	0x00000024	[  6] __ZNSt8_Rb_treeIiiSt9_IdentityIiESt4lessIiESaIiEE11_M_get_nodeEv
0x0001300C	0x00000056	[  6] __ZN9__gnu_cxx13new_allocatorISt13_Rb_tree_nodeISt4pairIKi10CEPollDescEEE8allocateEmPKv
0x00013062	0x00000024	[  6] __ZNSt8_Rb_treeIiSt4pairIKi10CEPollDescESt10_Select1stIS3_ESt4lessIiESaIS3_EE11_M_get_nodeEv
0x00013086	0x00000020	[  6] __ZN9__gnu_cxx13new_allocatorIiE10deallocateEPim
0x000130A6	0x00000032	[  6] __ZNSt12_Vector_baseIiSaIiEE13_M_deallocateEPim
0x000130D8	0x00000274	[  6] __ZNSt6vectorIiSaIiEE13_M_insert_auxEN9__gnu_cxx17__normal_iteratorIPiS1_EERKi
0x0001334C	0x0000006E	[  6] __ZNSt6vectorIiSaIiEE9push_backERKi
0x000133BA	0x0000004A	[  6] __ZNSt12_Vector_baseIiSaIiEED2Ev
0x00013404	0x0000004E	[  6] __ZNSt6vectorIiSaIiEED1Ev
0x00013452	0x00000076	[  6] __ZNSt8_Rb_treeIiiSt9_IdentityIiESt4lessIiESaIiEE5clearEv
0x000134C8	0x00000018	[  6] __ZNSt3setIiSt4lessIiESaIiEE5clearEv
0x000134E0	0x00000046	[  6] __ZN10CEPollDescC1Ev
0x00013526	0x00000058	[  6] __ZNSt8_Rb_treeIiiSt9_IdentityIiESt4lessIiESaIiEE14_M_create_nodeERKi
0x0001357E	0x00000050	[  6] __ZNSt8_Rb_treeIiiSt9_IdentityIiESt4lessIiESaIiEE13_M_clone_nodeEPKSt13_Rb_tree_nodeIiE
0x000135CE	0x0000013E	[  6] __ZNSt8_Rb_treeIiiSt9_IdentityIiESt4lessIiESaIiEE7_M_copyEPKSt13_Rb_tree_nodeIiEPS7_
0x0001370C	0x000000D2	[  6] __ZNSt8_Rb_treeIiiSt9_IdentityIiESt4lessIiESaIiEEaSERKS5_
0x000137DE	0x00000024	[  6] __ZNSt3setIiSt4lessIiESaIiEEaSERKS3_
0x00013802	0x0000008A	[  6] __ZN10CEPollDescaSERKS_
0x0001388C	0x000000F4	[  6] __ZNSt8_Rb_treeIiiSt9_IdentityIiESt4lessIiESaIiEEC1ERKS5_
0x00013980	0x00000020	[  6] __ZNSt3setIiSt4lessIiESaIiEEC1ERKS3_
0x000139A0	0x000000E6	[  6] __ZN10CEPollDescC1ERKS_
0x00013A86	0x00000034	[  6] __ZNSt4pairIKi10CEPollDescEC1ERS0_RKS1_
0x00013ABA	0x00000034	[  6] __ZNSt4pairIKi10CEPollDescEC1ERKS2_
0x00013AEE	0x00000066	[  6] __ZN9__gnu_cxx13new_allocatorISt4pairIKi10CEPollDescEE9constructEPS4_RKS4_
0x00013B54	0x000000AC	[  6] __ZNSt8_Rb_treeIiSt4pairIKi10CEPollDescESt10_Select1stIS3_ESt4lessIiESaIS3_EE14_M_create_nodeERKS3_
0x00013C00	0x00000028	[  6] __ZNSt23_Rb_tree_const_iteratorIiEppEv
0x00013C28	0x00000036	[  6] __ZNSt17_Rb_tree_iteratorIiEppEi
0x00013C5E	0x00000028	[  6] __ZNSt17_Rb_tree_iteratorISt4pairIKi10CEPollDescEEppEv
0x00013C86	0x00000048	[  6] __ZNSt8_Rb_treeIiiSt9_IdentityIiESt4lessIiESaIiEE5eraseESt17_Rb_tree_iteratorIiE
0x00013CCE	0x000000A0	[  6] __ZNSt8_Rb_treeIiiSt9_IdentityIiESt4lessIiESaIiEE5eraseESt17_Rb_tree_iteratorIiES7_
0x00013D6E	0x00000068	[  6] __ZNSt8_Rb_treeIiiSt9_IdentityIiESt4lessIiESaIiEE5eraseERKi
0x00013DD6	0x00000020	[  6] __ZNSt3setIiSt4lessIiESaIiEE5eraseERKi
0x00013DF6	0x00000048	[  6] __ZNSt8_Rb_treeIiSt4pairIKi10CEPollDescESt10_Select1stIS3_ESt4lessIiESaIS3_EE5eraseESt17_Rb_tree_iteratorIS3_E
0x00013E3E	0x00000020	[  6] __ZNSt3mapIi10CEPollDescSt4lessIiESaISt4pairIKiS0_EEE5eraseESt17_Rb_tree_iteratorIS5_E
0x00013E5E	0x00000028	[  6] __ZNSt17_Rb_tree_iteratorIiEmmEv
0x00013E86	0x00000028	[  6] __ZNSt17_Rb_tree_iteratorISt4pairIKi10CEPollDescEEmmEv
0x00013EAE	0x000000CC	[  6] __ZNSt8_Rb_treeIiiSt9_IdentityIiESt4lessIiESaIiEE9_M_insertEPSt18_Rb_tree_node_baseS7_RKi
0x00013F7A	0x00000218	[  6] __ZNSt8_Rb_treeIiiSt9_IdentityIiESt4lessIiESaIiEE16_M_insert_uniqueERKi
0x00014192	0x00000070	[  6] __ZNSt3setIiSt4lessIiESaIiEE6insertERKi
0x00014202	0x000000CC	[  6] __ZNSt8_Rb_treeIiSt4pairIKi10CEPollDescESt10_Select1stIS3_ESt4lessIiESaIS3_EE9_M_insertEPSt18_Rb_tree_node_baseSB_RKS3_
0x000142CE	0x00000218	[  6] __ZNSt8_Rb_treeIiSt4pairIKi10CEPollDescESt10_Select1stIS3_ESt4lessIiESaIS3_EE16_M_insert_uniqueERKS3_
0x000144E6	0x000003B0	[  6] __ZNSt8_Rb_treeIiSt4pairIKi10CEPollDescESt10_Select1stIS3_ESt4lessIiESaIS3_EE16_M_insert_uniqueESt17_Rb_tree_iteratorIS3_ERKS3_
0x00014896	0x00000028	[  6] __ZNSt3mapIi10CEPollDescSt4lessIiESaISt4pairIKiS0_EEE6insertESt17_Rb_tree_iteratorIS5_ERKS5_
0x000148BE	0x00000164	[  6] __ZNSt3mapIi10CEPollDescSt4lessIiESaISt4pairIKiS0_EEEixERS4_
0x00014A24	0x00000117	[  7] __ZStL17__verify_groupingPKcmRKSs
0x00014B3E	0x0000003E	[  7] __ZN4CUDT11removeEPollEi
0x00014B7C	0x0000016E	[  7] __ZN4CUDT8addEPollEi
0x00014CEA	0x00000436	[  7] __ZN4CUDT6listenEP8sockaddrR7CPacket
0x00015120	0x000000AE	[  7] __ZN4CUDT12releaseSynchEv
0x000151CE	0x00000A90	[  7] __ZN4CUDT8sendCtrlERKiPvS2_S1_
0x00015C5E	0x0000066E	[  7] __ZN4CUDT11checkTimersEv
0x000162CC	0x00000456	[  7] __ZN4CUDT11processDataEP5CUnit
0x00016722	0x0000055E	[  7] __ZN4CUDT8packDataER7CPacketRy
0x00016C80	0x000014DE	[  7] __ZN4CUDT11processCtrlER7CPacket
0x0001815E	0x0000008E	[  7] __ZN4CUDT12destroySynchEv
0x000181EC	0x000000B6	[  7] __ZN4CUDT9initSynchEv
0x000182A2	0x00000268	[  7] __ZN4CUDTC1ERKS_
0x0001850A	0x00000268	[  7] __ZN4CUDTC2ERKS_
0x00018772	0x00000236	[  7] __ZN4CUDTC1Ev
0x000189A8	0x00000236	[  7] __ZN4CUDTC2Ev
0x00018BDE	0x000003B8	[  7] __ZN4CUDT6getOptE6UDTOptPvRi
0x00018F96	0x00000B8C	[  7] __ZN4CUDT6setOptE6UDTOptPKvRKi
0x00019B22	0x00000702	[  7] __ZN4CUDT6sampleEP8CPerfMonb
0x0001A224	0x00000770	[  7] __ZN4CUDT8recvfileERSt13basic_fstreamIcSt11char_traitsIcEERxRKxRKi
0x0001A994	0x0000082E	[  7] __ZN4CUDT8sendfileERSt13basic_fstreamIcSt11char_traitsIcEERxRKxRKi
0x0001B1C2	0x00000640	[  7] __ZN4CUDT7recvmsgEPcRKi
0x0001B802	0x000007D4	[  7] __ZN4CUDT7sendmsgEPKcRKiS3_RKb
0x0001BFD6	0x000007E4	[  7] __ZN4CUDT4sendEPKcRKi
0x0001C7BA	0x0000062A	[  7] __ZN4CUDT4recvEPcRKi
0x0001CDE4	0x0000032E	[  7] __ZN4CUDT5closeEv
0x0001D112	0x00000B6A	[  7] __ZN4CUDT7connectEPK8sockaddrP10CHandShake
0x0001DC7C	0x00001444	[  7] __ZN4CUDT7connectEPK8sockaddr
0x0001F0C0	0x000001AC	[  7] __ZN4CUDT6listenEv
0x0001F26C	0x0000051A	[  7] __ZN4CUDT4openEv
0x0001F786	0x000001FC	[  7] __ZN4CUDTD1Ev
0x0001F982	0x000001FC	[  7] __ZN4CUDTD2Ev
0x0001FB7E	0x0000005E	[  7] __ZN6CSeqNo6seqcmpERKiS1_
0x0001FBDC	0x00000057	[  7] __ZN6CSeqNo6seqlenERKiS1_
0x0001FC34	0x00000058	[  7] __ZN6CSeqNo6incseqERKiS1_
0x0001FC8C	0x00000032	[  7] __ZN6CAckNo6incackERKi
0x0001FCBE	0x0000001C	[  7] __ZN17CCCVirtualFactoryC2Ev
0x0001FCDA	0x00000029	[  7] __ZN10CCCFactoryI6CUDTCCEC1Ev
0x0001FD04	0x00000080	[  7] __ZN13CUDTExceptionaSERKS_
0x0001FD84	0x00000034	[  7] __ZNSt4fposI11__mbstate_tEC1Ex
0x0001FDB8	0x00000012	[  7] __ZNSt8_Rb_treeIiiSt9_IdentityIiESt4lessIiESaIiEE8_S_valueEPKSt13_Rb_tree_nodeIiE
0x0001FDCA	0x00000035	[  7] __ZNSt8_Rb_treeIiiSt9_IdentityIiESt4lessIiESaIiEE6_S_keyEPKSt13_Rb_tree_nodeIiE
0x0001FE00	0x00000032	[  7] __ZN10CCCFactoryI6CUDTCCED0Ev
0x0001FE32	0x00000032	[  7] __ZN10CCCFactoryI6CUDTCCED1Ev
0x0001FE64	0x00000032	[  7] __ZN17CCCVirtualFactoryD0Ev
0x0001FE96	0x00000032	[  7] __ZN17CCCVirtualFactoryD1Ev
0x0001FEC8	0x0000002C	[  7] __ZN10CCCFactoryI6CUDTCCE5cloneEv
0x0001FEF4	0x00000057	[  7] __ZN10CCCFactoryI6CUDTCCE6createEv
0x0001FF4C	0x0000000E	[  8] __ZN6CTimer15getCPUFrequencyEv
0x0001FF5A	0x00000022	[  8] __ZNK13CUDTException12getErrorCodeEv
0x0001FF7C	0x0000002C	[  8] __ZN13CUDTException5clearEv
0x0001FFA8	0x000000EE	[  8] __ZN10CIPAddress5ipcmpEPK8sockaddrS2_RKi
0x00020096	0x0000015E	[  8] __ZN10CIPAddress4ntopEPK8sockaddrPjRKi
0x000201F4	0x00000105	[  8] __ZN10CIPAddress4ptonEP8sockaddrPKjRKi
0x000202F9	0x00000117	[  8] __ZStL17__verify_groupingPKcmRKSs
0x00020410	0x00000066	[  8] __ZN4CMD57computeEPKcPh
0x00020476	0x00000664	[  8] __ZN13CUDTException15getErrorMessageEv
0x00020ADA	0x000000B6	[  8] __ZN13CUDTExceptionC1ERKS_
0x00020B90	0x000000B6	[  8] __ZN13CUDTExceptionC2ERKS_
0x00020C46	0x000000BC	[  8] __ZN13CUDTExceptionD0Ev
0x00020D02	0x000000BC	[  8] __ZN13CUDTExceptionD1Ev
0x00020DBE	0x000000BC	[  8] __ZN13CUDTExceptionD2Ev
0x00020E7A	0x000000E0	[  8] __ZN13CUDTExceptionC1Eiii
0x00020F5A	0x000000E0	[  8] __ZN13CUDTExceptionC2Eiii
0x0002103A	0x00000018	[  8] __ZN6CGuard11releaseCondER22_opaque_pthread_cond_t
0x00021052	0x0000001C	[  8] __ZN6CGuard10createCondER22_opaque_pthread_cond_t
0x0002106E	0x00000028	[  8] __ZN6CTimerD1Ev
0x00021096	0x00000028	[  8] __ZN6CTimerD2Ev
0x000210BE	0x00000074	[  8] __ZN6CTimerC1Ev
0x00021132	0x00000074	[  8] __ZN6CTimerC2Ev
0x000211A6	0x00000018	[  8] __ZN6CGuard7leaveCSER23_opaque_pthread_mutex_t
0x000211BE	0x00000026	[  8] __ZN6CGuardD1Ev
0x000211E4	0x00000026	[  8] __ZN6CGuardD2Ev
0x0002120A	0x00000018	[  8] __ZN6CGuard7enterCSER23_opaque_pthread_mutex_t
0x00021222	0x0000003E	[  8] __ZN6CGuardC1ER23_opaque_pthread_mutex_t
0x00021260	0x0000003E	[  8] __ZN6CGuardC2ER23_opaque_pthread_mutex_t
0x0002129E	0x00000010	[  8] __ZN6CTimer5sleepEv
0x000212AE	0x00000036	[  8] __ZN6CTimer5rdtscERy
0x000212E4	0x0000008E	[  8] __ZN6CTimer12waitForEventEv
0x00021372	0x000000D4	[  8] __ZN6CTimer7sleeptoERKy
0x00021446	0x0000003C	[  8] __ZN6CTimer5sleepERKy
0x00021482	0x00000012	[  8] __ZN6CTimer12triggerEventEv
0x00021494	0x0000001C	[  8] __ZN6CTimer4tickEv
0x000214B0	0x00000020	[  8] __ZN6CTimer9interruptEv
0x000214D0	0x00000014	[  9] __ZL12_OSSwapInt32j
0x000214E4	0x00000036	[  9] __ZN8CChannelC2Ev
0x0002151A	0x00000036	[  9] __ZN8CChannelC1Ev
0x00021550	0x0000003C	[  9] __ZN8CChannelC2ERKi
0x0002158C	0x0000003C	[  9] __ZN8CChannelC1ERKi
0x000215C8	0x0000000A	[  9] __ZN8CChannelD2Ev
0x000215D2	0x0000000A	[  9] __ZN8CChannelD1Ev
0x000215DC	0x0000001C	[  9] __ZN8CChannel13setSndBufSizeERKi
0x000215F8	0x0000001B	[  9] __ZN8CChannel13setRcvBufSizeERKi
0x00021613	0x00000117	[  9] __ZStL17__verify_groupingPKcmRKSs
0x0002172A	0x0000018C	[  9] __ZNK8CChannel8recvfromEP8sockaddrR7CPacket
0x000218B6	0x00000220	[  9] __ZNK8CChannel6sendtoEPK8sockaddrR7CPacket
0x00021AD6	0x00000048	[  9] __ZNK8CChannel11getPeerAddrEP8sockaddr
0x00021B1E	0x00000048	[  9] __ZNK8CChannel11getSockAddrEP8sockaddr
0x00021B66	0x00000044	[  9] __ZN8CChannel13getRcvBufSizeEv
0x00021BAA	0x00000044	[  9] __ZN8CChannel13getSndBufSizeEv
0x00021BEE	0x0000001A	[  9] __ZNK8CChannel5closeEv
0x00021C08	0x00000150	[  9] __ZN8CChannel13setUDPSockOptEv
0x00021D58	0x00000024	[  9] __ZN8CChannel4openEi
0x00021D7C	0x000002D9	[  9] __ZN8CChannel4openEPK8sockaddr
0x00022056	0x000000F6	[ 10] __ZN3CCCC2Ev
0x0002214C	0x000000F6	[ 10] __ZN3CCCC1Ev
0x00022242	0x00000042	[ 10] __ZN3CCC11setACKTimerERKi
0x00022284	0x0000001C	[ 10] __ZN3CCC14setACKIntervalERKi
0x000222A0	0x00000024	[ 10] __ZN3CCC6setRTOERKi
0x000222C4	0x0000001C	[ 10] __ZN3CCC6setMSSERKi
0x000222E0	0x0000001C	[ 10] __ZN3CCC12setBandwidthERKi
0x000222FC	0x0000001C	[ 10] __ZN3CCC15setSndCurrSeqNoERKi
0x00022318	0x0000001C	[ 10] __ZN3CCC10setRcvRateERKi
0x00022334	0x00000022	[ 10] __ZN3CCC14setMaxCWndSizeERKi
0x00022356	0x0000001C	[ 10] __ZN3CCC6setRTTERKi
0x00022372	0x000000BC	[ 10] __ZN6CUDTCCC2Ev
0x0002242E	0x000000BC	[ 10] __ZN6CUDTCCC1Ev
0x000224EA	0x00000087	[ 10] __ZN6CUDTCC9onTimeoutEv
0x00022571	0x00000117	[ 10] __ZStL17__verify_groupingPKcmRKSs
0x00022688	0x000002A4	[ 10] __ZN6CUDTCC6onLossEPKiRS0_
0x0002292C	0x000000F0	[ 10] __ZN6CUDTCC4initEv
0x00022A1C	0x000003F4	[ 10] __ZN6CUDTCC5onACKERKi
0x00022E10	0x00000048	[ 10] __ZN3CCCD0Ev
0x00022E58	0x00000048	[ 10] __ZN3CCCD1Ev
0x00022EA0	0x00000048	[ 10] __ZN3CCCD2Ev
0x00022EE8	0x00000070	[ 10] __ZN3CCC12setUserParamEPKcRKi
0x00022F58	0x00000044	[ 10] __ZN3CCC11getPerfInfoEv
0x00022F9C	0x00000059	[ 10] __ZNK3CCC13sendCustomMsgER7CPacket
0x00022FF6	0x0000000A	[ 10] __ZN3CCC4initEv
0x00023000	0x0000000A	[ 10] __ZN3CCC5closeEv
0x0002300A	0x0000000E	[ 10] __ZN3CCC5onACKERKi
0x00023018	0x00000012	[ 10] __ZN3CCC6onLossEPKiRS0_
0x0002302A	0x0000000A	[ 10] __ZN3CCC9onTimeoutEv
0x00023034	0x0000000E	[ 10] __ZN3CCC9onPktSentEPK7CPacket
0x00023042	0x0000000E	[ 10] __ZN3CCC13onPktReceivedEPK7CPacket
0x00023050	0x0000000E	[ 10] __ZN3CCC16processCustomMsgEPK7CPacket
0x0002305E	0x00000038	[ 10] __ZN6CUDTCCD0Ev
0x00023096	0x00000037	[ 10] __ZN6CUDTCCD1Ev
0x000230CE	0x000000C2	[ 11] __ZNK7CIPCompclEPK10CInfoBlockS2_
0x00023190	0x0000002B	[ 11] __ZNK7CTSCompclEPK10CInfoBlockS2_
0x000231BB	0x00000117	[ 11] __ZStL17__verify_groupingPKcmRKSs
0x000232D2	0x00000070	[ 11] __ZN6CCache7convertEPK8sockaddrRKiPj
0x00023342	0x000000EE	[ 11] __ZN6CCache6lookupEPK8sockaddrRKiP10CInfoBlock
0x00023430	0x0000023C	[ 11] __ZN6CCache6updateEPK8sockaddrRKiP10CInfoBlock
0x0002366C	0x000000EC	[ 11] __ZN6CCacheD1Ev
0x00023758	0x000000EC	[ 11] __ZN6CCacheD2Ev
0x00023844	0x000000A4	[ 11] __ZN6CCacheC1ERKj
0x000238E8	0x000000A4	[ 11] __ZN6CCacheC2ERKj
0x0002398C	0x0000009E	[ 11] __ZN6CCacheC2Ev
0x00023A2A	0x00000026	[ 11] __ZNKSt23_Rb_tree_const_iteratorIP10CInfoBlockEneERKS2_
0x00023A50	0x00000016	[ 11] __ZNKSt23_Rb_tree_const_iteratorIP10CInfoBlockEdeEv
0x00023A66	0x00000026	[ 11] __ZNKSt23_Rb_tree_const_iteratorIP10CInfoBlockEeqERKS2_
0x00023A8C	0x0000001C	[ 11] __ZNSt23_Rb_tree_const_iteratorIP10CInfoBlockEC1ERKSt17_Rb_tree_iteratorIS1_E
0x00023AA8	0x0000000A	[ 11] __ZNSt14unary_functionIP10CInfoBlockS1_EC2Ev
0x00023AB2	0x00000018	[ 11] __ZNSt9_IdentityIP10CInfoBlockEC1Ev
0x00023ACA	0x0000002E	[ 11] __ZNSt4pairISt23_Rb_tree_const_iteratorIP10CInfoBlockEbEC1ERKS3_RKb
0x00023AF8	0x00000012	[ 11] __ZNKSt8_Rb_treeIP10CInfoBlockS1_St9_IdentityIS1_E7CTSCompSaIS1_EE4sizeEv
0x00023B0A	0x00000018	[ 11] __ZNKSt3setIP10CInfoBlock7CTSCompSaIS1_EE4sizeEv
0x00023B22	0x0000001A	[ 11] __ZNSt23_Rb_tree_const_iteratorIP10CInfoBlockEC1EPKSt13_Rb_tree_nodeIS1_E
0x00023B3C	0x00000026	[ 11] __ZNKSt8_Rb_treeIP10CInfoBlockS1_St9_IdentityIS1_E7CIPCompSaIS1_EE3endEv
0x00023B62	0x00000018	[ 11] __ZNKSt3setIP10CInfoBlock7CIPCompSaIS1_EE3endEv
0x00023B7A	0x00000026	[ 11] __ZNKSt8_Rb_treeIP10CInfoBlockS1_St9_IdentityIS1_E7CTSCompSaIS1_EE5beginEv
0x00023BA0	0x00000018	[ 11] __ZNKSt3setIP10CInfoBlock7CTSCompSaIS1_EE5beginEv
0x00023BB8	0x00000026	[ 11] __ZNKSt8_Rb_treeIP10CInfoBlockS1_St9_IdentityIS1_E7CTSCompSaIS1_EE3endEv
0x00023BDE	0x00000018	[ 11] __ZNKSt3setIP10CInfoBlock7CTSCompSaIS1_EE3endEv
0x00023BF6	0x00000012	[ 11] __ZNSt8_Rb_treeIP10CInfoBlockS1_St9_IdentityIS1_E7CIPCompSaIS1_EE6_M_endEv
0x00023C08	0x0000001A	[ 11] __ZNSt17_Rb_tree_iteratorIP10CInfoBlockEC1EPSt13_Rb_tree_nodeIS1_E
0x00023C22	0x00000026	[ 11] __ZNSt8_Rb_treeIP10CInfoBlockS1_St9_IdentityIS1_E7CIPCompSaIS1_EE3endEv
0x00023C48	0x00000026	[ 11] __ZNKSt17_Rb_tree_iteratorIP10CInfoBlockEeqERKS2_
0x00023C6E	0x00000012	[ 11] __ZNKSt9_IdentityIP10CInfoBlockEclERKS1_
0x00023C80	0x00000026	[ 11] __ZNSt8_Rb_treeIP10CInfoBlockS1_St9_IdentityIS1_E7CIPCompSaIS1_EE5beginEv
0x00023CA6	0x0000002E	[ 11] __ZNSt4pairISt17_Rb_tree_iteratorIP10CInfoBlockEbEC1ERKS3_RKb
0x00023CD4	0x00000012	[ 11] __ZNSt8_Rb_treeIP10CInfoBlockS1_St9_IdentityIS1_E7CTSCompSaIS1_EE6_M_endEv
0x00023CE6	0x00000026	[ 11] __ZNSt8_Rb_treeIP10CInfoBlockS1_St9_IdentityIS1_E7CTSCompSaIS1_EE5beginEv
0x00023D0C	0x00000012	[ 11] __ZNKSt8_Rb_treeIP10CInfoBlockS1_St9_IdentityIS1_E7CIPCompSaIS1_EE4sizeEv
0x00023D1E	0x00000012	[ 11] __ZNSt8_Rb_treeIP10CInfoBlockS1_St9_IdentityIS1_E7CIPCompSaIS1_EE8_S_valueEPKSt13_Rb_tree_nodeIS1_E
0x00023D30	0x00000035	[ 11] __ZNSt8_Rb_treeIP10CInfoBlockS1_St9_IdentityIS1_E7CIPCompSaIS1_EE6_S_keyEPKSt13_Rb_tree_nodeIS1_E
0x00023D65	0x00000012	[ 11] __ZNSt8_Rb_treeIP10CInfoBlockS1_St9_IdentityIS1_E7CIPCompSaIS1_EE8_S_valueEPKSt18_Rb_tree_node_base
0x00023D77	0x00000035	[ 11] __ZNSt8_Rb_treeIP10CInfoBlockS1_St9_IdentityIS1_E7CIPCompSaIS1_EE6_S_keyEPKSt18_Rb_tree_node_base
0x00023DAC	0x000000EC	[ 11] __ZNSt8_Rb_treeIP10CInfoBlockS1_St9_IdentityIS1_E7CIPCompSaIS1_EE4findERKS1_
0x00023E98	0x00000034	[ 11] __ZNSt3setIP10CInfoBlock7CIPCompSaIS1_EE4findERKS1_
0x00023ECC	0x00000030	[ 11] __ZNSt4pairISt17_Rb_tree_iteratorIP10CInfoBlockES3_EC1ERKS3_S6_
0x00023EFC	0x00000026	[ 11] __ZNSt8_Rb_treeIP10CInfoBlockS1_St9_IdentityIS1_E7CTSCompSaIS1_EE3endEv
0x00023F22	0x00000025	[ 11] __ZNKSt17_Rb_tree_iteratorIP10CInfoBlockEneERKS2_
0x00023F47	0x00000012	[ 11] __ZNSt8_Rb_treeIP10CInfoBlockS1_St9_IdentityIS1_E7CTSCompSaIS1_EE8_S_valueEPKSt13_Rb_tree_nodeIS1_E
0x00023F59	0x00000035	[ 11] __ZNSt8_Rb_treeIP10CInfoBlockS1_St9_IdentityIS1_E7CTSCompSaIS1_EE6_S_keyEPKSt13_Rb_tree_nodeIS1_E
0x00023F8E	0x0000008A	[ 11] __ZNSt8_Rb_treeIP10CInfoBlockS1_St9_IdentityIS1_E7CTSCompSaIS1_EE11upper_boundERKS1_
0x00024018	0x00000096	[ 11] __ZNSt8_Rb_treeIP10CInfoBlockS1_St9_IdentityIS1_E7CTSCompSaIS1_EE11lower_boundERKS1_
0x000240AE	0x0000005D	[ 11] __ZNSt8_Rb_treeIP10CInfoBlockS1_St9_IdentityIS1_E7CTSCompSaIS1_EE11equal_rangeERKS1_
0x0002410B	0x00000012	[ 11] __ZNSt8_Rb_treeIP10CInfoBlockS1_St9_IdentityIS1_E7CTSCompSaIS1_EE8_S_valueEPKSt18_Rb_tree_node_base
0x0002411D	0x00000035	[ 11] __ZNSt8_Rb_treeIP10CInfoBlockS1_St9_IdentityIS1_E7CTSCompSaIS1_EE6_S_keyEPKSt18_Rb_tree_node_base
0x00024152	0x00000096	[ 11] __ZNSt8_Rb_treeIP10CInfoBlockS1_St9_IdentityIS1_E7CIPCompSaIS1_EE11lower_boundERKS1_
0x000241E8	0x0000008A	[ 11] __ZNSt8_Rb_treeIP10CInfoBlockS1_St9_IdentityIS1_E7CIPCompSaIS1_EE11upper_boundERKS1_
0x00024272	0x0000005E	[ 11] __ZNSt8_Rb_treeIP10CInfoBlockS1_St9_IdentityIS1_E7CIPCompSaIS1_EE11equal_rangeERKS1_
0x000242D0	0x00000012	[ 11] __ZNSt8_Rb_treeIP10CInfoBlockS1_St9_IdentityIS1_E7CTSCompSaIS1_EE11_M_leftmostEv
0x000242E2	0x00000012	[ 11] __ZNSt8_Rb_treeIP10CInfoBlockS1_St9_IdentityIS1_E7CTSCompSaIS1_EE7_M_rootEv
0x000242F4	0x00000012	[ 11] __ZNSt8_Rb_treeIP10CInfoBlockS1_St9_IdentityIS1_E7CTSCompSaIS1_EE12_M_rightmostEv
0x00024306	0x0000003E	[ 11] __ZN9__gnu_cxx13new_allocatorIP10CInfoBlockE9constructEPS2_RKS2_
0x00024344	0x00000012	[ 11] __ZNSt8_Rb_treeIP10CInfoBlockS1_St9_IdentityIS1_E7CIPCompSaIS1_EE11_M_leftmostEv
0x00024356	0x00000012	[ 11] __ZNSt8_Rb_treeIP10CInfoBlockS1_St9_IdentityIS1_E7CIPCompSaIS1_EE7_M_rootEv
0x00024368	0x00000012	[ 11] __ZNSt8_Rb_treeIP10CInfoBlockS1_St9_IdentityIS1_E7CIPCompSaIS1_EE12_M_rightmostEv
0x0002437A	0x00000014	[ 11] __ZNK9__gnu_cxx13new_allocatorISt13_Rb_tree_nodeIP10CInfoBlockEE8max_sizeEv
0x0002438E	0x00000076	[ 11] __ZNSt8_Rb_treeIP10CInfoBlockS1_St9_IdentityIS1_E7CTSCompSaIS1_EE5clearEv
0x00024404	0x00000076	[ 11] __ZNSt8_Rb_treeIP10CInfoBlockS1_St9_IdentityIS1_E7CIPCompSaIS1_EE5clearEv
0x0002447A	0x00000036	[ 11] __ZNSt17_Rb_tree_iteratorIP10CInfoBlockEppEi
0x000244B0	0x00000048	[ 11] __ZNSt8_Rb_treeIP10CInfoBlockS1_St9_IdentityIS1_E7CTSCompSaIS1_EE5eraseESt17_Rb_tree_iteratorIS1_E
0x000244F8	0x000000A0	[ 11] __ZNSt8_Rb_treeIP10CInfoBlockS1_St9_IdentityIS1_E7CTSCompSaIS1_EE5eraseESt17_Rb_tree_iteratorIS1_ES8_
0x00024598	0x00000068	[ 11] __ZNSt8_Rb_treeIP10CInfoBlockS1_St9_IdentityIS1_E7CTSCompSaIS1_EE5eraseERKS1_
0x00024600	0x00000020	[ 11] __ZNSt3setIP10CInfoBlock7CTSCompSaIS1_EE5eraseERKS1_
0x00024620	0x0000004C	[ 11] __ZNSt8_Rb_treeIP10CInfoBlockS1_St9_IdentityIS1_E7CIPCompSaIS1_EE5eraseESt23_Rb_tree_const_iteratorIS1_E
0x0002466C	0x00000020	[ 11] __ZNSt3setIP10CInfoBlock7CIPCompSaIS1_EE5eraseESt23_Rb_tree_const_iteratorIS1_E
0x0002468C	0x00000048	[ 11] __ZNSt8_Rb_treeIP10CInfoBlockS1_St9_IdentityIS1_E7CIPCompSaIS1_EE5eraseESt17_Rb_tree_iteratorIS1_E
0x000246D4	0x000000A0	[ 11] __ZNSt8_Rb_treeIP10CInfoBlockS1_St9_IdentityIS1_E7CIPCompSaIS1_EE5eraseESt17_Rb_tree_iteratorIS1_ES8_
0x00024774	0x00000068	[ 11] __ZNSt8_Rb_treeIP10CInfoBlockS1_St9_IdentityIS1_E7CIPCompSaIS1_EE5eraseERKS1_
0x000247DC	0x00000020	[ 11] __ZNSt3setIP10CInfoBlock7CIPCompSaIS1_EE5eraseERKS1_
0x000247FC	0x0000004C	[ 11] __ZNSt8_Rb_treeIP10CInfoBlockS1_St9_IdentityIS1_E7CTSCompSaIS1_EE5eraseESt23_Rb_tree_const_iteratorIS1_E
0x00024848	0x00000020	[ 11] __ZNSt3setIP10CInfoBlock7CTSCompSaIS1_EE5eraseESt23_Rb_tree_const_iteratorIS1_E
0x00024868	0x00000028	[ 11] __ZNSt17_Rb_tree_iteratorIP10CInfoBlockEmmEv
0x00024890	0x00000052	[ 11] __ZN9__gnu_cxx13new_allocatorISt13_Rb_tree_nodeIP10CInfoBlockEE8allocateEmPKv
0x000248E2	0x00000024	[ 11] __ZNSt8_Rb_treeIP10CInfoBlockS1_St9_IdentityIS1_E7CIPCompSaIS1_EE11_M_get_nodeEv
0x00024906	0x00000058	[ 11] __ZNSt8_Rb_treeIP10CInfoBlockS1_St9_IdentityIS1_E7CIPCompSaIS1_EE14_M_create_nodeERKS1_
0x0002495E	0x000000CC	[ 11] __ZNSt8_Rb_treeIP10CInfoBlockS1_St9_IdentityIS1_E7CIPCompSaIS1_EE9_M_insertEPSt18_Rb_tree_node_baseS8_RKS1_
0x00024A2A	0x00000218	[ 11] __ZNSt8_Rb_treeIP10CInfoBlockS1_St9_IdentityIS1_E7CIPCompSaIS1_EE16_M_insert_uniqueERKS1_
0x00024C42	0x00000070	[ 11] __ZNSt3setIP10CInfoBlock7CIPCompSaIS1_EE6insertERKS1_
0x00024CB2	0x00000024	[ 11] __ZNSt8_Rb_treeIP10CInfoBlockS1_St9_IdentityIS1_E7CTSCompSaIS1_EE11_M_get_nodeEv
0x00024CD6	0x00000058	[ 11] __ZNSt8_Rb_treeIP10CInfoBlockS1_St9_IdentityIS1_E7CTSCompSaIS1_EE14_M_create_nodeERKS1_
0x00024D2E	0x000000CC	[ 11] __ZNSt8_Rb_treeIP10CInfoBlockS1_St9_IdentityIS1_E7CTSCompSaIS1_EE9_M_insertEPSt18_Rb_tree_node_baseS8_RKS1_
0x00024DFA	0x00000218	[ 11] __ZNSt8_Rb_treeIP10CInfoBlockS1_St9_IdentityIS1_E7CTSCompSaIS1_EE16_M_insert_uniqueERKS1_
0x00025012	0x00000070	[ 11] __ZNSt3setIP10CInfoBlock7CTSCompSaIS1_EE6insertERKS1_
0x00025082	0x00000028	[ 11] __ZNSt23_Rb_tree_const_iteratorIP10CInfoBlockEppEv
0x000250AA	0x0000007E	[ 12] __ZN10CSndBuffer8readDataEPPcRi
0x00025128	0x00000012	[ 12] __ZNK10CSndBuffer14getCurrBufSizeEv
0x0002513A	0x000000AA	[ 12] __ZN10CRcvBuffer7addDataEP5CUniti
0x000251E4	0x00000054	[ 12] __ZNK10CRcvBuffer14getRcvDataSizeEv
0x00025238	0x0000002C	[ 12] __ZNK10CRcvBuffer15getAvailBufSizeEv
0x00025264	0x000000C2	[ 12] __ZN10CRcvBuffer7dropMsgERKi
0x00025326	0x00000118	[ 12] __ZStL17__verify_groupingPKcmRKSs
0x0002543E	0x00000496	[ 12] __ZN10CRcvBuffer7scanMsgERiS0_Rb
0x000258D4	0x0000003A	[ 12] __ZN10CRcvBuffer12getRcvMsgNumEv
0x0002590E	0x000001C0	[ 12] __ZN10CRcvBuffer7readMsgEPcRKi
0x00025ACE	0x000001C2	[ 12] __ZN10CRcvBuffer10readBufferEPcRKi
0x00025C90	0x0000006A	[ 12] __ZN10CRcvBuffer7ackDataERKi
0x00025CFA	0x000001E0	[ 12] __ZN10CRcvBuffer16readBufferToFileERSt13basic_fstreamIcSt11char_traitsIcEERKi
0x00025EDA	0x00000088	[ 12] __ZN10CRcvBufferD1Ev
0x00025F62	0x00000088	[ 12] __ZN10CRcvBufferD2Ev
0x00025FEA	0x000000BA	[ 12] __ZN10CRcvBufferC1ERKiP10CUnitQueue
0x000260A4	0x000000BA	[ 12] __ZN10CRcvBufferC2ERKiP10CUnitQueue
0x0002615E	0x00000080	[ 12] __ZN10CRcvBufferC1EP10CUnitQueue
0x000261DE	0x00000080	[ 12] __ZN10CRcvBufferC2EP10CUnitQueue
0x0002625E	0x00000288	[ 12] __ZN10CSndBuffer8increaseEv
0x000264E6	0x00000094	[ 12] __ZN10CSndBuffer7ackDataERKi
0x0002657A	0x000001BA	[ 12] __ZN10CSndBuffer8readDataEPPciRiS2_
0x00026734	0x000001CA	[ 12] __ZN10CSndBuffer17addBufferFromFileERSt13basic_fstreamIcSt11char_traitsIcEERKi
0x000268FE	0x000001EE	[ 12] __ZN10CSndBuffer9addBufferEPKcRKiS3_RKb
0x00026AEC	0x000000B2	[ 12] __ZN10CSndBufferD1Ev
0x00026B9E	0x000000B2	[ 12] __ZN10CSndBufferD2Ev
0x00026C50	0x00000208	[ 12] __ZN10CSndBufferC1ERKiS1_
0x00026E58	0x00000207	[ 12] __ZN10CSndBufferC2ERKiS1_
0x00027060	0x00000020	[ 13] __ZL12_OSSwapInt16t
0x00027080	0x00000118	[ 13] __ZStL17__verify_groupingPKcmRKSs
0x00027198	0x000000A0	[ 13] __ZN10CUDTUnited6locateEi
0x00027238	0x0000009A	[ 13] __ZN10CUDTUnited9getStatusEi
0x000272D2	0x00000164	[ 13] __ZN10CUDTUnited9updateMuxEP10CUDTSocketPKS0_
0x00027436	0x00000728	[ 13] __ZN10CUDTUnited9updateMuxEP10CUDTSocketPK8sockaddrPKi
0x00027B5E	0x00000098	[ 13] __ZN10CUDTUnited8getErrorEv
0x00027BF6	0x00000012	[ 13] __ZN4CUDT12getlasterrorEv
0x00027C08	0x0000000C	[ 13] __ZN3UDT12getlasterrorEv
0x00027C14	0x00000056	[ 13] __ZN10CUDTUnited8setErrorEP13CUDTException
0x00027C6A	0x000001DE	[ 13] __ZN10CUDTUnited6locateEiPK8sockaddrRKiS4_
0x00027E48	0x00000024	[ 13] __ZN10CUDTUnited13epoll_releaseEi
0x00027E6C	0x0000019A	[ 13] __ZN4CUDT13epoll_releaseEi
0x00028006	0x00000016	[ 13] __ZN3UDT13epoll_releaseEi
0x0002801C	0x00000060	[ 13] __ZN10CUDTUnited10epoll_waitEiPSt3setIiSt4lessIiESaIiEES5_xS5_S5_
0x0002807C	0x00000245	[ 13] __ZN4CUDT10epoll_waitEiPSt3setIiSt4lessIiESaIiEES5_xS5_S5_
0x000282C1	0x0000004D	[ 13] __ZN3UDT10epoll_waitEiPSt3setIiSt4lessIiESaIiEES5_xS5_S5_
0x0002830E	0x00000034	[ 13] __ZN10CUDTUnited18epoll_remove_ssockEiiPKi
0x00028342	0x000001A8	[ 13] __ZN4CUDT18epoll_remove_ssockEiiPKi
0x000284EA	0x000000C6	[ 13] __ZN10CUDTUnited18epoll_remove_usockEiiPKi
0x000285B0	0x000001A8	[ 13] __ZN4CUDT18epoll_remove_usockEiiPKi
0x00028758	0x00000023	[ 13] __ZN3UDT18epoll_remove_ssockEiiPKi
0x0002877B	0x00000023	[ 13] __ZN3UDT18epoll_remove_usockEiiPKi
0x0002879E	0x00000116	[ 13] __ZN10CUDTUnited6lookupEi
0x000288B4	0x0000003C	[ 13] __ZN4CUDT12getUDTHandleEi
0x000288F0	0x0000021D	[ 13] __ZN4CUDT7perfmonEiP8CPerfMonb
0x00028B0D	0x00000025	[ 13] __ZN3UDT7perfmonEiP8CPerfMonb
0x00028B32	0x00000247	[ 13] __ZN4CUDT8recvfileEiRSt13basic_fstreamIcSt11char_traitsIcEERxRKxRKi
0x00028D79	0x00000039	[ 13] __ZN3UDT8recvfileEiRSt13basic_fstreamIcSt11char_traitsIcEERxxi
0x00028DB2	0x0000030B	[ 13] __ZN4CUDT8sendfileEiRSt13basic_fstreamIcSt11char_traitsIcEERxRKxRKi
0x000290BD	0x00000039	[ 13] __ZN3UDT8sendfileEiRSt13basic_fstreamIcSt11char_traitsIcEERxxi
0x000290F6	0x00000219	[ 13] __ZN4CUDT7recvmsgEiPci
0x0002930F	0x00000023	[ 13] __ZN3UDT7recvmsgEiPci
0x00029332	0x000002F4	[ 13] __ZN4CUDT7sendmsgEiPKciib
0x00029626	0x00000036	[ 13] __ZN3UDT7sendmsgEiPKciib
0x0002965C	0x0000021C	[ 13] __ZN4CUDT4recvEiPcii
0x00029878	0x0000002A	[ 13] __ZN3UDT4recvEiPcii
0x000298A2	0x000002DD	[ 13] __ZN4CUDT4sendEiPKcii
0x00029B7F	0x00000029	[ 13] __ZN3UDT4sendEiPKcii
0x00029BA8	0x00000233	[ 13] __ZN4CUDT10setsockoptEii6UDTOptPKvi
0x00029DDB	0x00000033	[ 13] __ZN3UDT10setsockoptEii6UDTOptPKvi
0x00029E0E	0x00000233	[ 13] __ZN4CUDT10getsockoptEii6UDTOptPvPi
0x0002A041	0x00000035	[ 13] __ZN3UDT10getsockoptEii6UDTOptPvPi
0x0002A076	0x00000034	[ 13] __ZN10CUDTUnited15epoll_add_ssockEiiPKi
0x0002A0AA	0x000001A8	[ 13] __ZN4CUDT15epoll_add_ssockEiiPKi
0x0002A252	0x00000024	[ 13] __ZN3UDT15epoll_add_ssockEiiPKi
0x0002A276	0x000000C6	[ 13] __ZN10CUDTUnited15epoll_add_usockEiiPKi
0x0002A33C	0x000001A8	[ 13] __ZN4CUDT15epoll_add_usockEiiPKi
0x0002A4E4	0x00000024	[ 13] __ZN3UDT15epoll_add_usockEiiPKi
0x0002A508	0x0000001E	[ 13] __ZN10CUDTUnited12epoll_createEv
0x0002A526	0x00000194	[ 13] __ZN4CUDT12epoll_createEv
0x0002A6BA	0x0000000C	[ 13] __ZN3UDT12epoll_createEv
0x0002A6C6	0x00000268	[ 13] __ZN10CUDTUnited8selectExERKSt6vectorIiSaIiEEPS2_S5_S5_x
0x0002A92E	0x0000039F	[ 13] __ZN4CUDT8selectExERKSt6vectorIiSaIiEEPS2_S5_S5_x
0x0002ACCD	0x0000003B	[ 13] __ZN3UDT8selectExERKSt6vectorIiSaIiEEPS2_S5_S5_x
0x0002AD08	0x00000A22	[ 13] __ZN10CUDTUnited6selectEPSt3setIiSt4lessIiESaIiEES5_S5_PK7timeval
0x0002B72A	0x00000391	[ 13] __ZN4CUDT6selectEiPSt3setIiSt4lessIiESaIiEES5_S5_PK7timeval
0x0002BABB	0x00000039	[ 13] __ZN3UDT6selectEiPSt3setIiSt4lessIiESaIiEES5_S5_PK7timeval
0x0002BAF4	0x000001AC	[ 13] __ZN10CUDTUnited11getsocknameEiP8sockaddrPi
0x0002BCA0	0x000001BC	[ 13] __ZN4CUDT11getsocknameEiP8sockaddrPi
0x0002BE5C	0x00000026	[ 13] __ZN3UDT11getsocknameEiP8sockaddrPi
0x0002BE82	0x000001DC	[ 13] __ZN10CUDTUnited11getpeernameEiP8sockaddrPi
0x0002C05E	0x000001BC	[ 13] __ZN4CUDT11getpeernameEiP8sockaddrPi
0x0002C21A	0x00000026	[ 13] __ZN3UDT11getpeernameEiP8sockaddrPi
0x0002C240	0x000002A0	[ 13] __ZN10CUDTUnited5closeEi
0x0002C4E0	0x0000019A	[ 13] __ZN4CUDT5closeEi
0x0002C67A	0x00000016	[ 13] __ZN3UDT5closeEi
0x0002C690	0x00000232	[ 13] __ZN10CUDTUnited4bindEiPK8sockaddrRKi
0x0002C8C2	0x000001ED	[ 13] __ZN4CUDT4bindEiPK8sockaddri
0x0002CAAF	0x00000023	[ 13] __ZN3UDT4bindEiPK8sockaddri
0x0002CAD2	0x0000035A	[ 13] __ZN10CUDTUnited7connectEiPK8sockaddrRKi
0x0002CE2C	0x000002CD	[ 13] __ZN4CUDT7connectEiPK8sockaddri
0x0002D0F9	0x00000023	[ 13] __ZN3UDT7connectEiPK8sockaddri
0x0002D11C	0x000004D0	[ 13] __ZN10CUDTUnited6acceptEiP8sockaddrPi
0x0002D5EC	0x00000152	[ 13] __ZN4CUDT6acceptEiP8sockaddrPi
0x0002D73E	0x00000026	[ 13] __ZN3UDT6acceptEiP8sockaddrPi
0x0002D764	0x000002FC	[ 13] __ZN10CUDTUnited6listenEiRKi
0x0002DA60	0x000001E5	[ 13] __ZN4CUDT6listenEii
0x0002DC45	0x0000001B	[ 13] __ZN3UDT6listenEii
0x0002DC60	0x00000260	[ 13] __ZN10CUDTUnited4bindEii
0x0002DEC0	0x000001E4	[ 13] __ZN4CUDT4bindEii
0x0002E0A4	0x0000001C	[ 13] __ZN3UDT4bindEii
0x0002E0C0	0x0000010A	[ 13] __ZN10CUDTUnited7cleanupEv
0x0002E1CA	0x00000012	[ 13] __ZN4CUDT7cleanupEv
0x0002E1DC	0x0000000C	[ 13] __ZN3UDT7cleanupEv
0x0002E1E8	0x00000110	[ 13] __ZN10CUDTSocketC1Ev
0x0002E2F8	0x00000110	[ 13] __ZN10CUDTSocketC2Ev
0x0002E408	0x00000102	[ 13] __ZN10CUDTUnited7startupEv
0x0002E50A	0x00000012	[ 13] __ZN4CUDT7startupEv
0x0002E51C	0x0000000C	[ 13] __ZN3UDT7startupEv
0x0002E528	0x000001A8	[ 13] __ZN10CUDTUnitedD1Ev
0x0002E6D0	0x000001A8	[ 13] __ZN10CUDTUnitedD2Ev
0x0002E878	0x000002BE	[ 13] __ZN10CUDTUnitedC2Ev
0x0002EB36	0x000000E6	[ 13] __ZN10CUDTSocketD1Ev
0x0002EC1C	0x000004AE	[ 13] __ZN10CUDTUnited12removeSocketEi
0x0002F0CA	0x0000054C	[ 13] __ZN10CUDTUnited18checkBrokenSocketsEv
0x0002F616	0x000003B6	[ 13] __ZN10CUDTUnited14garbageCollectEPv
0x0002F9CC	0x00000648	[ 13] __ZN10CUDTUnited13newConnectionEiPK8sockaddrP10CHandShake
0x00030014	0x0000044C	[ 13] __ZN10CUDTUnited9newSocketERKiS1_
0x00030460	0x0000020A	[ 13] __ZN4CUDT6socketEiii
0x0003066A	0x00000022	[ 13] __ZN3UDT6socketEiii
0x0003068C	0x000000E5	[ 13] __ZN10CUDTSocketD2Ev
0x00030772	0x00000032	[ 13] __ZN10CUDTUnited10TLSDestroyEPv
0x000307A4	0x00000026	[ 13] __ZNKSt17_Rb_tree_iteratorISt4pairIKiP10CUDTSocketEEeqERKS5_
0x000307CA	0x00000016	[ 13] __ZNKSt17_Rb_tree_iteratorISt4pairIKiP10CUDTSocketEEptEv
0x000307E0	0x0000002E	[ 13] __ZNSt4pairIiP10CUDTSocketEC1ERKiRKS1_
0x0003080E	0x0000002A	[ 13] __ZNSt4pairIKiP10CUDTSocketEC1IiS2_EERKS_IT_T0_E
0x00030838	0x00000020	[ 13] __ZN9__gnu_cxx17__normal_iteratorIPP10CUDTSocketSt6vectorIS2_SaIS2_EEEppEv
0x00030858	0x00000012	[ 13] __ZNK9__gnu_cxx17__normal_iteratorIPP10CUDTSocketSt6vectorIS2_SaIS2_EEEdeEv
0x0003086A	0x00000020	[ 13] __ZN9__gnu_cxx17__normal_iteratorIPKiSt6vectorIiSaIiEEEppEv
0x0003088A	0x00000012	[ 13] __ZNK9__gnu_cxx17__normal_iteratorIPKiSt6vectorIiSaIiEEEdeEv
0x0003089C	0x00000026	[ 13] __ZNKSt17_Rb_tree_iteratorISt4pairIKxSt3setIiSt4lessIiESaIiEEEEeqERKS8_
0x000308C2	0x00000016	[ 13] __ZNKSt17_Rb_tree_iteratorISt4pairIKxSt3setIiSt4lessIiESaIiEEEEptEv
0x000308D8	0x00000026	[ 13] __ZNKSt17_Rb_tree_iteratorISt4pairIKiP10CUDTSocketEEneERKS5_
0x000308FE	0x00000026	[ 13] __ZNKSt17_Rb_tree_iteratorISt4pairIKxSt3setIiSt4lessIiESaIiEEEEneERKS8_
0x00030924	0x00000016	[ 13] __ZNSt17_Rb_tree_iteratorISt4pairIKi12CMultiplexerEEC1Ev
0x0003093A	0x00000026	[ 13] __ZNKSt17_Rb_tree_iteratorISt4pairIKi12CMultiplexerEEeqERKS4_
0x00030960	0x00000016	[ 13] __ZNKSt17_Rb_tree_iteratorISt4pairIKi12CMultiplexerEEptEv
0x00030976	0x00000026	[ 13] __ZNKSt17_Rb_tree_iteratorISt4pairIKi12CMultiplexerEEneERKS4_
0x0003099C	0x00000016	[ 13] __ZNKSt17_Rb_tree_iteratorISt4pairIKiP10CUDTSocketEEdeEv
0x000309B2	0x0000002E	[ 13] __ZNSt4pairIKiP10CUDTSocketEC1ERS0_RKS2_
0x000309E0	0x00000016	[ 13] __ZNKSt17_Rb_tree_iteratorISt4pairIKxSt3setIiSt4lessIiESaIiEEEEdeEv
0x000309F6	0x0000002A	[ 13] __ZNKSt4lessIxEclERKxS2_
0x00030A20	0x0000000A	[ 13] __ZNSt14unary_functionISt4pairIKiP10CUDTSocketES1_EC2Ev
0x00030A2A	0x00000018	[ 13] __ZNSt10_Select1stISt4pairIKiP10CUDTSocketEEC1Ev
0x00030A42	0x0000000A	[ 13] __ZN9__gnu_cxx13new_allocatorIP10CUDTSocketEC2Ev
0x00030A4C	0x00000018	[ 13] __ZNSaIP10CUDTSocketEC1Ev
0x00030A64	0x0000000A	[ 13] __ZN9__gnu_cxx13new_allocatorIP10CUDTSocketED2Ev
0x00030A6E	0x00000018	[ 13] __ZNSaIP10CUDTSocketED1Ev
0x00030A86	0x00000018	[ 13] __ZNSaIP10CUDTSocketED2Ev
0x00030A9E	0x0000000E	[ 13] __ZN9__gnu_cxx13new_allocatorIP10CUDTSocketEC2ERKS3_
0x00030AAC	0x00000020	[ 13] __ZNSaIP10CUDTSocketEC2ERKS1_
0x00030ACC	0x00000020	[ 13] __ZNSaIP10CUDTSocketEC1ERKS1_
0x00030AEC	0x00000018	[ 13] __ZNSt12_Vector_baseIP10CUDTSocketSaIS1_EE12_Vector_implD1Ev
0x00030B04	0x0000000E	[ 13] __ZNSt12_Vector_baseIP10CUDTSocketSaIS1_EE19_M_get_Tp_allocatorEv
0x00030B12	0x0000001C	[ 13] __ZN9__gnu_cxx17__normal_iteratorIPP10CUDTSocketSt6vectorIS2_SaIS2_EEEC1ERKS3_
0x00030B2E	0x00000020	[ 13] __ZNSt6vectorIP10CUDTSocketSaIS1_EE5beginEv
0x00030B4E	0x00000024	[ 13] __ZNSt6vectorIP10CUDTSocketSaIS1_EE3endEv
0x00030B72	0x0000003E	[ 13] __ZN9__gnu_cxx13new_allocatorIP10CUDTSocketE9constructEPS2_RKS2_
0x00030BB0	0x0000000E	[ 13] __ZNK9__gnu_cxx17__normal_iteratorIPP10CUDTSocketSt6vectorIS2_SaIS2_EEE4baseEv
0x00030BBE	0x00000040	[ 13] __ZN9__gnu_cxxmiIPP10CUDTSocketSt6vectorIS2_SaIS2_EEEENS_17__normal_iteratorIT_T0_E15difference_typeERKSA_SD_
0x00030BFE	0x00000039	[ 13] __ZN9__gnu_cxxeqIPP10CUDTSocketSt6vectorIS2_SaIS2_EEEEbRKNS_17__normal_iteratorIT_T0_EESC_
0x00030C37	0x00000039	[ 13] __ZN9__gnu_cxxneIPP10CUDTSocketSt6vectorIS2_SaIS2_EEEEbRKNS_17__normal_iteratorIT_T0_EESC_
0x00030C70	0x0000001C	[ 13] __ZN9__gnu_cxx17__normal_iteratorIPKiSt6vectorIiSaIiEEEC1ERKS2_
0x00030C8C	0x0000002A	[ 13] __ZNKSt6vectorIiSaIiEE5beginEv
0x00030CB6	0x0000002C	[ 13] __ZNKSt6vectorIiSaIiEE3endEv
0x00030CE2	0x0000000E	[ 13] __ZNK9__gnu_cxx17__normal_iteratorIPKiSt6vectorIiSaIiEEE4baseEv
0x00030CF0	0x0000003A	[ 13] __ZN9__gnu_cxxneIPKiSt6vectorIiSaIiEEEEbRKNS_17__normal_iteratorIT_T0_EESB_
0x00030D2A	0x00000016	[ 13] __ZNKSt17_Rb_tree_iteratorISt4pairIKi12CMultiplexerEEdeEv
0x00030D40	0x0000005E	[ 13] __ZNSt4pairIKi12CMultiplexerEC1ERS0_RKS1_
0x00030D9E	0x0000001C	[ 13] __ZNKSt8_Rb_treeIiSt4pairIKiP10CUDTSocketESt10_Select1stIS4_ESt4lessIiESaIS4_EE5emptyEv
0x00030DBA	0x0000001A	[ 13] __ZNKSt3mapIiP10CUDTSocketSt4lessIiESaISt4pairIKiS1_EEE5emptyEv
0x00030DD4	0x0000000E	[ 13] __ZNKSt8_Rb_treeIiSt4pairIKiP10CUDTSocketESt10_Select1stIS4_ESt4lessIiESaIS4_EE8key_compEv
0x00030DE2	0x0000001C	[ 13] __ZNKSt3mapIiP10CUDTSocketSt4lessIiESaISt4pairIKiS1_EEE8key_compEv
0x00030DFE	0x0000000E	[ 13] __ZNKSt8_Rb_treeIxSt4pairIKxSt3setIiSt4lessIiESaIiEEESt10_Select1stIS7_ES3_IxESaIS7_EE8key_compEv
0x00030E0C	0x0000001C	[ 13] __ZNKSt3mapIxSt3setIiSt4lessIiESaIiEES1_IxESaISt4pairIKxS4_EEE8key_compEv
0x00030E28	0x0000000A	[ 13] __ZNSt14unary_functionISt4pairIKxSt3setIiSt4lessIiESaIiEEES1_EC2Ev
0x00030E32	0x00000018	[ 13] __ZNSt10_Select1stISt4pairIKxSt3setIiSt4lessIiESaIiEEEEC1Ev
0x00030E4A	0x00000012	[ 13] __ZNSt8_Rb_treeIiSt4pairIKiP10CUDTSocketESt10_Select1stIS4_ESt4lessIiESaIS4_EE6_M_endEv
0x00030E5C	0x0000001A	[ 13] __ZNSt17_Rb_tree_iteratorISt4pairIKiP10CUDTSocketEEC1EPSt13_Rb_tree_nodeIS4_E
0x00030E76	0x00000026	[ 13] __ZNSt8_Rb_treeIiSt4pairIKiP10CUDTSocketESt10_Select1stIS4_ESt4lessIiESaIS4_EE5beginEv
0x00030E9C	0x00000018	[ 13] __ZNSt3mapIiP10CUDTSocketSt4lessIiESaISt4pairIKiS1_EEE5beginEv
0x00030EB4	0x00000026	[ 13] __ZNSt8_Rb_treeIiSt4pairIKiP10CUDTSocketESt10_Select1stIS4_ESt4lessIiESaIS4_EE3endEv
0x00030EDA	0x00000018	[ 13] __ZNSt3mapIiP10CUDTSocketSt4lessIiESaISt4pairIKiS1_EEE3endEv
0x00030EF2	0x00000012	[ 13] __ZNKSt8_Rb_treeIiSt4pairIKiP10CUDTSocketESt10_Select1stIS4_ESt4lessIiESaIS4_EE4sizeEv
0x00030F04	0x00000012	[ 13] __ZNKSt10_Select1stISt4pairIKiP10CUDTSocketEEclERKS4_
0x00030F16	0x0000002E	[ 13] __ZNSt4pairISt17_Rb_tree_iteratorIS_IKiP10CUDTSocketEEbEC1ERKS5_RKb
0x00030F44	0x00000042	[ 13] __ZNSt12_Vector_baseIP10CUDTSocketSaIS1_EE12_Vector_implC1ERKS2_
0x00030F86	0x00000020	[ 13] __ZNSt12_Vector_baseIP10CUDTSocketSaIS1_EEC2ERKS2_
0x00030FA6	0x00000020	[ 13] __ZNSt6vectorIP10CUDTSocketSaIS1_EEC1ERKS2_
0x00030FC6	0x0000002A	[ 13] __ZNKSt6vectorIP10CUDTSocketSaIS1_EE4sizeEv
0x00030FF0	0x00000012	[ 13] __ZNSt8_Rb_treeIxSt4pairIKxSt3setIiSt4lessIiESaIiEEESt10_Select1stIS7_ES3_IxESaIS7_EE6_M_endEv
0x00031002	0x0000001A	[ 13] __ZNSt17_Rb_tree_iteratorISt4pairIKxSt3setIiSt4lessIiESaIiEEEEC1EPSt13_Rb_tree_nodeIS7_E
0x0003101C	0x00000026	[ 13] __ZNSt8_Rb_treeIxSt4pairIKxSt3setIiSt4lessIiESaIiEEESt10_Select1stIS7_ES3_IxESaIS7_EE3endEv
0x00031042	0x00000018	[ 13] __ZNSt3mapIxSt3setIiSt4lessIiESaIiEES1_IxESaISt4pairIKxS4_EEE3endEv
0x0003105A	0x00000012	[ 13] __ZNSt8_Rb_treeIiSt4pairIKi12CMultiplexerESt10_Select1stIS3_ESt4lessIiESaIS3_EE6_M_endEv
0x0003106C	0x0000000A	[ 13] __ZNSt14unary_functionISt4pairIKi12CMultiplexerES1_EC2Ev
0x00031076	0x00000018	[ 13] __ZNSt10_Select1stISt4pairIKi12CMultiplexerEEC1Ev
0x0003108E	0x0000001A	[ 13] __ZNSt17_Rb_tree_iteratorISt4pairIKi12CMultiplexerEEC1EPSt13_Rb_tree_nodeIS3_E
0x000310A8	0x00000026	[ 13] __ZNSt8_Rb_treeIiSt4pairIKi12CMultiplexerESt10_Select1stIS3_ESt4lessIiESaIS3_EE5beginEv
0x000310CE	0x00000018	[ 13] __ZNSt3mapIi12CMultiplexerSt4lessIiESaISt4pairIKiS0_EEE5beginEv
0x000310E6	0x00000026	[ 13] __ZNSt8_Rb_treeIiSt4pairIKi12CMultiplexerESt10_Select1stIS3_ESt4lessIiESaIS3_EE3endEv
0x0003110C	0x00000018	[ 13] __ZNSt3mapIi12CMultiplexerSt4lessIiESaISt4pairIKiS0_EEE3endEv
0x00031124	0x0000000E	[ 13] __ZNKSt8_Rb_treeIiSt4pairIKi12CMultiplexerESt10_Select1stIS3_ESt4lessIiESaIS3_EE8key_compEv
0x00031132	0x0000001C	[ 13] __ZNKSt3mapIi12CMultiplexerSt4lessIiESaISt4pairIKiS0_EEE8key_compEv
0x0003114E	0x00000012	[ 13] __ZNSt8_Rb_treeIiSt4pairIKiP10CUDTSocketESt10_Select1stIS4_ESt4lessIiESaIS4_EE11_M_leftmostEv
0x00031160	0x00000012	[ 13] __ZNSt8_Rb_treeIiSt4pairIKiP10CUDTSocketESt10_Select1stIS4_ESt4lessIiESaIS4_EE7_M_rootEv
0x00031172	0x00000012	[ 13] __ZNSt8_Rb_treeIiSt4pairIKiP10CUDTSocketESt10_Select1stIS4_ESt4lessIiESaIS4_EE12_M_rightmostEv
0x00031184	0x00000012	[ 13] __ZNSt8_Rb_treeIxSt4pairIKxSt3setIiSt4lessIiESaIiEEESt10_Select1stIS7_ES3_IxESaIS7_EE12_M_rightmostEv
0x00031196	0x00000012	[ 13] __ZNKSt10_Select1stISt4pairIKxSt3setIiSt4lessIiESaIiEEEEclERKS7_
0x000311A8	0x00000012	[ 13] __ZNKSt8_Rb_treeIxSt4pairIKxSt3setIiSt4lessIiESaIiEEESt10_Select1stIS7_ES3_IxESaIS7_EE4sizeEv
0x000311BA	0x00000012	[ 13] __ZNSt8_Rb_treeIxSt4pairIKxSt3setIiSt4lessIiESaIiEEESt10_Select1stIS7_ES3_IxESaIS7_EE11_M_leftmostEv
0x000311CC	0x00000012	[ 13] __ZNSt8_Rb_treeIiSt4pairIKiP10CUDTSocketESt10_Select1stIS4_ESt4lessIiESaIS4_EE8_S_valueEPKSt13_Rb_tree_nodeIS4_E
0x000311DE	0x00000036	[ 13] __ZNSt8_Rb_treeIiSt4pairIKiP10CUDTSocketESt10_Select1stIS4_ESt4lessIiESaIS4_EE6_S_keyEPKSt13_Rb_tree_nodeIS4_E
0x00031214	0x0000008A	[ 13] __ZNSt8_Rb_treeIiSt4pairIKiP10CUDTSocketESt10_Select1stIS4_ESt4lessIiESaIS4_EE11lower_boundERS1_
0x0003129E	0x0000001F	[ 13] __ZNSt3mapIiP10CUDTSocketSt4lessIiESaISt4pairIKiS1_EEE11lower_boundERS5_
0x000312BD	0x00000012	[ 13] __ZNSt8_Rb_treeIiSt4pairIKiP10CUDTSocketESt10_Select1stIS4_ESt4lessIiESaIS4_EE8_S_valueEPKSt18_Rb_tree_node_base
0x000312CF	0x00000035	[ 13] __ZNSt8_Rb_treeIiSt4pairIKiP10CUDTSocketESt10_Select1stIS4_ESt4lessIiESaIS4_EE6_S_keyEPKSt18_Rb_tree_node_base
0x00031304	0x000000DC	[ 13] __ZNSt8_Rb_treeIiSt4pairIKiP10CUDTSocketESt10_Select1stIS4_ESt4lessIiESaIS4_EE4findERS1_
0x000313E0	0x00000020	[ 13] __ZNSt3mapIiP10CUDTSocketSt4lessIiESaISt4pairIKiS1_EEE4findERS5_
0x00031400	0x00000088	[ 13] __ZNSt8_Rb_treeIiSt4pairIKiP10CUDTSocketESt10_Select1stIS4_ESt4lessIiESaIS4_EE11upper_boundERS1_
0x00031488	0x00000030	[ 13] __ZNSt4pairISt17_Rb_tree_iteratorIS_IKiP10CUDTSocketEES5_EC1ERKS5_S8_
0x000314B8	0x0000005D	[ 13] __ZNSt8_Rb_treeIiSt4pairIKiP10CUDTSocketESt10_Select1stIS4_ESt4lessIiESaIS4_EE11equal_rangeERS1_
0x00031515	0x0000000E	[ 13] __ZSt13__destroy_auxIPP10CUDTSocketEvT_S3_St11__true_type
0x00031523	0x00000026	[ 13] __ZSt8_DestroyIPP10CUDTSocketEvT_S3_
0x00031549	0x00000023	[ 13] __ZSt8_DestroyIPP10CUDTSocketS1_EvT_S3_SaIT0_E
0x0003156C	0x0000000E	[ 13] __ZNKSt12_Vector_baseIP10CUDTSocketSaIS1_EE19_M_get_Tp_allocatorEv
0x0003157A	0x00000014	[ 13] __ZNK9__gnu_cxx13new_allocatorIP10CUDTSocketE8max_sizeEv
0x0003158E	0x0000001F	[ 13] __ZNKSt6vectorIP10CUDTSocketSaIS1_EE8max_sizeEv
0x000315AD	0x00000012	[ 13] __ZNSt8_Rb_treeIxSt4pairIKxSt3setIiSt4lessIiESaIiEEESt10_Select1stIS7_ES3_IxESaIS7_EE8_S_valueEPKSt13_Rb_tree_nodeIS7_E
0x000315BF	0x00000035	[ 13] __ZNSt8_Rb_treeIxSt4pairIKxSt3setIiSt4lessIiESaIiEEESt10_Select1stIS7_ES3_IxESaIS7_EE6_S_keyEPKSt13_Rb_tree_nodeIS7_E
0x000315F4	0x0000008A	[ 13] __ZNSt8_Rb_treeIxSt4pairIKxSt3setIiSt4lessIiESaIiEEESt10_Select1stIS7_ES3_IxESaIS7_EE11lower_boundERS1_
0x0003167E	0x0000001F	[ 13] __ZNSt3mapIxSt3setIiSt4lessIiESaIiEES1_IxESaISt4pairIKxS4_EEE11lower_boundERS7_
0x0003169D	0x00000012	[ 13] __ZNSt8_Rb_treeIxSt4pairIKxSt3setIiSt4lessIiESaIiEEESt10_Select1stIS7_ES3_IxESaIS7_EE8_S_valueEPKSt18_Rb_tree_node_base
0x000316AF	0x00000035	[ 13] __ZNSt8_Rb_treeIxSt4pairIKxSt3setIiSt4lessIiESaIiEEESt10_Select1stIS7_ES3_IxESaIS7_EE6_S_keyEPKSt18_Rb_tree_node_base
0x000316E4	0x000000DC	[ 13] __ZNSt8_Rb_treeIxSt4pairIKxSt3setIiSt4lessIiESaIiEEESt10_Select1stIS7_ES3_IxESaIS7_EE4findERS1_
0x000317C0	0x0000001F	[ 13] __ZNSt3mapIxSt3setIiSt4lessIiESaIiEES1_IxESaISt4pairIKxS4_EEE4findERS7_
0x000317E0	0x00000052	[ 13] __ZNSt6vectorIiSaIiEE15_M_erase_at_endEPi
0x00031832	0x0000001E	[ 13] __ZNSt6vectorIiSaIiEE5clearEv
0x00031850	0x00000012	[ 13] __ZNSt8_Rb_treeIiSt4pairIKi12CMultiplexerESt10_Select1stIS3_ESt4lessIiESaIS3_EE8_S_valueEPKSt13_Rb_tree_nodeIS3_E
0x00031862	0x00000012	[ 13] __ZNKSt10_Select1stISt4pairIKi12CMultiplexerEEclERKS3_
0x00031874	0x00000036	[ 13] __ZNSt8_Rb_treeIiSt4pairIKi12CMultiplexerESt10_Select1stIS3_ESt4lessIiESaIS3_EE6_S_keyEPKSt13_Rb_tree_nodeIS3_E
0x000318AA	0x0000008A	[ 13] __ZNSt8_Rb_treeIiSt4pairIKi12CMultiplexerESt10_Select1stIS3_ESt4lessIiESaIS3_EE11lower_boundERS1_
0x00031934	0x0000001F	[ 13] __ZNSt3mapIi12CMultiplexerSt4lessIiESaISt4pairIKiS0_EEE11lower_boundERS4_
0x00031953	0x00000012	[ 13] __ZNSt8_Rb_treeIiSt4pairIKi12CMultiplexerESt10_Select1stIS3_ESt4lessIiESaIS3_EE8_S_valueEPKSt18_Rb_tree_node_base
0x00031965	0x00000035	[ 13] __ZNSt8_Rb_treeIiSt4pairIKi12CMultiplexerESt10_Select1stIS3_ESt4lessIiESaIS3_EE6_S_keyEPKSt18_Rb_tree_node_base
0x0003199A	0x000000DC	[ 13] __ZNSt8_Rb_treeIiSt4pairIKi12CMultiplexerESt10_Select1stIS3_ESt4lessIiESaIS3_EE4findERS1_
0x00031A76	0x00000020	[ 13] __ZNSt3mapIi12CMultiplexerSt4lessIiESaISt4pairIKiS0_EEE4findERS4_
0x00031A96	0x00000012	[ 13] __ZNSt8_Rb_treeIiSt4pairIKi12CMultiplexerESt10_Select1stIS3_ESt4lessIiESaIS3_EE12_M_rightmostEv
0x00031AA8	0x00000012	[ 13] __ZNKSt8_Rb_treeIiSt4pairIKi12CMultiplexerESt10_Select1stIS3_ESt4lessIiESaIS3_EE4sizeEv
0x00031ABA	0x00000012	[ 13] __ZNSt8_Rb_treeIiSt4pairIKi12CMultiplexerESt10_Select1stIS3_ESt4lessIiESaIS3_EE11_M_leftmostEv
0x00031ACC	0x00000026	[ 13] __ZNSt8_Rb_treeIxSt4pairIKxSt3setIiSt4lessIiESaIiEEESt10_Select1stIS7_ES3_IxESaIS7_EE5beginEv
0x00031AF2	0x0000002E	[ 13] __ZNSt4pairISt17_Rb_tree_iteratorIS_IKxSt3setIiSt4lessIiESaIiEEEEbEC1ERKS8_RKb
0x00031B20	0x0000004A	[ 13] __ZN9__gnu_cxx13new_allocatorISt4pairIKiP10CUDTSocketEE9constructEPS5_RKS5_
0x00031B6A	0x0000002E	[ 13] __ZNSt4pairISt17_Rb_tree_iteratorIS_IKi12CMultiplexerEEbEC1ERKS4_RKb
0x00031B98	0x00000092	[ 13] __ZN9__gnu_cxx13new_allocatorISt4pairIKi12CMultiplexerEE9constructEPS4_RKS4_
0x00031C2A	0x00000014	[ 13] __ZNK9__gnu_cxx13new_allocatorISt13_Rb_tree_nodeISt4pairIKiP10CUDTSocketEEE8max_sizeEv
0x00031C3E	0x00000014	[ 13] __ZNK9__gnu_cxx13new_allocatorISt13_Rb_tree_nodeISt4pairIKxSt3setIiSt4lessIiESaIiEEEEE8max_sizeEv
0x00031C52	0x00000014	[ 13] __ZNK9__gnu_cxx13new_allocatorISt13_Rb_tree_nodeISt4pairIKi12CMultiplexerEEE8max_sizeEv
0x00031C66	0x00000076	[ 13] __ZNSt8_Rb_treeIiSt4pairIKiP10CUDTSocketESt10_Select1stIS4_ESt4lessIiESaIS4_EE5clearEv
0x00031CDC	0x00000018	[ 13] __ZNSt3mapIiP10CUDTSocketSt4lessIiESaISt4pairIKiS1_EEE5clearEv
0x00031CF4	0x00000020	[ 13] __ZN9__gnu_cxx13new_allocatorIP10CUDTSocketE10deallocateEPS2_m
0x00031D14	0x00000032	[ 13] __ZNSt12_Vector_baseIP10CUDTSocketSaIS1_EE13_M_deallocateEPS1_m
0x00031D46	0x0000004A	[ 13] __ZNSt12_Vector_baseIP10CUDTSocketSaIS1_EED2Ev
0x00031D90	0x0000004E	[ 13] __ZNSt6vectorIP10CUDTSocketSaIS1_EED1Ev
0x00031DDE	0x00000028	[ 13] __ZNSt17_Rb_tree_iteratorISt4pairIKiP10CUDTSocketEEmmEv
0x00031E06	0x00000028	[ 13] __ZNSt17_Rb_tree_iteratorISt4pairIKi12CMultiplexerEEmmEv
0x00031E2E	0x00000028	[ 13] __ZNSt17_Rb_tree_iteratorISt4pairIKxSt3setIiSt4lessIiESaIiEEEEmmEv
0x00031E56	0x00000052	[ 13] __ZN9__gnu_cxx13new_allocatorISt13_Rb_tree_nodeISt4pairIKiP10CUDTSocketEEE8allocateEmPKv
0x00031EA8	0x00000024	[ 13] __ZNSt8_Rb_treeIiSt4pairIKiP10CUDTSocketESt10_Select1stIS4_ESt4lessIiESaIS4_EE11_M_get_nodeEv
0x00031ECC	0x00000058	[ 13] __ZNSt8_Rb_treeIiSt4pairIKiP10CUDTSocketESt10_Select1stIS4_ESt4lessIiESaIS4_EE14_M_create_nodeERKS4_
0x00031F24	0x000000CC	[ 13] __ZNSt8_Rb_treeIiSt4pairIKiP10CUDTSocketESt10_Select1stIS4_ESt4lessIiESaIS4_EE9_M_insertEPSt18_Rb_tree_node_baseSC_RKS4_
0x00031FF0	0x00000218	[ 13] __ZNSt8_Rb_treeIiSt4pairIKiP10CUDTSocketESt10_Select1stIS4_ESt4lessIiESaIS4_EE16_M_insert_uniqueERKS4_
0x00032208	0x0000003E	[ 13] __ZNSt3mapIiP10CUDTSocketSt4lessIiESaISt4pairIKiS1_EEE6insertERKS6_
0x00032246	0x00000052	[ 13] __ZN9__gnu_cxx13new_allocatorISt13_Rb_tree_nodeISt4pairIKi12CMultiplexerEEE8allocateEmPKv
0x00032298	0x00000024	[ 13] __ZNSt8_Rb_treeIiSt4pairIKi12CMultiplexerESt10_Select1stIS3_ESt4lessIiESaIS3_EE11_M_get_nodeEv
0x000322BC	0x00000058	[ 13] __ZNSt8_Rb_treeIiSt4pairIKi12CMultiplexerESt10_Select1stIS3_ESt4lessIiESaIS3_EE14_M_create_nodeERKS3_
0x00032314	0x000000CC	[ 13] __ZNSt8_Rb_treeIiSt4pairIKi12CMultiplexerESt10_Select1stIS3_ESt4lessIiESaIS3_EE9_M_insertEPSt18_Rb_tree_node_baseSB_RKS3_
0x000323E0	0x00000218	[ 13] __ZNSt8_Rb_treeIiSt4pairIKi12CMultiplexerESt10_Select1stIS3_ESt4lessIiESaIS3_EE16_M_insert_uniqueERKS3_
0x000325F8	0x0000004A	[ 13] __ZN9__gnu_cxx13new_allocatorIP10CUDTSocketE8allocateEmPKv
0x00032642	0x00000028	[ 13] __ZNSt12_Vector_baseIP10CUDTSocketSaIS1_EE11_M_allocateEm
0x0003266A	0x00000036	[ 13] __ZNSt4pairIKxSt3setIiSt4lessIiESaIiEEEC1ERS0_RKS5_
0x000326A0	0x00000036	[ 13] __ZNSt4pairIKxSt3setIiSt4lessIiESaIiEEEC1ERKS6_
0x000326D6	0x00000066	[ 13] __ZN9__gnu_cxx13new_allocatorISt4pairIKxSt3setIiSt4lessIiESaIiEEEE9constructEPS8_RKS8_
0x0003273C	0x000000CC	[ 13] __ZNSt8_Rb_treeIiiSt9_IdentityIiESt4lessIiESaIiEE9_M_insertEPKSt18_Rb_tree_node_baseS8_RKi
0x00032808	0x00000046	[ 13] __ZN9__gnu_cxx13new_allocatorISt13_Rb_tree_nodeISt4pairIKxSt3setIiSt4lessIiESaIiEEEEE8allocateEmPKv
0x0003284E	0x00000024	[ 13] __ZNSt8_Rb_treeIxSt4pairIKxSt3setIiSt4lessIiESaIiEEESt10_Select1stIS7_ES3_IxESaIS7_EE11_M_get_nodeEv
0x00032872	0x000000AC	[ 13] __ZNSt8_Rb_treeIxSt4pairIKxSt3setIiSt4lessIiESaIiEEESt10_Select1stIS7_ES3_IxESaIS7_EE14_M_create_nodeERKS7_
0x0003291E	0x000000CC	[ 13] __ZNSt8_Rb_treeIxSt4pairIKxSt3setIiSt4lessIiESaIiEEESt10_Select1stIS7_ES3_IxESaIS7_EE9_M_insertEPSt18_Rb_tree_node_baseSE_RKS7_
0x000329EA	0x00000218	[ 13] __ZNSt8_Rb_treeIxSt4pairIKxSt3setIiSt4lessIiESaIiEEESt10_Select1stIS7_ES3_IxESaIS7_EE16_M_insert_uniqueERKS7_
0x00032C02	0x00000028	[ 13] __ZNSt17_Rb_tree_iteratorISt4pairIKiP10CUDTSocketEEppEv
0x00032C2A	0x000003B0	[ 13] __ZNSt8_Rb_treeIiSt4pairIKiP10CUDTSocketESt10_Select1stIS4_ESt4lessIiESaIS4_EE16_M_insert_uniqueESt17_Rb_tree_iteratorIS4_ERKS4_
0x00032FDA	0x00000028	[ 13] __ZNSt3mapIiP10CUDTSocketSt4lessIiESaISt4pairIKiS1_EEE6insertESt17_Rb_tree_iteratorIS6_ERKS6_
0x00033002	0x000000BE	[ 13] __ZNSt3mapIiP10CUDTSocketSt4lessIiESaISt4pairIKiS1_EEEixERS5_
0x000330C0	0x00000028	[ 13] __ZNSt17_Rb_tree_iteratorISt4pairIKi12CMultiplexerEEppEv
0x000330E8	0x000003B0	[ 13] __ZNSt8_Rb_treeIiSt4pairIKi12CMultiplexerESt10_Select1stIS3_ESt4lessIiESaIS3_EE16_M_insert_uniqueESt17_Rb_tree_iteratorIS3_ERKS3_
0x00033498	0x00000028	[ 13] __ZNSt3mapIi12CMultiplexerSt4lessIiESaISt4pairIKiS0_EEE6insertESt17_Rb_tree_iteratorIS5_ERKS5_
0x000334C0	0x000000FC	[ 13] __ZNSt3mapIi12CMultiplexerSt4lessIiESaISt4pairIKiS0_EEEixERS4_
0x000335BC	0x00000036	[ 13] __ZNSt17_Rb_tree_iteratorISt4pairIKiP10CUDTSocketEEppEi
0x000335F2	0x00000028	[ 13] __ZNSt17_Rb_tree_iteratorISt4pairIKxSt3setIiSt4lessIiESaIiEEEEppEv
0x0003361A	0x000003B0	[ 13] __ZNSt8_Rb_treeIxSt4pairIKxSt3setIiSt4lessIiESaIiEEESt10_Select1stIS7_ES3_IxESaIS7_EE16_M_insert_uniqueESt17_Rb_tree_iteratorIS7_ERKS7_
0x000339CA	0x00000028	[ 13] __ZNSt3mapIxSt3setIiSt4lessIiESaIiEES1_IxESaISt4pairIKxS4_EEE6insertESt17_Rb_tree_iteratorIS8_ERKS8_
0x000339F2	0x00000158	[ 13] __ZNSt3mapIxSt3setIiSt4lessIiESaIiEES1_IxESaISt4pairIKxS4_EEEixERS7_
0x00033B4A	0x00000048	[ 13] __ZNSt8_Rb_treeIiSt4pairIKiP10CUDTSocketESt10_Select1stIS4_ESt4lessIiESaIS4_EE5eraseESt17_Rb_tree_iteratorIS4_E
0x00033B92	0x000000A0	[ 13] __ZNSt8_Rb_treeIiSt4pairIKiP10CUDTSocketESt10_Select1stIS4_ESt4lessIiESaIS4_EE5eraseESt17_Rb_tree_iteratorIS4_ESC_
0x00033C32	0x00000068	[ 13] __ZNSt8_Rb_treeIiSt4pairIKiP10CUDTSocketESt10_Select1stIS4_ESt4lessIiESaIS4_EE5eraseERS1_
0x00033C9A	0x00000020	[ 13] __ZNSt3mapIiP10CUDTSocketSt4lessIiESaISt4pairIKiS1_EEE5eraseERS5_
0x00033CBA	0x00000020	[ 13] __ZNSt3mapIiP10CUDTSocketSt4lessIiESaISt4pairIKiS1_EEE5eraseESt17_Rb_tree_iteratorIS6_E
0x00033CDA	0x00000048	[ 13] __ZNSt8_Rb_treeIxSt4pairIKxSt3setIiSt4lessIiESaIiEEESt10_Select1stIS7_ES3_IxESaIS7_EE5eraseESt17_Rb_tree_iteratorIS7_E
0x00033D22	0x00000020	[ 13] __ZNSt3mapIxSt3setIiSt4lessIiESaIiEES1_IxESaISt4pairIKxS4_EEE5eraseESt17_Rb_tree_iteratorIS8_E
0x00033D42	0x00000048	[ 13] __ZNSt8_Rb_treeIiSt4pairIKi12CMultiplexerESt10_Select1stIS3_ESt4lessIiESaIS3_EE5eraseESt17_Rb_tree_iteratorIS3_E
0x00033D8A	0x00000020	[ 13] __ZNSt3mapIi12CMultiplexerSt4lessIiESaISt4pairIKiS0_EEE5eraseESt17_Rb_tree_iteratorIS5_E
0x00033DAA	0x0000004C	[ 13] __ZNSt8_Rb_treeIiiSt9_IdentityIiESt4lessIiESaIiEE5eraseESt23_Rb_tree_const_iteratorIiE
0x00033DF6	0x00000020	[ 13] __ZNSt3setIiSt4lessIiESaIiEE5eraseESt23_Rb_tree_const_iteratorIiE
0x00033E16	0x0000006E	[ 13] __ZNSt15__copy_backwardILb1ESt26random_access_iterator_tagE8__copy_bIP10CUDTSocketEEPT_PKS5_S8_S6_
0x00033E84	0x0000002B	[ 13] __ZSt19__copy_backward_auxIPP10CUDTSocketS2_ET0_T_S4_S3_
0x00033EAF	0x00000027	[ 13] __ZNSt22__copy_backward_normalILb0ELb0EE10__copy_b_nIPP10CUDTSocketS4_EET0_T_S6_S5_
0x00033ED6	0x0000002F	[ 13] __ZSt13copy_backwardIPP10CUDTSocketS2_ET0_T_S4_S3_
0x00033F05	0x0000005D	[ 13] __ZNSt6__copyILb1ESt26random_access_iterator_tagE4copyIP10CUDTSocketEEPT_PKS5_S8_S6_
0x00033F62	0x0000002B	[ 13] __ZSt10__copy_auxIPP10CUDTSocketS2_ET0_T_S4_S3_
0x00033F8D	0x00000027	[ 13] __ZNSt13__copy_normalILb0ELb0EE8__copy_nIPP10CUDTSocketS4_EET0_T_S6_S5_
0x00033FB4	0x0000002F	[ 13] __ZSt4copyIPP10CUDTSocketS2_ET0_T_S4_S3_
0x00033FE3	0x00000027	[ 13] __ZSt24__uninitialized_copy_auxIPP10CUDTSocketS2_ET0_T_S4_S3_St11__true_type
0x0003400A	0x0000002E	[ 13] __ZSt18uninitialized_copyIPP10CUDTSocketS2_ET0_T_S4_S3_
0x00034038	0x0000002C	[ 13] __ZSt22__uninitialized_copy_aIPP10CUDTSocketS2_S1_ET0_T_S4_S3_SaIT1_E
0x00034064	0x00000278	[ 13] __ZNSt6vectorIP10CUDTSocketSaIS1_EE13_M_insert_auxEN9__gnu_cxx17__normal_iteratorIPS1_S3_EERKS1_
0x000342DC	0x000000E4	[ 13] __ZNSt6vectorIP10CUDTSocketSaIS1_EE6insertEN9__gnu_cxx17__normal_iteratorIPS1_S3_EERKS1_
0x000343C0	0x00000028	[ 13] __ZNSt23_Rb_tree_const_iteratorIiEmmEv
0x000343E8	0x0000050C	[ 13] __ZNSt8_Rb_treeIiiSt9_IdentityIiESt4lessIiESaIiEE16_M_insert_uniqueESt23_Rb_tree_const_iteratorIiERKi
0x000348F4	0x00000027	[ 13] __ZNSt3setIiSt4lessIiESaIiEE6insertESt23_Rb_tree_const_iteratorIiERKi
0x0003491B	0x00000020	[ 14] __ZL12_OSSwapInt16t
0x0003493B	0x00000014	[ 14] __ZL12_OSSwapInt32j
0x0003494F	0x00000026	[ 14] _UDT_GetSocketID
0x00034975	0x0000002C	[ 14] _UDT_SetSocketID
0x000349A1	0x00000437	[ 14] _UDT_InitFieldMonitor
0x00034DD8	0x000001D3	[ 14] _UDT_InitFieldRefAll
0x00034FAB	0x00000013	[ 14] _Java_com_barchart_udt_SocketUDT_getSignatureJNI0
0x00034FBE	0x0000000E	[ 14] _Java_com_barchart_udt_SocketUDT_testEmptyCall0
0x00034FCC	0x00000056	[ 14] _Java_com_barchart_udt_SocketUDT_testIterateArray0
0x00035022	0x00000029	[ 14] _Java_com_barchart_udt_SocketUDT_testMakeArray0
0x0003504B	0x00000062	[ 14] _Java_com_barchart_udt_SocketUDT_testGetSetArray0
0x000350AD	0x00000076	[ 14] _Java_com_barchart_udt_SocketUDT_testFillArray0
0x00035123	0x00000060	[ 14] _Java_com_barchart_udt_SocketUDT_testFillBuffer0
0x00035183	0x0000000E	[ 14] _Java_com_barchart_udt_SocketUDT_testSocketStatus0
0x00035191	0x00000117	[ 14] __ZStL17__verify_groupingPKcmRKSs
0x000352A8	0x00000079	[ 14] _Java_com_barchart_udt_SocketUDT_testDirectIntBufferAccess0
0x00035321	0x0000006F	[ 14] _Java_com_barchart_udt_SocketUDT_testDirectByteBufferAccess0
0x00035390	0x000004B2	[ 14] _UDT_InitMethodRefAll
0x00035842	0x0000006C	[ 14] _X_InitMethodRef
0x000358AE	0x000000B8	[ 14] _XXX_ThrowSocketExceptionMessage
0x00035966	0x0000018D	[ 14] _X_IsSockaddrEqualsInetSocketAddress
0x00035AF3	0x00000174	[ 14] _X_ConvertSockaddrToInetSocketAddress
0x00035C67	0x00000175	[ 14] _X_ConvertInetSocketAddressToSockaddr
0x00035DDC	0x00000100	[ 14] _X_InitClassReference
0x00035EDC	0x00000167	[ 14] _UDT_InitClassRefAll
0x00036043	0x00000030	[ 14] _Java_com_barchart_udt_SocketUDT_testCrashJVM0
0x00036073	0x00000026	[ 14] _Java_com_barchart_udt_SocketUDT_clearError0
0x00036099	0x0000005C	[ 14] _Java_com_barchart_udt_SocketUDT_getErrorMessage0
0x000360F5	0x0000002C	[ 14] _Java_com_barchart_udt_SocketUDT_getErrorCode0
0x00036121	0x00000086	[ 14] _Java_com_barchart_udt_SocketUDT_testIterateSet0
0x000361A7	0x000000DF	[ 14] _UDT_NewExceptionUDT
0x00036286	0x00000116	[ 14] _UDT_ThrowExceptionUDT_ErrorInfo
0x0003639C	0x00000085	[ 14] _Java_com_barchart_udt_SocketUDT_testInvalidClose0
0x00036421	0x0000008A	[ 14] _Java_com_barchart_udt_SocketUDT_initInstance1
0x000364AB	0x000000D0	[ 14] _UDT_ThrowExceptionUDT_Message
0x0003657B	0x000000B7	[ 14] _X_IsValidRange
0x00036632	0x000000C4	[ 14] _UDT_NewLingerUDT
0x000366F6	0x00000101	[ 14] _X_NewInetAddress
0x000367F7	0x00000167	[ 14] _X_NewInetSocketAddress
0x0003695E	0x00000071	[ 14] _X_NewLong
0x000369CF	0x0000006F	[ 14] _X_NewInteger
0x00036A3E	0x00000086	[ 14] _X_NewBoolean
0x00036AC4	0x00000345	[ 14] _Java_com_barchart_udt_SocketUDT_selectEx1
0x00036E09	0x000004D2	[ 14] _Java_com_barchart_udt_SocketUDT_selectEx0
0x000372DB	0x00000062	[ 14] _UDT_CopySetToArray
0x0003733D	0x000000AC	[ 14] _UDT_CopyArrayToSet
0x000373E9	0x000003B4	[ 14] _Java_com_barchart_udt_SocketUDT_select1
0x0003779D	0x00000545	[ 14] _Java_com_barchart_udt_SocketUDT_select0
0x00037CE2	0x0000049F	[ 14] _Java_com_barchart_udt_SocketUDT_updateMonitor0
0x00038181	0x0000008D	[ 14] _UDT_ReturnSendError
0x0003820E	0x0000012A	[ 14] _Java_com_barchart_udt_SocketUDT_send2
0x00038338	0x00000171	[ 14] _Java_com_barchart_udt_SocketUDT_send1
0x000384A9	0x0000010F	[ 14] _Java_com_barchart_udt_SocketUDT_send0
0x000385B8	0x0000008D	[ 14] _UDT_ReturnReceiveError
0x00038645	0x00000118	[ 14] _Java_com_barchart_udt_SocketUDT_receive2
0x0003875D	0x00000171	[ 14] _Java_com_barchart_udt_SocketUDT_receive1
0x000388CE	0x00000125	[ 14] _Java_com_barchart_udt_SocketUDT_receive0
0x000389F3	0x00000098	[ 14] _Java_com_barchart_udt_SocketUDT_listen0
0x00038A8B	0x00000362	[ 14] _Java_com_barchart_udt_SocketUDT_setOption0
0x00038DED	0x00000221	[ 14] _Java_com_barchart_udt_SocketUDT_getOption0
0x0003900E	0x00000071	[ 14] _UDT_IsSocketOpen
0x0003907F	0x0000003B	[ 14] _Java_com_barchart_udt_SocketUDT_isOpen0
0x000390BA	0x000000C2	[ 14] _Java_com_barchart_udt_SocketUDT_close0
0x0003917C	0x000000F4	[ 14] _Java_com_barchart_udt_SocketUDT_hasLoadedLocalSocketAddress
0x00039270	0x000000F4	[ 14] _Java_com_barchart_udt_SocketUDT_hasLoadedRemoteSocketAddress
0x00039364	0x000001E4	[ 14] _Java_com_barchart_udt_SocketUDT_accept0
0x00039548	0x000000BA	[ 14] _Java_com_barchart_udt_SocketUDT_initInstance0
0x00039602	0x00000081	[ 14] _Java_com_barchart_udt_SocketUDT_stopClass0
0x00039683	0x0000009C	[ 14] _Java_com_barchart_udt_SocketUDT_initClass0
0x0003971F	0x00000075	[ 14] _X_InitSockAddr
0x00039794	0x00000157	[ 14] _Java_com_barchart_udt_SocketUDT_connect0
0x000398EB	0x00000135	[ 14] _Java_com_barchart_udt_SocketUDT_bind0
0x00039A20	0x00000028	[ 14] __ZN7JNIEnv_9FindClassEPKc
0x00039A48	0x00000028	[ 14] __ZN7JNIEnv_5ThrowEP11_jthrowable
0x00039A70	0x00000030	[ 14] __ZN7JNIEnv_8ThrowNewEP7_jclassPKc
0x00039AA0	0x0000002A	[ 14] __ZN7JNIEnv_12NewGlobalRefEP8_jobject
0x00039ACA	0x00000036	[ 14] __ZN7JNIEnv_12IsSameObjectEP8_jobjectS1_
0x00039B00	0x0000003A	[ 14] __ZN7JNIEnv_11GetMethodIDEP7_jclassPKcS3_
0x00039B3A	0x0000003A	[ 14] __ZN7JNIEnv_10GetFieldIDEP7_jclassPKcS3_
0x00039B74	0x00000032	[ 14] __ZN7JNIEnv_14GetObjectFieldEP8_jobjectP9_jfieldID
0x00039BA6	0x00000032	[ 14] __ZN7JNIEnv_11GetIntFieldEP8_jobjectP9_jfieldID
0x00039BD8	0x0000003A	[ 14] __ZN7JNIEnv_14SetObjectFieldEP8_jobjectP9_jfieldIDS1_
0x00039C12	0x0000003A	[ 14] __ZN7JNIEnv_15SetBooleanFieldEP8_jobjectP9_jfieldIDh
0x00039C4C	0x00000038	[ 14] __ZN7JNIEnv_11SetIntFieldEP8_jobjectP9_jfieldIDi
0x00039C84	0x0000003A	[ 14] __ZN7JNIEnv_12SetLongFieldEP8_jobjectP9_jfieldIDx
0x00039CBE	0x0000003C	[ 14] __ZN7JNIEnv_14SetDoubleFieldEP8_jobjectP9_jfieldIDd
0x00039CFA	0x0000002A	[ 14] __ZN7JNIEnv_12NewStringUTFEPKc
0x00039D24	0x0000002A	[ 14] __ZN7JNIEnv_14GetArrayLengthEP7_jarray
0x00039D4E	0x00000030	[ 14] __ZN7JNIEnv_21GetObjectArrayElementEP13_jobjectArrayi
0x00039D7E	0x00000028	[ 14] __ZN7JNIEnv_11NewIntArrayEi
0x00039DA6	0x00000032	[ 14] __ZN7JNIEnv_20GetByteArrayElementsEP11_jbyteArrayPh
0x00039DD8	0x00000032	[ 14] __ZN7JNIEnv_19GetIntArrayElementsEP10_jintArrayPh
0x00039E0A	0x00000038	[ 14] __ZN7JNIEnv_24ReleaseByteArrayElementsEP11_jbyteArrayPai
0x00039E42	0x00000038	[ 14] __ZN7JNIEnv_23ReleaseIntArrayElementsEP10_jintArrayPii
0x00039E7A	0x00000042	[ 14] __ZN7JNIEnv_18GetByteArrayRegionEP11_jbyteArrayiiPa
0x00039EBC	0x00000042	[ 14] __ZN7JNIEnv_17GetIntArrayRegionEP10_jintArrayiiPi
0x00039EFE	0x00000042	[ 14] __ZN7JNIEnv_18SetByteArrayRegionEP11_jbyteArrayiiPKa
0x00039F40	0x00000042	[ 14] __ZN7JNIEnv_17SetIntArrayRegionEP10_jintArrayiiPKi
0x00039F82	0x0000002A	[ 14] __ZN7JNIEnv_22GetDirectBufferAddressEP8_jobject
0x00039FAC	0x0000002A	[ 14] __ZN7JNIEnv_23GetDirectBufferCapacityEP8_jobject
0x00039FD6	0x00000039	[ 14] _X_IsInRange
0x0003A00F	0x000000D4	[ 14] _X_ConvertMillisIntoTimeValue
0x0003A0E4	0x00000016	[ 14] __ZN9__gnu_cxx17__normal_iteratorIPiSt6vectorIiSaIiEEEC1Ev
0x0003A0FA	0x00000016	[ 14] __ZNSt23_Rb_tree_const_iteratorIiEC1Ev
0x0003A110	0x00000020	[ 14] __ZNSt4pairISt23_Rb_tree_const_iteratorIiEbEC1Ev
0x0003A130	0x0000000A	[ 14] __ZNSt18input_iterator_tagC2Ev
0x0003A13A	0x00000018	[ 14] __ZNSt20forward_iterator_tagC2Ev
0x0003A152	0x00000018	[ 14] __ZNSt26bidirectional_iterator_tagC2Ev
0x0003A16A	0x00000017	[ 14] __ZNSt26random_access_iterator_tagC1Ev
0x0003A181	0x0000001B	[ 14] __ZSt19__iterator_categoryIN9__gnu_cxx17__normal_iteratorIPiSt6vectorIiSaIiEEEEENSt15iterator_traitsIT_E17iterator_categoryERKS8_
0x0003A19C	0x0000003A	[ 14] __ZN9__gnu_cxxeqIPKiSt6vectorIiSaIiEEEEbRKNS_17__normal_iteratorIT_T0_EESB_
0x0003A1D6	0x00000038	[ 14] __ZNKSt6vectorIiSaIiEE5emptyEv
0x0003A20E	0x00000040	[ 14] __ZN9__gnu_cxxmiIPiSt6vectorIiSaIiEEEENS_17__normal_iteratorIT_T0_E15difference_typeERKS8_SB_
0x0003A24E	0x000001BD	[ 14] __ZSt6__findIN9__gnu_cxx17__normal_iteratorIPiSt6vectorIiSaIiEEEEiET_S7_S7_RKT0_St26random_access_iterator_tag
0x0003A40B	0x00000037	[ 14] __ZSt4findIN9__gnu_cxx17__normal_iteratorIPiSt6vectorIiSaIiEEEEiET_S7_S7_RKT0_
0x0003A442	0x0000000E	[ 14] __ZSt13__destroy_auxIPiEvT_S1_St11__true_type
0x0003A450	0x00000026	[ 14] __ZSt8_DestroyIPiEvT_S1_
0x0003A476	0x00000024	[ 14] __ZSt8_DestroyIPiiEvT_S1_SaIT0_E
0x0003A49A	0x0000010C	[ 14] __ZN7JNIEnv_16CallObjectMethodEP8_jobjectP10_jmethodIDz
0x0003A5A6	0x0000010A	[ 14] __ZN7JNIEnv_17CallBooleanMethodEP8_jobjectP10_jmethodIDz
0x0003A6B0	0x0000010A	[ 14] __ZN7JNIEnv_13CallIntMethodEP8_jobjectP10_jmethodIDz
0x0003A7BA	0x0000010C	[ 14] __ZN7JNIEnv_14CallLongMethodEP8_jobjectP10_jmethodIDz
0x0003A8C6	0x0000010B	[ 14] __ZN7JNIEnv_9NewObjectEP7_jclassP10_jmethodIDz
0x0003A9D2	0x00000027	[ 14] __ZNSt22__copy_backward_normalILb0ELb0EE10__copy_b_nIPiS2_EET0_T_S4_S3_
0x0003A9FA	0x0000005D	[ 14] __ZNSt6__copyILb1ESt26random_access_iterator_tagE4copyIiEEPT_PKS3_S6_S4_
0x0003AA58	0x00000027	[ 14] __ZNSt13__copy_normalILb0ELb0EE8__copy_nIPiS2_EET0_T_S4_S3_
0x0003AA80	0x00000027	[ 14] __ZSt24__uninitialized_copy_auxIPiS0_ET0_T_S2_S1_St11__true_type
0x0003AAA7	0x0000001B	[  7] ___tcf_0
0x0003AAC2	0x00000006	[  0] _X_ConvertMillisIntoTimeValue$stub
0x0003AAC8	0x00000006	[  0] _X_IsInRange$stub
0x0003AACE	0x00000006	[  0] __Unwind_Resume$stub
0x0003AAD4	0x00000006	[  0] __ZN10CCCFactoryI6CUDTCCEC1Ev$stub
0x0003AADA	0x00000006	[  0] __ZN10CEPollDescC1ERKS_$stub
0x0003AAE0	0x00000006	[  0] __ZN10CEPollDescC1Ev$stub
0x0003AAE6	0x00000006	[  0] __ZN10CEPollDescD1Ev$stub
0x0003AAEC	0x00000006	[  0] __ZN10CEPollDescaSERKS_$stub
0x0003AAF2	0x00000006	[  0] __ZN13CUDTExceptionaSERKS_$stub
0x0003AAF8	0x00000006	[  0] __ZN16CRendezvousQueue3CRLD1Ev$stub
0x0003AAFE	0x00000006	[  0] __ZN17CCCVirtualFactoryC2Ev$stub
0x0003AB04	0x00000006	[  0] __ZN5CUnitC1Ev$stub
0x0003AB0A	0x00000006	[  0] __ZN5CUnitD1Ev$stub
0x0003AB10	0x00000006	[  0] __ZN6CAckNo6incackERKi$stub
0x0003AB16	0x00000006	[  0] __ZN6CSeqNo6decseqERKi$stub
0x0003AB1C	0x00000006	[  0] __ZN6CSeqNo6incseqERKiS1_$stub
0x0003AB22	0x00000006	[  0] __ZN6CSeqNo6incseqEi$stub
0x0003AB28	0x00000006	[  0] __ZN6CSeqNo6seqcmpERKiS1_$stub
0x0003AB2E	0x00000006	[  0] __ZN6CSeqNo6seqlenERKiS1_$stub
0x0003AB34	0x00000006	[  0] __ZN6CSeqNo6seqoffERKiS1_$stub
0x0003AB3A	0x00000006	[  0] __ZN7JNIEnv_10GetFieldIDEP7_jclassPKcS3_$stub
0x0003AB40	0x00000006	[  0] __ZN7JNIEnv_11GetIntFieldEP8_jobjectP9_jfieldID$stub
0x0003AB46	0x00000006	[  0] __ZN7JNIEnv_11GetMethodIDEP7_jclassPKcS3_$stub
0x0003AB4C	0x00000006	[  0] __ZN7JNIEnv_11NewIntArrayEi$stub
0x0003AB52	0x00000006	[  0] __ZN7JNIEnv_11SetIntFieldEP8_jobjectP9_jfieldIDi$stub
0x0003AB58	0x00000006	[  0] __ZN7JNIEnv_12IsSameObjectEP8_jobjectS1_$stub
0x0003AB5E	0x00000006	[  0] __ZN7JNIEnv_12NewGlobalRefEP8_jobject$stub
0x0003AB64	0x00000006	[  0] __ZN7JNIEnv_12NewStringUTFEPKc$stub
0x0003AB6A	0x00000006	[  0] __ZN7JNIEnv_12SetLongFieldEP8_jobjectP9_jfieldIDx$stub
0x0003AB70	0x00000006	[  0] __ZN7JNIEnv_13CallIntMethodEP8_jobjectP10_jmethodIDz$stub
0x0003AB76	0x00000006	[  0] __ZN7JNIEnv_14CallLongMethodEP8_jobjectP10_jmethodIDz$stub
0x0003AB7C	0x00000006	[  0] __ZN7JNIEnv_14GetArrayLengthEP7_jarray$stub
0x0003AB82	0x00000006	[  0] __ZN7JNIEnv_14GetObjectFieldEP8_jobjectP9_jfieldID$stub
0x0003AB88	0x00000006	[  0] __ZN7JNIEnv_14SetDoubleFieldEP8_jobjectP9_jfieldIDd$stub
0x0003AB8E	0x00000006	[  0] __ZN7JNIEnv_14SetObjectFieldEP8_jobjectP9_jfieldIDS1_$stub
0x0003AB94	0x00000006	[  0] __ZN7JNIEnv_15SetBooleanFieldEP8_jobjectP9_jfieldIDh$stub
0x0003AB9A	0x00000006	[  0] __ZN7JNIEnv_16CallObjectMethodEP8_jobjectP10_jmethodIDz$stub
0x0003ABA0	0x00000006	[  0] __ZN7JNIEnv_17CallBooleanMethodEP8_jobjectP10_jmethodIDz$stub
0x0003ABA6	0x00000006	[  0] __ZN7JNIEnv_17GetIntArrayRegionEP10_jintArrayiiPi$stub
0x0003ABAC	0x00000006	[  0] __ZN7JNIEnv_17SetIntArrayRegionEP10_jintArrayiiPKi$stub
0x0003ABB2	0x00000006	[  0] __ZN7JNIEnv_18GetByteArrayRegionEP11_jbyteArrayiiPa$stub
0x0003ABB8	0x00000006	[  0] __ZN7JNIEnv_18SetByteArrayRegionEP11_jbyteArrayiiPKa$stub
0x0003ABBE	0x00000006	[  0] __ZN7JNIEnv_19GetIntArrayElementsEP10_jintArrayPh$stub
0x0003ABC4	0x00000006	[  0] __ZN7JNIEnv_20GetByteArrayElementsEP11_jbyteArrayPh$stub
0x0003ABCA	0x00000006	[  0] __ZN7JNIEnv_21GetObjectArrayElementEP13_jobjectArrayi$stub
0x0003ABD0	0x00000006	[  0] __ZN7JNIEnv_22GetDirectBufferAddressEP8_jobject$stub
0x0003ABD6	0x00000006	[  0] __ZN7JNIEnv_23GetDirectBufferCapacityEP8_jobject$stub
0x0003ABDC	0x00000006	[  0] __ZN7JNIEnv_23ReleaseIntArrayElementsEP10_jintArrayPii$stub
0x0003ABE2	0x00000006	[  0] __ZN7JNIEnv_24ReleaseByteArrayElementsEP11_jbyteArrayPai$stub
0x0003ABE8	0x00000006	[  0] __ZN7JNIEnv_5ThrowEP11_jthrowable$stub
0x0003ABEE	0x00000006	[  0] __ZN7JNIEnv_8ThrowNewEP7_jclassPKc$stub
0x0003ABF4	0x00000006	[  0] __ZN7JNIEnv_9FindClassEPKc$stub
0x0003ABFA	0x00000006	[  0] __ZN7JNIEnv_9NewObjectEP7_jclassP10_jmethodIDz$stub
0x0003AC00	0x00000006	[  0] __ZN9__gnu_cxx13new_allocatorIN16CRendezvousQueue3CRLEE10deallocateEPS2_m$stub
0x0003AC06	0x00000006	[  0] __ZN9__gnu_cxx13new_allocatorIN16CRendezvousQueue3CRLEE7destroyEPS2_$stub
0x0003AC0C	0x00000006	[  0] __ZN9__gnu_cxx13new_allocatorIN16CRendezvousQueue3CRLEE8allocateEmPKv$stub
0x0003AC12	0x00000006	[  0] __ZN9__gnu_cxx13new_allocatorIN16CRendezvousQueue3CRLEE9constructEPS2_RKS2_$stub
0x0003AC18	0x00000006	[  0] __ZN9__gnu_cxx13new_allocatorIN16CRendezvousQueue3CRLEEC2ERKS3_$stub
0x0003AC1E	0x00000006	[  0] __ZN9__gnu_cxx13new_allocatorIN16CRendezvousQueue3CRLEEC2Ev$stub
0x0003AC24	0x00000006	[  0] __ZN9__gnu_cxx13new_allocatorIN16CRendezvousQueue3CRLEED2Ev$stub
0x0003AC2A	0x00000006	[  0] __ZN9__gnu_cxx13new_allocatorIP10CInfoBlockE7destroyEPS2_$stub
0x0003AC30	0x00000006	[  0] __ZN9__gnu_cxx13new_allocatorIP10CInfoBlockE9constructEPS2_RKS2_$stub
0x0003AC36	0x00000006	[  0] __ZN9__gnu_cxx13new_allocatorIP10CInfoBlockEC2Ev$stub
0x0003AC3C	0x00000006	[  0] __ZN9__gnu_cxx13new_allocatorIP10CInfoBlockED2Ev$stub
0x0003AC42	0x00000006	[  0] __ZN9__gnu_cxx13new_allocatorIP10CUDTSocketE10deallocateEPS2_m$stub
0x0003AC48	0x00000006	[  0] __ZN9__gnu_cxx13new_allocatorIP10CUDTSocketE8allocateEmPKv$stub
0x0003AC4E	0x00000006	[  0] __ZN9__gnu_cxx13new_allocatorIP10CUDTSocketE9constructEPS2_RKS2_$stub
0x0003AC54	0x00000006	[  0] __ZN9__gnu_cxx13new_allocatorIP10CUDTSocketEC2ERKS3_$stub
0x0003AC5A	0x00000006	[  0] __ZN9__gnu_cxx13new_allocatorIP10CUDTSocketEC2Ev$stub
0x0003AC60	0x00000006	[  0] __ZN9__gnu_cxx13new_allocatorIP10CUDTSocketED2Ev$stub
0x0003AC66	0x00000006	[  0] __ZN9__gnu_cxx13new_allocatorIP4CUDTE10deallocateEPS2_m$stub
0x0003AC6C	0x00000006	[  0] __ZN9__gnu_cxx13new_allocatorIP4CUDTE7destroyEPS2_$stub
0x0003AC72	0x00000006	[  0] __ZN9__gnu_cxx13new_allocatorIP4CUDTE8allocateEmPKv$stub
0x0003AC78	0x00000006	[  0] __ZN9__gnu_cxx13new_allocatorIP4CUDTE9constructEPS2_RKS2_$stub
0x0003AC7E	0x00000006	[  0] __ZN9__gnu_cxx13new_allocatorIP4CUDTEC2ERKS3_$stub
0x0003AC84	0x00000006	[  0] __ZN9__gnu_cxx13new_allocatorIP4CUDTEC2Ev$stub
0x0003AC8A	0x00000006	[  0] __ZN9__gnu_cxx13new_allocatorIP4CUDTED2Ev$stub
0x0003AC90	0x00000006	[  0] __ZN9__gnu_cxx13new_allocatorIP7CPacketE10deallocateEPS2_m$stub
0x0003AC96	0x00000006	[  0] __ZN9__gnu_cxx13new_allocatorIP7CPacketE7destroyEPS2_$stub
0x0003AC9C	0x00000006	[  0] __ZN9__gnu_cxx13new_allocatorIP7CPacketE8allocateEmPKv$stub
0x0003ACA2	0x00000006	[  0] __ZN9__gnu_cxx13new_allocatorIP7CPacketE9constructEPS2_RKS2_$stub
0x0003ACA8	0x00000006	[  0] __ZN9__gnu_cxx13new_allocatorIP7CPacketEC2ERKS3_$stub
0x0003ACAE	0x00000006	[  0] __ZN9__gnu_cxx13new_allocatorIP7CPacketEC2Ev$stub
0x0003ACB4	0x00000006	[  0] __ZN9__gnu_cxx13new_allocatorIP7CPacketED2Ev$stub
0x0003ACBA	0x00000006	[  0] __ZN9__gnu_cxx13new_allocatorIPP7CPacketE10deallocateEPS3_m$stub
0x0003ACC0	0x00000006	[  0] __ZN9__gnu_cxx13new_allocatorIPP7CPacketE8allocateEmPKv$stub
0x0003ACC6	0x00000006	[  0] __ZN9__gnu_cxx13new_allocatorIPP7CPacketEC2Ev$stub
0x0003ACCC	0x00000006	[  0] __ZN9__gnu_cxx13new_allocatorIPP7CPacketED2Ev$stub
0x0003ACD2	0x00000006	[  0] __ZN9__gnu_cxx13new_allocatorISt13_Rb_tree_nodeIP10CInfoBlockEE10deallocateEPS4_m$stub
0x0003ACD8	0x00000006	[  0] __ZN9__gnu_cxx13new_allocatorISt13_Rb_tree_nodeIP10CInfoBlockEE8allocateEmPKv$stub
0x0003ACDE	0x00000006	[  0] __ZN9__gnu_cxx13new_allocatorISt13_Rb_tree_nodeIP10CInfoBlockEEC2ERKS5_$stub
0x0003ACE4	0x00000006	[  0] __ZN9__gnu_cxx13new_allocatorISt13_Rb_tree_nodeIP10CInfoBlockEEC2Ev$stub
0x0003ACEA	0x00000006	[  0] __ZN9__gnu_cxx13new_allocatorISt13_Rb_tree_nodeIP10CInfoBlockEED2Ev$stub
0x0003ACF0	0x00000006	[  0] __ZN9__gnu_cxx13new_allocatorISt13_Rb_tree_nodeISt4pairIKi10CEPollDescEEE10deallocateEPS6_m$stub
0x0003ACF6	0x00000006	[  0] __ZN9__gnu_cxx13new_allocatorISt13_Rb_tree_nodeISt4pairIKi10CEPollDescEEE8allocateEmPKv$stub
0x0003ACFC	0x00000006	[  0] __ZN9__gnu_cxx13new_allocatorISt13_Rb_tree_nodeISt4pairIKi10CEPollDescEEEC2ERKS7_$stub
0x0003AD02	0x00000006	[  0] __ZN9__gnu_cxx13new_allocatorISt13_Rb_tree_nodeISt4pairIKi10CEPollDescEEEC2Ev$stub
0x0003AD08	0x00000006	[  0] __ZN9__gnu_cxx13new_allocatorISt13_Rb_tree_nodeISt4pairIKi10CEPollDescEEED2Ev$stub
0x0003AD0E	0x00000006	[  0] __ZN9__gnu_cxx13new_allocatorISt13_Rb_tree_nodeISt4pairIKi12CMultiplexerEEE10deallocateEPS6_m$stub
0x0003AD14	0x00000006	[  0] __ZN9__gnu_cxx13new_allocatorISt13_Rb_tree_nodeISt4pairIKi12CMultiplexerEEE8allocateEmPKv$stub
0x0003AD1A	0x00000006	[  0] __ZN9__gnu_cxx13new_allocatorISt13_Rb_tree_nodeISt4pairIKi12CMultiplexerEEEC2ERKS7_$stub
0x0003AD20	0x00000006	[  0] __ZN9__gnu_cxx13new_allocatorISt13_Rb_tree_nodeISt4pairIKi12CMultiplexerEEEC2Ev$stub
0x0003AD26	0x00000006	[  0] __ZN9__gnu_cxx13new_allocatorISt13_Rb_tree_nodeISt4pairIKi12CMultiplexerEEED2Ev$stub
0x0003AD2C	0x00000006	[  0] __ZN9__gnu_cxx13new_allocatorISt13_Rb_tree_nodeISt4pairIKiP10CUDTSocketEEE10deallocateEPS7_m$stub
0x0003AD32	0x00000006	[  0] __ZN9__gnu_cxx13new_allocatorISt13_Rb_tree_nodeISt4pairIKiP10CUDTSocketEEE8allocateEmPKv$stub
0x0003AD38	0x00000006	[  0] __ZN9__gnu_cxx13new_allocatorISt13_Rb_tree_nodeISt4pairIKiP10CUDTSocketEEEC2ERKS8_$stub
0x0003AD3E	0x00000006	[  0] __ZN9__gnu_cxx13new_allocatorISt13_Rb_tree_nodeISt4pairIKiP10CUDTSocketEEEC2Ev$stub
0x0003AD44	0x00000006	[  0] __ZN9__gnu_cxx13new_allocatorISt13_Rb_tree_nodeISt4pairIKiP10CUDTSocketEEED2Ev$stub
0x0003AD4A	0x00000006	[  0] __ZN9__gnu_cxx13new_allocatorISt13_Rb_tree_nodeISt4pairIKiSt5queueIP7CPacketSt5dequeIS6_SaIS6_EEEEEE10deallocateEPSC_m$stub
0x0003AD50	0x00000006	[  0] __ZN9__gnu_cxx13new_allocatorISt13_Rb_tree_nodeISt4pairIKiSt5queueIP7CPacketSt5dequeIS6_SaIS6_EEEEEE8allocateEmPKv$stub
0x0003AD56	0x00000006	[  0] __ZN9__gnu_cxx13new_allocatorISt13_Rb_tree_nodeISt4pairIKiSt5queueIP7CPacketSt5dequeIS6_SaIS6_EEEEEEC2ERKSD_$stub
0x0003AD5C	0x00000006	[  0] __ZN9__gnu_cxx13new_allocatorISt13_Rb_tree_nodeISt4pairIKiSt5queueIP7CPacketSt5dequeIS6_SaIS6_EEEEEEC2Ev$stub
0x0003AD62	0x00000006	[  0] __ZN9__gnu_cxx13new_allocatorISt13_Rb_tree_nodeISt4pairIKiSt5queueIP7CPacketSt5dequeIS6_SaIS6_EEEEEED2Ev$stub
0x0003AD68	0x00000006	[  0] __ZN9__gnu_cxx13new_allocatorISt13_Rb_tree_nodeISt4pairIKxSt3setIiSt4lessIiESaIiEEEEE10deallocateEPSA_m$stub
0x0003AD6E	0x00000006	[  0] __ZN9__gnu_cxx13new_allocatorISt13_Rb_tree_nodeISt4pairIKxSt3setIiSt4lessIiESaIiEEEEE8allocateEmPKv$stub
0x0003AD74	0x00000006	[  0] __ZN9__gnu_cxx13new_allocatorISt13_Rb_tree_nodeISt4pairIKxSt3setIiSt4lessIiESaIiEEEEEC2ERKSB_$stub
0x0003AD7A	0x00000006	[  0] __ZN9__gnu_cxx13new_allocatorISt13_Rb_tree_nodeISt4pairIKxSt3setIiSt4lessIiESaIiEEEEEC2Ev$stub
0x0003AD80	0x00000006	[  0] __ZN9__gnu_cxx13new_allocatorISt13_Rb_tree_nodeISt4pairIKxSt3setIiSt4lessIiESaIiEEEEED2Ev$stub
0x0003AD86	0x00000006	[  0] __ZN9__gnu_cxx13new_allocatorISt13_Rb_tree_nodeIiEE10deallocateEPS2_m$stub
0x0003AD8C	0x00000006	[  0] __ZN9__gnu_cxx13new_allocatorISt13_Rb_tree_nodeIiEE8allocateEmPKv$stub
0x0003AD92	0x00000006	[  0] __ZN9__gnu_cxx13new_allocatorISt13_Rb_tree_nodeIiEEC2ERKS3_$stub
0x0003AD98	0x00000006	[  0] __ZN9__gnu_cxx13new_allocatorISt13_Rb_tree_nodeIiEEC2Ev$stub
0x0003AD9E	0x00000006	[  0] __ZN9__gnu_cxx13new_allocatorISt13_Rb_tree_nodeIiEED2Ev$stub
0x0003ADA4	0x00000006	[  0] __ZN9__gnu_cxx13new_allocatorISt4pairIKi10CEPollDescEE7destroyEPS4_$stub
0x0003ADAA	0x00000006	[  0] __ZN9__gnu_cxx13new_allocatorISt4pairIKi10CEPollDescEE9constructEPS4_RKS4_$stub
0x0003ADB0	0x00000006	[  0] __ZN9__gnu_cxx13new_allocatorISt4pairIKi10CEPollDescEEC2Ev$stub
0x0003ADB6	0x00000006	[  0] __ZN9__gnu_cxx13new_allocatorISt4pairIKi10CEPollDescEED2Ev$stub
0x0003ADBC	0x00000006	[  0] __ZN9__gnu_cxx13new_allocatorISt4pairIKi12CMultiplexerEE7destroyEPS4_$stub
0x0003ADC2	0x00000006	[  0] __ZN9__gnu_cxx13new_allocatorISt4pairIKi12CMultiplexerEE9constructEPS4_RKS4_$stub
0x0003ADC8	0x00000006	[  0] __ZN9__gnu_cxx13new_allocatorISt4pairIKi12CMultiplexerEEC2Ev$stub
0x0003ADCE	0x00000006	[  0] __ZN9__gnu_cxx13new_allocatorISt4pairIKi12CMultiplexerEED2Ev$stub
0x0003ADD4	0x00000006	[  0] __ZN9__gnu_cxx13new_allocatorISt4pairIKiP10CUDTSocketEE7destroyEPS5_$stub
0x0003ADDA	0x00000006	[  0] __ZN9__gnu_cxx13new_allocatorISt4pairIKiP10CUDTSocketEE9constructEPS5_RKS5_$stub
0x0003ADE0	0x00000006	[  0] __ZN9__gnu_cxx13new_allocatorISt4pairIKiP10CUDTSocketEEC2Ev$stub
0x0003ADE6	0x00000006	[  0] __ZN9__gnu_cxx13new_allocatorISt4pairIKiP10CUDTSocketEED2Ev$stub
0x0003ADEC	0x00000006	[  0] __ZN9__gnu_cxx13new_allocatorISt4pairIKiSt5queueIP7CPacketSt5dequeIS5_SaIS5_EEEEE7destroyEPSA_$stub
0x0003ADF2	0x00000006	[  0] __ZN9__gnu_cxx13new_allocatorISt4pairIKiSt5queueIP7CPacketSt5dequeIS5_SaIS5_EEEEE9constructEPSA_RKSA_$stub
0x0003ADF8	0x00000006	[  0] __ZN9__gnu_cxx13new_allocatorISt4pairIKiSt5queueIP7CPacketSt5dequeIS5_SaIS5_EEEEEC2Ev$stub
0x0003ADFE	0x00000006	[  0] __ZN9__gnu_cxx13new_allocatorISt4pairIKiSt5queueIP7CPacketSt5dequeIS5_SaIS5_EEEEED2Ev$stub
0x0003AE04	0x00000006	[  0] __ZN9__gnu_cxx13new_allocatorISt4pairIKxSt3setIiSt4lessIiESaIiEEEE7destroyEPS8_$stub
0x0003AE0A	0x00000006	[  0] __ZN9__gnu_cxx13new_allocatorISt4pairIKxSt3setIiSt4lessIiESaIiEEEE9constructEPS8_RKS8_$stub
0x0003AE10	0x00000006	[  0] __ZN9__gnu_cxx13new_allocatorISt4pairIKxSt3setIiSt4lessIiESaIiEEEEC2Ev$stub
0x0003AE16	0x00000006	[  0] __ZN9__gnu_cxx13new_allocatorISt4pairIKxSt3setIiSt4lessIiESaIiEEEED2Ev$stub
0x0003AE1C	0x00000006	[  0] __ZN9__gnu_cxx13new_allocatorIiE10deallocateEPim$stub
0x0003AE22	0x00000006	[  0] __ZN9__gnu_cxx13new_allocatorIiE7destroyEPi$stub
0x0003AE28	0x00000006	[  0] __ZN9__gnu_cxx13new_allocatorIiE8allocateEmPKv$stub
0x0003AE2E	0x00000006	[  0] __ZN9__gnu_cxx13new_allocatorIiE9constructEPiRKi$stub
0x0003AE34	0x00000006	[  0] __ZN9__gnu_cxx13new_allocatorIiEC2ERKS1_$stub
0x0003AE3A	0x00000006	[  0] __ZN9__gnu_cxx13new_allocatorIiEC2Ev$stub
0x0003AE40	0x00000006	[  0] __ZN9__gnu_cxx13new_allocatorIiED2Ev$stub
0x0003AE46	0x00000006	[  0] __ZN9__gnu_cxx17__normal_iteratorIPKP4CUDTSt6vectorIS2_SaIS2_EEEC1ERKS4_$stub
0x0003AE4C	0x00000006	[  0] __ZN9__gnu_cxx17__normal_iteratorIPKiSt6vectorIiSaIiEEEC1ERKS2_$stub
0x0003AE52	0x00000006	[  0] __ZN9__gnu_cxx17__normal_iteratorIPKiSt6vectorIiSaIiEEEppEv$stub
0x0003AE58	0x00000006	[  0] __ZN9__gnu_cxx17__normal_iteratorIPN16CRendezvousQueue3CRLESt6vectorIS2_SaIS2_EEEC1ERKS3_$stub
0x0003AE5E	0x00000006	[  0] __ZN9__gnu_cxx17__normal_iteratorIPN16CRendezvousQueue3CRLESt6vectorIS2_SaIS2_EEEppEv$stub
0x0003AE64	0x00000006	[  0] __ZN9__gnu_cxx17__normal_iteratorIPP10CUDTSocketSt6vectorIS2_SaIS2_EEEC1ERKS3_$stub
0x0003AE6A	0x00000006	[  0] __ZN9__gnu_cxx17__normal_iteratorIPP10CUDTSocketSt6vectorIS2_SaIS2_EEEppEv$stub
0x0003AE70	0x00000006	[  0] __ZN9__gnu_cxx17__normal_iteratorIPP4CUDTSt6vectorIS2_SaIS2_EEEC1ERKS3_$stub
0x0003AE76	0x00000006	[  0] __ZN9__gnu_cxx17__normal_iteratorIPiSt6vectorIiSaIiEEEC1ERKS1_$stub
0x0003AE7C	0x00000006	[  0] __ZN9__gnu_cxx17__normal_iteratorIPiSt6vectorIiSaIiEEEC1Ev$stub
0x0003AE82	0x00000006	[  0] __ZN9__gnu_cxx17__normal_iteratorIPiSt6vectorIiSaIiEEEppEv$stub
0x0003AE88	0x00000006	[  0] __ZN9__gnu_cxxeqIPKP4CUDTSt6vectorIS2_SaIS2_EEEEbRKNS_17__normal_iteratorIT_T0_EESD_$stub
0x0003AE8E	0x00000006	[  0] __ZN9__gnu_cxxeqIPKiSt6vectorIiSaIiEEEEbRKNS_17__normal_iteratorIT_T0_EESB_$stub
0x0003AE94	0x00000006	[  0] __ZN9__gnu_cxxeqIPN16CRendezvousQueue3CRLESt6vectorIS2_SaIS2_EEEEbRKNS_17__normal_iteratorIT_T0_EESC_$stub
0x0003AE9A	0x00000006	[  0] __ZN9__gnu_cxxeqIPP10CUDTSocketSt6vectorIS2_SaIS2_EEEEbRKNS_17__normal_iteratorIT_T0_EESC_$stub
0x0003AEA0	0x00000006	[  0] __ZN9__gnu_cxxeqIPP4CUDTSt6vectorIS2_SaIS2_EEEEbRKNS_17__normal_iteratorIT_T0_EESC_$stub
0x0003AEA6	0x00000006	[  0] __ZN9__gnu_cxxmiIPN16CRendezvousQueue3CRLESt6vectorIS2_SaIS2_EEEENS_17__normal_iteratorIT_T0_E15difference_typeERKSA_SD_$stub
0x0003AEAC	0x00000006	[  0] __ZN9__gnu_cxxmiIPP10CUDTSocketSt6vectorIS2_SaIS2_EEEENS_17__normal_iteratorIT_T0_E15difference_typeERKSA_SD_$stub
0x0003AEB2	0x00000006	[  0] __ZN9__gnu_cxxmiIPP4CUDTSt6vectorIS2_SaIS2_EEEENS_17__normal_iteratorIT_T0_E15difference_typeERKSA_SD_$stub
0x0003AEB8	0x00000006	[  0] __ZN9__gnu_cxxmiIPiSt6vectorIiSaIiEEEENS_17__normal_iteratorIT_T0_E15difference_typeERKS8_SB_$stub
0x0003AEBE	0x00000006	[  0] __ZN9__gnu_cxxneIPKiSt6vectorIiSaIiEEEEbRKNS_17__normal_iteratorIT_T0_EESB_$stub
0x0003AEC4	0x00000006	[  0] __ZN9__gnu_cxxneIPN16CRendezvousQueue3CRLESt6vectorIS2_SaIS2_EEEEbRKNS_17__normal_iteratorIT_T0_EESC_$stub
0x0003AECA	0x00000006	[  0] __ZN9__gnu_cxxneIPP10CUDTSocketSt6vectorIS2_SaIS2_EEEEbRKNS_17__normal_iteratorIT_T0_EESC_$stub
0x0003AED0	0x00000006	[  0] __ZN9__gnu_cxxneIPP4CUDTSt6vectorIS2_SaIS2_EEEEbRKNS_17__normal_iteratorIT_T0_EESC_$stub
0x0003AED6	0x00000006	[  0] __ZN9__gnu_cxxneIPiSt6vectorIiSaIiEEEEbRKNS_17__normal_iteratorIT_T0_EESA_$stub
0x0003AEDC	0x00000006	[  0] __ZNK9__gnu_cxx13new_allocatorIN16CRendezvousQueue3CRLEE8max_sizeEv$stub
0x0003AEE2	0x00000006	[  0] __ZNK9__gnu_cxx13new_allocatorIP10CUDTSocketE8max_sizeEv$stub
0x0003AEE8	0x00000006	[  0] __ZNK9__gnu_cxx13new_allocatorIP4CUDTE8max_sizeEv$stub
0x0003AEEE	0x00000006	[  0] __ZNK9__gnu_cxx13new_allocatorIP7CPacketE8max_sizeEv$stub
0x0003AEF4	0x00000006	[  0] __ZNK9__gnu_cxx13new_allocatorIPP7CPacketE8max_sizeEv$stub
0x0003AEFA	0x00000006	[  0] __ZNK9__gnu_cxx13new_allocatorISt13_Rb_tree_nodeIP10CInfoBlockEE8max_sizeEv$stub
0x0003AF00	0x00000006	[  0] __ZNK9__gnu_cxx13new_allocatorISt13_Rb_tree_nodeISt4pairIKi10CEPollDescEEE8max_sizeEv$stub
0x0003AF06	0x00000006	[  0] __ZNK9__gnu_cxx13new_allocatorISt13_Rb_tree_nodeISt4pairIKi12CMultiplexerEEE8max_sizeEv$stub
0x0003AF0C	0x00000006	[  0] __ZNK9__gnu_cxx13new_allocatorISt13_Rb_tree_nodeISt4pairIKiP10CUDTSocketEEE8max_sizeEv$stub
0x0003AF12	0x00000006	[  0] __ZNK9__gnu_cxx13new_allocatorISt13_Rb_tree_nodeISt4pairIKiSt5queueIP7CPacketSt5dequeIS6_SaIS6_EEEEEE8max_sizeEv$stub
0x0003AF18	0x00000006	[  0] __ZNK9__gnu_cxx13new_allocatorISt13_Rb_tree_nodeISt4pairIKxSt3setIiSt4lessIiESaIiEEEEE8max_sizeEv$stub
0x0003AF1E	0x00000006	[  0] __ZNK9__gnu_cxx13new_allocatorISt13_Rb_tree_nodeIiEE8max_sizeEv$stub
0x0003AF24	0x00000006	[  0] __ZNK9__gnu_cxx13new_allocatorIiE8max_sizeEv$stub
0x0003AF2A	0x00000006	[  0] __ZNK9__gnu_cxx17__normal_iteratorIPKP4CUDTSt6vectorIS2_SaIS2_EEE4baseEv$stub
0x0003AF30	0x00000006	[  0] __ZNK9__gnu_cxx17__normal_iteratorIPKiSt6vectorIiSaIiEEE4baseEv$stub
0x0003AF36	0x00000006	[  0] __ZNK9__gnu_cxx17__normal_iteratorIPKiSt6vectorIiSaIiEEEdeEv$stub
0x0003AF3C	0x00000006	[  0] __ZNK9__gnu_cxx17__normal_iteratorIPN16CRendezvousQueue3CRLESt6vectorIS2_SaIS2_EEE4baseEv$stub
0x0003AF42	0x00000006	[  0] __ZNK9__gnu_cxx17__normal_iteratorIPN16CRendezvousQueue3CRLESt6vectorIS2_SaIS2_EEEdeEv$stub
0x0003AF48	0x00000006	[  0] __ZNK9__gnu_cxx17__normal_iteratorIPN16CRendezvousQueue3CRLESt6vectorIS2_SaIS2_EEEplERKl$stub
0x0003AF4E	0x00000006	[  0] __ZNK9__gnu_cxx17__normal_iteratorIPN16CRendezvousQueue3CRLESt6vectorIS2_SaIS2_EEEptEv$stub
0x0003AF54	0x00000006	[  0] __ZNK9__gnu_cxx17__normal_iteratorIPP10CUDTSocketSt6vectorIS2_SaIS2_EEE4baseEv$stub
0x0003AF5A	0x00000006	[  0] __ZNK9__gnu_cxx17__normal_iteratorIPP10CUDTSocketSt6vectorIS2_SaIS2_EEEdeEv$stub
0x0003AF60	0x00000006	[  0] __ZNK9__gnu_cxx17__normal_iteratorIPP4CUDTSt6vectorIS2_SaIS2_EEE4baseEv$stub
0x0003AF66	0x00000006	[  0] __ZNK9__gnu_cxx17__normal_iteratorIPP4CUDTSt6vectorIS2_SaIS2_EEEdeEv$stub
0x0003AF6C	0x00000006	[  0] __ZNK9__gnu_cxx17__normal_iteratorIPP4CUDTSt6vectorIS2_SaIS2_EEEplERKl$stub
0x0003AF72	0x00000006	[  0] __ZNK9__gnu_cxx17__normal_iteratorIPiSt6vectorIiSaIiEEE4baseEv$stub
0x0003AF78	0x00000006	[  0] __ZNK9__gnu_cxx17__normal_iteratorIPiSt6vectorIiSaIiEEEdeEv$stub
0x0003AF7E	0x00000006	[  0] __ZNKSi6gcountEv$stub
0x0003AF84	0x00000006	[  0] __ZNKSs4sizeEv$stub
0x0003AF8A	0x00000006	[  0] __ZNKSs5c_strEv$stub
0x0003AF90	0x00000006	[  0] __ZNKSsixEm$stub
0x0003AF96	0x00000006	[  0] __ZNKSt10_Select1stISt4pairIKi10CEPollDescEEclERKS3_$stub
0x0003AF9C	0x00000006	[  0] __ZNKSt10_Select1stISt4pairIKi12CMultiplexerEEclERKS3_$stub
0x0003AFA2	0x00000006	[  0] __ZNKSt10_Select1stISt4pairIKiP10CUDTSocketEEclERKS4_$stub
0x0003AFA8	0x00000006	[  0] __ZNKSt10_Select1stISt4pairIKiSt5queueIP7CPacketSt5dequeIS4_SaIS4_EEEEEclERKS9_$stub
0x0003AFAE	0x00000006	[  0] __ZNKSt10_Select1stISt4pairIKxSt3setIiSt4lessIiESaIiEEEEclERKS7_$stub
0x0003AFB4	0x00000006	[  0] __ZNKSt11_Deque_baseIP7CPacketSaIS1_EE19_M_get_Tp_allocatorEv$stub
0x0003AFBA	0x00000006	[  0] __ZNKSt11_Deque_baseIP7CPacketSaIS1_EE20_M_get_map_allocatorEv$stub
0x0003AFC0	0x00000006	[  0] __ZNKSt12_Vector_baseIN16CRendezvousQueue3CRLESaIS1_EE19_M_get_Tp_allocatorEv$stub
0x0003AFC6	0x00000006	[  0] __ZNKSt12_Vector_baseIP10CUDTSocketSaIS1_EE19_M_get_Tp_allocatorEv$stub
0x0003AFCC	0x00000006	[  0] __ZNKSt12_Vector_baseIP4CUDTSaIS1_EE19_M_get_Tp_allocatorEv$stub
0x0003AFD2	0x00000006	[  0] __ZNKSt12_Vector_baseIiSaIiEE19_M_get_Tp_allocatorEv$stub
0x0003AFD8	0x00000006	[  0] __ZNKSt15_Deque_iteratorIP7CPacketRKS1_PS2_EdeEv$stub
0x0003AFDE	0x00000006	[  0] __ZNKSt15_Deque_iteratorIP7CPacketRS1_PS1_EdeEv$stub
0x0003AFE4	0x00000006	[  0] __ZNKSt17_Rb_tree_iteratorIP10CInfoBlockEeqERKS2_$stub
0x0003AFEA	0x00000006	[  0] __ZNKSt17_Rb_tree_iteratorIP10CInfoBlockEneERKS2_$stub
0x0003AFF0	0x00000006	[  0] __ZNKSt17_Rb_tree_iteratorISt4pairIKi10CEPollDescEEdeEv$stub
0x0003AFF6	0x00000006	[  0] __ZNKSt17_Rb_tree_iteratorISt4pairIKi10CEPollDescEEeqERKS4_$stub
0x0003AFFC	0x00000006	[  0] __ZNKSt17_Rb_tree_iteratorISt4pairIKi10CEPollDescEEptEv$stub
0x0003B002	0x00000006	[  0] __ZNKSt17_Rb_tree_iteratorISt4pairIKi12CMultiplexerEEdeEv$stub
0x0003B008	0x00000006	[  0] __ZNKSt17_Rb_tree_iteratorISt4pairIKi12CMultiplexerEEeqERKS4_$stub
0x0003B00E	0x00000006	[  0] __ZNKSt17_Rb_tree_iteratorISt4pairIKi12CMultiplexerEEneERKS4_$stub
0x0003B014	0x00000006	[  0] __ZNKSt17_Rb_tree_iteratorISt4pairIKi12CMultiplexerEEptEv$stub
0x0003B01A	0x00000006	[  0] __ZNKSt17_Rb_tree_iteratorISt4pairIKiP10CUDTSocketEEdeEv$stub
0x0003B020	0x00000006	[  0] __ZNKSt17_Rb_tree_iteratorISt4pairIKiP10CUDTSocketEEeqERKS5_$stub
0x0003B026	0x00000006	[  0] __ZNKSt17_Rb_tree_iteratorISt4pairIKiP10CUDTSocketEEneERKS5_$stub
0x0003B02C	0x00000006	[  0] __ZNKSt17_Rb_tree_iteratorISt4pairIKiP10CUDTSocketEEptEv$stub
0x0003B032	0x00000006	[  0] __ZNKSt17_Rb_tree_iteratorISt4pairIKiSt5queueIP7CPacketSt5dequeIS4_SaIS4_EEEEEdeEv$stub
0x0003B038	0x00000006	[  0] __ZNKSt17_Rb_tree_iteratorISt4pairIKiSt5queueIP7CPacketSt5dequeIS4_SaIS4_EEEEEeqERKSA_$stub
0x0003B03E	0x00000006	[  0] __ZNKSt17_Rb_tree_iteratorISt4pairIKiSt5queueIP7CPacketSt5dequeIS4_SaIS4_EEEEEneERKSA_$stub
0x0003B044	0x00000006	[  0] __ZNKSt17_Rb_tree_iteratorISt4pairIKiSt5queueIP7CPacketSt5dequeIS4_SaIS4_EEEEEptEv$stub
0x0003B04A	0x00000006	[  0] __ZNKSt17_Rb_tree_iteratorISt4pairIKxSt3setIiSt4lessIiESaIiEEEEdeEv$stub
0x0003B050	0x00000006	[  0] __ZNKSt17_Rb_tree_iteratorISt4pairIKxSt3setIiSt4lessIiESaIiEEEEeqERKS8_$stub
0x0003B056	0x00000006	[  0] __ZNKSt17_Rb_tree_iteratorISt4pairIKxSt3setIiSt4lessIiESaIiEEEEneERKS8_$stub
0x0003B05C	0x00000006	[  0] __ZNKSt17_Rb_tree_iteratorISt4pairIKxSt3setIiSt4lessIiESaIiEEEEptEv$stub
0x0003B062	0x00000006	[  0] __ZNKSt17_Rb_tree_iteratorIiEeqERKS0_$stub
0x0003B068	0x00000006	[  0] __ZNKSt17_Rb_tree_iteratorIiEneERKS0_$stub
0x0003B06E	0x00000006	[  0] __ZNKSt23_Rb_tree_const_iteratorIP10CInfoBlockEdeEv$stub
0x0003B074	0x00000006	[  0] __ZNKSt23_Rb_tree_const_iteratorIP10CInfoBlockEeqERKS2_$stub
0x0003B07A	0x00000006	[  0] __ZNKSt23_Rb_tree_const_iteratorIP10CInfoBlockEneERKS2_$stub
0x0003B080	0x00000006	[  0] __ZNKSt23_Rb_tree_const_iteratorIiEdeEv$stub
0x0003B086	0x00000006	[  0] __ZNKSt23_Rb_tree_const_iteratorIiEneERKS0_$stub
0x0003B08C	0x00000006	[  0] __ZNKSt3mapIi10CEPollDescSt4lessIiESaISt4pairIKiS0_EEE8key_compEv$stub
0x0003B092	0x00000006	[  0] __ZNKSt3mapIi12CMultiplexerSt4lessIiESaISt4pairIKiS0_EEE8key_compEv$stub
0x0003B098	0x00000006	[  0] __ZNKSt3mapIiP10CUDTSocketSt4lessIiESaISt4pairIKiS1_EEE5emptyEv$stub
0x0003B09E	0x00000006	[  0] __ZNKSt3mapIiP10CUDTSocketSt4lessIiESaISt4pairIKiS1_EEE8key_compEv$stub
0x0003B0A4	0x00000006	[  0] __ZNKSt3mapIiSt5queueIP7CPacketSt5dequeIS2_SaIS2_EEESt4lessIiESaISt4pairIKiS6_EEE8key_compEv$stub
0x0003B0AA	0x00000006	[  0] __ZNKSt3mapIxSt3setIiSt4lessIiESaIiEES1_IxESaISt4pairIKxS4_EEE8key_compEv$stub
0x0003B0B0	0x00000006	[  0] __ZNKSt3setIP10CInfoBlock7CIPCompSaIS1_EE3endEv$stub
0x0003B0B6	0x00000006	[  0] __ZNKSt3setIP10CInfoBlock7CTSCompSaIS1_EE3endEv$stub
0x0003B0BC	0x00000006	[  0] __ZNKSt3setIP10CInfoBlock7CTSCompSaIS1_EE4sizeEv$stub
0x0003B0C2	0x00000006	[  0] __ZNKSt3setIP10CInfoBlock7CTSCompSaIS1_EE5beginEv$stub
0x0003B0C8	0x00000006	[  0] __ZNKSt3setIiSt4lessIiESaIiEE3endEv$stub
0x0003B0CE	0x00000006	[  0] __ZNKSt3setIiSt4lessIiESaIiEE4sizeEv$stub
0x0003B0D4	0x00000006	[  0] __ZNKSt3setIiSt4lessIiESaIiEE5beginEv$stub
0x0003B0DA	0x00000006	[  0] __ZNKSt3setIiSt4lessIiESaIiEE5emptyEv$stub
0x0003B0E0	0x00000006	[  0] __ZNKSt4lessIiEclERKiS2_$stub
0x0003B0E6	0x00000006	[  0] __ZNKSt4lessIxEclERKxS2_$stub
0x0003B0EC	0x00000006	[  0] __ZNKSt5dequeIP7CPacketSaIS1_EE3endEv$stub
0x0003B0F2	0x00000006	[  0] __ZNKSt5dequeIP7CPacketSaIS1_EE4sizeEv$stub
0x0003B0F8	0x00000006	[  0] __ZNKSt5dequeIP7CPacketSaIS1_EE5beginEv$stub
0x0003B0FE	0x00000006	[  0] __ZNKSt5dequeIP7CPacketSaIS1_EE5emptyEv$stub
0x0003B104	0x00000006	[  0] __ZNKSt5queueIP7CPacketSt5dequeIS1_SaIS1_EEE4sizeEv$stub
0x0003B10A	0x00000006	[  0] __ZNKSt5queueIP7CPacketSt5dequeIS1_SaIS1_EEE5emptyEv$stub
0x0003B110	0x00000006	[  0] __ZNKSt6vectorIN16CRendezvousQueue3CRLESaIS1_EE4sizeEv$stub
0x0003B116	0x00000006	[  0] __ZNKSt6vectorIN16CRendezvousQueue3CRLESaIS1_EE8max_sizeEv$stub
0x0003B11C	0x00000006	[  0] __ZNKSt6vectorIP10CUDTSocketSaIS1_EE4sizeEv$stub
0x0003B122	0x00000006	[  0] __ZNKSt6vectorIP10CUDTSocketSaIS1_EE8max_sizeEv$stub
0x0003B128	0x00000006	[  0] __ZNKSt6vectorIP4CUDTSaIS1_EE3endEv$stub
0x0003B12E	0x00000006	[  0] __ZNKSt6vectorIP4CUDTSaIS1_EE4sizeEv$stub
0x0003B134	0x00000006	[  0] __ZNKSt6vectorIP4CUDTSaIS1_EE5beginEv$stub
0x0003B13A	0x00000006	[  0] __ZNKSt6vectorIP4CUDTSaIS1_EE5emptyEv$stub
0x0003B140	0x00000006	[  0] __ZNKSt6vectorIP4CUDTSaIS1_EE8max_sizeEv$stub
0x0003B146	0x00000006	[  0] __ZNKSt6vectorIiSaIiEE3endEv$stub
0x0003B14C	0x00000006	[  0] __ZNKSt6vectorIiSaIiEE4sizeEv$stub
0x0003B152	0x00000006	[  0] __ZNKSt6vectorIiSaIiEE5beginEv$stub
0x0003B158	0x00000006	[  0] __ZNKSt6vectorIiSaIiEE5emptyEv$stub
0x0003B15E	0x00000006	[  0] __ZNKSt6vectorIiSaIiEE8max_sizeEv$stub
0x0003B164	0x00000006	[  0] __ZNKSt8_Rb_treeIP10CInfoBlockS1_St9_IdentityIS1_E7CIPCompSaIS1_EE13get_allocatorEv$stub
0x0003B16A	0x00000006	[  0] __ZNKSt8_Rb_treeIP10CInfoBlockS1_St9_IdentityIS1_E7CIPCompSaIS1_EE21_M_get_Node_allocatorEv$stub
0x0003B170	0x00000006	[  0] __ZNKSt8_Rb_treeIP10CInfoBlockS1_St9_IdentityIS1_E7CIPCompSaIS1_EE3endEv$stub
0x0003B176	0x00000006	[  0] __ZNKSt8_Rb_treeIP10CInfoBlockS1_St9_IdentityIS1_E7CIPCompSaIS1_EE4sizeEv$stub
0x0003B17C	0x00000006	[  0] __ZNKSt8_Rb_treeIP10CInfoBlockS1_St9_IdentityIS1_E7CTSCompSaIS1_EE13get_allocatorEv$stub
0x0003B182	0x00000006	[  0] __ZNKSt8_Rb_treeIP10CInfoBlockS1_St9_IdentityIS1_E7CTSCompSaIS1_EE21_M_get_Node_allocatorEv$stub
0x0003B188	0x00000006	[  0] __ZNKSt8_Rb_treeIP10CInfoBlockS1_St9_IdentityIS1_E7CTSCompSaIS1_EE3endEv$stub
0x0003B18E	0x00000006	[  0] __ZNKSt8_Rb_treeIP10CInfoBlockS1_St9_IdentityIS1_E7CTSCompSaIS1_EE4sizeEv$stub
0x0003B194	0x00000006	[  0] __ZNKSt8_Rb_treeIP10CInfoBlockS1_St9_IdentityIS1_E7CTSCompSaIS1_EE5beginEv$stub
0x0003B19A	0x00000006	[  0] __ZNKSt8_Rb_treeIiSt4pairIKi10CEPollDescESt10_Select1stIS3_ESt4lessIiESaIS3_EE13get_allocatorEv$stub
0x0003B1A0	0x00000006	[  0] __ZNKSt8_Rb_treeIiSt4pairIKi10CEPollDescESt10_Select1stIS3_ESt4lessIiESaIS3_EE21_M_get_Node_allocatorEv$stub
0x0003B1A6	0x00000006	[  0] __ZNKSt8_Rb_treeIiSt4pairIKi10CEPollDescESt10_Select1stIS3_ESt4lessIiESaIS3_EE4sizeEv$stub
0x0003B1AC	0x00000006	[  0] __ZNKSt8_Rb_treeIiSt4pairIKi10CEPollDescESt10_Select1stIS3_ESt4lessIiESaIS3_EE8key_compEv$stub
0x0003B1B2	0x00000006	[  0] __ZNKSt8_Rb_treeIiSt4pairIKi12CMultiplexerESt10_Select1stIS3_ESt4lessIiESaIS3_EE13get_allocatorEv$stub
0x0003B1B8	0x00000006	[  0] __ZNKSt8_Rb_treeIiSt4pairIKi12CMultiplexerESt10_Select1stIS3_ESt4lessIiESaIS3_EE21_M_get_Node_allocatorEv$stub
0x0003B1BE	0x00000006	[  0] __ZNKSt8_Rb_treeIiSt4pairIKi12CMultiplexerESt10_Select1stIS3_ESt4lessIiESaIS3_EE4sizeEv$stub
0x0003B1C4	0x00000006	[  0] __ZNKSt8_Rb_treeIiSt4pairIKi12CMultiplexerESt10_Select1stIS3_ESt4lessIiESaIS3_EE8key_compEv$stub
0x0003B1CA	0x00000006	[  0] __ZNKSt8_Rb_treeIiSt4pairIKiP10CUDTSocketESt10_Select1stIS4_ESt4lessIiESaIS4_EE13get_allocatorEv$stub
0x0003B1D0	0x00000006	[  0] __ZNKSt8_Rb_treeIiSt4pairIKiP10CUDTSocketESt10_Select1stIS4_ESt4lessIiESaIS4_EE21_M_get_Node_allocatorEv$stub
0x0003B1D6	0x00000006	[  0] __ZNKSt8_Rb_treeIiSt4pairIKiP10CUDTSocketESt10_Select1stIS4_ESt4lessIiESaIS4_EE4sizeEv$stub
0x0003B1DC	0x00000006	[  0] __ZNKSt8_Rb_treeIiSt4pairIKiP10CUDTSocketESt10_Select1stIS4_ESt4lessIiESaIS4_EE5emptyEv$stub
0x0003B1E2	0x00000006	[  0] __ZNKSt8_Rb_treeIiSt4pairIKiP10CUDTSocketESt10_Select1stIS4_ESt4lessIiESaIS4_EE8key_compEv$stub
0x0003B1E8	0x00000006	[  0] __ZNKSt8_Rb_treeIiSt4pairIKiSt5queueIP7CPacketSt5dequeIS4_SaIS4_EEEESt10_Select1stIS9_ESt4lessIiESaIS9_EE13get_allocatorEv$stub
0x0003B1EE	0x00000006	[  0] __ZNKSt8_Rb_treeIiSt4pairIKiSt5queueIP7CPacketSt5dequeIS4_SaIS4_EEEESt10_Select1stIS9_ESt4lessIiESaIS9_EE21_M_get_Node_allocatorEv$stub
0x0003B1F4	0x00000006	[  0] __ZNKSt8_Rb_treeIiSt4pairIKiSt5queueIP7CPacketSt5dequeIS4_SaIS4_EEEESt10_Select1stIS9_ESt4lessIiESaIS9_EE4sizeEv$stub
0x0003B1FA	0x00000006	[  0] __ZNKSt8_Rb_treeIiSt4pairIKiSt5queueIP7CPacketSt5dequeIS4_SaIS4_EEEESt10_Select1stIS9_ESt4lessIiESaIS9_EE8key_compEv$stub
0x0003B200	0x00000006	[  0] __ZNKSt8_Rb_treeIiiSt9_IdentityIiESt4lessIiESaIiEE13get_allocatorEv$stub
0x0003B206	0x00000006	[  0] __ZNKSt8_Rb_treeIiiSt9_IdentityIiESt4lessIiESaIiEE21_M_get_Node_allocatorEv$stub
0x0003B20C	0x00000006	[  0] __ZNKSt8_Rb_treeIiiSt9_IdentityIiESt4lessIiESaIiEE3endEv$stub
0x0003B212	0x00000006	[  0] __ZNKSt8_Rb_treeIiiSt9_IdentityIiESt4lessIiESaIiEE4sizeEv$stub
0x0003B218	0x00000006	[  0] __ZNKSt8_Rb_treeIiiSt9_IdentityIiESt4lessIiESaIiEE5beginEv$stub
0x0003B21E	0x00000006	[  0] __ZNKSt8_Rb_treeIiiSt9_IdentityIiESt4lessIiESaIiEE5emptyEv$stub
0x0003B224	0x00000006	[  0] __ZNKSt8_Rb_treeIiiSt9_IdentityIiESt4lessIiESaIiEE7_M_rootEv$stub
0x0003B22A	0x00000006	[  0] __ZNKSt8_Rb_treeIiiSt9_IdentityIiESt4lessIiESaIiEE8_M_beginEv$stub
0x0003B230	0x00000006	[  0] __ZNKSt8_Rb_treeIxSt4pairIKxSt3setIiSt4lessIiESaIiEEESt10_Select1stIS7_ES3_IxESaIS7_EE13get_allocatorEv$stub
0x0003B236	0x00000006	[  0] __ZNKSt8_Rb_treeIxSt4pairIKxSt3setIiSt4lessIiESaIiEEESt10_Select1stIS7_ES3_IxESaIS7_EE21_M_get_Node_allocatorEv$stub
0x0003B23C	0x00000006	[  0] __ZNKSt8_Rb_treeIxSt4pairIKxSt3setIiSt4lessIiESaIiEEESt10_Select1stIS7_ES3_IxESaIS7_EE4sizeEv$stub
0x0003B242	0x00000006	[  0] __ZNKSt8_Rb_treeIxSt4pairIKxSt3setIiSt4lessIiESaIiEEESt10_Select1stIS7_ES3_IxESaIS7_EE8key_compEv$stub
0x0003B248	0x00000006	[  0] __ZNKSt9_IdentityIP10CInfoBlockEclERKS1_$stub
0x0003B24E	0x00000006	[  0] __ZNKSt9_IdentityIiEclERKi$stub
0x0003B254	0x00000006	[  0] __ZNKSt9basic_iosIcSt11char_traitsIcEE3badEv$stub
0x0003B25A	0x00000006	[  0] __ZNKSt9basic_iosIcSt11char_traitsIcEE3eofEv$stub
0x0003B260	0x00000006	[  0] __ZNKSt9basic_iosIcSt11char_traitsIcEE4failEv$stub
0x0003B266	0x00000006	[  0] __ZNSaIN16CRendezvousQueue3CRLEEC1ERKS1_$stub
0x0003B26C	0x00000006	[  0] __ZNSaIN16CRendezvousQueue3CRLEEC1Ev$stub
0x0003B272	0x00000006	[  0] __ZNSaIN16CRendezvousQueue3CRLEEC2ERKS1_$stub
0x0003B278	0x00000006	[  0] __ZNSaIN16CRendezvousQueue3CRLEED1Ev$stub
0x0003B27E	0x00000006	[  0] __ZNSaIN16CRendezvousQueue3CRLEED2Ev$stub
0x0003B284	0x00000006	[  0] __ZNSaIP10CInfoBlockEC1Ev$stub
0x0003B28A	0x00000006	[  0] __ZNSaIP10CInfoBlockEC1ISt13_Rb_tree_nodeIS0_EEERKSaIT_E$stub
0x0003B290	0x00000006	[  0] __ZNSaIP10CInfoBlockED1Ev$stub
0x0003B296	0x00000006	[  0] __ZNSaIP10CUDTSocketEC1ERKS1_$stub
0x0003B29C	0x00000006	[  0] __ZNSaIP10CUDTSocketEC1Ev$stub
0x0003B2A2	0x00000006	[  0] __ZNSaIP10CUDTSocketEC2ERKS1_$stub
0x0003B2A8	0x00000006	[  0] __ZNSaIP10CUDTSocketED1Ev$stub
0x0003B2AE	0x00000006	[  0] __ZNSaIP10CUDTSocketED2Ev$stub
0x0003B2B4	0x00000006	[  0] __ZNSaIP4CUDTEC1ERKS1_$stub
0x0003B2BA	0x00000006	[  0] __ZNSaIP4CUDTEC1Ev$stub
0x0003B2C0	0x00000006	[  0] __ZNSaIP4CUDTEC2ERKS1_$stub
0x0003B2C6	0x00000006	[  0] __ZNSaIP4CUDTED1Ev$stub
0x0003B2CC	0x00000006	[  0] __ZNSaIP4CUDTED2Ev$stub
0x0003B2D2	0x00000006	[  0] __ZNSaIP7CPacketEC1ERKS1_$stub
0x0003B2D8	0x00000006	[  0] __ZNSaIP7CPacketEC1Ev$stub
0x0003B2DE	0x00000006	[  0] __ZNSaIP7CPacketEC2ERKS1_$stub
0x0003B2E4	0x00000006	[  0] __ZNSaIP7CPacketED1Ev$stub
0x0003B2EA	0x00000006	[  0] __ZNSaIP7CPacketED2Ev$stub
0x0003B2F0	0x00000006	[  0] __ZNSaIPP7CPacketEC1IS0_EERKSaIT_E$stub
0x0003B2F6	0x00000006	[  0] __ZNSaIPP7CPacketED1Ev$stub
0x0003B2FC	0x00000006	[  0] __ZNSaISt13_Rb_tree_nodeIP10CInfoBlockEEC1IS1_EERKSaIT_E$stub
0x0003B302	0x00000006	[  0] __ZNSaISt13_Rb_tree_nodeIP10CInfoBlockEEC2ERKS3_$stub
0x0003B308	0x00000006	[  0] __ZNSaISt13_Rb_tree_nodeIP10CInfoBlockEED1Ev$stub
0x0003B30E	0x00000006	[  0] __ZNSaISt13_Rb_tree_nodeIP10CInfoBlockEED2Ev$stub
0x0003B314	0x00000006	[  0] __ZNSaISt13_Rb_tree_nodeISt4pairIKi10CEPollDescEEEC1IS3_EERKSaIT_E$stub
0x0003B31A	0x00000006	[  0] __ZNSaISt13_Rb_tree_nodeISt4pairIKi10CEPollDescEEEC2ERKS5_$stub
0x0003B320	0x00000006	[  0] __ZNSaISt13_Rb_tree_nodeISt4pairIKi10CEPollDescEEED1Ev$stub
0x0003B326	0x00000006	[  0] __ZNSaISt13_Rb_tree_nodeISt4pairIKi10CEPollDescEEED2Ev$stub
0x0003B32C	0x00000006	[  0] __ZNSaISt13_Rb_tree_nodeISt4pairIKi12CMultiplexerEEEC1IS3_EERKSaIT_E$stub
0x0003B332	0x00000006	[  0] __ZNSaISt13_Rb_tree_nodeISt4pairIKi12CMultiplexerEEEC2ERKS5_$stub
0x0003B338	0x00000006	[  0] __ZNSaISt13_Rb_tree_nodeISt4pairIKi12CMultiplexerEEED1Ev$stub
0x0003B33E	0x00000006	[  0] __ZNSaISt13_Rb_tree_nodeISt4pairIKi12CMultiplexerEEED2Ev$stub
0x0003B344	0x00000006	[  0] __ZNSaISt13_Rb_tree_nodeISt4pairIKiP10CUDTSocketEEEC1IS4_EERKSaIT_E$stub
0x0003B34A	0x00000006	[  0] __ZNSaISt13_Rb_tree_nodeISt4pairIKiP10CUDTSocketEEEC2ERKS6_$stub
0x0003B350	0x00000006	[  0] __ZNSaISt13_Rb_tree_nodeISt4pairIKiP10CUDTSocketEEED1Ev$stub
0x0003B356	0x00000006	[  0] __ZNSaISt13_Rb_tree_nodeISt4pairIKiP10CUDTSocketEEED2Ev$stub
0x0003B35C	0x00000006	[  0] __ZNSaISt13_Rb_tree_nodeISt4pairIKiSt5queueIP7CPacketSt5dequeIS4_SaIS4_EEEEEEC1IS9_EERKSaIT_E$stub
0x0003B362	0x00000006	[  0] __ZNSaISt13_Rb_tree_nodeISt4pairIKiSt5queueIP7CPacketSt5dequeIS4_SaIS4_EEEEEEC2ERKSB_$stub
0x0003B368	0x00000006	[  0] __ZNSaISt13_Rb_tree_nodeISt4pairIKiSt5queueIP7CPacketSt5dequeIS4_SaIS4_EEEEEED1Ev$stub
0x0003B36E	0x00000006	[  0] __ZNSaISt13_Rb_tree_nodeISt4pairIKiSt5queueIP7CPacketSt5dequeIS4_SaIS4_EEEEEED2Ev$stub
0x0003B374	0x00000006	[  0] __ZNSaISt13_Rb_tree_nodeISt4pairIKxSt3setIiSt4lessIiESaIiEEEEEC1IS7_EERKSaIT_E$stub
0x0003B37A	0x00000006	[  0] __ZNSaISt13_Rb_tree_nodeISt4pairIKxSt3setIiSt4lessIiESaIiEEEEEC2ERKS9_$stub
0x0003B380	0x00000006	[  0] __ZNSaISt13_Rb_tree_nodeISt4pairIKxSt3setIiSt4lessIiESaIiEEEEED1Ev$stub
0x0003B386	0x00000006	[  0] __ZNSaISt13_Rb_tree_nodeISt4pairIKxSt3setIiSt4lessIiESaIiEEEEED2Ev$stub
0x0003B38C	0x00000006	[  0] __ZNSaISt13_Rb_tree_nodeIiEEC1IiEERKSaIT_E$stub
0x0003B392	0x00000006	[  0] __ZNSaISt13_Rb_tree_nodeIiEEC2ERKS1_$stub
0x0003B398	0x00000006	[  0] __ZNSaISt13_Rb_tree_nodeIiEED1Ev$stub
0x0003B39E	0x00000006	[  0] __ZNSaISt13_Rb_tree_nodeIiEED2Ev$stub
0x0003B3A4	0x00000006	[  0] __ZNSaISt4pairIKi10CEPollDescEEC1Ev$stub
0x0003B3AA	0x00000006	[  0] __ZNSaISt4pairIKi10CEPollDescEEC1ISt13_Rb_tree_nodeIS2_EEERKSaIT_E$stub
0x0003B3B0	0x00000006	[  0] __ZNSaISt4pairIKi10CEPollDescEED1Ev$stub
0x0003B3B6	0x00000006	[  0] __ZNSaISt4pairIKi12CMultiplexerEEC1Ev$stub
0x0003B3BC	0x00000006	[  0] __ZNSaISt4pairIKi12CMultiplexerEEC1ISt13_Rb_tree_nodeIS2_EEERKSaIT_E$stub
0x0003B3C2	0x00000006	[  0] __ZNSaISt4pairIKi12CMultiplexerEED1Ev$stub
0x0003B3C8	0x00000006	[  0] __ZNSaISt4pairIKiP10CUDTSocketEEC1Ev$stub
0x0003B3CE	0x00000006	[  0] __ZNSaISt4pairIKiP10CUDTSocketEEC1ISt13_Rb_tree_nodeIS3_EEERKSaIT_E$stub
0x0003B3D4	0x00000006	[  0] __ZNSaISt4pairIKiP10CUDTSocketEED1Ev$stub
0x0003B3DA	0x00000006	[  0] __ZNSaISt4pairIKiSt5queueIP7CPacketSt5dequeIS3_SaIS3_EEEEEC1Ev$stub
0x0003B3E0	0x00000006	[  0] __ZNSaISt4pairIKiSt5queueIP7CPacketSt5dequeIS3_SaIS3_EEEEEC1ISt13_Rb_tree_nodeIS8_EEERKSaIT_E$stub
0x0003B3E6	0x00000006	[  0] __ZNSaISt4pairIKiSt5queueIP7CPacketSt5dequeIS3_SaIS3_EEEEED1Ev$stub
0x0003B3EC	0x00000006	[  0] __ZNSaISt4pairIKxSt3setIiSt4lessIiESaIiEEEEC1Ev$stub
0x0003B3F2	0x00000006	[  0] __ZNSaISt4pairIKxSt3setIiSt4lessIiESaIiEEEEC1ISt13_Rb_tree_nodeIS6_EEERKSaIT_E$stub
0x0003B3F8	0x00000006	[  0] __ZNSaISt4pairIKxSt3setIiSt4lessIiESaIiEEEED1Ev$stub
0x0003B3FE	0x00000006	[  0] __ZNSaIiEC1ERKS_$stub
0x0003B404	0x00000006	[  0] __ZNSaIiEC1Ev$stub
0x0003B40A	0x00000006	[  0] __ZNSaIiEC1ISt13_Rb_tree_nodeIiEEERKSaIT_E$stub
0x0003B410	0x00000006	[  0] __ZNSaIiEC2ERKS_$stub
0x0003B416	0x00000006	[  0] __ZNSaIiED1Ev$stub
0x0003B41C	0x00000006	[  0] __ZNSaIiED2Ev$stub
0x0003B422	0x00000006	[  0] __ZNSi4readEPcl$stub
0x0003B428	0x00000006	[  0] __ZNSi5seekgESt4fposI11__mbstate_tE$stub
0x0003B42E	0x00000006	[  0] __ZNSo5seekpESt4fposI11__mbstate_tE$stub
0x0003B434	0x00000006	[  0] __ZNSo5writeEPKcl$stub
0x0003B43A	0x00000006	[  0] __ZNSsC1Ev$stub
0x0003B440	0x00000006	[  0] __ZNSsD1Ev$stub
0x0003B446	0x00000006	[  0] __ZNSsaSEPKc$stub
0x0003B44C	0x00000006	[  0] __ZNSsaSERKSs$stub
0x0003B452	0x00000006	[  0] __ZNSspLEPKc$stub
0x0003B458	0x00000006	[  0] __ZNSt10_Select1stISt4pairIKi10CEPollDescEEC1Ev$stub
0x0003B45E	0x00000006	[  0] __ZNSt10_Select1stISt4pairIKi12CMultiplexerEEC1Ev$stub
0x0003B464	0x00000006	[  0] __ZNSt10_Select1stISt4pairIKiP10CUDTSocketEEC1Ev$stub
0x0003B46A	0x00000006	[  0] __ZNSt10_Select1stISt4pairIKiSt5queueIP7CPacketSt5dequeIS4_SaIS4_EEEEEC1Ev$stub
0x0003B470	0x00000006	[  0] __ZNSt10_Select1stISt4pairIKxSt3setIiSt4lessIiESaIiEEEEC1Ev$stub
0x0003B476	0x00000006	[  0] __ZNSt11_Deque_baseIP7CPacketSaIS1_EE11_Deque_implC1ERKS2_$stub
0x0003B47C	0x00000006	[  0] __ZNSt11_Deque_baseIP7CPacketSaIS1_EE11_Deque_implD1Ev$stub
0x0003B482	0x00000006	[  0] __ZNSt11_Deque_baseIP7CPacketSaIS1_EE15_M_allocate_mapEm$stub
0x0003B488	0x00000006	[  0] __ZNSt11_Deque_baseIP7CPacketSaIS1_EE15_M_create_nodesEPPS1_S5_$stub
0x0003B48E	0x00000006	[  0] __ZNSt11_Deque_baseIP7CPacketSaIS1_EE16_M_allocate_nodeEv$stub
0x0003B494	0x00000006	[  0] __ZNSt11_Deque_baseIP7CPacketSaIS1_EE16_M_destroy_nodesEPPS1_S5_$stub
0x0003B49A	0x00000006	[  0] __ZNSt11_Deque_baseIP7CPacketSaIS1_EE17_M_deallocate_mapEPPS1_m$stub
0x0003B4A0	0x00000006	[  0] __ZNSt11_Deque_baseIP7CPacketSaIS1_EE17_M_initialize_mapEm$stub
0x0003B4A6	0x00000006	[  0] __ZNSt11_Deque_baseIP7CPacketSaIS1_EE18_M_deallocate_nodeEPS1_$stub
0x0003B4AC	0x00000006	[  0] __ZNSt11_Deque_baseIP7CPacketSaIS1_EE19_M_get_Tp_allocatorEv$stub
0x0003B4B2	0x00000006	[  0] __ZNSt11_Deque_baseIP7CPacketSaIS1_EEC2ERKS2_m$stub
0x0003B4B8	0x00000006	[  0] __ZNSt11_Deque_baseIP7CPacketSaIS1_EED2Ev$stub
0x0003B4BE	0x00000006	[  0] __ZNSt12_Vector_baseIN16CRendezvousQueue3CRLESaIS1_EE11_M_allocateEm$stub
0x0003B4C4	0x00000006	[  0] __ZNSt12_Vector_baseIN16CRendezvousQueue3CRLESaIS1_EE12_Vector_implC1ERKS2_$stub
0x0003B4CA	0x00000006	[  0] __ZNSt12_Vector_baseIN16CRendezvousQueue3CRLESaIS1_EE12_Vector_implD1Ev$stub
0x0003B4D0	0x00000006	[  0] __ZNSt12_Vector_baseIN16CRendezvousQueue3CRLESaIS1_EE13_M_deallocateEPS1_m$stub
0x0003B4D6	0x00000006	[  0] __ZNSt12_Vector_baseIN16CRendezvousQueue3CRLESaIS1_EE19_M_get_Tp_allocatorEv$stub
0x0003B4DC	0x00000006	[  0] __ZNSt12_Vector_baseIN16CRendezvousQueue3CRLESaIS1_EEC2ERKS2_$stub
0x0003B4E2	0x00000006	[  0] __ZNSt12_Vector_baseIN16CRendezvousQueue3CRLESaIS1_EED2Ev$stub
0x0003B4E8	0x00000006	[  0] __ZNSt12_Vector_baseIP10CUDTSocketSaIS1_EE11_M_allocateEm$stub
0x0003B4EE	0x00000006	[  0] __ZNSt12_Vector_baseIP10CUDTSocketSaIS1_EE12_Vector_implC1ERKS2_$stub
0x0003B4F4	0x00000006	[  0] __ZNSt12_Vector_baseIP10CUDTSocketSaIS1_EE12_Vector_implD1Ev$stub
0x0003B4FA	0x00000006	[  0] __ZNSt12_Vector_baseIP10CUDTSocketSaIS1_EE13_M_deallocateEPS1_m$stub
0x0003B500	0x00000006	[  0] __ZNSt12_Vector_baseIP10CUDTSocketSaIS1_EE19_M_get_Tp_allocatorEv$stub
0x0003B506	0x00000006	[  0] __ZNSt12_Vector_baseIP10CUDTSocketSaIS1_EEC2ERKS2_$stub
0x0003B50C	0x00000006	[  0] __ZNSt12_Vector_baseIP10CUDTSocketSaIS1_EED2Ev$stub
0x0003B512	0x00000006	[  0] __ZNSt12_Vector_baseIP4CUDTSaIS1_EE11_M_allocateEm$stub
0x0003B518	0x00000006	[  0] __ZNSt12_Vector_baseIP4CUDTSaIS1_EE12_Vector_implC1ERKS2_$stub
0x0003B51E	0x00000006	[  0] __ZNSt12_Vector_baseIP4CUDTSaIS1_EE12_Vector_implD1Ev$stub
0x0003B524	0x00000006	[  0] __ZNSt12_Vector_baseIP4CUDTSaIS1_EE13_M_deallocateEPS1_m$stub
0x0003B52A	0x00000006	[  0] __ZNSt12_Vector_baseIP4CUDTSaIS1_EE19_M_get_Tp_allocatorEv$stub
0x0003B530	0x00000006	[  0] __ZNSt12_Vector_baseIP4CUDTSaIS1_EEC2ERKS2_$stub
0x0003B536	0x00000006	[  0] __ZNSt12_Vector_baseIP4CUDTSaIS1_EED2Ev$stub
0x0003B53C	0x00000006	[  0] __ZNSt12_Vector_baseIiSaIiEE11_M_allocateEm$stub
0x0003B542	0x00000006	[  0] __ZNSt12_Vector_baseIiSaIiEE12_Vector_implC1ERKS0_$stub
0x0003B548	0x00000006	[  0] __ZNSt12_Vector_baseIiSaIiEE12_Vector_implD1Ev$stub
0x0003B54E	0x00000006	[  0] __ZNSt12_Vector_baseIiSaIiEE13_M_deallocateEPim$stub
0x0003B554	0x00000006	[  0] __ZNSt12_Vector_baseIiSaIiEE19_M_get_Tp_allocatorEv$stub
0x0003B55A	0x00000006	[  0] __ZNSt12_Vector_baseIiSaIiEEC2ERKS0_$stub
0x0003B560	0x00000006	[  0] __ZNSt12_Vector_baseIiSaIiEED2Ev$stub
0x0003B566	0x00000006	[  0] __ZNSt13__copy_normalILb0ELb0EE8__copy_nIPP10CUDTSocketS4_EET0_T_S6_S5_$stub
0x0003B56C	0x00000006	[  0] __ZNSt13__copy_normalILb0ELb0EE8__copy_nIPP4CUDTS4_EET0_T_S6_S5_$stub
0x0003B572	0x00000006	[  0] __ZNSt13__copy_normalILb0ELb0EE8__copy_nIPPP7CPacketS5_EET0_T_S7_S6_$stub
0x0003B578	0x00000006	[  0] __ZNSt13__copy_normalILb0ELb0EE8__copy_nIPiS2_EET0_T_S4_S3_$stub
0x0003B57E	0x00000006	[  0] __ZNSt13__copy_normalILb0ELb0EE8__copy_nISt15_Deque_iteratorIP7CPacketRKS4_PS5_ES2_IS4_RS4_PS4_EEET0_T_SD_SC_$stub
0x0003B584	0x00000006	[  0] __ZNSt13__copy_normalILb1ELb1EE8__copy_nIN9__gnu_cxx17__normal_iteratorIPN16CRendezvousQueue3CRLESt6vectorIS5_SaIS5_EEEESA_EET0_T_SC_SB_$stub
0x0003B58A	0x00000006	[  0] __ZNSt13__copy_normalILb1ELb1EE8__copy_nIN9__gnu_cxx17__normal_iteratorIPP4CUDTSt6vectorIS5_SaIS5_EEEESA_EET0_T_SC_SB_$stub
0x0003B590	0x00000006	[  0] __ZNSt14unary_functionIP10CInfoBlockS1_EC2Ev$stub
0x0003B596	0x00000006	[  0] __ZNSt14unary_functionISt4pairIKi10CEPollDescES1_EC2Ev$stub
0x0003B59C	0x00000006	[  0] __ZNSt14unary_functionISt4pairIKi12CMultiplexerES1_EC2Ev$stub
0x0003B5A2	0x00000006	[  0] __ZNSt14unary_functionISt4pairIKiP10CUDTSocketES1_EC2Ev$stub
0x0003B5A8	0x00000006	[  0] __ZNSt14unary_functionISt4pairIKiSt5queueIP7CPacketSt5dequeIS4_SaIS4_EEEES1_EC2Ev$stub
0x0003B5AE	0x00000006	[  0] __ZNSt14unary_functionISt4pairIKxSt3setIiSt4lessIiESaIiEEES1_EC2Ev$stub
0x0003B5B4	0x00000006	[  0] __ZNSt14unary_functionIiiEC2Ev$stub
0x0003B5BA	0x00000006	[  0] __ZNSt15_Deque_iteratorIP7CPacketRKS1_PS2_E11_M_set_nodeEPPS1_$stub
0x0003B5C0	0x00000006	[  0] __ZNSt15_Deque_iteratorIP7CPacketRKS1_PS2_E14_S_buffer_sizeEv$stub
0x0003B5C6	0x00000006	[  0] __ZNSt15_Deque_iteratorIP7CPacketRKS1_PS2_EC1ERKS_IS1_RS1_PS1_E$stub
0x0003B5CC	0x00000006	[  0] __ZNSt15_Deque_iteratorIP7CPacketRKS1_PS2_EppEv$stub
0x0003B5D2	0x00000006	[  0] __ZNSt15_Deque_iteratorIP7CPacketRS1_PS1_E11_M_set_nodeEPS3_$stub
0x0003B5D8	0x00000006	[  0] __ZNSt15_Deque_iteratorIP7CPacketRS1_PS1_E14_S_buffer_sizeEv$stub
0x0003B5DE	0x00000006	[  0] __ZNSt15_Deque_iteratorIP7CPacketRS1_PS1_EC1ERKS4_$stub
0x0003B5E4	0x00000006	[  0] __ZNSt15_Deque_iteratorIP7CPacketRS1_PS1_EC1Ev$stub
0x0003B5EA	0x00000006	[  0] __ZNSt15_Deque_iteratorIP7CPacketRS1_PS1_EppEv$stub
0x0003B5F0	0x00000006	[  0] __ZNSt15__copy_backwardILb0ESt26random_access_iterator_tagE8__copy_bIPN16CRendezvousQueue3CRLES5_EET0_T_S7_S6_$stub
0x0003B5F6	0x00000006	[  0] __ZNSt15__copy_backwardILb1ESt26random_access_iterator_tagE8__copy_bIP10CUDTSocketEEPT_PKS5_S8_S6_$stub
0x0003B5FC	0x00000006	[  0] __ZNSt15__copy_backwardILb1ESt26random_access_iterator_tagE8__copy_bIP4CUDTEEPT_PKS5_S8_S6_$stub
0x0003B602	0x00000006	[  0] __ZNSt15__copy_backwardILb1ESt26random_access_iterator_tagE8__copy_bIPP7CPacketEEPT_PKS6_S9_S7_$stub
0x0003B608	0x00000006	[  0] __ZNSt15__copy_backwardILb1ESt26random_access_iterator_tagE8__copy_bIiEEPT_PKS3_S6_S4_$stub
0x0003B60E	0x00000006	[  0] __ZNSt15binary_functionIiibEC2Ev$stub
0x0003B614	0x00000006	[  0] __ZNSt15binary_functionIxxbEC2Ev$stub
0x0003B61A	0x00000006	[  0] __ZNSt17_Rb_tree_iteratorIP10CInfoBlockEC1EPSt13_Rb_tree_nodeIS1_E$stub
0x0003B620	0x00000006	[  0] __ZNSt17_Rb_tree_iteratorIP10CInfoBlockEmmEv$stub
0x0003B626	0x00000006	[  0] __ZNSt17_Rb_tree_iteratorIP10CInfoBlockEppEi$stub
0x0003B62C	0x00000006	[  0] __ZNSt17_Rb_tree_iteratorISt4pairIKi10CEPollDescEEC1EPSt13_Rb_tree_nodeIS3_E$stub
0x0003B632	0x00000006	[  0] __ZNSt17_Rb_tree_iteratorISt4pairIKi10CEPollDescEEC1Ev$stub
0x0003B638	0x00000006	[  0] __ZNSt17_Rb_tree_iteratorISt4pairIKi10CEPollDescEEmmEv$stub
0x0003B63E	0x00000006	[  0] __ZNSt17_Rb_tree_iteratorISt4pairIKi10CEPollDescEEppEv$stub
0x0003B644	0x00000006	[  0] __ZNSt17_Rb_tree_iteratorISt4pairIKi12CMultiplexerEEC1EPSt13_Rb_tree_nodeIS3_E$stub
0x0003B64A	0x00000006	[  0] __ZNSt17_Rb_tree_iteratorISt4pairIKi12CMultiplexerEEC1Ev$stub
0x0003B650	0x00000006	[  0] __ZNSt17_Rb_tree_iteratorISt4pairIKi12CMultiplexerEEmmEv$stub
0x0003B656	0x00000006	[  0] __ZNSt17_Rb_tree_iteratorISt4pairIKi12CMultiplexerEEppEv$stub
0x0003B65C	0x00000006	[  0] __ZNSt17_Rb_tree_iteratorISt4pairIKiP10CUDTSocketEEC1EPSt13_Rb_tree_nodeIS4_E$stub
0x0003B662	0x00000006	[  0] __ZNSt17_Rb_tree_iteratorISt4pairIKiP10CUDTSocketEEmmEv$stub
0x0003B668	0x00000006	[  0] __ZNSt17_Rb_tree_iteratorISt4pairIKiP10CUDTSocketEEppEi$stub
0x0003B66E	0x00000006	[  0] __ZNSt17_Rb_tree_iteratorISt4pairIKiP10CUDTSocketEEppEv$stub
0x0003B674	0x00000006	[  0] __ZNSt17_Rb_tree_iteratorISt4pairIKiSt5queueIP7CPacketSt5dequeIS4_SaIS4_EEEEEC1EPSt13_Rb_tree_nodeIS9_E$stub
0x0003B67A	0x00000006	[  0] __ZNSt17_Rb_tree_iteratorISt4pairIKiSt5queueIP7CPacketSt5dequeIS4_SaIS4_EEEEEmmEv$stub
0x0003B680	0x00000006	[  0] __ZNSt17_Rb_tree_iteratorISt4pairIKiSt5queueIP7CPacketSt5dequeIS4_SaIS4_EEEEEppEv$stub
0x0003B686	0x00000006	[  0] __ZNSt17_Rb_tree_iteratorISt4pairIKxSt3setIiSt4lessIiESaIiEEEEC1EPSt13_Rb_tree_nodeIS7_E$stub
0x0003B68C	0x00000006	[  0] __ZNSt17_Rb_tree_iteratorISt4pairIKxSt3setIiSt4lessIiESaIiEEEEmmEv$stub
0x0003B692	0x00000006	[  0] __ZNSt17_Rb_tree_iteratorISt4pairIKxSt3setIiSt4lessIiESaIiEEEEppEv$stub
0x0003B698	0x00000006	[  0] __ZNSt17_Rb_tree_iteratorIiEC1EPSt13_Rb_tree_nodeIiE$stub
0x0003B69E	0x00000006	[  0] __ZNSt17_Rb_tree_iteratorIiEmmEv$stub
0x0003B6A4	0x00000006	[  0] __ZNSt17_Rb_tree_iteratorIiEppEi$stub
0x0003B6AA	0x00000006	[  0] __ZNSt18_Rb_tree_node_base10_S_maximumEPS_$stub
0x0003B6B0	0x00000006	[  0] __ZNSt18_Rb_tree_node_base10_S_minimumEPS_$stub
0x0003B6B6	0x00000006	[  0] __ZNSt18input_iterator_tagC2Ev$stub
0x0003B6BC	0x00000006	[  0] __ZNSt20forward_iterator_tagC2Ev$stub
0x0003B6C2	0x00000006	[  0] __ZNSt22__copy_backward_normalILb0ELb0EE10__copy_b_nIPN16CRendezvousQueue3CRLES4_EET0_T_S6_S5_$stub
0x0003B6C8	0x00000006	[  0] __ZNSt22__copy_backward_normalILb0ELb0EE10__copy_b_nIPP10CUDTSocketS4_EET0_T_S6_S5_$stub
0x0003B6CE	0x00000006	[  0] __ZNSt22__copy_backward_normalILb0ELb0EE10__copy_b_nIPP4CUDTS4_EET0_T_S6_S5_$stub
0x0003B6D4	0x00000006	[  0] __ZNSt22__copy_backward_normalILb0ELb0EE10__copy_b_nIPPP7CPacketS5_EET0_T_S7_S6_$stub
0x0003B6DA	0x00000006	[  0] __ZNSt22__copy_backward_normalILb0ELb0EE10__copy_b_nIPiS2_EET0_T_S4_S3_$stub
0x0003B6E0	0x00000006	[  0] __ZNSt23_Rb_tree_const_iteratorIP10CInfoBlockEC1EPKSt13_Rb_tree_nodeIS1_E$stub
0x0003B6E6	0x00000006	[  0] __ZNSt23_Rb_tree_const_iteratorIP10CInfoBlockEC1ERKSt17_Rb_tree_iteratorIS1_E$stub
0x0003B6EC	0x00000006	[  0] __ZNSt23_Rb_tree_const_iteratorIP10CInfoBlockEppEv$stub
0x0003B6F2	0x00000006	[  0] __ZNSt23_Rb_tree_const_iteratorIiEC1EPKSt13_Rb_tree_nodeIiE$stub
0x0003B6F8	0x00000006	[  0] __ZNSt23_Rb_tree_const_iteratorIiEC1ERKSt17_Rb_tree_iteratorIiE$stub
0x0003B6FE	0x00000006	[  0] __ZNSt23_Rb_tree_const_iteratorIiEC1Ev$stub
0x0003B704	0x00000006	[  0] __ZNSt23_Rb_tree_const_iteratorIiEmmEv$stub
0x0003B70A	0x00000006	[  0] __ZNSt23_Rb_tree_const_iteratorIiEppEv$stub
0x0003B710	0x00000006	[  0] __ZNSt26bidirectional_iterator_tagC2Ev$stub
0x0003B716	0x00000006	[  0] __ZNSt26random_access_iterator_tagC1Ev$stub
0x0003B71C	0x00000006	[  0] __ZNSt3mapIi10CEPollDescSt4lessIiESaISt4pairIKiS0_EEE11lower_boundERS4_$stub
0x0003B722	0x00000006	[  0] __ZNSt3mapIi10CEPollDescSt4lessIiESaISt4pairIKiS0_EEE3endEv$stub
0x0003B728	0x00000006	[  0] __ZNSt3mapIi10CEPollDescSt4lessIiESaISt4pairIKiS0_EEE4findERS4_$stub
0x0003B72E	0x00000006	[  0] __ZNSt3mapIi10CEPollDescSt4lessIiESaISt4pairIKiS0_EEE5eraseESt17_Rb_tree_iteratorIS5_E$stub
0x0003B734	0x00000006	[  0] __ZNSt3mapIi10CEPollDescSt4lessIiESaISt4pairIKiS0_EEE6insertESt17_Rb_tree_iteratorIS5_ERKS5_$stub
0x0003B73A	0x00000006	[  0] __ZNSt3mapIi10CEPollDescSt4lessIiESaISt4pairIKiS0_EEEC1Ev$stub
0x0003B740	0x00000006	[  0] __ZNSt3mapIi10CEPollDescSt4lessIiESaISt4pairIKiS0_EEED1Ev$stub
0x0003B746	0x00000006	[  0] __ZNSt3mapIi10CEPollDescSt4lessIiESaISt4pairIKiS0_EEEixERS4_$stub
0x0003B74C	0x00000006	[  0] __ZNSt3mapIi12CMultiplexerSt4lessIiESaISt4pairIKiS0_EEE11lower_boundERS4_$stub
0x0003B752	0x00000006	[  0] __ZNSt3mapIi12CMultiplexerSt4lessIiESaISt4pairIKiS0_EEE3endEv$stub
0x0003B758	0x00000006	[  0] __ZNSt3mapIi12CMultiplexerSt4lessIiESaISt4pairIKiS0_EEE4findERS4_$stub
0x0003B75E	0x00000006	[  0] __ZNSt3mapIi12CMultiplexerSt4lessIiESaISt4pairIKiS0_EEE5beginEv$stub
0x0003B764	0x00000006	[  0] __ZNSt3mapIi12CMultiplexerSt4lessIiESaISt4pairIKiS0_EEE5eraseESt17_Rb_tree_iteratorIS5_E$stub
0x0003B76A	0x00000006	[  0] __ZNSt3mapIi12CMultiplexerSt4lessIiESaISt4pairIKiS0_EEE6insertESt17_Rb_tree_iteratorIS5_ERKS5_$stub
0x0003B770	0x00000006	[  0] __ZNSt3mapIi12CMultiplexerSt4lessIiESaISt4pairIKiS0_EEEC1Ev$stub
0x0003B776	0x00000006	[  0] __ZNSt3mapIi12CMultiplexerSt4lessIiESaISt4pairIKiS0_EEED1Ev$stub
0x0003B77C	0x00000006	[  0] __ZNSt3mapIi12CMultiplexerSt4lessIiESaISt4pairIKiS0_EEEixERS4_$stub
0x0003B782	0x00000006	[  0] __ZNSt3mapIiP10CUDTSocketSt4lessIiESaISt4pairIKiS1_EEE11lower_boundERS5_$stub
0x0003B788	0x00000006	[  0] __ZNSt3mapIiP10CUDTSocketSt4lessIiESaISt4pairIKiS1_EEE3endEv$stub
0x0003B78E	0x00000006	[  0] __ZNSt3mapIiP10CUDTSocketSt4lessIiESaISt4pairIKiS1_EEE4findERS5_$stub
0x0003B794	0x00000006	[  0] __ZNSt3mapIiP10CUDTSocketSt4lessIiESaISt4pairIKiS1_EEE5beginEv$stub
0x0003B79A	0x00000006	[  0] __ZNSt3mapIiP10CUDTSocketSt4lessIiESaISt4pairIKiS1_EEE5clearEv$stub
0x0003B7A0	0x00000006	[  0] __ZNSt3mapIiP10CUDTSocketSt4lessIiESaISt4pairIKiS1_EEE5eraseERS5_$stub
0x0003B7A6	0x00000006	[  0] __ZNSt3mapIiP10CUDTSocketSt4lessIiESaISt4pairIKiS1_EEE5eraseESt17_Rb_tree_iteratorIS6_E$stub
0x0003B7AC	0x00000006	[  0] __ZNSt3mapIiP10CUDTSocketSt4lessIiESaISt4pairIKiS1_EEE6insertERKS6_$stub
0x0003B7B2	0x00000006	[  0] __ZNSt3mapIiP10CUDTSocketSt4lessIiESaISt4pairIKiS1_EEE6insertESt17_Rb_tree_iteratorIS6_ERKS6_$stub
0x0003B7B8	0x00000006	[  0] __ZNSt3mapIiP10CUDTSocketSt4lessIiESaISt4pairIKiS1_EEEC1Ev$stub
0x0003B7BE	0x00000006	[  0] __ZNSt3mapIiP10CUDTSocketSt4lessIiESaISt4pairIKiS1_EEED1Ev$stub
0x0003B7C4	0x00000006	[  0] __ZNSt3mapIiP10CUDTSocketSt4lessIiESaISt4pairIKiS1_EEEixERS5_$stub
0x0003B7CA	0x00000006	[  0] __ZNSt3mapIiSt5queueIP7CPacketSt5dequeIS2_SaIS2_EEESt4lessIiESaISt4pairIKiS6_EEE11lower_boundERSA_$stub
0x0003B7D0	0x00000006	[  0] __ZNSt3mapIiSt5queueIP7CPacketSt5dequeIS2_SaIS2_EEESt4lessIiESaISt4pairIKiS6_EEE3endEv$stub
0x0003B7D6	0x00000006	[  0] __ZNSt3mapIiSt5queueIP7CPacketSt5dequeIS2_SaIS2_EEESt4lessIiESaISt4pairIKiS6_EEE4findERSA_$stub
0x0003B7DC	0x00000006	[  0] __ZNSt3mapIiSt5queueIP7CPacketSt5dequeIS2_SaIS2_EEESt4lessIiESaISt4pairIKiS6_EEE5beginEv$stub
0x0003B7E2	0x00000006	[  0] __ZNSt3mapIiSt5queueIP7CPacketSt5dequeIS2_SaIS2_EEESt4lessIiESaISt4pairIKiS6_EEE5eraseESt17_Rb_tree_iteratorISB_E$stub
0x0003B7E8	0x00000006	[  0] __ZNSt3mapIiSt5queueIP7CPacketSt5dequeIS2_SaIS2_EEESt4lessIiESaISt4pairIKiS6_EEE6insertESt17_Rb_tree_iteratorISB_ERKSB_$stub
0x0003B7EE	0x00000006	[  0] __ZNSt3mapIiSt5queueIP7CPacketSt5dequeIS2_SaIS2_EEESt4lessIiESaISt4pairIKiS6_EEEC1Ev$stub
0x0003B7F4	0x00000006	[  0] __ZNSt3mapIiSt5queueIP7CPacketSt5dequeIS2_SaIS2_EEESt4lessIiESaISt4pairIKiS6_EEED1Ev$stub
0x0003B7FA	0x00000006	[  0] __ZNSt3mapIiSt5queueIP7CPacketSt5dequeIS2_SaIS2_EEESt4lessIiESaISt4pairIKiS6_EEEixERSA_$stub
0x0003B800	0x00000006	[  0] __ZNSt3mapIxSt3setIiSt4lessIiESaIiEES1_IxESaISt4pairIKxS4_EEE11lower_boundERS7_$stub
0x0003B806	0x00000006	[  0] __ZNSt3mapIxSt3setIiSt4lessIiESaIiEES1_IxESaISt4pairIKxS4_EEE3endEv$stub
0x0003B80C	0x00000006	[  0] __ZNSt3mapIxSt3setIiSt4lessIiESaIiEES1_IxESaISt4pairIKxS4_EEE4findERS7_$stub
0x0003B812	0x00000006	[  0] __ZNSt3mapIxSt3setIiSt4lessIiESaIiEES1_IxESaISt4pairIKxS4_EEE5eraseESt17_Rb_tree_iteratorIS8_E$stub
0x0003B818	0x00000006	[  0] __ZNSt3mapIxSt3setIiSt4lessIiESaIiEES1_IxESaISt4pairIKxS4_EEE6insertESt17_Rb_tree_iteratorIS8_ERKS8_$stub
0x0003B81E	0x00000006	[  0] __ZNSt3mapIxSt3setIiSt4lessIiESaIiEES1_IxESaISt4pairIKxS4_EEEC1Ev$stub
0x0003B824	0x00000006	[  0] __ZNSt3mapIxSt3setIiSt4lessIiESaIiEES1_IxESaISt4pairIKxS4_EEED1Ev$stub
0x0003B82A	0x00000006	[  0] __ZNSt3mapIxSt3setIiSt4lessIiESaIiEES1_IxESaISt4pairIKxS4_EEEixERS7_$stub
0x0003B830	0x00000006	[  0] __ZNSt3setIP10CInfoBlock7CIPCompSaIS1_EE4findERKS1_$stub
0x0003B836	0x00000006	[  0] __ZNSt3setIP10CInfoBlock7CIPCompSaIS1_EE5eraseERKS1_$stub
0x0003B83C	0x00000006	[  0] __ZNSt3setIP10CInfoBlock7CIPCompSaIS1_EE5eraseESt23_Rb_tree_const_iteratorIS1_E$stub
0x0003B842	0x00000006	[  0] __ZNSt3setIP10CInfoBlock7CIPCompSaIS1_EE6insertERKS1_$stub
0x0003B848	0x00000006	[  0] __ZNSt3setIP10CInfoBlock7CIPCompSaIS1_EEC1Ev$stub
0x0003B84E	0x00000006	[  0] __ZNSt3setIP10CInfoBlock7CIPCompSaIS1_EED1Ev$stub
0x0003B854	0x00000006	[  0] __ZNSt3setIP10CInfoBlock7CTSCompSaIS1_EE5eraseERKS1_$stub
0x0003B85A	0x00000006	[  0] __ZNSt3setIP10CInfoBlock7CTSCompSaIS1_EE5eraseESt23_Rb_tree_const_iteratorIS1_E$stub
0x0003B860	0x00000006	[  0] __ZNSt3setIP10CInfoBlock7CTSCompSaIS1_EE6insertERKS1_$stub
0x0003B866	0x00000006	[  0] __ZNSt3setIP10CInfoBlock7CTSCompSaIS1_EEC1Ev$stub
0x0003B86C	0x00000006	[  0] __ZNSt3setIP10CInfoBlock7CTSCompSaIS1_EED1Ev$stub
0x0003B872	0x00000006	[  0] __ZNSt3setIiSt4lessIiESaIiEE5clearEv$stub
0x0003B878	0x00000006	[  0] __ZNSt3setIiSt4lessIiESaIiEE5eraseERKi$stub
0x0003B87E	0x00000006	[  0] __ZNSt3setIiSt4lessIiESaIiEE5eraseESt23_Rb_tree_const_iteratorIiE$stub
0x0003B884	0x00000006	[  0] __ZNSt3setIiSt4lessIiESaIiEE6insertERKi$stub
0x0003B88A	0x00000006	[  0] __ZNSt3setIiSt4lessIiESaIiEE6insertESt23_Rb_tree_const_iteratorIiERKi$stub
0x0003B890	0x00000006	[  0] __ZNSt3setIiSt4lessIiESaIiEEC1ERKS3_$stub
0x0003B896	0x00000006	[  0] __ZNSt3setIiSt4lessIiESaIiEEC1Ev$stub
0x0003B89C	0x00000006	[  0] __ZNSt3setIiSt4lessIiESaIiEED1Ev$stub
0x0003B8A2	0x00000006	[  0] __ZNSt3setIiSt4lessIiESaIiEEaSERKS3_$stub
0x0003B8A8	0x00000006	[  0] __ZNSt4fposI11__mbstate_tEC1Ex$stub
0x0003B8AE	0x00000006	[  0] __ZNSt4lessIiEC1Ev$stub
0x0003B8B4	0x00000006	[  0] __ZNSt4lessIxEC1Ev$stub
0x0003B8BA	0x00000006	[  0] __ZNSt4pairIKi10CEPollDescEC1ERKS2_$stub
0x0003B8C0	0x00000006	[  0] __ZNSt4pairIKi10CEPollDescEC1ERS0_RKS1_$stub
0x0003B8C6	0x00000006	[  0] __ZNSt4pairIKi10CEPollDescED1Ev$stub
0x0003B8CC	0x00000006	[  0] __ZNSt4pairIKi12CMultiplexerEC1ERS0_RKS1_$stub
0x0003B8D2	0x00000006	[  0] __ZNSt4pairIKi12CMultiplexerED1Ev$stub
0x0003B8D8	0x00000006	[  0] __ZNSt4pairIKiP10CUDTSocketEC1ERS0_RKS2_$stub
0x0003B8DE	0x00000006	[  0] __ZNSt4pairIKiP10CUDTSocketEC1IiS2_EERKS_IT_T0_E$stub
0x0003B8E4	0x00000006	[  0] __ZNSt4pairIKiP10CUDTSocketED1Ev$stub
0x0003B8EA	0x00000006	[  0] __ZNSt4pairIKiSt5queueIP7CPacketSt5dequeIS3_SaIS3_EEEEC1ERKS8_$stub
0x0003B8F0	0x00000006	[  0] __ZNSt4pairIKiSt5queueIP7CPacketSt5dequeIS3_SaIS3_EEEEC1ERS0_RKS7_$stub
0x0003B8F6	0x00000006	[  0] __ZNSt4pairIKiSt5queueIP7CPacketSt5dequeIS3_SaIS3_EEEED1Ev$stub
0x0003B8FC	0x00000006	[  0] __ZNSt4pairIKxSt3setIiSt4lessIiESaIiEEEC1ERKS6_$stub
0x0003B902	0x00000006	[  0] __ZNSt4pairIKxSt3setIiSt4lessIiESaIiEEEC1ERS0_RKS5_$stub
0x0003B908	0x00000006	[  0] __ZNSt4pairIKxSt3setIiSt4lessIiESaIiEEED1Ev$stub
0x0003B90E	0x00000006	[  0] __ZNSt4pairISt17_Rb_tree_iteratorIP10CInfoBlockES3_EC1ERKS3_S6_$stub
0x0003B914	0x00000006	[  0] __ZNSt4pairISt17_Rb_tree_iteratorIP10CInfoBlockEbEC1ERKS3_RKb$stub
0x0003B91A	0x00000006	[  0] __ZNSt4pairISt17_Rb_tree_iteratorIS_IKi10CEPollDescEEbEC1ERKS4_RKb$stub
0x0003B920	0x00000006	[  0] __ZNSt4pairISt17_Rb_tree_iteratorIS_IKi12CMultiplexerEEbEC1ERKS4_RKb$stub
0x0003B926	0x00000006	[  0] __ZNSt4pairISt17_Rb_tree_iteratorIS_IKiP10CUDTSocketEES5_EC1ERKS5_S8_$stub
0x0003B92C	0x00000006	[  0] __ZNSt4pairISt17_Rb_tree_iteratorIS_IKiP10CUDTSocketEEbEC1ERKS5_RKb$stub
0x0003B932	0x00000006	[  0] __ZNSt4pairISt17_Rb_tree_iteratorIS_IKiSt5queueIP7CPacketSt5dequeIS4_SaIS4_EEEEEbEC1ERKSA_RKb$stub
0x0003B938	0x00000006	[  0] __ZNSt4pairISt17_Rb_tree_iteratorIS_IKxSt3setIiSt4lessIiESaIiEEEEbEC1ERKS8_RKb$stub
0x0003B93E	0x00000006	[  0] __ZNSt4pairISt17_Rb_tree_iteratorIiES1_EC1ERKS1_S4_$stub
0x0003B944	0x00000006	[  0] __ZNSt4pairISt17_Rb_tree_iteratorIiEbEC1ERKS1_RKb$stub
0x0003B94A	0x00000006	[  0] __ZNSt4pairISt23_Rb_tree_const_iteratorIP10CInfoBlockEbEC1ERKS3_RKb$stub
0x0003B950	0x00000006	[  0] __ZNSt4pairISt23_Rb_tree_const_iteratorIiEbEC1ERKS1_RKb$stub
0x0003B956	0x00000006	[  0] __ZNSt4pairISt23_Rb_tree_const_iteratorIiEbEC1Ev$stub
0x0003B95C	0x00000006	[  0] __ZNSt4pairIiP10CUDTSocketEC1ERKiRKS1_$stub
0x0003B962	0x00000006	[  0] __ZNSt5dequeIP7CPacketSaIS1_EE15_M_destroy_dataESt15_Deque_iteratorIS1_RS1_PS1_ES7_RKS2_$stub
0x0003B968	0x00000006	[  0] __ZNSt5dequeIP7CPacketSaIS1_EE16_M_pop_front_auxEv$stub
0x0003B96E	0x00000006	[  0] __ZNSt5dequeIP7CPacketSaIS1_EE16_M_push_back_auxERKS1_$stub
0x0003B974	0x00000006	[  0] __ZNSt5dequeIP7CPacketSaIS1_EE17_M_reallocate_mapEmb$stub
0x0003B97A	0x00000006	[  0] __ZNSt5dequeIP7CPacketSaIS1_EE22_M_reserve_map_at_backEm$stub
0x0003B980	0x00000006	[  0] __ZNSt5dequeIP7CPacketSaIS1_EE24_M_destroy_data_dispatchESt15_Deque_iteratorIS1_RS1_PS1_ES7_St11__true_type$stub
0x0003B986	0x00000006	[  0] __ZNSt5dequeIP7CPacketSaIS1_EE3endEv$stub
0x0003B98C	0x00000006	[  0] __ZNSt5dequeIP7CPacketSaIS1_EE5beginEv$stub
0x0003B992	0x00000006	[  0] __ZNSt5dequeIP7CPacketSaIS1_EE5frontEv$stub
0x0003B998	0x00000006	[  0] __ZNSt5dequeIP7CPacketSaIS1_EE9pop_frontEv$stub
0x0003B99E	0x00000006	[  0] __ZNSt5dequeIP7CPacketSaIS1_EE9push_backERKS1_$stub
0x0003B9A4	0x00000006	[  0] __ZNSt5dequeIP7CPacketSaIS1_EEC1ERKS2_$stub
0x0003B9AA	0x00000006	[  0] __ZNSt5dequeIP7CPacketSaIS1_EEC1ERKS3_$stub
0x0003B9B0	0x00000006	[  0] __ZNSt5dequeIP7CPacketSaIS1_EED1Ev$stub
0x0003B9B6	0x00000006	[  0] __ZNSt5queueIP7CPacketSt5dequeIS1_SaIS1_EEE3popEv$stub
0x0003B9BC	0x00000006	[  0] __ZNSt5queueIP7CPacketSt5dequeIS1_SaIS1_EEE4pushERKS1_$stub
0x0003B9C2	0x00000006	[  0] __ZNSt5queueIP7CPacketSt5dequeIS1_SaIS1_EEE5frontEv$stub
0x0003B9C8	0x00000006	[  0] __ZNSt5queueIP7CPacketSt5dequeIS1_SaIS1_EEEC1ERKS4_$stub
0x0003B9CE	0x00000006	[  0] __ZNSt5queueIP7CPacketSt5dequeIS1_SaIS1_EEEC1ERKS5_$stub
0x0003B9D4	0x00000006	[  0] __ZNSt5queueIP7CPacketSt5dequeIS1_SaIS1_EEED1Ev$stub
0x0003B9DA	0x00000006	[  0] __ZNSt6__copyILb0ESt26random_access_iterator_tagE4copyIPN16CRendezvousQueue3CRLES5_EET0_T_S7_S6_$stub
0x0003B9E0	0x00000006	[  0] __ZNSt6__copyILb0ESt26random_access_iterator_tagE4copyISt15_Deque_iteratorIP7CPacketRKS5_PS6_ES3_IS5_RS5_PS5_EEET0_T_SE_SD_$stub
0x0003B9E6	0x00000006	[  0] __ZNSt6__copyILb1ESt26random_access_iterator_tagE4copyIP10CUDTSocketEEPT_PKS5_S8_S6_$stub
0x0003B9EC	0x00000006	[  0] __ZNSt6__copyILb1ESt26random_access_iterator_tagE4copyIP4CUDTEEPT_PKS5_S8_S6_$stub
0x0003B9F2	0x00000006	[  0] __ZNSt6__copyILb1ESt26random_access_iterator_tagE4copyIPP7CPacketEEPT_PKS6_S9_S7_$stub
0x0003B9F8	0x00000006	[  0] __ZNSt6__copyILb1ESt26random_access_iterator_tagE4copyIiEEPT_PKS3_S6_S4_$stub
0x0003B9FE	0x00000006	[  0] __ZNSt6vectorIN16CRendezvousQueue3CRLESaIS1_EE13_M_insert_auxEN9__gnu_cxx17__normal_iteratorIPS1_S3_EERKS1_$stub
0x0003BA04	0x00000006	[  0] __ZNSt6vectorIN16CRendezvousQueue3CRLESaIS1_EE15_M_erase_at_endEPS1_$stub
0x0003BA0A	0x00000006	[  0] __ZNSt6vectorIN16CRendezvousQueue3CRLESaIS1_EE3endEv$stub
0x0003BA10	0x00000006	[  0] __ZNSt6vectorIN16CRendezvousQueue3CRLESaIS1_EE5beginEv$stub
0x0003BA16	0x00000006	[  0] __ZNSt6vectorIN16CRendezvousQueue3CRLESaIS1_EE5clearEv$stub
0x0003BA1C	0x00000006	[  0] __ZNSt6vectorIN16CRendezvousQueue3CRLESaIS1_EE5eraseEN9__gnu_cxx17__normal_iteratorIPS1_S3_EE$stub
0x0003BA22	0x00000006	[  0] __ZNSt6vectorIN16CRendezvousQueue3CRLESaIS1_EE6insertEN9__gnu_cxx17__normal_iteratorIPS1_S3_EERKS1_$stub
0x0003BA28	0x00000006	[  0] __ZNSt6vectorIN16CRendezvousQueue3CRLESaIS1_EEC1ERKS2_$stub
0x0003BA2E	0x00000006	[  0] __ZNSt6vectorIN16CRendezvousQueue3CRLESaIS1_EED1Ev$stub
0x0003BA34	0x00000006	[  0] __ZNSt6vectorIP10CUDTSocketSaIS1_EE13_M_insert_auxEN9__gnu_cxx17__normal_iteratorIPS1_S3_EERKS1_$stub
0x0003BA3A	0x00000006	[  0] __ZNSt6vectorIP10CUDTSocketSaIS1_EE3endEv$stub
0x0003BA40	0x00000006	[  0] __ZNSt6vectorIP10CUDTSocketSaIS1_EE5beginEv$stub
0x0003BA46	0x00000006	[  0] __ZNSt6vectorIP10CUDTSocketSaIS1_EE6insertEN9__gnu_cxx17__normal_iteratorIPS1_S3_EERKS1_$stub
0x0003BA4C	0x00000006	[  0] __ZNSt6vectorIP10CUDTSocketSaIS1_EEC1ERKS2_$stub
0x0003BA52	0x00000006	[  0] __ZNSt6vectorIP10CUDTSocketSaIS1_EED1Ev$stub
0x0003BA58	0x00000006	[  0] __ZNSt6vectorIP4CUDTSaIS1_EE13_M_insert_auxEN9__gnu_cxx17__normal_iteratorIPS1_S3_EERKS1_$stub
0x0003BA5E	0x00000006	[  0] __ZNSt6vectorIP4CUDTSaIS1_EE3endEv$stub
0x0003BA64	0x00000006	[  0] __ZNSt6vectorIP4CUDTSaIS1_EE5beginEv$stub
0x0003BA6A	0x00000006	[  0] __ZNSt6vectorIP4CUDTSaIS1_EE5eraseEN9__gnu_cxx17__normal_iteratorIPS1_S3_EE$stub
0x0003BA70	0x00000006	[  0] __ZNSt6vectorIP4CUDTSaIS1_EE6insertEN9__gnu_cxx17__normal_iteratorIPS1_S3_EERKS1_$stub
0x0003BA76	0x00000006	[  0] __ZNSt6vectorIP4CUDTSaIS1_EEC1ERKS2_$stub
0x0003BA7C	0x00000006	[  0] __ZNSt6vectorIP4CUDTSaIS1_EED1Ev$stub
0x0003BA82	0x00000006	[  0] __ZNSt6vectorIiSaIiEE13_M_insert_auxEN9__gnu_cxx17__normal_iteratorIPiS1_EERKi$stub
0x0003BA88	0x00000006	[  0] __ZNSt6vectorIiSaIiEE15_M_erase_at_endEPi$stub
0x0003BA8E	0x00000006	[  0] __ZNSt6vectorIiSaIiEE3endEv$stub
0x0003BA94	0x00000006	[  0] __ZNSt6vectorIiSaIiEE5beginEv$stub
0x0003BA9A	0x00000006	[  0] __ZNSt6vectorIiSaIiEE5clearEv$stub
0x0003BAA0	0x00000006	[  0] __ZNSt6vectorIiSaIiEE9push_backERKi$stub
0x0003BAA6	0x00000006	[  0] __ZNSt6vectorIiSaIiEEC1ERKS0_$stub
0x0003BAAC	0x00000006	[  0] __ZNSt6vectorIiSaIiEED1Ev$stub
0x0003BAB2	0x00000006	[  0] __ZNSt8_Rb_treeIP10CInfoBlockS1_St9_IdentityIS1_E7CIPCompSaIS1_EE11_M_get_nodeEv$stub
0x0003BAB8	0x00000006	[  0] __ZNSt8_Rb_treeIP10CInfoBlockS1_St9_IdentityIS1_E7CIPCompSaIS1_EE11_M_leftmostEv$stub
0x0003BABE	0x00000006	[  0] __ZNSt8_Rb_treeIP10CInfoBlockS1_St9_IdentityIS1_E7CIPCompSaIS1_EE11_M_put_nodeEPSt13_Rb_tree_nodeIS1_E$stub
0x0003BAC4	0x00000006	[  0] __ZNSt8_Rb_treeIP10CInfoBlockS1_St9_IdentityIS1_E7CIPCompSaIS1_EE11equal_rangeERKS1_$stub
0x0003BACA	0x00000006	[  0] __ZNSt8_Rb_treeIP10CInfoBlockS1_St9_IdentityIS1_E7CIPCompSaIS1_EE11lower_boundERKS1_$stub
0x0003BAD0	0x00000006	[  0] __ZNSt8_Rb_treeIP10CInfoBlockS1_St9_IdentityIS1_E7CIPCompSaIS1_EE11upper_boundERKS1_$stub
0x0003BAD6	0x00000006	[  0] __ZNSt8_Rb_treeIP10CInfoBlockS1_St9_IdentityIS1_E7CIPCompSaIS1_EE12_M_rightmostEv$stub
0x0003BADC	0x00000006	[  0] __ZNSt8_Rb_treeIP10CInfoBlockS1_St9_IdentityIS1_E7CIPCompSaIS1_EE13_Rb_tree_implIS4_Lb0EEC1ERKSaISt13_Rb_tree_nodeIS1_EERKS4_$stub
0x0003BAE2	0x00000006	[  0] __ZNSt8_Rb_treeIP10CInfoBlockS1_St9_IdentityIS1_E7CIPCompSaIS1_EE13_Rb_tree_implIS4_Lb0EED1Ev$stub
0x0003BAE8	0x00000006	[  0] __ZNSt8_Rb_treeIP10CInfoBlockS1_St9_IdentityIS1_E7CIPCompSaIS1_EE14_M_create_nodeERKS1_$stub
0x0003BAEE	0x00000006	[  0] __ZNSt8_Rb_treeIP10CInfoBlockS1_St9_IdentityIS1_E7CIPCompSaIS1_EE15_M_destroy_nodeEPSt13_Rb_tree_nodeIS1_E$stub
0x0003BAF4	0x00000006	[  0] __ZNSt8_Rb_treeIP10CInfoBlockS1_St9_IdentityIS1_E7CIPCompSaIS1_EE16_M_insert_uniqueERKS1_$stub
0x0003BAFA	0x00000006	[  0] __ZNSt8_Rb_treeIP10CInfoBlockS1_St9_IdentityIS1_E7CIPCompSaIS1_EE3endEv$stub
0x0003BB00	0x00000006	[  0] __ZNSt8_Rb_treeIP10CInfoBlockS1_St9_IdentityIS1_E7CIPCompSaIS1_EE4findERKS1_$stub
0x0003BB06	0x00000006	[  0] __ZNSt8_Rb_treeIP10CInfoBlockS1_St9_IdentityIS1_E7CIPCompSaIS1_EE5beginEv$stub
0x0003BB0C	0x00000006	[  0] __ZNSt8_Rb_treeIP10CInfoBlockS1_St9_IdentityIS1_E7CIPCompSaIS1_EE5clearEv$stub
0x0003BB12	0x00000006	[  0] __ZNSt8_Rb_treeIP10CInfoBlockS1_St9_IdentityIS1_E7CIPCompSaIS1_EE5eraseERKS1_$stub
0x0003BB18	0x00000006	[  0] __ZNSt8_Rb_treeIP10CInfoBlockS1_St9_IdentityIS1_E7CIPCompSaIS1_EE5eraseESt17_Rb_tree_iteratorIS1_E$stub
0x0003BB1E	0x00000006	[  0] __ZNSt8_Rb_treeIP10CInfoBlockS1_St9_IdentityIS1_E7CIPCompSaIS1_EE5eraseESt17_Rb_tree_iteratorIS1_ES8_$stub
0x0003BB24	0x00000006	[  0] __ZNSt8_Rb_treeIP10CInfoBlockS1_St9_IdentityIS1_E7CIPCompSaIS1_EE5eraseESt23_Rb_tree_const_iteratorIS1_E$stub
0x0003BB2A	0x00000006	[  0] __ZNSt8_Rb_treeIP10CInfoBlockS1_St9_IdentityIS1_E7CIPCompSaIS1_EE6_M_endEv$stub
0x0003BB30	0x00000006	[  0] __ZNSt8_Rb_treeIP10CInfoBlockS1_St9_IdentityIS1_E7CIPCompSaIS1_EE6_S_keyEPKSt13_Rb_tree_nodeIS1_E$stub
0x0003BB36	0x00000006	[  0] __ZNSt8_Rb_treeIP10CInfoBlockS1_St9_IdentityIS1_E7CIPCompSaIS1_EE6_S_keyEPKSt18_Rb_tree_node_base$stub
0x0003BB3C	0x00000006	[  0] __ZNSt8_Rb_treeIP10CInfoBlockS1_St9_IdentityIS1_E7CIPCompSaIS1_EE7_M_rootEv$stub
0x0003BB42	0x00000006	[  0] __ZNSt8_Rb_treeIP10CInfoBlockS1_St9_IdentityIS1_E7CIPCompSaIS1_EE7_S_leftEPSt18_Rb_tree_node_base$stub
0x0003BB48	0x00000006	[  0] __ZNSt8_Rb_treeIP10CInfoBlockS1_St9_IdentityIS1_E7CIPCompSaIS1_EE8_M_beginEv$stub
0x0003BB4E	0x00000006	[  0] __ZNSt8_Rb_treeIP10CInfoBlockS1_St9_IdentityIS1_E7CIPCompSaIS1_EE8_M_eraseEPSt13_Rb_tree_nodeIS1_E$stub
0x0003BB54	0x00000006	[  0] __ZNSt8_Rb_treeIP10CInfoBlockS1_St9_IdentityIS1_E7CIPCompSaIS1_EE8_S_rightEPSt18_Rb_tree_node_base$stub
0x0003BB5A	0x00000006	[  0] __ZNSt8_Rb_treeIP10CInfoBlockS1_St9_IdentityIS1_E7CIPCompSaIS1_EE8_S_valueEPKSt13_Rb_tree_nodeIS1_E$stub
0x0003BB60	0x00000006	[  0] __ZNSt8_Rb_treeIP10CInfoBlockS1_St9_IdentityIS1_E7CIPCompSaIS1_EE8_S_valueEPKSt18_Rb_tree_node_base$stub
0x0003BB66	0x00000006	[  0] __ZNSt8_Rb_treeIP10CInfoBlockS1_St9_IdentityIS1_E7CIPCompSaIS1_EE9_M_insertEPSt18_Rb_tree_node_baseS8_RKS1_$stub
0x0003BB6C	0x00000006	[  0] __ZNSt8_Rb_treeIP10CInfoBlockS1_St9_IdentityIS1_E7CIPCompSaIS1_EEC1ERKS4_RKS5_$stub
0x0003BB72	0x00000006	[  0] __ZNSt8_Rb_treeIP10CInfoBlockS1_St9_IdentityIS1_E7CIPCompSaIS1_EED1Ev$stub
0x0003BB78	0x00000006	[  0] __ZNSt8_Rb_treeIP10CInfoBlockS1_St9_IdentityIS1_E7CTSCompSaIS1_EE11_M_get_nodeEv$stub
0x0003BB7E	0x00000006	[  0] __ZNSt8_Rb_treeIP10CInfoBlockS1_St9_IdentityIS1_E7CTSCompSaIS1_EE11_M_leftmostEv$stub
0x0003BB84	0x00000006	[  0] __ZNSt8_Rb_treeIP10CInfoBlockS1_St9_IdentityIS1_E7CTSCompSaIS1_EE11_M_put_nodeEPSt13_Rb_tree_nodeIS1_E$stub
0x0003BB8A	0x00000006	[  0] __ZNSt8_Rb_treeIP10CInfoBlockS1_St9_IdentityIS1_E7CTSCompSaIS1_EE11equal_rangeERKS1_$stub
0x0003BB90	0x00000006	[  0] __ZNSt8_Rb_treeIP10CInfoBlockS1_St9_IdentityIS1_E7CTSCompSaIS1_EE11lower_boundERKS1_$stub
0x0003BB96	0x00000006	[  0] __ZNSt8_Rb_treeIP10CInfoBlockS1_St9_IdentityIS1_E7CTSCompSaIS1_EE11upper_boundERKS1_$stub
0x0003BB9C	0x00000006	[  0] __ZNSt8_Rb_treeIP10CInfoBlockS1_St9_IdentityIS1_E7CTSCompSaIS1_EE12_M_rightmostEv$stub
0x0003BBA2	0x00000006	[  0] __ZNSt8_Rb_treeIP10CInfoBlockS1_St9_IdentityIS1_E7CTSCompSaIS1_EE13_Rb_tree_implIS4_Lb0EEC1ERKSaISt13_Rb_tree_nodeIS1_EERKS4_$stub
0x0003BBA8	0x00000006	[  0] __ZNSt8_Rb_treeIP10CInfoBlockS1_St9_IdentityIS1_E7CTSCompSaIS1_EE13_Rb_tree_implIS4_Lb0EED1Ev$stub
0x0003BBAE	0x00000006	[  0] __ZNSt8_Rb_treeIP10CInfoBlockS1_St9_IdentityIS1_E7CTSCompSaIS1_EE14_M_create_nodeERKS1_$stub
0x0003BBB4	0x00000006	[  0] __ZNSt8_Rb_treeIP10CInfoBlockS1_St9_IdentityIS1_E7CTSCompSaIS1_EE15_M_destroy_nodeEPSt13_Rb_tree_nodeIS1_E$stub
0x0003BBBA	0x00000006	[  0] __ZNSt8_Rb_treeIP10CInfoBlockS1_St9_IdentityIS1_E7CTSCompSaIS1_EE16_M_insert_uniqueERKS1_$stub
0x0003BBC0	0x00000006	[  0] __ZNSt8_Rb_treeIP10CInfoBlockS1_St9_IdentityIS1_E7CTSCompSaIS1_EE3endEv$stub
0x0003BBC6	0x00000006	[  0] __ZNSt8_Rb_treeIP10CInfoBlockS1_St9_IdentityIS1_E7CTSCompSaIS1_EE5beginEv$stub
0x0003BBCC	0x00000006	[  0] __ZNSt8_Rb_treeIP10CInfoBlockS1_St9_IdentityIS1_E7CTSCompSaIS1_EE5clearEv$stub
0x0003BBD2	0x00000006	[  0] __ZNSt8_Rb_treeIP10CInfoBlockS1_St9_IdentityIS1_E7CTSCompSaIS1_EE5eraseERKS1_$stub
0x0003BBD8	0x00000006	[  0] __ZNSt8_Rb_treeIP10CInfoBlockS1_St9_IdentityIS1_E7CTSCompSaIS1_EE5eraseESt17_Rb_tree_iteratorIS1_E$stub
0x0003BBDE	0x00000006	[  0] __ZNSt8_Rb_treeIP10CInfoBlockS1_St9_IdentityIS1_E7CTSCompSaIS1_EE5eraseESt17_Rb_tree_iteratorIS1_ES8_$stub
0x0003BBE4	0x00000006	[  0] __ZNSt8_Rb_treeIP10CInfoBlockS1_St9_IdentityIS1_E7CTSCompSaIS1_EE5eraseESt23_Rb_tree_const_iteratorIS1_E$stub
0x0003BBEA	0x00000006	[  0] __ZNSt8_Rb_treeIP10CInfoBlockS1_St9_IdentityIS1_E7CTSCompSaIS1_EE6_M_endEv$stub
0x0003BBF0	0x00000006	[  0] __ZNSt8_Rb_treeIP10CInfoBlockS1_St9_IdentityIS1_E7CTSCompSaIS1_EE6_S_keyEPKSt13_Rb_tree_nodeIS1_E$stub
0x0003BBF6	0x00000006	[  0] __ZNSt8_Rb_treeIP10CInfoBlockS1_St9_IdentityIS1_E7CTSCompSaIS1_EE6_S_keyEPKSt18_Rb_tree_node_base$stub
0x0003BBFC	0x00000006	[  0] __ZNSt8_Rb_treeIP10CInfoBlockS1_St9_IdentityIS1_E7CTSCompSaIS1_EE7_M_rootEv$stub
0x0003BC02	0x00000006	[  0] __ZNSt8_Rb_treeIP10CInfoBlockS1_St9_IdentityIS1_E7CTSCompSaIS1_EE7_S_leftEPSt18_Rb_tree_node_base$stub
0x0003BC08	0x00000006	[  0] __ZNSt8_Rb_treeIP10CInfoBlockS1_St9_IdentityIS1_E7CTSCompSaIS1_EE8_M_beginEv$stub
0x0003BC0E	0x00000006	[  0] __ZNSt8_Rb_treeIP10CInfoBlockS1_St9_IdentityIS1_E7CTSCompSaIS1_EE8_M_eraseEPSt13_Rb_tree_nodeIS1_E$stub
0x0003BC14	0x00000006	[  0] __ZNSt8_Rb_treeIP10CInfoBlockS1_St9_IdentityIS1_E7CTSCompSaIS1_EE8_S_rightEPSt18_Rb_tree_node_base$stub
0x0003BC1A	0x00000006	[  0] __ZNSt8_Rb_treeIP10CInfoBlockS1_St9_IdentityIS1_E7CTSCompSaIS1_EE8_S_valueEPKSt13_Rb_tree_nodeIS1_E$stub
0x0003BC20	0x00000006	[  0] __ZNSt8_Rb_treeIP10CInfoBlockS1_St9_IdentityIS1_E7CTSCompSaIS1_EE8_S_valueEPKSt18_Rb_tree_node_base$stub
0x0003BC26	0x00000006	[  0] __ZNSt8_Rb_treeIP10CInfoBlockS1_St9_IdentityIS1_E7CTSCompSaIS1_EE9_M_insertEPSt18_Rb_tree_node_baseS8_RKS1_$stub
0x0003BC2C	0x00000006	[  0] __ZNSt8_Rb_treeIP10CInfoBlockS1_St9_IdentityIS1_E7CTSCompSaIS1_EEC1ERKS4_RKS5_$stub
0x0003BC32	0x00000006	[  0] __ZNSt8_Rb_treeIP10CInfoBlockS1_St9_IdentityIS1_E7CTSCompSaIS1_EED1Ev$stub
0x0003BC38	0x00000006	[  0] __ZNSt8_Rb_treeIiSt4pairIKi10CEPollDescESt10_Select1stIS3_ESt4lessIiESaIS3_EE11_M_get_nodeEv$stub
0x0003BC3E	0x00000006	[  0] __ZNSt8_Rb_treeIiSt4pairIKi10CEPollDescESt10_Select1stIS3_ESt4lessIiESaIS3_EE11_M_leftmostEv$stub
0x0003BC44	0x00000006	[  0] __ZNSt8_Rb_treeIiSt4pairIKi10CEPollDescESt10_Select1stIS3_ESt4lessIiESaIS3_EE11_M_put_nodeEPSt13_Rb_tree_nodeIS3_E$stub
0x0003BC4A	0x00000006	[  0] __ZNSt8_Rb_treeIiSt4pairIKi10CEPollDescESt10_Select1stIS3_ESt4lessIiESaIS3_EE11lower_boundERS1_$stub
0x0003BC50	0x00000006	[  0] __ZNSt8_Rb_treeIiSt4pairIKi10CEPollDescESt10_Select1stIS3_ESt4lessIiESaIS3_EE12_M_rightmostEv$stub
0x0003BC56	0x00000006	[  0] __ZNSt8_Rb_treeIiSt4pairIKi10CEPollDescESt10_Select1stIS3_ESt4lessIiESaIS3_EE13_Rb_tree_implIS7_Lb0EEC1ERKSaISt13_Rb_tree_nodeIS3_EERKS7_$stub
0x0003BC5C	0x00000006	[  0] __ZNSt8_Rb_treeIiSt4pairIKi10CEPollDescESt10_Select1stIS3_ESt4lessIiESaIS3_EE13_Rb_tree_implIS7_Lb0EED1Ev$stub
0x0003BC62	0x00000006	[  0] __ZNSt8_Rb_treeIiSt4pairIKi10CEPollDescESt10_Select1stIS3_ESt4lessIiESaIS3_EE14_M_create_nodeERKS3_$stub
0x0003BC68	0x00000006	[  0] __ZNSt8_Rb_treeIiSt4pairIKi10CEPollDescESt10_Select1stIS3_ESt4lessIiESaIS3_EE15_M_destroy_nodeEPSt13_Rb_tree_nodeIS3_E$stub
0x0003BC6E	0x00000006	[  0] __ZNSt8_Rb_treeIiSt4pairIKi10CEPollDescESt10_Select1stIS3_ESt4lessIiESaIS3_EE16_M_insert_uniqueERKS3_$stub
0x0003BC74	0x00000006	[  0] __ZNSt8_Rb_treeIiSt4pairIKi10CEPollDescESt10_Select1stIS3_ESt4lessIiESaIS3_EE16_M_insert_uniqueESt17_Rb_tree_iteratorIS3_ERKS3_$stub
0x0003BC7A	0x00000006	[  0] __ZNSt8_Rb_treeIiSt4pairIKi10CEPollDescESt10_Select1stIS3_ESt4lessIiESaIS3_EE3endEv$stub
0x0003BC80	0x00000006	[  0] __ZNSt8_Rb_treeIiSt4pairIKi10CEPollDescESt10_Select1stIS3_ESt4lessIiESaIS3_EE4findERS1_$stub
0x0003BC86	0x00000006	[  0] __ZNSt8_Rb_treeIiSt4pairIKi10CEPollDescESt10_Select1stIS3_ESt4lessIiESaIS3_EE5beginEv$stub
0x0003BC8C	0x00000006	[  0] __ZNSt8_Rb_treeIiSt4pairIKi10CEPollDescESt10_Select1stIS3_ESt4lessIiESaIS3_EE5eraseESt17_Rb_tree_iteratorIS3_E$stub
0x0003BC92	0x00000006	[  0] __ZNSt8_Rb_treeIiSt4pairIKi10CEPollDescESt10_Select1stIS3_ESt4lessIiESaIS3_EE6_M_endEv$stub
0x0003BC98	0x00000006	[  0] __ZNSt8_Rb_treeIiSt4pairIKi10CEPollDescESt10_Select1stIS3_ESt4lessIiESaIS3_EE6_S_keyEPKSt13_Rb_tree_nodeIS3_E$stub
0x0003BC9E	0x00000006	[  0] __ZNSt8_Rb_treeIiSt4pairIKi10CEPollDescESt10_Select1stIS3_ESt4lessIiESaIS3_EE6_S_keyEPKSt18_Rb_tree_node_base$stub
0x0003BCA4	0x00000006	[  0] __ZNSt8_Rb_treeIiSt4pairIKi10CEPollDescESt10_Select1stIS3_ESt4lessIiESaIS3_EE7_S_leftEPSt18_Rb_tree_node_base$stub
0x0003BCAA	0x00000006	[  0] __ZNSt8_Rb_treeIiSt4pairIKi10CEPollDescESt10_Select1stIS3_ESt4lessIiESaIS3_EE8_M_beginEv$stub
0x0003BCB0	0x00000006	[  0] __ZNSt8_Rb_treeIiSt4pairIKi10CEPollDescESt10_Select1stIS3_ESt4lessIiESaIS3_EE8_M_eraseEPSt13_Rb_tree_nodeIS3_E$stub
0x0003BCB6	0x00000006	[  0] __ZNSt8_Rb_treeIiSt4pairIKi10CEPollDescESt10_Select1stIS3_ESt4lessIiESaIS3_EE8_S_rightEPSt18_Rb_tree_node_base$stub
0x0003BCBC	0x00000006	[  0] __ZNSt8_Rb_treeIiSt4pairIKi10CEPollDescESt10_Select1stIS3_ESt4lessIiESaIS3_EE8_S_valueEPKSt13_Rb_tree_nodeIS3_E$stub
0x0003BCC2	0x00000006	[  0] __ZNSt8_Rb_treeIiSt4pairIKi10CEPollDescESt10_Select1stIS3_ESt4lessIiESaIS3_EE8_S_valueEPKSt18_Rb_tree_node_base$stub
0x0003BCC8	0x00000006	[  0] __ZNSt8_Rb_treeIiSt4pairIKi10CEPollDescESt10_Select1stIS3_ESt4lessIiESaIS3_EE9_M_insertEPSt18_Rb_tree_node_baseSB_RKS3_$stub
0x0003BCCE	0x00000006	[  0] __ZNSt8_Rb_treeIiSt4pairIKi10CEPollDescESt10_Select1stIS3_ESt4lessIiESaIS3_EEC1ERKS7_RKS8_$stub
0x0003BCD4	0x00000006	[  0] __ZNSt8_Rb_treeIiSt4pairIKi10CEPollDescESt10_Select1stIS3_ESt4lessIiESaIS3_EED1Ev$stub
0x0003BCDA	0x00000006	[  0] __ZNSt8_Rb_treeIiSt4pairIKi12CMultiplexerESt10_Select1stIS3_ESt4lessIiESaIS3_EE11_M_get_nodeEv$stub
0x0003BCE0	0x00000006	[  0] __ZNSt8_Rb_treeIiSt4pairIKi12CMultiplexerESt10_Select1stIS3_ESt4lessIiESaIS3_EE11_M_leftmostEv$stub
0x0003BCE6	0x00000006	[  0] __ZNSt8_Rb_treeIiSt4pairIKi12CMultiplexerESt10_Select1stIS3_ESt4lessIiESaIS3_EE11_M_put_nodeEPSt13_Rb_tree_nodeIS3_E$stub
0x0003BCEC	0x00000006	[  0] __ZNSt8_Rb_treeIiSt4pairIKi12CMultiplexerESt10_Select1stIS3_ESt4lessIiESaIS3_EE11lower_boundERS1_$stub
0x0003BCF2	0x00000006	[  0] __ZNSt8_Rb_treeIiSt4pairIKi12CMultiplexerESt10_Select1stIS3_ESt4lessIiESaIS3_EE12_M_rightmostEv$stub
0x0003BCF8	0x00000006	[  0] __ZNSt8_Rb_treeIiSt4pairIKi12CMultiplexerESt10_Select1stIS3_ESt4lessIiESaIS3_EE13_Rb_tree_implIS7_Lb0EEC1ERKSaISt13_Rb_tree_nodeIS3_EERKS7_$stub
0x0003BCFE	0x00000006	[  0] __ZNSt8_Rb_treeIiSt4pairIKi12CMultiplexerESt10_Select1stIS3_ESt4lessIiESaIS3_EE13_Rb_tree_implIS7_Lb0EED1Ev$stub
0x0003BD04	0x00000006	[  0] __ZNSt8_Rb_treeIiSt4pairIKi12CMultiplexerESt10_Select1stIS3_ESt4lessIiESaIS3_EE14_M_create_nodeERKS3_$stub
0x0003BD0A	0x00000006	[  0] __ZNSt8_Rb_treeIiSt4pairIKi12CMultiplexerESt10_Select1stIS3_ESt4lessIiESaIS3_EE15_M_destroy_nodeEPSt13_Rb_tree_nodeIS3_E$stub
0x0003BD10	0x00000006	[  0] __ZNSt8_Rb_treeIiSt4pairIKi12CMultiplexerESt10_Select1stIS3_ESt4lessIiESaIS3_EE16_M_insert_uniqueERKS3_$stub
0x0003BD16	0x00000006	[  0] __ZNSt8_Rb_treeIiSt4pairIKi12CMultiplexerESt10_Select1stIS3_ESt4lessIiESaIS3_EE16_M_insert_uniqueESt17_Rb_tree_iteratorIS3_ERKS3_$stub
0x0003BD1C	0x00000006	[  0] __ZNSt8_Rb_treeIiSt4pairIKi12CMultiplexerESt10_Select1stIS3_ESt4lessIiESaIS3_EE3endEv$stub
0x0003BD22	0x00000006	[  0] __ZNSt8_Rb_treeIiSt4pairIKi12CMultiplexerESt10_Select1stIS3_ESt4lessIiESaIS3_EE4findERS1_$stub
0x0003BD28	0x00000006	[  0] __ZNSt8_Rb_treeIiSt4pairIKi12CMultiplexerESt10_Select1stIS3_ESt4lessIiESaIS3_EE5beginEv$stub
0x0003BD2E	0x00000006	[  0] __ZNSt8_Rb_treeIiSt4pairIKi12CMultiplexerESt10_Select1stIS3_ESt4lessIiESaIS3_EE5eraseESt17_Rb_tree_iteratorIS3_E$stub
0x0003BD34	0x00000006	[  0] __ZNSt8_Rb_treeIiSt4pairIKi12CMultiplexerESt10_Select1stIS3_ESt4lessIiESaIS3_EE6_M_endEv$stub
0x0003BD3A	0x00000006	[  0] __ZNSt8_Rb_treeIiSt4pairIKi12CMultiplexerESt10_Select1stIS3_ESt4lessIiESaIS3_EE6_S_keyEPKSt13_Rb_tree_nodeIS3_E$stub
0x0003BD40	0x00000006	[  0] __ZNSt8_Rb_treeIiSt4pairIKi12CMultiplexerESt10_Select1stIS3_ESt4lessIiESaIS3_EE6_S_keyEPKSt18_Rb_tree_node_base$stub
0x0003BD46	0x00000006	[  0] __ZNSt8_Rb_treeIiSt4pairIKi12CMultiplexerESt10_Select1stIS3_ESt4lessIiESaIS3_EE7_S_leftEPSt18_Rb_tree_node_base$stub
0x0003BD4C	0x00000006	[  0] __ZNSt8_Rb_treeIiSt4pairIKi12CMultiplexerESt10_Select1stIS3_ESt4lessIiESaIS3_EE8_M_beginEv$stub
0x0003BD52	0x00000006	[  0] __ZNSt8_Rb_treeIiSt4pairIKi12CMultiplexerESt10_Select1stIS3_ESt4lessIiESaIS3_EE8_M_eraseEPSt13_Rb_tree_nodeIS3_E$stub
0x0003BD58	0x00000006	[  0] __ZNSt8_Rb_treeIiSt4pairIKi12CMultiplexerESt10_Select1stIS3_ESt4lessIiESaIS3_EE8_S_rightEPSt18_Rb_tree_node_base$stub
0x0003BD5E	0x00000006	[  0] __ZNSt8_Rb_treeIiSt4pairIKi12CMultiplexerESt10_Select1stIS3_ESt4lessIiESaIS3_EE8_S_valueEPKSt13_Rb_tree_nodeIS3_E$stub
0x0003BD64	0x00000006	[  0] __ZNSt8_Rb_treeIiSt4pairIKi12CMultiplexerESt10_Select1stIS3_ESt4lessIiESaIS3_EE8_S_valueEPKSt18_Rb_tree_node_base$stub
0x0003BD6A	0x00000006	[  0] __ZNSt8_Rb_treeIiSt4pairIKi12CMultiplexerESt10_Select1stIS3_ESt4lessIiESaIS3_EE9_M_insertEPSt18_Rb_tree_node_baseSB_RKS3_$stub
0x0003BD70	0x00000006	[  0] __ZNSt8_Rb_treeIiSt4pairIKi12CMultiplexerESt10_Select1stIS3_ESt4lessIiESaIS3_EEC1ERKS7_RKS8_$stub
0x0003BD76	0x00000006	[  0] __ZNSt8_Rb_treeIiSt4pairIKi12CMultiplexerESt10_Select1stIS3_ESt4lessIiESaIS3_EED1Ev$stub
0x0003BD7C	0x00000006	[  0] __ZNSt8_Rb_treeIiSt4pairIKiP10CUDTSocketESt10_Select1stIS4_ESt4lessIiESaIS4_EE11_M_get_nodeEv$stub
0x0003BD82	0x00000006	[  0] __ZNSt8_Rb_treeIiSt4pairIKiP10CUDTSocketESt10_Select1stIS4_ESt4lessIiESaIS4_EE11_M_leftmostEv$stub
0x0003BD88	0x00000006	[  0] __ZNSt8_Rb_treeIiSt4pairIKiP10CUDTSocketESt10_Select1stIS4_ESt4lessIiESaIS4_EE11_M_put_nodeEPSt13_Rb_tree_nodeIS4_E$stub
0x0003BD8E	0x00000006	[  0] __ZNSt8_Rb_treeIiSt4pairIKiP10CUDTSocketESt10_Select1stIS4_ESt4lessIiESaIS4_EE11equal_rangeERS1_$stub
0x0003BD94	0x00000006	[  0] __ZNSt8_Rb_treeIiSt4pairIKiP10CUDTSocketESt10_Select1stIS4_ESt4lessIiESaIS4_EE11lower_boundERS1_$stub
0x0003BD9A	0x00000006	[  0] __ZNSt8_Rb_treeIiSt4pairIKiP10CUDTSocketESt10_Select1stIS4_ESt4lessIiESaIS4_EE11upper_boundERS1_$stub
0x0003BDA0	0x00000006	[  0] __ZNSt8_Rb_treeIiSt4pairIKiP10CUDTSocketESt10_Select1stIS4_ESt4lessIiESaIS4_EE12_M_rightmostEv$stub
0x0003BDA6	0x00000006	[  0] __ZNSt8_Rb_treeIiSt4pairIKiP10CUDTSocketESt10_Select1stIS4_ESt4lessIiESaIS4_EE13_Rb_tree_implIS8_Lb0EEC1ERKSaISt13_Rb_tree_nodeIS4_EERKS8_$stub
0x0003BDAC	0x00000006	[  0] __ZNSt8_Rb_treeIiSt4pairIKiP10CUDTSocketESt10_Select1stIS4_ESt4lessIiESaIS4_EE13_Rb_tree_implIS8_Lb0EED1Ev$stub
0x0003BDB2	0x00000006	[  0] __ZNSt8_Rb_treeIiSt4pairIKiP10CUDTSocketESt10_Select1stIS4_ESt4lessIiESaIS4_EE14_M_create_nodeERKS4_$stub
0x0003BDB8	0x00000006	[  0] __ZNSt8_Rb_treeIiSt4pairIKiP10CUDTSocketESt10_Select1stIS4_ESt4lessIiESaIS4_EE15_M_destroy_nodeEPSt13_Rb_tree_nodeIS4_E$stub
0x0003BDBE	0x00000006	[  0] __ZNSt8_Rb_treeIiSt4pairIKiP10CUDTSocketESt10_Select1stIS4_ESt4lessIiESaIS4_EE16_M_insert_uniqueERKS4_$stub
0x0003BDC4	0x00000006	[  0] __ZNSt8_Rb_treeIiSt4pairIKiP10CUDTSocketESt10_Select1stIS4_ESt4lessIiESaIS4_EE16_M_insert_uniqueESt17_Rb_tree_iteratorIS4_ERKS4_$stub
0x0003BDCA	0x00000006	[  0] __ZNSt8_Rb_treeIiSt4pairIKiP10CUDTSocketESt10_Select1stIS4_ESt4lessIiESaIS4_EE3endEv$stub
0x0003BDD0	0x00000006	[  0] __ZNSt8_Rb_treeIiSt4pairIKiP10CUDTSocketESt10_Select1stIS4_ESt4lessIiESaIS4_EE4findERS1_$stub
0x0003BDD6	0x00000006	[  0] __ZNSt8_Rb_treeIiSt4pairIKiP10CUDTSocketESt10_Select1stIS4_ESt4lessIiESaIS4_EE5beginEv$stub
0x0003BDDC	0x00000006	[  0] __ZNSt8_Rb_treeIiSt4pairIKiP10CUDTSocketESt10_Select1stIS4_ESt4lessIiESaIS4_EE5clearEv$stub
0x0003BDE2	0x00000006	[  0] __ZNSt8_Rb_treeIiSt4pairIKiP10CUDTSocketESt10_Select1stIS4_ESt4lessIiESaIS4_EE5eraseERS1_$stub
0x0003BDE8	0x00000006	[  0] __ZNSt8_Rb_treeIiSt4pairIKiP10CUDTSocketESt10_Select1stIS4_ESt4lessIiESaIS4_EE5eraseESt17_Rb_tree_iteratorIS4_E$stub
0x0003BDEE	0x00000006	[  0] __ZNSt8_Rb_treeIiSt4pairIKiP10CUDTSocketESt10_Select1stIS4_ESt4lessIiESaIS4_EE5eraseESt17_Rb_tree_iteratorIS4_ESC_$stub
0x0003BDF4	0x00000006	[  0] __ZNSt8_Rb_treeIiSt4pairIKiP10CUDTSocketESt10_Select1stIS4_ESt4lessIiESaIS4_EE6_M_endEv$stub
0x0003BDFA	0x00000006	[  0] __ZNSt8_Rb_treeIiSt4pairIKiP10CUDTSocketESt10_Select1stIS4_ESt4lessIiESaIS4_EE6_S_keyEPKSt13_Rb_tree_nodeIS4_E$stub
0x0003BE00	0x00000006	[  0] __ZNSt8_Rb_treeIiSt4pairIKiP10CUDTSocketESt10_Select1stIS4_ESt4lessIiESaIS4_EE6_S_keyEPKSt18_Rb_tree_node_base$stub
0x0003BE06	0x00000006	[  0] __ZNSt8_Rb_treeIiSt4pairIKiP10CUDTSocketESt10_Select1stIS4_ESt4lessIiESaIS4_EE7_M_rootEv$stub
0x0003BE0C	0x00000006	[  0] __ZNSt8_Rb_treeIiSt4pairIKiP10CUDTSocketESt10_Select1stIS4_ESt4lessIiESaIS4_EE7_S_leftEPSt18_Rb_tree_node_base$stub
0x0003BE12	0x00000006	[  0] __ZNSt8_Rb_treeIiSt4pairIKiP10CUDTSocketESt10_Select1stIS4_ESt4lessIiESaIS4_EE8_M_beginEv$stub
0x0003BE18	0x00000006	[  0] __ZNSt8_Rb_treeIiSt4pairIKiP10CUDTSocketESt10_Select1stIS4_ESt4lessIiESaIS4_EE8_M_eraseEPSt13_Rb_tree_nodeIS4_E$stub
0x0003BE1E	0x00000006	[  0] __ZNSt8_Rb_treeIiSt4pairIKiP10CUDTSocketESt10_Select1stIS4_ESt4lessIiESaIS4_EE8_S_rightEPSt18_Rb_tree_node_base$stub
0x0003BE24	0x00000006	[  0] __ZNSt8_Rb_treeIiSt4pairIKiP10CUDTSocketESt10_Select1stIS4_ESt4lessIiESaIS4_EE8_S_valueEPKSt13_Rb_tree_nodeIS4_E$stub
0x0003BE2A	0x00000006	[  0] __ZNSt8_Rb_treeIiSt4pairIKiP10CUDTSocketESt10_Select1stIS4_ESt4lessIiESaIS4_EE8_S_valueEPKSt18_Rb_tree_node_base$stub
0x0003BE30	0x00000006	[  0] __ZNSt8_Rb_treeIiSt4pairIKiP10CUDTSocketESt10_Select1stIS4_ESt4lessIiESaIS4_EE9_M_insertEPSt18_Rb_tree_node_baseSC_RKS4_$stub
0x0003BE36	0x00000006	[  0] __ZNSt8_Rb_treeIiSt4pairIKiP10CUDTSocketESt10_Select1stIS4_ESt4lessIiESaIS4_EEC1ERKS8_RKS9_$stub
0x0003BE3C	0x00000006	[  0] __ZNSt8_Rb_treeIiSt4pairIKiP10CUDTSocketESt10_Select1stIS4_ESt4lessIiESaIS4_EED1Ev$stub
0x0003BE42	0x00000006	[  0] __ZNSt8_Rb_treeIiSt4pairIKiSt5queueIP7CPacketSt5dequeIS4_SaIS4_EEEESt10_Select1stIS9_ESt4lessIiESaIS9_EE11_M_get_nodeEv$stub
0x0003BE48	0x00000006	[  0] __ZNSt8_Rb_treeIiSt4pairIKiSt5queueIP7CPacketSt5dequeIS4_SaIS4_EEEESt10_Select1stIS9_ESt4lessIiESaIS9_EE11_M_leftmostEv$stub
0x0003BE4E	0x00000006	[  0] __ZNSt8_Rb_treeIiSt4pairIKiSt5queueIP7CPacketSt5dequeIS4_SaIS4_EEEESt10_Select1stIS9_ESt4lessIiESaIS9_EE11_M_put_nodeEPSt13_Rb_tree_nodeIS9_E$stub
0x0003BE54	0x00000006	[  0] __ZNSt8_Rb_treeIiSt4pairIKiSt5queueIP7CPacketSt5dequeIS4_SaIS4_EEEESt10_Select1stIS9_ESt4lessIiESaIS9_EE11lower_boundERS1_$stub
0x0003BE5A	0x00000006	[  0] __ZNSt8_Rb_treeIiSt4pairIKiSt5queueIP7CPacketSt5dequeIS4_SaIS4_EEEESt10_Select1stIS9_ESt4lessIiESaIS9_EE12_M_rightmostEv$stub
0x0003BE60	0x00000006	[  0] __ZNSt8_Rb_treeIiSt4pairIKiSt5queueIP7CPacketSt5dequeIS4_SaIS4_EEEESt10_Select1stIS9_ESt4lessIiESaIS9_EE13_Rb_tree_implISD_Lb0EEC1ERKSaISt13_Rb_tree_nodeIS9_EERKSD_$stub
0x0003BE66	0x00000006	[  0] __ZNSt8_Rb_treeIiSt4pairIKiSt5queueIP7CPacketSt5dequeIS4_SaIS4_EEEESt10_Select1stIS9_ESt4lessIiESaIS9_EE13_Rb_tree_implISD_Lb0EED1Ev$stub
0x0003BE6C	0x00000006	[  0] __ZNSt8_Rb_treeIiSt4pairIKiSt5queueIP7CPacketSt5dequeIS4_SaIS4_EEEESt10_Select1stIS9_ESt4lessIiESaIS9_EE14_M_create_nodeERKS9_$stub
0x0003BE72	0x00000006	[  0] __ZNSt8_Rb_treeIiSt4pairIKiSt5queueIP7CPacketSt5dequeIS4_SaIS4_EEEESt10_Select1stIS9_ESt4lessIiESaIS9_EE15_M_destroy_nodeEPSt13_Rb_tree_nodeIS9_E$stub
0x0003BE78	0x00000006	[  0] __ZNSt8_Rb_treeIiSt4pairIKiSt5queueIP7CPacketSt5dequeIS4_SaIS4_EEEESt10_Select1stIS9_ESt4lessIiESaIS9_EE16_M_insert_uniqueERKS9_$stub
0x0003BE7E	0x00000006	[  0] __ZNSt8_Rb_treeIiSt4pairIKiSt5queueIP7CPacketSt5dequeIS4_SaIS4_EEEESt10_Select1stIS9_ESt4lessIiESaIS9_EE16_M_insert_uniqueESt17_Rb_tree_iteratorIS9_ERKS9_$stub
0x0003BE84	0x00000006	[  0] __ZNSt8_Rb_treeIiSt4pairIKiSt5queueIP7CPacketSt5dequeIS4_SaIS4_EEEESt10_Select1stIS9_ESt4lessIiESaIS9_EE3endEv$stub
0x0003BE8A	0x00000006	[  0] __ZNSt8_Rb_treeIiSt4pairIKiSt5queueIP7CPacketSt5dequeIS4_SaIS4_EEEESt10_Select1stIS9_ESt4lessIiESaIS9_EE4findERS1_$stub
0x0003BE90	0x00000006	[  0] __ZNSt8_Rb_treeIiSt4pairIKiSt5queueIP7CPacketSt5dequeIS4_SaIS4_EEEESt10_Select1stIS9_ESt4lessIiESaIS9_EE5beginEv$stub
0x0003BE96	0x00000006	[  0] __ZNSt8_Rb_treeIiSt4pairIKiSt5queueIP7CPacketSt5dequeIS4_SaIS4_EEEESt10_Select1stIS9_ESt4lessIiESaIS9_EE5eraseESt17_Rb_tree_iteratorIS9_E$stub
0x0003BE9C	0x00000006	[  0] __ZNSt8_Rb_treeIiSt4pairIKiSt5queueIP7CPacketSt5dequeIS4_SaIS4_EEEESt10_Select1stIS9_ESt4lessIiESaIS9_EE6_M_endEv$stub
0x0003BEA2	0x00000006	[  0] __ZNSt8_Rb_treeIiSt4pairIKiSt5queueIP7CPacketSt5dequeIS4_SaIS4_EEEESt10_Select1stIS9_ESt4lessIiESaIS9_EE6_S_keyEPKSt13_Rb_tree_nodeIS9_E$stub
0x0003BEA8	0x00000006	[  0] __ZNSt8_Rb_treeIiSt4pairIKiSt5queueIP7CPacketSt5dequeIS4_SaIS4_EEEESt10_Select1stIS9_ESt4lessIiESaIS9_EE6_S_keyEPKSt18_Rb_tree_node_base$stub
0x0003BEAE	0x00000006	[  0] __ZNSt8_Rb_treeIiSt4pairIKiSt5queueIP7CPacketSt5dequeIS4_SaIS4_EEEESt10_Select1stIS9_ESt4lessIiESaIS9_EE7_S_leftEPSt18_Rb_tree_node_base$stub
0x0003BEB4	0x00000006	[  0] __ZNSt8_Rb_treeIiSt4pairIKiSt5queueIP7CPacketSt5dequeIS4_SaIS4_EEEESt10_Select1stIS9_ESt4lessIiESaIS9_EE8_M_beginEv$stub
0x0003BEBA	0x00000006	[  0] __ZNSt8_Rb_treeIiSt4pairIKiSt5queueIP7CPacketSt5dequeIS4_SaIS4_EEEESt10_Select1stIS9_ESt4lessIiESaIS9_EE8_M_eraseEPSt13_Rb_tree_nodeIS9_E$stub
0x0003BEC0	0x00000006	[  0] __ZNSt8_Rb_treeIiSt4pairIKiSt5queueIP7CPacketSt5dequeIS4_SaIS4_EEEESt10_Select1stIS9_ESt4lessIiESaIS9_EE8_S_rightEPSt18_Rb_tree_node_base$stub
0x0003BEC6	0x00000006	[  0] __ZNSt8_Rb_treeIiSt4pairIKiSt5queueIP7CPacketSt5dequeIS4_SaIS4_EEEESt10_Select1stIS9_ESt4lessIiESaIS9_EE8_S_valueEPKSt13_Rb_tree_nodeIS9_E$stub
0x0003BECC	0x00000006	[  0] __ZNSt8_Rb_treeIiSt4pairIKiSt5queueIP7CPacketSt5dequeIS4_SaIS4_EEEESt10_Select1stIS9_ESt4lessIiESaIS9_EE8_S_valueEPKSt18_Rb_tree_node_base$stub
0x0003BED2	0x00000006	[  0] __ZNSt8_Rb_treeIiSt4pairIKiSt5queueIP7CPacketSt5dequeIS4_SaIS4_EEEESt10_Select1stIS9_ESt4lessIiESaIS9_EE9_M_insertEPSt18_Rb_tree_node_baseSH_RKS9_$stub
0x0003BED8	0x00000006	[  0] __ZNSt8_Rb_treeIiSt4pairIKiSt5queueIP7CPacketSt5dequeIS4_SaIS4_EEEESt10_Select1stIS9_ESt4lessIiESaIS9_EEC1ERKSD_RKSE_$stub
0x0003BEDE	0x00000006	[  0] __ZNSt8_Rb_treeIiSt4pairIKiSt5queueIP7CPacketSt5dequeIS4_SaIS4_EEEESt10_Select1stIS9_ESt4lessIiESaIS9_EED1Ev$stub
0x0003BEE4	0x00000006	[  0] __ZNSt8_Rb_treeIiiSt9_IdentityIiESt4lessIiESaIiEE10_S_maximumEPSt18_Rb_tree_node_base$stub
0x0003BEEA	0x00000006	[  0] __ZNSt8_Rb_treeIiiSt9_IdentityIiESt4lessIiESaIiEE10_S_minimumEPSt18_Rb_tree_node_base$stub
0x0003BEF0	0x00000006	[  0] __ZNSt8_Rb_treeIiiSt9_IdentityIiESt4lessIiESaIiEE11_M_get_nodeEv$stub
0x0003BEF6	0x00000006	[  0] __ZNSt8_Rb_treeIiiSt9_IdentityIiESt4lessIiESaIiEE11_M_leftmostEv$stub
0x0003BEFC	0x00000006	[  0] __ZNSt8_Rb_treeIiiSt9_IdentityIiESt4lessIiESaIiEE11_M_put_nodeEPSt13_Rb_tree_nodeIiE$stub
0x0003BF02	0x00000006	[  0] __ZNSt8_Rb_treeIiiSt9_IdentityIiESt4lessIiESaIiEE11equal_rangeERKi$stub
0x0003BF08	0x00000006	[  0] __ZNSt8_Rb_treeIiiSt9_IdentityIiESt4lessIiESaIiEE11lower_boundERKi$stub
0x0003BF0E	0x00000006	[  0] __ZNSt8_Rb_treeIiiSt9_IdentityIiESt4lessIiESaIiEE11upper_boundERKi$stub
0x0003BF14	0x00000006	[  0] __ZNSt8_Rb_treeIiiSt9_IdentityIiESt4lessIiESaIiEE12_M_rightmostEv$stub
0x0003BF1A	0x00000006	[  0] __ZNSt8_Rb_treeIiiSt9_IdentityIiESt4lessIiESaIiEE13_M_clone_nodeEPKSt13_Rb_tree_nodeIiE$stub
0x0003BF20	0x00000006	[  0] __ZNSt8_Rb_treeIiiSt9_IdentityIiESt4lessIiESaIiEE13_Rb_tree_implIS3_Lb0EEC1ERKSaISt13_Rb_tree_nodeIiEERKS3_$stub
0x0003BF26	0x00000006	[  0] __ZNSt8_Rb_treeIiiSt9_IdentityIiESt4lessIiESaIiEE13_Rb_tree_implIS3_Lb0EED1Ev$stub
0x0003BF2C	0x00000006	[  0] __ZNSt8_Rb_treeIiiSt9_IdentityIiESt4lessIiESaIiEE14_M_create_nodeERKi$stub
0x0003BF32	0x00000006	[  0] __ZNSt8_Rb_treeIiiSt9_IdentityIiESt4lessIiESaIiEE15_M_destroy_nodeEPSt13_Rb_tree_nodeIiE$stub
0x0003BF38	0x00000006	[  0] __ZNSt8_Rb_treeIiiSt9_IdentityIiESt4lessIiESaIiEE16_M_insert_uniqueERKi$stub
0x0003BF3E	0x00000006	[  0] __ZNSt8_Rb_treeIiiSt9_IdentityIiESt4lessIiESaIiEE16_M_insert_uniqueESt23_Rb_tree_const_iteratorIiERKi$stub
0x0003BF44	0x00000006	[  0] __ZNSt8_Rb_treeIiiSt9_IdentityIiESt4lessIiESaIiEE3endEv$stub
0x0003BF4A	0x00000006	[  0] __ZNSt8_Rb_treeIiiSt9_IdentityIiESt4lessIiESaIiEE5beginEv$stub
0x0003BF50	0x00000006	[  0] __ZNSt8_Rb_treeIiiSt9_IdentityIiESt4lessIiESaIiEE5clearEv$stub
0x0003BF56	0x00000006	[  0] __ZNSt8_Rb_treeIiiSt9_IdentityIiESt4lessIiESaIiEE5eraseERKi$stub
0x0003BF5C	0x00000006	[  0] __ZNSt8_Rb_treeIiiSt9_IdentityIiESt4lessIiESaIiEE5eraseESt17_Rb_tree_iteratorIiE$stub
0x0003BF62	0x00000006	[  0] __ZNSt8_Rb_treeIiiSt9_IdentityIiESt4lessIiESaIiEE5eraseESt17_Rb_tree_iteratorIiES7_$stub
0x0003BF68	0x00000006	[  0] __ZNSt8_Rb_treeIiiSt9_IdentityIiESt4lessIiESaIiEE5eraseESt23_Rb_tree_const_iteratorIiE$stub
0x0003BF6E	0x00000006	[  0] __ZNSt8_Rb_treeIiiSt9_IdentityIiESt4lessIiESaIiEE6_M_endEv$stub
0x0003BF74	0x00000006	[  0] __ZNSt8_Rb_treeIiiSt9_IdentityIiESt4lessIiESaIiEE6_S_keyEPKSt13_Rb_tree_nodeIiE$stub
0x0003BF7A	0x00000006	[  0] __ZNSt8_Rb_treeIiiSt9_IdentityIiESt4lessIiESaIiEE6_S_keyEPKSt18_Rb_tree_node_base$stub
0x0003BF80	0x00000006	[  0] __ZNSt8_Rb_treeIiiSt9_IdentityIiESt4lessIiESaIiEE7_M_copyEPKSt13_Rb_tree_nodeIiEPS7_$stub
0x0003BF86	0x00000006	[  0] __ZNSt8_Rb_treeIiiSt9_IdentityIiESt4lessIiESaIiEE7_M_rootEv$stub
0x0003BF8C	0x00000006	[  0] __ZNSt8_Rb_treeIiiSt9_IdentityIiESt4lessIiESaIiEE7_S_leftEPKSt18_Rb_tree_node_base$stub
0x0003BF92	0x00000006	[  0] __ZNSt8_Rb_treeIiiSt9_IdentityIiESt4lessIiESaIiEE7_S_leftEPSt18_Rb_tree_node_base$stub
0x0003BF98	0x00000006	[  0] __ZNSt8_Rb_treeIiiSt9_IdentityIiESt4lessIiESaIiEE8_M_beginEv$stub
0x0003BF9E	0x00000006	[  0] __ZNSt8_Rb_treeIiiSt9_IdentityIiESt4lessIiESaIiEE8_M_eraseEPSt13_Rb_tree_nodeIiE$stub
0x0003BFA4	0x00000006	[  0] __ZNSt8_Rb_treeIiiSt9_IdentityIiESt4lessIiESaIiEE8_S_rightEPKSt18_Rb_tree_node_base$stub
0x0003BFAA	0x00000006	[  0] __ZNSt8_Rb_treeIiiSt9_IdentityIiESt4lessIiESaIiEE8_S_rightEPSt18_Rb_tree_node_base$stub
0x0003BFB0	0x00000006	[  0] __ZNSt8_Rb_treeIiiSt9_IdentityIiESt4lessIiESaIiEE8_S_valueEPKSt13_Rb_tree_nodeIiE$stub
0x0003BFB6	0x00000006	[  0] __ZNSt8_Rb_treeIiiSt9_IdentityIiESt4lessIiESaIiEE8_S_valueEPKSt18_Rb_tree_node_base$stub
0x0003BFBC	0x00000006	[  0] __ZNSt8_Rb_treeIiiSt9_IdentityIiESt4lessIiESaIiEE9_M_insertEPKSt18_Rb_tree_node_baseS8_RKi$stub
0x0003BFC2	0x00000006	[  0] __ZNSt8_Rb_treeIiiSt9_IdentityIiESt4lessIiESaIiEE9_M_insertEPSt18_Rb_tree_node_baseS7_RKi$stub
0x0003BFC8	0x00000006	[  0] __ZNSt8_Rb_treeIiiSt9_IdentityIiESt4lessIiESaIiEEC1ERKS3_RKS4_$stub
0x0003BFCE	0x00000006	[  0] __ZNSt8_Rb_treeIiiSt9_IdentityIiESt4lessIiESaIiEEC1ERKS5_$stub
0x0003BFD4	0x00000006	[  0] __ZNSt8_Rb_treeIiiSt9_IdentityIiESt4lessIiESaIiEED1Ev$stub
0x0003BFDA	0x00000006	[  0] __ZNSt8_Rb_treeIiiSt9_IdentityIiESt4lessIiESaIiEEaSERKS5_$stub
0x0003BFE0	0x00000006	[  0] __ZNSt8_Rb_treeIxSt4pairIKxSt3setIiSt4lessIiESaIiEEESt10_Select1stIS7_ES3_IxESaIS7_EE11_M_get_nodeEv$stub
0x0003BFE6	0x00000006	[  0] __ZNSt8_Rb_treeIxSt4pairIKxSt3setIiSt4lessIiESaIiEEESt10_Select1stIS7_ES3_IxESaIS7_EE11_M_leftmostEv$stub
0x0003BFEC	0x00000006	[  0] __ZNSt8_Rb_treeIxSt4pairIKxSt3setIiSt4lessIiESaIiEEESt10_Select1stIS7_ES3_IxESaIS7_EE11_M_put_nodeEPSt13_Rb_tree_nodeIS7_E$stub
0x0003BFF2	0x00000006	[  0] __ZNSt8_Rb_treeIxSt4pairIKxSt3setIiSt4lessIiESaIiEEESt10_Select1stIS7_ES3_IxESaIS7_EE11lower_boundERS1_$stub
0x0003BFF8	0x00000006	[  0] __ZNSt8_Rb_treeIxSt4pairIKxSt3setIiSt4lessIiESaIiEEESt10_Select1stIS7_ES3_IxESaIS7_EE12_M_rightmostEv$stub
0x0003BFFE	0x00000006	[  0] __ZNSt8_Rb_treeIxSt4pairIKxSt3setIiSt4lessIiESaIiEEESt10_Select1stIS7_ES3_IxESaIS7_EE13_Rb_tree_implISA_Lb0EEC1ERKSaISt13_Rb_tree_nodeIS7_EERKSA_$stub
0x0003C004	0x00000006	[  0] __ZNSt8_Rb_treeIxSt4pairIKxSt3setIiSt4lessIiESaIiEEESt10_Select1stIS7_ES3_IxESaIS7_EE13_Rb_tree_implISA_Lb0EED1Ev$stub
0x0003C00A	0x00000006	[  0] __ZNSt8_Rb_treeIxSt4pairIKxSt3setIiSt4lessIiESaIiEEESt10_Select1stIS7_ES3_IxESaIS7_EE14_M_create_nodeERKS7_$stub
0x0003C010	0x00000006	[  0] __ZNSt8_Rb_treeIxSt4pairIKxSt3setIiSt4lessIiESaIiEEESt10_Select1stIS7_ES3_IxESaIS7_EE15_M_destroy_nodeEPSt13_Rb_tree_nodeIS7_E$stub
0x0003C016	0x00000006	[  0] __ZNSt8_Rb_treeIxSt4pairIKxSt3setIiSt4lessIiESaIiEEESt10_Select1stIS7_ES3_IxESaIS7_EE16_M_insert_uniqueERKS7_$stub
0x0003C01C	0x00000006	[  0] __ZNSt8_Rb_treeIxSt4pairIKxSt3setIiSt4lessIiESaIiEEESt10_Select1stIS7_ES3_IxESaIS7_EE16_M_insert_uniqueESt17_Rb_tree_iteratorIS7_ERKS7_$stub
0x0003C022	0x00000006	[  0] __ZNSt8_Rb_treeIxSt4pairIKxSt3setIiSt4lessIiESaIiEEESt10_Select1stIS7_ES3_IxESaIS7_EE3endEv$stub
0x0003C028	0x00000006	[  0] __ZNSt8_Rb_treeIxSt4pairIKxSt3setIiSt4lessIiESaIiEEESt10_Select1stIS7_ES3_IxESaIS7_EE4findERS1_$stub
0x0003C02E	0x00000006	[  0] __ZNSt8_Rb_treeIxSt4pairIKxSt3setIiSt4lessIiESaIiEEESt10_Select1stIS7_ES3_IxESaIS7_EE5beginEv$stub
0x0003C034	0x00000006	[  0] __ZNSt8_Rb_treeIxSt4pairIKxSt3setIiSt4lessIiESaIiEEESt10_Select1stIS7_ES3_IxESaIS7_EE5eraseESt17_Rb_tree_iteratorIS7_E$stub
0x0003C03A	0x00000006	[  0] __ZNSt8_Rb_treeIxSt4pairIKxSt3setIiSt4lessIiESaIiEEESt10_Select1stIS7_ES3_IxESaIS7_EE6_M_endEv$stub
0x0003C040	0x00000006	[  0] __ZNSt8_Rb_treeIxSt4pairIKxSt3setIiSt4lessIiESaIiEEESt10_Select1stIS7_ES3_IxESaIS7_EE6_S_keyEPKSt13_Rb_tree_nodeIS7_E$stub
0x0003C046	0x00000006	[  0] __ZNSt8_Rb_treeIxSt4pairIKxSt3setIiSt4lessIiESaIiEEESt10_Select1stIS7_ES3_IxESaIS7_EE6_S_keyEPKSt18_Rb_tree_node_base$stub
0x0003C04C	0x00000006	[  0] __ZNSt8_Rb_treeIxSt4pairIKxSt3setIiSt4lessIiESaIiEEESt10_Select1stIS7_ES3_IxESaIS7_EE7_S_leftEPSt18_Rb_tree_node_base$stub
0x0003C052	0x00000006	[  0] __ZNSt8_Rb_treeIxSt4pairIKxSt3setIiSt4lessIiESaIiEEESt10_Select1stIS7_ES3_IxESaIS7_EE8_M_beginEv$stub
0x0003C058	0x00000006	[  0] __ZNSt8_Rb_treeIxSt4pairIKxSt3setIiSt4lessIiESaIiEEESt10_Select1stIS7_ES3_IxESaIS7_EE8_M_eraseEPSt13_Rb_tree_nodeIS7_E$stub
0x0003C05E	0x00000006	[  0] __ZNSt8_Rb_treeIxSt4pairIKxSt3setIiSt4lessIiESaIiEEESt10_Select1stIS7_ES3_IxESaIS7_EE8_S_rightEPSt18_Rb_tree_node_base$stub
0x0003C064	0x00000006	[  0] __ZNSt8_Rb_treeIxSt4pairIKxSt3setIiSt4lessIiESaIiEEESt10_Select1stIS7_ES3_IxESaIS7_EE8_S_valueEPKSt13_Rb_tree_nodeIS7_E$stub
0x0003C06A	0x00000006	[  0] __ZNSt8_Rb_treeIxSt4pairIKxSt3setIiSt4lessIiESaIiEEESt10_Select1stIS7_ES3_IxESaIS7_EE8_S_valueEPKSt18_Rb_tree_node_base$stub
0x0003C070	0x00000006	[  0] __ZNSt8_Rb_treeIxSt4pairIKxSt3setIiSt4lessIiESaIiEEESt10_Select1stIS7_ES3_IxESaIS7_EE9_M_insertEPSt18_Rb_tree_node_baseSE_RKS7_$stub
0x0003C076	0x00000006	[  0] __ZNSt8_Rb_treeIxSt4pairIKxSt3setIiSt4lessIiESaIiEEESt10_Select1stIS7_ES3_IxESaIS7_EEC1ERKSA_RKSB_$stub
0x0003C07C	0x00000006	[  0] __ZNSt8_Rb_treeIxSt4pairIKxSt3setIiSt4lessIiESaIiEEESt10_Select1stIS7_ES3_IxESaIS7_EED1Ev$stub
0x0003C082	0x00000006	[  0] __ZNSt9_IdentityIP10CInfoBlockEC1Ev$stub
0x0003C088	0x00000006	[  0] __ZNSt9_IdentityIiEC1Ev$stub
0x0003C08E	0x00000006	[  0] __ZSt10_ConstructIN16CRendezvousQueue3CRLES1_EvPT_RKT0_$stub
0x0003C094	0x00000006	[  0] __ZSt10__copy_auxIPN16CRendezvousQueue3CRLES2_ET0_T_S4_S3_$stub
0x0003C09A	0x00000006	[  0] __ZSt10__copy_auxIPP10CUDTSocketS2_ET0_T_S4_S3_$stub
0x0003C0A0	0x00000006	[  0] __ZSt10__copy_auxIPP4CUDTS2_ET0_T_S4_S3_$stub
0x0003C0A6	0x00000006	[  0] __ZSt10__copy_auxIPPP7CPacketS3_ET0_T_S5_S4_$stub
0x0003C0AC	0x00000006	[  0] __ZSt10__copy_auxIPiS0_ET0_T_S2_S1_$stub
0x0003C0B2	0x00000006	[  0] __ZSt10__copy_auxISt15_Deque_iteratorIP7CPacketRKS2_PS3_ES0_IS2_RS2_PS2_EET0_T_SB_SA_$stub
0x0003C0B8	0x00000006	[  0] __ZSt13__destroy_auxIPN16CRendezvousQueue3CRLEEvT_S3_St12__false_type$stub
0x0003C0BE	0x00000006	[  0] __ZSt13__destroy_auxIPP10CUDTSocketEvT_S3_St11__true_type$stub
0x0003C0C4	0x00000006	[  0] __ZSt13__destroy_auxIPP4CUDTEvT_S3_St11__true_type$stub
0x0003C0CA	0x00000006	[  0] __ZSt13__destroy_auxIPiEvT_S1_St11__true_type$stub
0x0003C0D0	0x00000006	[  0] __ZSt13copy_backwardIPN16CRendezvousQueue3CRLES2_ET0_T_S4_S3_$stub
0x0003C0D6	0x00000006	[  0] __ZSt13copy_backwardIPP10CUDTSocketS2_ET0_T_S4_S3_$stub
0x0003C0DC	0x00000006	[  0] __ZSt13copy_backwardIPP4CUDTS2_ET0_T_S4_S3_$stub
0x0003C0E2	0x00000006	[  0] __ZSt13copy_backwardIPPP7CPacketS3_ET0_T_S5_S4_$stub
0x0003C0E8	0x00000006	[  0] __ZSt13copy_backwardIPiS0_ET0_T_S2_S1_$stub
0x0003C0EE	0x00000006	[  0] __ZSt16__deque_buf_sizem$stub
0x0003C0F4	0x00000006	[  0] __ZSt17__throw_bad_allocv$stub
0x0003C0FA	0x00000006	[  0] __ZSt18_Rb_tree_decrementPKSt18_Rb_tree_node_base$stub
0x0003C100	0x00000006	[  0] __ZSt18_Rb_tree_decrementPSt18_Rb_tree_node_base$stub
0x0003C106	0x00000006	[  0] __ZSt18_Rb_tree_incrementPKSt18_Rb_tree_node_base$stub
0x0003C10C	0x00000006	[  0] __ZSt18_Rb_tree_incrementPSt18_Rb_tree_node_base$stub
0x0003C112	0x00000006	[  0] __ZSt18uninitialized_copyIPN16CRendezvousQueue3CRLES2_ET0_T_S4_S3_$stub
0x0003C118	0x00000006	[  0] __ZSt18uninitialized_copyIPP10CUDTSocketS2_ET0_T_S4_S3_$stub
0x0003C11E	0x00000006	[  0] __ZSt18uninitialized_copyIPP4CUDTS2_ET0_T_S4_S3_$stub
0x0003C124	0x00000006	[  0] __ZSt18uninitialized_copyIPiS0_ET0_T_S2_S1_$stub
0x0003C12A	0x00000006	[  0] __ZSt18uninitialized_copyISt15_Deque_iteratorIP7CPacketRKS2_PS3_ES0_IS2_RS2_PS2_EET0_T_SB_SA_$stub
0x0003C130	0x00000006	[  0] __ZSt19__copy_backward_auxIPN16CRendezvousQueue3CRLES2_ET0_T_S4_S3_$stub
0x0003C136	0x00000006	[  0] __ZSt19__copy_backward_auxIPP10CUDTSocketS2_ET0_T_S4_S3_$stub
0x0003C13C	0x00000006	[  0] __ZSt19__copy_backward_auxIPP4CUDTS2_ET0_T_S4_S3_$stub
0x0003C142	0x00000006	[  0] __ZSt19__copy_backward_auxIPPP7CPacketS3_ET0_T_S5_S4_$stub
0x0003C148	0x00000006	[  0] __ZSt19__copy_backward_auxIPiS0_ET0_T_S2_S1_$stub
0x0003C14E	0x00000006	[  0] __ZSt19__iterator_categoryIN9__gnu_cxx17__normal_iteratorIPiSt6vectorIiSaIiEEEEENSt15iterator_traitsIT_E17iterator_categoryERKS8_$stub
0x0003C154	0x00000006	[  0] __ZSt20__throw_length_errorPKc$stub
0x0003C15A	0x00000006	[  0] __ZSt22__uninitialized_copy_aIPN16CRendezvousQueue3CRLES2_S1_ET0_T_S4_S3_SaIT1_E$stub
0x0003C160	0x00000006	[  0] __ZSt22__uninitialized_copy_aIPP10CUDTSocketS2_S1_ET0_T_S4_S3_SaIT1_E$stub
0x0003C166	0x00000006	[  0] __ZSt22__uninitialized_copy_aIPP4CUDTS2_S1_ET0_T_S4_S3_SaIT1_E$stub
0x0003C16C	0x00000006	[  0] __ZSt22__uninitialized_copy_aIPiS0_iET0_T_S2_S1_SaIT1_E$stub
0x0003C172	0x00000006	[  0] __ZSt22__uninitialized_copy_aISt15_Deque_iteratorIP7CPacketRKS2_PS3_ES0_IS2_RS2_PS2_ES2_ET0_T_SB_SA_SaIT1_E$stub
0x0003C178	0x00000006	[  0] __ZSt24__uninitialized_copy_auxIPN16CRendezvousQueue3CRLES2_ET0_T_S4_S3_St12__false_type$stub
0x0003C17E	0x00000006	[  0] __ZSt24__uninitialized_copy_auxIPP10CUDTSocketS2_ET0_T_S4_S3_St11__true_type$stub
0x0003C184	0x00000006	[  0] __ZSt24__uninitialized_copy_auxIPP4CUDTS2_ET0_T_S4_S3_St11__true_type$stub
0x0003C18A	0x00000006	[  0] __ZSt24__uninitialized_copy_auxIPiS0_ET0_T_S2_S1_St11__true_type$stub
0x0003C190	0x00000006	[  0] __ZSt24__uninitialized_copy_auxISt15_Deque_iteratorIP7CPacketRKS2_PS3_ES0_IS2_RS2_PS2_EET0_T_SB_SA_St11__true_type$stub
0x0003C196	0x00000006	[  0] __ZSt28_Rb_tree_rebalance_for_erasePSt18_Rb_tree_node_baseRS_$stub
0x0003C19C	0x00000006	[  0] __ZSt29_Rb_tree_insert_and_rebalancebPSt18_Rb_tree_node_baseS0_RS_$stub
0x0003C1A2	0x00000006	[  0] __ZSt3maxImERKT_S2_S2_$stub
0x0003C1A8	0x00000006	[  0] __ZSt3minImERKT_S2_S2_$stub
0x0003C1AE	0x00000006	[  0] __ZSt4copyIN9__gnu_cxx17__normal_iteratorIPN16CRendezvousQueue3CRLESt6vectorIS3_SaIS3_EEEES8_ET0_T_SA_S9_$stub
0x0003C1B4	0x00000006	[  0] __ZSt4copyIN9__gnu_cxx17__normal_iteratorIPP4CUDTSt6vectorIS3_SaIS3_EEEES8_ET0_T_SA_S9_$stub
0x0003C1BA	0x00000006	[  0] __ZSt4copyIPP10CUDTSocketS2_ET0_T_S4_S3_$stub
0x0003C1C0	0x00000006	[  0] __ZSt4copyIPP4CUDTS2_ET0_T_S4_S3_$stub
0x0003C1C6	0x00000006	[  0] __ZSt4copyIPPP7CPacketS3_ET0_T_S5_S4_$stub
0x0003C1CC	0x00000006	[  0] __ZSt4copyIPiS0_ET0_T_S2_S1_$stub
0x0003C1D2	0x00000006	[  0] __ZSt4copyISt15_Deque_iteratorIP7CPacketRKS2_PS3_ES0_IS2_RS2_PS2_EET0_T_SB_SA_$stub
0x0003C1D8	0x00000006	[  0] __ZSt4findIN9__gnu_cxx17__normal_iteratorIPiSt6vectorIiSaIiEEEEiET_S7_S7_RKT0_$stub
0x0003C1DE	0x00000006	[  0] __ZSt6__findIN9__gnu_cxx17__normal_iteratorIPiSt6vectorIiSaIiEEEEiET_S7_S7_RKT0_St26random_access_iterator_tag$stub
0x0003C1E4	0x00000006	[  0] __ZSt8_DestroyIN16CRendezvousQueue3CRLEEvPT_$stub
0x0003C1EA	0x00000006	[  0] __ZSt8_DestroyIPN16CRendezvousQueue3CRLEEvT_S3_$stub
0x0003C1F0	0x00000006	[  0] __ZSt8_DestroyIPN16CRendezvousQueue3CRLES1_EvT_S3_SaIT0_E$stub
0x0003C1F6	0x00000006	[  0] __ZSt8_DestroyIPP10CUDTSocketEvT_S3_$stub
0x0003C1FC	0x00000006	[  0] __ZSt8_DestroyIPP10CUDTSocketS1_EvT_S3_SaIT0_E$stub
0x0003C202	0x00000006	[  0] __ZSt8_DestroyIPP4CUDTEvT_S3_$stub
0x0003C208	0x00000006	[  0] __ZSt8_DestroyIPP4CUDTS1_EvT_S3_SaIT0_E$stub
0x0003C20E	0x00000006	[  0] __ZSt8_DestroyIPiEvT_S1_$stub
0x0003C214	0x00000006	[  0] __ZSt8_DestroyIPiiEvT_S1_SaIT0_E$stub
0x0003C21A	0x00000006	[  0] __ZSt9terminatev$stub
0x0003C220	0x00000006	[  0] __ZSteqIP7CPacketRS1_PS1_EbRKSt15_Deque_iteratorIT_T0_T1_ESA_$stub
0x0003C226	0x00000006	[  0] __ZStmiIP7CPacketRKS1_PS2_ENSt15_Deque_iteratorIT_T0_T1_E15difference_typeERKS9_SC_$stub
0x0003C22C	0x00000006	[  0] __ZStmiIP7CPacketRS1_PS1_ENSt15_Deque_iteratorIT_T0_T1_E15difference_typeERKS8_SB_$stub
0x0003C232	0x00000006	[  0] __ZdaPv$stub
0x0003C238	0x00000006	[  0] __ZdlPv$stub
0x0003C23E	0x00000006	[  0] __ZdlPvS_$stub
0x0003C244	0x00000006	[  0] __Znam$stub
0x0003C24A	0x00000006	[  0] __Znwm$stub
0x0003C250	0x00000006	[  0] __ZnwmPv$stub
0x0003C256	0x00000006	[  0] ___assert_rtn$stub
0x0003C25C	0x00000006	[  0] ___cxa_allocate_exception$stub
0x0003C262	0x00000006	[  0] ___cxa_atexit$stub
0x0003C268	0x00000006	[  0] ___cxa_begin_catch$stub
0x0003C26E	0x00000006	[  0] ___cxa_end_catch$stub
0x0003C274	0x00000006	[  0] ___cxa_free_exception$stub
0x0003C27A	0x00000006	[  0] ___cxa_get_exception_ptr$stub
0x0003C280	0x00000006	[  0] ___cxa_rethrow$stub
0x0003C286	0x00000006	[  0] ___cxa_throw$stub
0x0003C28C	0x00000006	[  0] ___error$stub
0x0003C292	0x00000006	[  0] ___stack_chk_fail$stub
0x0003C298	0x00000006	[  0] _bind$stub
0x0003C29E	0x00000006	[  0] _bzero$stub
0x0003C2A4	0x00000006	[  0] _ceil$stub
0x0003C2AA	0x00000006	[  0] _close$stub
0x0003C2B0	0x00000006	[  0] _free$stub
0x0003C2B6	0x00000006	[  0] _freeaddrinfo$stub
0x0003C2BC	0x00000006	[  0] _getaddrinfo$stub
0x0003C2C2	0x00000006	[  0] _getnameinfo$stub
0x0003C2C8	0x00000006	[  0] _getpeername$stub
0x0003C2CE	0x00000006	[  0] _getsockname$stub
0x0003C2D4	0x00000006	[  0] _getsockopt$stub
0x0003C2DA	0x00000006	[  0] _gettimeofday$stub
0x0003C2E0	0x00000006	[  0] _log10$stub
0x0003C2E6	0x00000006	[  0] _malloc$stub
0x0003C2EC	0x00000006	[  0] _memcpy$stub
0x0003C2F2	0x00000006	[  0] _memmove$stub
0x0003C2F8	0x00000006	[  0] _memset$stub
0x0003C2FE	0x00000006	[  0] _nanosleep$stub
0x0003C304	0x00000006	[  0] _pow$stub
0x0003C30A	0x00000006	[  0] _printf$stub
0x0003C310	0x00000006	[  0] _pthread_cond_broadcast$stub
0x0003C316	0x00000006	[  0] _pthread_cond_destroy$stub
0x0003C31C	0x00000006	[  0] _pthread_cond_init$stub
0x0003C322	0x00000006	[  0] _pthread_cond_signal$stub
0x0003C328	0x00000006	[  0] _pthread_cond_timedwait$stub
0x0003C32E	0x00000006	[  0] _pthread_cond_wait$stub
0x0003C334	0x00000006	[  0] _pthread_create$stub
0x0003C33A	0x00000006	[  0] _pthread_getspecific$stub
0x0003C340	0x00000006	[  0] _pthread_join$stub
0x0003C346	0x00000006	[  0] _pthread_key_create$stub
0x0003C34C	0x00000006	[  0] _pthread_key_delete$stub
0x0003C352	0x00000006	[  0] _pthread_mutex_destroy$stub
0x0003C358	0x00000006	[  0] _pthread_mutex_init$stub
0x0003C35E	0x00000006	[  0] _pthread_mutex_lock$stub
0x0003C364	0x00000006	[  0] _pthread_mutex_trylock$stub
0x0003C36A	0x00000006	[  0] _pthread_mutex_unlock$stub
0x0003C370	0x00000006	[  0] _pthread_setspecific$stub
0x0003C376	0x00000006	[  0] _puts$stub
0x0003C37C	0x00000006	[  0] _rand$stub
0x0003C382	0x00000006	[  0] _recvmsg$stub
0x0003C388	0x00000006	[  0] _select$1050$stub
0x0003C38E	0x00000006	[  0] _sendmsg$stub
0x0003C394	0x00000006	[  0] _setsockopt$stub
0x0003C39A	0x00000006	[  0] _socket$stub
0x0003C3A0	0x00000006	[  0] _sprintf$stub
0x0003C3A6	0x00000006	[  0] _srand$stub
0x0003C3AC	0x00000006	[  0] _strerror_r$stub
0x0003C3B2	0x00000006	[  0] _strlen$stub
0x0003C3B8	0x00000006	[  0] _usleep$stub
0x0003C3C0	0x00000008	[  1] 8-byte-literal=0x412E848000000000
0x0003C3C8	0x00000008	[  2] 8-byte-literal=0x3FECCCCCCCCCCCCD
0x0003C3D0	0x00000004	[  3] __ZN7CPacket13m_iPktHdrSizeE
0x0003C3D4	0x00000004	[  3] __ZN10CHandShake14m_iContentSizeE
0x0003C3E0	0x00000040	[  4] __ZZ10md5_finishE3pad
0x0003C420	0x00000004	[  4] __ZZL11md5_processP11md5_state_sPKhE1w
0x0003C424	0x00000004	[  7] __ZN4CUDT12INVALID_SOCKE
0x0003C428	0x00000004	[  7] __ZN4CUDT5ERRORE
0x0003C42C	0x00000004	[  7] __ZN3UDT12INVALID_SOCKE
0x0003C430	0x00000004	[  7] __ZN3UDT5ERRORE
0x0003C434	0x00000004	[  7] __ZN6CSeqNo10m_iSeqNoTHE
0x0003C438	0x00000004	[  7] __ZN6CSeqNo11m_iMaxSeqNoE
0x0003C43C	0x00000004	[  7] __ZN6CAckNo14m_iMaxAckSeqNoE
0x0003C440	0x00000004	[  7] __ZN6CMsgNo10m_iMsgNoTHE
0x0003C444	0x00000004	[  7] __ZN6CMsgNo11m_iMaxMsgNoE
0x0003C448	0x00000004	[  7] __ZN4CUDT10m_iVersionE
0x0003C44C	0x00000004	[  7] __ZN4CUDT14m_iSYNIntervalE
0x0003C450	0x00000004	[  7] __ZN4CUDT20m_iSelfClockIntervalE
0x0003C454	0x00000016	[  7] __ZTS10CCCFactoryI6CUDTCCE
0x0003C46A	0x00000014	[  7] __ZTS17CCCVirtualFactory
0x0003C480	0x00000008	[  7] 8-byte-literal=0x43E0000000000000
0x0003C488	0x00000008	[  7] 8-byte-literal=0x3FF2000000000000
0x0003C490	0x00000008	[  7] 8-byte-literal=0x4020000000000000
0x0003C498	0x00000008	[  7] 8-byte-literal=0x408F400000000000
0x0003C4A0	0x00000008	[  7] 8-byte-literal=0x41DFFFFFFFC00000
0x0003C4A8	0x00000004	[  8] __ZN13CUDTException7SUCCESSE
0x0003C4AC	0x00000004	[  8] __ZN13CUDTException10ECONNSETUPE
0x0003C4B0	0x00000004	[  8] __ZN13CUDTException9ENOSERVERE
0x0003C4B4	0x00000004	[  8] __ZN13CUDTException8ECONNREJE
0x0003C4B8	0x00000004	[  8] __ZN13CUDTException9ESOCKFAILE
0x0003C4BC	0x00000004	[  8] __ZN13CUDTException8ESECFAILE
0x0003C4C0	0x00000004	[  8] __ZN13CUDTException9ECONNFAILE
0x0003C4C4	0x00000004	[  8] __ZN13CUDTException9ECONNLOSTE
0x0003C4C8	0x00000004	[  8] __ZN13CUDTException7ENOCONNE
0x0003C4CC	0x00000004	[  8] __ZN13CUDTException9ERESOURCEE
0x0003C4D0	0x00000004	[  8] __ZN13CUDTException7ETHREADE
0x0003C4D4	0x00000004	[  8] __ZN13CUDTException6ENOBUFE
0x0003C4D8	0x00000004	[  8] __ZN13CUDTException5EFILEE
0x0003C4DC	0x00000004	[  8] __ZN13CUDTException9EINVRDOFFE
0x0003C4E0	0x00000004	[  8] __ZN13CUDTException7ERDPERME
0x0003C4E4	0x00000004	[  8] __ZN13CUDTException9EINVWROFFE
0x0003C4E8	0x00000004	[  8] __ZN13CUDTException7EWRPERME
0x0003C4EC	0x00000004	[  8] __ZN13CUDTException6EINVOPE
0x0003C4F0	0x00000004	[  8] __ZN13CUDTException10EBOUNDSOCKE
0x0003C4F4	0x00000004	[  8] __ZN13CUDTException9ECONNSOCKE
0x0003C4F8	0x00000004	[  8] __ZN13CUDTException9EINVPARAME
0x0003C4FC	0x00000004	[  8] __ZN13CUDTException8EINVSOCKE
0x0003C500	0x00000004	[  8] __ZN13CUDTException12EUNBOUNDSOCKE
0x0003C504	0x00000004	[  8] __ZN13CUDTException9ENOLISTENE
0x0003C508	0x00000004	[  8] __ZN13CUDTException10ERDVNOSERVE
0x0003C50C	0x00000004	[  8] __ZN13CUDTException11ERDVUNBOUNDE
0x0003C510	0x00000004	[  8] __ZN13CUDTException10ESTREAMILLE
0x0003C514	0x00000004	[  8] __ZN13CUDTException9EDGRAMILLE
0x0003C518	0x00000004	[  8] __ZN13CUDTException10EDUPLISTENE
0x0003C51C	0x00000004	[  8] __ZN13CUDTException9ELARGEMSGE
0x0003C520	0x00000004	[  8] __ZN13CUDTException10EINVPOLLIDE
0x0003C524	0x00000004	[  8] __ZN13CUDTException10EASYNCFAILE
0x0003C528	0x00000004	[  8] __ZN13CUDTException9EASYNCSNDE
0x0003C52C	0x00000004	[  8] __ZN13CUDTException9EASYNCRCVE
0x0003C530	0x00000004	[  8] __ZN13CUDTException8EPEERERRE
0x0003C534	0x00000004	[  8] __ZN13CUDTException8EUNKNOWNE
0x0003C538	0x00000008	[ 10] 8-byte-literal=0x3FF0000000000000
0x0003C540	0x00000008	[ 10] 8-byte-literal=0x4030000000000000
0x0003C548	0x00000008	[ 10] 8-byte-literal=0x3FEC000000000000
0x0003C550	0x00000008	[ 10] 8-byte-literal=0x3FC0000000000000
0x0003C558	0x00000008	[ 10] 8-byte-literal=0xC12E848000000000
0x0003C560	0x00000008	[ 10] 8-byte-literal=0x3EB92A737110E454
0x0003C568	0x00000008	[ 13] 8-byte-literal=0x41D0000000000000
0x0003C570	0x0000000B	[  7] "%s:%s:%lld"
0x0003C580	0x00000008	[  8] "Success"
0x0003C588	0x00000019	[  8] "Connection setup failure"
0x0003C5A1	0x00000016	[  8] ": connection time out"
0x0003C5B7	0x00000016	[  8] ": connection rejected"
0x0003C5D0	0x00000028	[  8] ": unable to create/configure UDP socket"
0x0003C5F8	0x0000001D	[  8] ": abort for security reasons"
0x0003C615	0x00000016	[  8] "Connection was broken"
0x0003C62B	0x0000001A	[  8] "Connection does not exist"
0x0003C645	0x00000018	[  8] "System resource failure"
0x0003C660	0x0000001F	[  8] ": unable to create new threads"
0x0003C67F	0x0000001D	[  8] ": unable to allocate buffers"
0x0003C69C	0x00000014	[  8] "File system failure"
0x0003C6B0	0x0000001C	[  8] ": cannot seek read position"
0x0003C6CC	0x00000012	[  8] ": failure in read"
0x0003C6DE	0x0000001D	[  8] ": cannot seek write position"
0x0003C6FB	0x00000013	[  8] ": failure in write"
0x0003C70E	0x00000018	[  8] "Operation not supported"
0x0003C728	0x0000002D	[  8] ": Cannot do this operation on a BOUND socket"
0x0003C758	0x00000031	[  8] ": Cannot do this operation on a CONNECTED socket"
0x0003C789	0x00000011	[  8] ": Bad parameters"
0x0003C79A	0x00000014	[  8] ": Invalid socket ID"
0x0003C7B0	0x00000030	[  8] ": Cannot do this operation on an UNBOUND socket"
0x0003C7E0	0x00000023	[  8] ": Socket is not in listening state"
0x0003C804	0x00000001	[  8] ""
0x0003C808	0x0000003F	[  8] ": Listen/accept is not supported in rendezous connection setup"
0x0003C848	0x00000047	[  8] ": Cannot call connect on UNBOUND socket in rendezvous connection setup"
0x0003C890	0x00000036	[  8] ": This operation is not supported in SOCK_STREAM mode"
0x0003C8C8	0x00000035	[  8] ": This operation is not supported in SOCK_DGRAM mode"
0x0003C900	0x00000037	[  8] ": Another socket is already listening on the same port"
0x0003C938	0x0000004F	[  8] ": Message is too large to send (it must be less than the UDT send buffer size)"
0x0003C987	0x00000013	[  8] ": Invalid epoll ID"
0x0003C99A	0x0000001A	[  8] "Non-blocking call failure"
0x0003C9B8	0x00000022	[  8] ": no buffer available for sending"
0x0003C9E0	0x00000020	[  8] ": no data available for reading"
0x0003CA00	0x00000025	[  8] "The peer side has signalled an error"
0x0003CA25	0x0000000E	[  8] "Unknown error"
0x0003CA33	0x00000003	[  8] ": "
0x0003CA36	0x00000002	[  8] "."
0x0003CA38	0x00000010	[  8] __ZTS13CUDTException
0x0003CA48	0x00000002	[  9] "0"
0x0003CA4A	0x00000008	[ 10] __ZTS6CUDTCC
0x0003CA52	0x00000005	[ 10] __ZTS3CCC
0x0003CA58	0x00000002	[ 14] "J"
0x0003CA5A	0x0000000C	[ 14] "msTimeStamp"
0x0003CA66	0x0000000D	[ 14] "pktSentTotal"
0x0003CA73	0x0000000D	[ 14] "pktRecvTotal"
0x0003CA80	0x00000002	[ 14] "I"
0x0003CA82	0x00000010	[ 14] "pktSndLossTotal"
0x0003CA92	0x00000010	[ 14] "pktRcvLossTotal"
0x0003CAA2	0x00000010	[ 14] "pktRetransTotal"
0x0003CAB2	0x00000010	[ 14] "pktSentACKTotal"
0x0003CAC2	0x00000010	[ 14] "pktRecvACKTotal"
0x0003CAD2	0x00000010	[ 14] "pktSentNAKTotal"
0x0003CAE2	0x00000010	[ 14] "pktRecvNAKTotal"
0x0003CAF2	0x00000013	[ 14] "usSndDurationTotal"
0x0003CB05	0x00000008	[ 14] "pktSent"
0x0003CB0D	0x00000008	[ 14] "pktRecv"
0x0003CB15	0x0000000B	[ 14] "pktSndLoss"
0x0003CB20	0x0000000B	[ 14] "pktRcvLoss"
0x0003CB2B	0x0000000B	[ 14] "pktRetrans"
0x0003CB36	0x0000000B	[ 14] "pktSentACK"
0x0003CB41	0x0000000B	[ 14] "pktRecvACK"
0x0003CB4C	0x0000000B	[ 14] "pktSentNAK"
0x0003CB57	0x0000000B	[ 14] "pktRecvNAK"
0x0003CB62	0x00000002	[ 14] "D"
0x0003CB64	0x0000000D	[ 14] "mbpsSendRate"
0x0003CB71	0x0000000D	[ 14] "mbpsRecvRate"
0x0003CB7E	0x0000000E	[ 14] "usSndDuration"
0x0003CB8C	0x0000000F	[ 14] "usPktSndPeriod"
0x0003CB9B	0x0000000E	[ 14] "pktFlowWindow"
0x0003CBA9	0x00000014	[ 14] "pktCongestionWindow"
0x0003CBBD	0x0000000E	[ 14] "pktFlightSize"
0x0003CBCB	0x00000006	[ 14] "msRTT"
0x0003CBD1	0x0000000E	[ 14] "mbpsBandwidth"
0x0003CBDF	0x00000010	[ 14] "byteAvailSndBuf"
0x0003CBEF	0x00000010	[ 14] "byteAvailRcvBuf"
0x0003CBFF	0x00000008	[ 14] "address"
0x0003CC07	0x00000017	[ 14] "Ljava/net/InetAddress;"
0x0003CC1E	0x00000005	[ 14] "addr"
0x0003CC23	0x00000005	[ 14] "port"
0x0003CC28	0x00000009	[ 14] "socketID"
0x0003CC31	0x0000001D	[ 14] "Ljava/net/InetSocketAddress;"
0x0003CC4E	0x00000014	[ 14] "remoteSocketAddress"
0x0003CC62	0x00000013	[ 14] "localSocketAddress"
0x0003CC75	0x0000001B	[ 14] "Lcom/barchart/udt/TypeUDT;"
0x0003CC90	0x00000005	[ 14] "type"
0x0003CC95	0x0000001E	[ 14] "Lcom/barchart/udt/MonitorUDT;"
0x0003CCB3	0x00000008	[ 14] "monitor"
0x0003CCBB	0x00000002	[ 14] "Z"
0x0003CCBD	0x0000000F	[ 14] "isSelectedRead"
0x0003CCCC	0x00000010	[ 14] "isSelectedWrite"
0x0003CCDC	0x00000014	[ 14] "isSelectedException"
0x0003CCF0	0x00000005	[ 14] "code"
0x0003CCF8	0x00000020	[ 14] "native: intBuffer capacity=%d \n"
0x0003CD18	0x00000021	[ 14] "native: byteBuffer capacity=%d \n"
0x0003CD39	0x00000005	[ 14] "(Z)V"
0x0003CD3E	0x00000007	[ 14] "<init>"
0x0003CD45	0x00000016	[ 14] "jdk_clsBoolean_initID"
0x0003CD5B	0x00000011	[ 14] "CHK_NUL_RET_RET;"
0x0003CD6C	0x0000001C	[ 14] "%s function: %s comment: %s"
0x0003CD88	0x00000005	[ 14] "(I)V"
0x0003CD8D	0x00000016	[ 14] "jdk_clsInteger_initID"
0x0003CDA3	0x00000005	[ 14] "(J)V"
0x0003CDA8	0x00000013	[ 14] "jdk_clsLong_initID"
0x0003CDBB	0x00000004	[ 14] "()V"
0x0003CDBF	0x0000001B	[ 14] "jdk_clsInet4Address_initID"
0x0003CDDA	0x0000001B	[ 14] "(Ljava/net/InetAddress;I)V"
0x0003CDF8	0x00000020	[ 14] "jdk_clsInetSocketAddress_initID"
0x0003CE18	0x00000017	[ 14] "()Ljava/util/Iterator;"
0x0003CE2F	0x00000009	[ 14] "iterator"
0x0003CE38	0x00000016	[ 14] "jdk_clsSet_iteratorID"
0x0003CE4E	0x00000016	[ 14] "(Ljava/lang/Object;)Z"
0x0003CE64	0x00000004	[ 14] "add"
0x0003CE68	0x00000011	[ 14] "jdk_clsSet_addID"
0x0003CE79	0x00000009	[ 14] "contains"
0x0003CE82	0x00000016	[ 14] "jdk_clsSet_containsID"
0x0003CE98	0x00000004	[ 14] "()Z"
0x0003CE9C	0x00000008	[ 14] "hasNext"
0x0003CEA4	0x0000001A	[ 14] "jdk_clsIterator_hasNextID"
0x0003CEBE	0x00000015	[ 14] "()Ljava/lang/Object;"
0x0003CED3	0x00000005	[ 14] "next"
0x0003CED8	0x00000017	[ 14] "jdk_clsIterator_nextID"
0x0003CEF0	0x0000001F	[ 14] "(Lcom/barchart/udt/TypeUDT;I)V"
0x0003CF0F	0x00000019	[ 14] "udt_clsSocketUDT_initID1"
0x0003CF28	0x00000018	[ 14] "(IILjava/lang/String;)V"
0x0003CF40	0x0000001C	[ 14] "udt_clsExceptionUDT_initID0"
0x0003CF5C	0x00000018	[ 14] "udt_clsLingerUDT_initID"
0x0003CF74	0x00000004	[ 14] "env"
0x0003CF78	0x00000008	[ 14] "message"
0x0003CF80	0x00000017	[ 14] "jdk_clsSocketException"
0x0003CF97	0x00000011	[ 14] "CHK_NUL_RET_FLS;"
0x0003CFA8	0x00000009	[ 14] "sockAddr"
0x0003CFB1	0x0000000E	[ 14] "socketAddress"
0x0003CFBF	0x0000000F	[ 14] "objInetAddress"
0x0003CFCE	0x00000011	[ 14] "CHK_NUL_RET_ERR;"
0x0003CFDF	0x00000015	[ 14] "objInetSocketAddress"
0x0003CFF4	0x0000000A	[ 14] "className"
0x0003CFFE	0x0000000F	[ 14] "classReference"
0x0003D00D	0x00000005	[ 14] "klaz"
0x0003D012	0x00000012	[ 14] "java/lang/Boolean"
0x0003D024	0x00000012	[ 14] "java/lang/Integer"
0x0003D036	0x0000000F	[ 14] "java/lang/Long"
0x0003D045	0x00000016	[ 14] "java/net/Inet4Address"
0x0003D05B	0x00000016	[ 14] "java/net/Inet6Address"
0x0003D071	0x0000001B	[ 14] "java/net/InetSocketAddress"
0x0003D08C	0x00000019	[ 14] "java/net/SocketException"
0x0003D0A5	0x0000000E	[ 14] "java/util/Set"
0x0003D0B3	0x00000013	[ 14] "java/util/Iterator"
0x0003D0C6	0x0000001B	[ 14] "com/barchart/udt/SocketUDT"
0x0003D0E1	0x00000019	[ 14] "com/barchart/udt/TypeUDT"
0x0003D0FA	0x0000001C	[ 14] "com/barchart/udt/FactoryUDT"
0x0003D116	0x0000001C	[ 14] "com/barchart/udt/MonitorUDT"
0x0003D132	0x0000001E	[ 14] "com/barchart/udt/ExceptionUDT"
0x0003D150	0x0000001B	[ 14] "com/barchart/udt/LingerUDT"
0x0003D16B	0x00000018	[ 14] "native: test crash jvm "
0x0003D183	0x00000007	[ 14] "<NONE>"
0x0003D18A	0x00000011	[ 14] "CHK_NUL_RET_NUL;"
0x0003D19B	0x0000000E	[ 14] "messageString"
0x0003D1A9	0x00000008	[ 14] "comment"
0x0003D1B1	0x0000000A	[ 14] "errorInfo"
0x0003D1BB	0x0000000A	[ 14] "exception"
0x0003D1C8	0x00000021	[ 14] "testInvalidClose0 - close failed"
0x0003D1E9	0x0000001B	[ 14] "initInstance1:INVALID_SOCK"
0x0003D204	0x00000019	[ 14] "position is out of range"
0x0003D21D	0x00000016	[ 14] "limit is out of range"
0x0003D233	0x00000011	[ 14] "position > limit"
0x0003D244	0x0000000C	[ 14] "lingerValue"
0x0003D250	0x00000014	[ 14] "jdk_clsInet4Address"
0x0003D264	0x00000016	[ 14] "vector::_M_insert_aux"
0x0003D280	0x00000025	[ 14] "com/barchart/udt/nio/SelectionKeyUDT"
0x0003D2A5	0x0000000A	[ 14] "selectEx1"
0x0003D2AF	0x0000000A	[ 14] "selectEx0"
0x0003D2B9	0x00000012	[ 14] "rv.second == true"
0x0003D2D0	0x0000002D	[ 14] "../native/jni/com_barchart_udt_SocketUDT.cpp"
0x0003D2FD	0x00000008	[ 14] "select1"
0x0003D305	0x0000001B	[ 14] "readSizeReturn <= readSize"
0x0003D320	0x0000001D	[ 14] "writeSizeReturn <= writeSize"
0x0003D340	0x00000025	[ 14] "select0 : can not allocate sizeArray"
0x0003D368	0x00000025	[ 14] "select0 : can not allocate readArray"
0x0003D390	0x00000026	[ 14] "select0 : can not allocate writeArray"
0x0003D3B6	0x00000008	[ 14] "select0"
0x0003D3C0	0x00000027	[ 14] "select0 : can not allocate exceptArray"
0x0003D3E7	0x0000000F	[ 14] "updateMonitor0"
0x0003D3F6	0x0000000B	[ 14] "objMonitor"
0x0003D401	0x0000000D	[ 14] "send/sendmsg"
0x0003D410	0x00000025	[ 14] "send/sendmsg : unexpected socketType"
0x0003D438	0x0000002B	[ 14] "send/sendmsg : can not allocate data array"
0x0003D463	0x0000000D	[ 14] "recv/recvmsg"
0x0003D470	0x00000025	[ 14] "recv/recvmsg : unexpected socketType"
0x0003D498	0x0000002B	[ 14] "recv/recvmsg : can not allocate data array"
0x0003D4C3	0x00000008	[ 14] "listen0"
0x0003D4CB	0x0000000D	[ 14] "booleanValue"
0x0003D4D8	0x00000004	[ 14] "()I"
0x0003D4DC	0x00000009	[ 14] "intValue"
0x0003D4E5	0x00000004	[ 14] "()J"
0x0003D4E9	0x0000000A	[ 14] "longValue"
0x0003D4F8	0x00000020	[ 14] "not yet implemented: FactoryUDT"
0x0003D518	0x00000026	[ 14] "unsupported option class in OptionUDT"
0x0003D53E	0x0000000B	[ 14] "setOption0"
0x0003D549	0x0000000B	[ 14] "getsockopt"
0x0003D554	0x00000012	[ 14] "close0 - not open"
0x0003D566	0x00000016	[ 14] "close0 - close failed"
0x0003D57C	0x00000014	[ 14] "accept:INVALID_SOCK"
0x0003D590	0x0000000B	[ 14] "objTypeUDT"
0x0003D59B	0x0000000D	[ 14] "objSocketUDT"
0x0003D5A8	0x0000001B	[ 14] "initInstance0:INVALID_SOCK"
0x0003D5C3	0x00000015	[ 14] "stopClass0:cleanup()"
0x0003D5D8	0x00000015	[ 14] "initClass0:startup()"
0x0003D5F0	0x0000001F	[ 14] "objRemoteSocketAddress == NULL"
0x0003D60F	0x00000017	[ 14] "can not X_InitSockAddr"
0x0003D628	0x0000002D	[ 14] "can not X_ConvertInetSocketAddressToSockaddr"
0x0003D655	0x00000008	[ 14] "connect"
0x0003D65D	0x00000005	[ 14] "bind"
0x0003D668	0x00000028	[ 14] __ZZ39Java_com_barchart_udt_SocketUDT_select1E8__func__
0x0003D690	0x00000013	[ 14] __ZZ18UDT_CopyArrayToSetE8__func__
0x0003D6A8	0x0000002F	[ 14] __ZZ46Java_com_barchart_udt_SocketUDT_updateMonitor0E8__func__
0x0003D6D8	0x00000028	[ 14] __ZZ39Java_com_barchart_udt_SocketUDT_accept0E8__func__
0x0003D700	0x00000015	[ 14] __ZZ20UDT_InitMethodRefAllE8__func__
0x0003D715	0x00000010	[ 14] __ZZ15X_InitMethodRefE8__func__
0x0003D728	0x00000020	[ 14] __ZZ31UDT_ThrowExceptionUDT_ErrorInfoE8__func__
0x0003D748	0x0000001E	[ 14] __ZZ29UDT_ThrowExceptionUDT_MessageE8__func__
0x0003D766	0x00000014	[ 14] __ZZ19UDT_NewExceptionUDTE8__func__
0x0003D77A	0x00000011	[ 14] __ZZ16UDT_NewLingerUDTE8__func__
0x0003D790	0x00000020	[ 14] __ZZ31XXX_ThrowSocketExceptionMessageE8__func__
0x0003D7B0	0x00000024	[ 14] __ZZ35X_IsSockaddrEqualsInetSocketAddressE8__func__
0x0003D7D4	0x00000017	[ 14] __ZZ22X_NewInetSocketAddressE8__func__
0x0003D7EB	0x00000011	[ 14] __ZZ16X_NewInetAddressE8__func__
0x0003D800	0x00000025	[ 14] __ZZ36X_ConvertSockaddrToInetSocketAddressE8__func__
0x0003D828	0x00000025	[ 14] __ZZ36X_ConvertInetSocketAddressToSockaddrE8__func__
0x0003D84D	0x0000000F	[ 14] __ZZ14X_InitSockAddrE8__func__
0x0003D85C	0x0000000A	[ 14] __ZZ9X_NewLongE8__func__
0x0003D866	0x0000000D	[ 14] __ZZ12X_NewIntegerE8__func__
0x0003D873	0x0000000D	[ 14] __ZZ12X_NewBooleanE8__func__
0x0003D880	0x00000015	[ 14] __ZZ20X_InitClassReferenceE8__func__
0x0003D895	0x00000010	[  0]  stub helpers
0x0003D8A5	0x0000000A	[  0] __Znam$stubHelper
0x0003D8AF	0x0000000A	[  0] __Znwm$stubHelper
0x0003D8B9	0x0000000A	[  0] ___assert_rtn$stubHelper
0x0003D8C3	0x0000000A	[  0] ___cxa_allocate_exception$stubHelper
0x0003D8CD	0x0000000A	[  0] ___cxa_atexit$stubHelper
0x0003D8D7	0x0000000A	[  0] ___cxa_begin_catch$stubHelper
0x0003D8E1	0x0000000A	[  0] ___cxa_end_catch$stubHelper
0x0003D8EB	0x0000000A	[  0] ___cxa_free_exception$stubHelper
0x0003D8F5	0x0000000A	[  0] ___cxa_get_exception_ptr$stubHelper
0x0003D8FF	0x0000000A	[  0] ___cxa_rethrow$stubHelper
0x0003D909	0x0000000A	[  0] _pthread_mutex_trylock$stubHelper
0x0003D913	0x0000000A	[  0] __ZdlPv$stubHelper
0x0003D91D	0x0000000A	[  0] __ZdaPv$stubHelper
0x0003D927	0x0000000A	[  0] __ZSt9terminatev$stubHelper
0x0003D931	0x0000000A	[  0] __ZSt29_Rb_tree_insert_and_rebalancebPSt18_Rb_tree_node_baseS0_RS_$stubHelper
0x0003D93B	0x0000000A	[  0] __ZSt28_Rb_tree_rebalance_for_erasePSt18_Rb_tree_node_baseRS_$stubHelper
0x0003D945	0x0000000A	[  0] __ZSt20__throw_length_errorPKc$stubHelper
0x0003D94F	0x0000000A	[  0] __ZSt18_Rb_tree_incrementPSt18_Rb_tree_node_base$stubHelper
0x0003D959	0x0000000A	[  0] __ZSt18_Rb_tree_incrementPKSt18_Rb_tree_node_base$stubHelper
0x0003D963	0x0000000A	[  0] __ZSt18_Rb_tree_decrementPSt18_Rb_tree_node_base$stubHelper
0x0003D96D	0x0000000A	[  0] __ZSt18_Rb_tree_decrementPKSt18_Rb_tree_node_base$stubHelper
0x0003D977	0x0000000A	[  0] __ZSt17__throw_bad_allocv$stubHelper
0x0003D981	0x0000000A	[  0] __ZNSspLEPKc$stubHelper
0x0003D98B	0x0000000A	[  0] __ZNSsaSERKSs$stubHelper
0x0003D995	0x0000000A	[  0] __ZNSsaSEPKc$stubHelper
0x0003D99F	0x0000000A	[  0] ___cxa_throw$stubHelper
0x0003D9A9	0x0000000A	[  0] ___error$stubHelper
0x0003D9B3	0x0000000A	[  0] ___stack_chk_fail$stubHelper
0x0003D9BD	0x0000000A	[  0] _bind$stubHelper
0x0003D9C7	0x0000000A	[  0] _bzero$stubHelper
0x0003D9D1	0x0000000A	[  0] _ceil$stubHelper
0x0003D9DB	0x0000000A	[  0] _close$stubHelper
0x0003D9E5	0x0000000A	[  0] _free$stubHelper
0x0003D9EF	0x0000000A	[  0] _freeaddrinfo$stubHelper
0x0003D9F9	0x0000000A	[  0] _getaddrinfo$stubHelper
0x0003DA03	0x0000000A	[  0] _getnameinfo$stubHelper
0x0003DA0D	0x0000000A	[  0] _getpeername$stubHelper
0x0003DA17	0x0000000A	[  0] _getsockname$stubHelper
0x0003DA21	0x0000000A	[  0] _getsockopt$stubHelper
0x0003DA2B	0x0000000A	[  0] _gettimeofday$stubHelper
0x0003DA35	0x0000000A	[  0] _log10$stubHelper
0x0003DA3F	0x0000000A	[  0] _malloc$stubHelper
0x0003DA49	0x0000000A	[  0] _memcpy$stubHelper
0x0003DA53	0x0000000A	[  0] _memmove$stubHelper
0x0003DA5D	0x0000000A	[  0] _memset$stubHelper
0x0003DA67	0x0000000A	[  0] _nanosleep$stubHelper
0x0003DA71	0x0000000A	[  0] _pow$stubHelper
0x0003DA7B	0x0000000A	[  0] _printf$stubHelper
0x0003DA85	0x0000000A	[  0] _pthread_cond_broadcast$stubHelper
0x0003DA8F	0x0000000A	[  0] _pthread_cond_destroy$stubHelper
0x0003DA99	0x0000000A	[  0] _pthread_cond_init$stubHelper
0x0003DAA3	0x0000000A	[  0] _pthread_cond_signal$stubHelper
0x0003DAAD	0x0000000A	[  0] _select$1050$stubHelper
0x0003DAB7	0x0000000A	[  0] _sendmsg$stubHelper
0x0003DAC1	0x0000000A	[  0] _setsockopt$stubHelper
0x0003DACB	0x0000000A	[  0] _socket$stubHelper
0x0003DAD5	0x0000000A	[  0] _sprintf$stubHelper
0x0003DADF	0x0000000A	[  0] _srand$stubHelper
0x0003DAE9	0x0000000A	[  0] _strerror_r$stubHelper
0x0003DAF3	0x0000000A	[  0] _strlen$stubHelper
0x0003DAFD	0x0000000A	[  0] _pthread_mutex_unlock$stubHelper
0x0003DB07	0x0000000A	[  0] _pthread_setspecific$stubHelper
0x0003DB11	0x0000000A	[  0] _puts$stubHelper
0x0003DB1B	0x0000000A	[  0] _rand$stubHelper
0x0003DB25	0x0000000A	[  0] _pthread_mutex_init$stubHelper
0x0003DB2F	0x0000000A	[  0] _pthread_mutex_destroy$stubHelper
0x0003DB39	0x0000000A	[  0] _pthread_key_delete$stubHelper
0x0003DB43	0x0000000A	[  0] _pthread_key_create$stubHelper
0x0003DB4D	0x0000000A	[  0] _pthread_join$stubHelper
0x0003DB57	0x0000000A	[  0] _recvmsg$stubHelper
0x0003DB61	0x0000000A	[  0] _usleep$stubHelper
0x0003DB6B	0x0000000A	[  0] _pthread_cond_timedwait$stubHelper
0x0003DB75	0x0000000A	[  0] _pthread_cond_wait$stubHelper
0x0003DB7F	0x0000000A	[  0] _pthread_create$stubHelper
0x0003DB89	0x0000000A	[  0] _pthread_getspecific$stubHelper
0x0003DB93	0x0000000A	[  0] _pthread_mutex_lock$stubHelper
0x0003DB9D	0x0000000A	[  0] __Unwind_Resume$stubHelper
0x0003DBA7	0x0000000A	[  0] __ZNKSi6gcountEv$stubHelper
0x0003DBB1	0x0000000A	[  0] __ZNKSs4sizeEv$stubHelper
0x0003DBBB	0x0000000A	[  0] __ZNKSs5c_strEv$stubHelper
0x0003DBC5	0x0000000A	[  0] __ZNKSsixEm$stubHelper
0x0003DBCF	0x0000000A	[  0] __ZNKSt9basic_iosIcSt11char_traitsIcEE3badEv$stubHelper
0x0003DBD9	0x0000000A	[  0] __ZNKSt9basic_iosIcSt11char_traitsIcEE3eofEv$stubHelper
0x0003DBE3	0x0000000A	[  0] __ZNKSt9basic_iosIcSt11char_traitsIcEE4failEv$stubHelper
0x0003DBED	0x0000000A	[  0] __ZNSi4readEPcl$stubHelper
0x0003DBF7	0x0000000A	[  0] __ZNSi5seekgESt4fposI11__mbstate_tE$stubHelper
0x0003DC01	0x0000000A	[  0] __ZNSo5seekpESt4fposI11__mbstate_tE$stubHelper
0x0003DC0B	0x0000000A	[  0] __ZNSo5writeEPKcl$stubHelper
0x0003DC15	0x0000000A	[  0] __ZNSsC1Ev$stubHelper
0x0003DC1F	0x0000000A	[  0] __ZNSsD1Ev$stubHelper
0x0003DC2C	0x00000020	[  2] __ZNSt11_Deque_baseIP7CPacketSaIS1_EE15_M_allocate_mapEm.lsda
0x0003DC4C	0x00000034	[  2] __ZNSt11_Deque_baseIP7CPacketSaIS1_EE15_M_create_nodesEPPS1_S5_.lsda
0x0003DC80	0x00000040	[  2] __ZNSt11_Deque_baseIP7CPacketSaIS1_EE17_M_initialize_mapEm.lsda
0x0003DCC0	0x0000001E	[  2] __ZNSt11_Deque_baseIP7CPacketSaIS1_EEC2ERKS2_m.lsda
0x0003DCDE	0x0000001E	[  2] __ZN9__gnu_cxx13new_allocatorISt4pairIKiSt5queueIP7CPacketSt5dequeIS5_SaIS5_EEEEE9constructEPSA_RKSA_.lsda
0x0003DCFC	0x00000044	[  2] __ZNSt8_Rb_treeIiSt4pairIKiSt5queueIP7CPacketSt5dequeIS4_SaIS4_EEEESt10_Select1stIS9_ESt4lessIiESaIS9_EE14_M_create_nodeERKS9_.lsda
0x0003DD40	0x0000001E	[  2] __ZNSt8_Rb_treeIiSt4pairIKiSt5queueIP7CPacketSt5dequeIS4_SaIS4_EEEESt10_Select1stIS9_ESt4lessIiESaIS9_EED1Ev.lsda
0x0003DD5E	0x00000045	[  2] __ZNSt3mapIiSt5queueIP7CPacketSt5dequeIS2_SaIS2_EEESt4lessIiESaISt4pairIKiS6_EEEixERSA_.lsda
0x0003DDA3	0x0000002B	[  2] __ZN9CRcvQueue8storePktERKiP7CPacket.lsda
0x0003DDCE	0x00000038	[  2] __ZN9CRcvQueue11setNewEntryEP4CUDT.lsda
0x0003DE06	0x00000038	[  2] __ZN16CRendezvousQueue6insertERKiS1_PK8sockaddr.lsda
0x0003DE3E	0x0000002E	[  2] __ZN9CRcvQueue8recvfromERKiR7CPacket.lsda
0x0003DE6C	0x0000005C	[  2] __ZN10CUnitQueue8increaseEv.lsda
0x0003DEC8	0x0000005C	[  2] __ZN10CUnitQueue4initERKiS1_S1_.lsda
0x0003DF24	0x0000002B	[  2] __ZN16CRendezvousQueue8retrieveEPK8sockaddrRi.lsda
0x0003DF4F	0x00000038	[  2] __ZN9CRcvQueue6workerEPv.lsda
0x0003DF87	0x0000001E	[  2] __ZN16CRendezvousQueueD1Ev.lsda
0x0003DFA5	0x0000001E	[  2] __ZN16CRendezvousQueueD2Ev.lsda
0x0003DFC3	0x00000038	[  2] __ZN9CRcvQueueD1Ev.lsda
0x0003DFFB	0x00000038	[  2] __ZN9CRcvQueueD2Ev.lsda
0x0003E033	0x0000001E	[  2] __ZN16CRendezvousQueueC1Ev.lsda
0x0003E051	0x00000045	[  2] __ZN9CRcvQueue4initERKiS1_S1_S1_PK8CChannelPK6CTimer.lsda
0x0003E096	0x0000001E	[  2] __ZN16CRendezvousQueueC2Ev.lsda
0x0003E0B4	0x00000045	[  2] __ZN9CSndQueue4initEPK8CChannelPK6CTimer.lsda
0x0003E0F9	0x0000001E	[  2] __ZN9CRcvQueueC1Ev.lsda
0x0003E117	0x00000021	[  2] __ZN9CRcvQueueC2Ev.lsda
0x0003E138	0x00000040	[  2] __ZN9CSndUList6insertERKxPK4CUDT.lsda
0x0003E178	0x0000002B	[  2] __ZN9CSndUList3popERP8sockaddrR7CPacket.lsda
0x0003E1A3	0x0000002B	[  2] __ZN9CSndQueue6workerEPv.lsda
0x0003E1CE	0x0000002B	[  2] __ZN9CSndUList6updateEPK4CUDTRKb.lsda
0x0003E1FC	0x0000001E	[  6] __ZNSt8_Rb_treeIiiSt9_IdentityIiESt4lessIiESaIiEED1Ev.lsda
0x0003E21A	0x00000046	[  6] __ZN10CEPollDescD1Ev.lsda
0x0003E260	0x00000040	[  6] __ZNSt8_Rb_treeIiiSt9_IdentityIiESt4lessIiESaIiEE7_M_copyEPKSt13_Rb_tree_nodeIiEPS7_.lsda
0x0003E2A0	0x0000001E	[  6] __ZNSt8_Rb_treeIiiSt9_IdentityIiESt4lessIiESaIiEEC1ERKS5_.lsda
0x0003E2BE	0x00000045	[  6] __ZN10CEPollDescC1ERKS_.lsda
0x0003E303	0x0000001E	[  6] __ZN9__gnu_cxx13new_allocatorISt4pairIKi10CEPollDescEE9constructEPS4_RKS4_.lsda
0x0003E321	0x0000001E	[  6] __ZNSt8_Rb_treeIiSt4pairIKi10CEPollDescESt10_Select1stIS3_ESt4lessIiESaIS3_EE15_M_destroy_nodeEPSt13_Rb_tree_nodeIS3_E.lsda
0x0003E33F	0x00000021	[  6] __ZNSt8_Rb_treeIiSt4pairIKi10CEPollDescESt10_Select1stIS3_ESt4lessIiESaIS3_EED1Ev.lsda
0x0003E360	0x00000044	[  6] __ZNSt8_Rb_treeIiSt4pairIKi10CEPollDescESt10_Select1stIS3_ESt4lessIiESaIS3_EE14_M_create_nodeERKS3_.lsda
0x0003E3A4	0x00000038	[  6] __ZN6CEPoll12disable_readERKiRSt3setIiSt4lessIiESaIiEE.lsda
0x0003E3DC	0x00000038	[  6] __ZN6CEPoll13disable_writeERKiRSt3setIiSt4lessIiESaIiEE.lsda
0x0003E414	0x00000038	[  6] __ZN6CEPoll11enable_readERKiRSt3setIiSt4lessIiESaIiEE.lsda
0x0003E44C	0x00000038	[  6] __ZN6CEPoll12enable_writeERKiRSt3setIiSt4lessIiESaIiEE.lsda
0x0003E484	0x00000045	[  6] __ZNSt3mapIi10CEPollDescSt4lessIiESaISt4pairIKiS0_EEEixERS4_.lsda
0x0003E4C9	0x00000045	[  6] __ZN6CEPoll6createEv.lsda
0x0003E50E	0x00000045	[  6] __ZN6CEPoll7releaseEi.lsda
0x0003E553	0x00000045	[  6] __ZN6CEPoll12remove_ssockEiRKiPS0_.lsda
0x0003E598	0x00000045	[  6] __ZN6CEPoll12remove_usockEiRKiPS0_.lsda
0x0003E5DD	0x00000045	[  6] __ZN6CEPoll9add_ssockEiRKiPS0_.lsda
0x0003E622	0x00000045	[  6] __ZN6CEPoll9add_usockEiRKiPS0_.lsda
0x0003E667	0x0000002B	[  6] __ZN6CEPoll4waitEiPSt3setIiSt4lessIiESaIiEES5_xS5_S5_.lsda
0x0003E692	0x0000002B	[  6] __ZN6CEPollD1Ev.lsda
0x0003E6BD	0x0000002B	[  6] __ZN6CEPollD2Ev.lsda
0x0003E6E8	0x0000001E	[  6] __ZN6CEPollC1Ev.lsda
0x0003E706	0x0000001E	[  6] __ZN6CEPollC2Ev.lsda
0x0003E726	0x00000038	[  7] __ZN4CUDT8sendCtrlERKiPvS2_S1_.lsda
0x0003E75E	0x0000002B	[  7] __ZN4CUDT8packDataER7CPacketRy.lsda
0x0003E789	0x0000001E	[  7] __ZN4CUDTC1ERKS_.lsda
0x0003E7A7	0x0000001E	[  7] __ZN4CUDTC2ERKS_.lsda
0x0003E7C5	0x0000001E	[  7] __ZN4CUDTC1Ev.lsda
0x0003E7E3	0x0000001E	[  7] __ZN4CUDTC2Ev.lsda
0x0003E801	0x00000079	[  7] __ZN4CUDT6getOptE6UDTOptPvRi.lsda
0x0003E87A	0x000001F3	[  7] __ZN4CUDT6setOptE6UDTOptPKvRKi.lsda
0x0003EA6D	0x0000003B	[  7] __ZN4CUDT6sampleEP8CPerfMonb.lsda
0x0003EAA8	0x000000F8	[  7] __ZN4CUDT8recvfileERSt13basic_fstreamIcSt11char_traitsIcEERxRKxRKi.lsda
0x0003EBA0	0x00000114	[  7] __ZN4CUDT8sendfileERSt13basic_fstreamIcSt11char_traitsIcEERxRKxRKi.lsda
0x0003ECB4	0x000000BB	[  7] __ZN4CUDT7recvmsgEPcRKi.lsda
0x0003ED6F	0x000000D5	[  7] __ZN4CUDT7sendmsgEPKcRKiS3_RKb.lsda
0x0003EE44	0x000000D5	[  7] __ZN4CUDT4sendEPKcRKi.lsda
0x0003EF19	0x000000C8	[  7] __ZN4CUDT4recvEPcRKi.lsda
0x0003EFE1	0x00000047	[  7] __ZN4CUDT5closeEv.lsda
0x0003F028	0x00000148	[  7] __ZN4CUDT7connectEPK8sockaddrP10CHandShake.lsda
0x0003F170	0x00000275	[  7] __ZN4CUDT7connectEPK8sockaddr.lsda
0x0003F3E5	0x0000006C	[  7] __ZN4CUDT6listenEv.lsda
0x0003F451	0x00000038	[  7] __ZN4CUDT4openEv.lsda
0x0003F489	0x0000002B	[  7] __ZN4CUDTD1Ev.lsda
0x0003F4B4	0x0000002B	[  7] __ZN4CUDTD2Ev.lsda
0x0003F4DF	0x0000002B	[  7] __ZN10CCCFactoryI6CUDTCCE6createEv.lsda
0x0003F50A	0x00000038	[  8] __ZN13CUDTExceptionC1ERKS_.lsda
0x0003F542	0x00000038	[  8] __ZN13CUDTExceptionC2ERKS_.lsda
0x0003F57A	0x00000038	[  8] __ZN13CUDTExceptionD0Ev.lsda
0x0003F5B2	0x00000038	[  8] __ZN13CUDTExceptionD1Ev.lsda
0x0003F5EA	0x00000038	[  8] __ZN13CUDTExceptionD2Ev.lsda
0x0003F622	0x00000045	[  8] __ZN13CUDTExceptionC1Eiii.lsda
0x0003F667	0x00000045	[  8] __ZN13CUDTExceptionC2Eiii.lsda
0x0003F6AC	0x0000002B	[  9] __ZN8CChannel13setUDPSockOptEv.lsda
0x0003F6D7	0x00000079	[  9] __ZN8CChannel4openEPK8sockaddr.lsda
0x0003F750	0x0000001E	[ 11] __ZNSt8_Rb_treeIP10CInfoBlockS1_St9_IdentityIS1_E7CTSCompSaIS1_EED1Ev.lsda
0x0003F76E	0x0000001E	[ 11] __ZNSt8_Rb_treeIP10CInfoBlockS1_St9_IdentityIS1_E7CIPCompSaIS1_EED1Ev.lsda
0x0003F78C	0x00000038	[ 11] __ZN6CCache6updateEPK8sockaddrRKiP10CInfoBlock.lsda
0x0003F7C4	0x00000038	[ 11] __ZN6CCacheD1Ev.lsda
0x0003F7FC	0x00000038	[ 11] __ZN6CCacheD2Ev.lsda
0x0003F834	0x0000001E	[ 11] __ZN6CCacheC1ERKj.lsda
0x0003F852	0x0000001E	[ 11] __ZN6CCacheC2ERKj.lsda
0x0003F870	0x0000001E	[ 11] __ZN6CCacheC1Ev.lsda
0x0003F88E	0x0000001E	[ 11] __ZN6CCacheC2Ev.lsda
0x0003F8AC	0x00000074	[ 12] __ZN10CSndBuffer8increaseEv.lsda
0x0003F920	0x00000038	[ 12] __ZN10CSndBuffer7ackDataERKi.lsda
0x0003F958	0x0000002B	[ 12] __ZN10CSndBuffer8readDataEPPciRiS2_.lsda
0x0003F984	0x0000001E	[ 13] __ZNSt8_Rb_treeIiSt4pairIKiP10CUDTSocketESt10_Select1stIS4_ESt4lessIiESaIS4_EED1Ev.lsda
0x0003F9A4	0x0000001E	[ 13] __ZNSt8_Rb_treeIiSt4pairIKi12CMultiplexerESt10_Select1stIS3_ESt4lessIiESaIS3_EED1Ev.lsda
0x0003F9C2	0x0000001E	[ 13] __ZNSt8_Rb_treeIxSt4pairIKxSt3setIiSt4lessIiESaIiEEESt10_Select1stIS7_ES3_IxESaIS7_EE15_M_destroy_nodeEPSt13_Rb_tree_nodeIS7_E.lsda
0x0003F9E0	0x00000020	[ 13] __ZNSt8_Rb_treeIxSt4pairIKxSt3setIiSt4lessIiESaIiEEESt10_Select1stIS7_ES3_IxESaIS7_EED1Ev.lsda
0x0003FA02	0x0000001E	[ 13] __ZN9__gnu_cxx13new_allocatorISt4pairIKxSt3setIiSt4lessIiESaIiEEEE9constructEPS8_RKS8_.lsda
0x0003FA20	0x00000044	[ 13] __ZNSt8_Rb_treeIxSt4pairIKxSt3setIiSt4lessIiESaIiEEESt10_Select1stIS7_ES3_IxESaIS7_EE14_M_create_nodeERKS7_.lsda
0x0003FA64	0x0000002B	[ 13] __ZN10CUDTUnited9updateMuxEP10CUDTSocketPKS0_.lsda
0x0003FA8F	0x00000045	[ 13] __ZNSt3mapIxSt3setIiSt4lessIiESaIiEES1_IxESaISt4pairIKxS4_EEEixERS7_.lsda
0x0003FAD4	0x000000E5	[ 13] __ZN10CUDTUnited9updateMuxEP10CUDTSocketPK8sockaddrPKi.lsda
0x0003FBB9	0x0000002B	[ 13] __ZN10CUDTUnited8getErrorEv.lsda
0x0003FBE4	0x0000002C	[ 13] __ZN10CUDTUnited6locateEiPK8sockaddrRKiS4_.lsda
0x0003FC10	0x000000C4	[ 13] __ZN4CUDT13epoll_releaseEi.lsda
0x0003FCD4	0x000000C4	[ 13] __ZN4CUDT10epoll_waitEiPSt3setIiSt4lessIiESaIiEES5_xS5_S5_.lsda
0x0003FD98	0x000000C1	[ 13] __ZN4CUDT18epoll_remove_ssockEiiPKi.lsda
0x0003FE59	0x0000002B	[ 13] __ZN10CUDTUnited18epoll_remove_usockEiiPKi.lsda
0x0003FE84	0x000000C1	[ 13] __ZN4CUDT18epoll_remove_usockEiiPKi.lsda
0x0003FF45	0x00000047	[ 13] __ZN10CUDTUnited6lookupEi.lsda
0x0003FF8C	0x00000028	[ 13] __ZN4CUDT12getUDTHandleEi.lsda
0x0003FFB4	0x000000C4	[ 13] __ZN4CUDT7perfmonEiP8CPerfMonb.lsda
0x00040078	0x000000C4	[ 13] __ZN4CUDT8recvfileEiRSt13basic_fstreamIcSt11char_traitsIcEERxRKxRKi.lsda
0x0004013C	0x00000100	[ 13] __ZN4CUDT8sendfileEiRSt13basic_fstreamIcSt11char_traitsIcEERxRKxRKi.lsda
0x0004023C	0x000000C4	[ 13] __ZN4CUDT7recvmsgEiPci.lsda
0x00040300	0x00000100	[ 13] __ZN4CUDT7sendmsgEiPKciib.lsda
0x00040400	0x000000C4	[ 13] __ZN4CUDT4recvEiPcii.lsda
0x000404C4	0x00000100	[ 13] __ZN4CUDT4sendEiPKcii.lsda
0x000405C4	0x000000C4	[ 13] __ZN4CUDT10setsockoptEii6UDTOptPKvi.lsda
0x00040688	0x000000C4	[ 13] __ZN4CUDT10getsockoptEii6UDTOptPvPi.lsda
0x0004074C	0x000000C1	[ 13] __ZN4CUDT15epoll_add_ssockEiiPKi.lsda
0x0004080D	0x0000002B	[ 13] __ZN10CUDTUnited15epoll_add_usockEiiPKi.lsda
0x00040838	0x000000C4	[ 13] __ZN4CUDT15epoll_add_usockEiiPKi.lsda
0x000408FC	0x000000C4	[ 13] __ZN4CUDT12epoll_createEv.lsda
0x000409C0	0x00000125	[ 13] __ZN4CUDT8selectExERKSt6vectorIiSaIiEEPS2_S5_S5_x.lsda
0x00040AE5	0x000000A3	[ 13] __ZN10CUDTUnited6selectEPSt3setIiSt4lessIiESaIiEES5_S5_PK7timeval.lsda
0x00040B88	0x00000125	[ 13] __ZN4CUDT6selectEiPSt3setIiSt4lessIiESaIiEES5_S5_PK7timeval.lsda
0x00040CAD	0x0000005F	[ 13] __ZN10CUDTUnited11getsocknameEiP8sockaddrPi.lsda
0x00040D0C	0x000000C1	[ 13] __ZN4CUDT11getsocknameEiP8sockaddrPi.lsda
0x00040DCD	0x0000005F	[ 13] __ZN10CUDTUnited11getpeernameEiP8sockaddrPi.lsda
0x00040E2C	0x000000C1	[ 13] __ZN4CUDT11getpeernameEiP8sockaddrPi.lsda
0x00040EED	0x00000047	[ 13] __ZN10CUDTUnited5closeEi.lsda
0x00040F34	0x000000C1	[ 13] __ZN4CUDT5closeEi.lsda
0x00040FF5	0x0000007B	[ 13] __ZN10CUDTUnited4bindEiPK8sockaddrRKi.lsda
0x00041070	0x000000DC	[ 13] __ZN4CUDT4bindEiPK8sockaddri.lsda
0x0004114C	0x00000094	[ 13] __ZN10CUDTUnited7connectEiPK8sockaddrRKi.lsda
0x000411E0	0x000000FD	[ 13] __ZN4CUDT7connectEiPK8sockaddri.lsda
0x000412DD	0x000000A3	[ 13] __ZN10CUDTUnited6acceptEiP8sockaddrPi.lsda
0x00041380	0x000000A4	[ 13] __ZN4CUDT6acceptEiP8sockaddrPi.lsda
0x00041424	0x000000D0	[ 13] __ZN10CUDTUnited6listenEiRKi.lsda
0x000414F4	0x000000DC	[ 13] __ZN4CUDT6listenEii.lsda
0x000415D0	0x00000060	[ 13] __ZN10CUDTUnited4bindEii.lsda
0x00041630	0x000000DC	[ 13] __ZN4CUDT4bindEii.lsda
0x0004170C	0x0000002B	[ 13] __ZN10CUDTUnited7cleanupEv.lsda
0x00041737	0x0000002B	[ 13] __ZN10CUDTUnited7startupEv.lsda
0x00041762	0x0000005F	[ 13] __ZN10CUDTUnitedD1Ev.lsda
0x000417C1	0x0000005F	[ 13] __ZN10CUDTUnitedD2Ev.lsda
0x00041820	0x00000038	[ 13] __ZN10CUDTUnitedC1Ev.lsda
0x00041858	0x00000038	[ 13] __ZN10CUDTUnitedC2Ev.lsda
0x00041890	0x00000038	[ 13] __ZN10CUDTUnited18checkBrokenSocketsEv.lsda
0x000418C8	0x00000038	[ 13] __ZN10CUDTUnited14garbageCollectEPv.lsda
0x00041900	0x00000108	[ 13] __ZN10CUDTUnited13newConnectionEiPK8sockaddrP10CHandShake.lsda
0x00041A08	0x000000FC	[ 13] __ZN10CUDTUnited9newSocketERKiS1_.lsda
0x00041B04	0x000000EC	[ 13] __ZN4CUDT6socketEiii.lsda
0x00041BF0	0x00000038	[ 14] _Java_com_barchart_udt_SocketUDT_testInvalidClose0.lsda
0x00041C28	0x00000038	[ 14] _Java_com_barchart_udt_SocketUDT_initInstance1.lsda
0x00041C60	0x00000052	[ 14] _Java_com_barchart_udt_SocketUDT_selectEx1.lsda
0x00041CB2	0x00000052	[ 14] _Java_com_barchart_udt_SocketUDT_selectEx0.lsda
0x00041D04	0x00000079	[ 14] _Java_com_barchart_udt_SocketUDT_select1.lsda
0x00041D7D	0x00000079	[ 14] _Java_com_barchart_udt_SocketUDT_select0.lsda
0x00041DF6	0x00000038	[ 14] _Java_com_barchart_udt_SocketUDT_updateMonitor0.lsda
0x00041E2E	0x00000038	[ 14] _UDT_ReturnSendError.lsda
0x00041E66	0x00000038	[ 14] _UDT_ReturnReceiveError.lsda
0x00041E9E	0x00000038	[ 14] _Java_com_barchart_udt_SocketUDT_listen0.lsda
0x00041ED6	0x00000038	[ 14] _Java_com_barchart_udt_SocketUDT_setOption0.lsda
0x00041F0E	0x00000038	[ 14] _Java_com_barchart_udt_SocketUDT_getOption0.lsda
0x00041F46	0x00000038	[ 14] _Java_com_barchart_udt_SocketUDT_close0.lsda
0x00041F7E	0x00000038	[ 14] _Java_com_barchart_udt_SocketUDT_accept0.lsda
0x00041FB6	0x00000038	[ 14] _Java_com_barchart_udt_SocketUDT_initInstance0.lsda
0x00041FEE	0x00000038	[ 14] _Java_com_barchart_udt_SocketUDT_stopClass0.lsda
0x00042026	0x00000038	[ 14] _Java_com_barchart_udt_SocketUDT_initClass0.lsda
0x0004205E	0x00000038	[ 14] _Java_com_barchart_udt_SocketUDT_connect0.lsda
0x00042096	0x00000038	[ 14] _Java_com_barchart_udt_SocketUDT_bind0.lsda
0x000420D0	0x00000D40	[  0] unwind info
0x00042E10	0x00000020	[  1] CIE
0x00042E30	0x00000030	[  1] __ZNK14CPktTimeWindow15getMinPktSndIntEv.eh
0x00042E60	0x00000030	[  1] __ZN14CPktTimeWindow9onPktSentERKi.eh
0x00042E90	0x00000030	[  1] __ZStL17__verify_groupingPKcmRKSs.eh
0x00042EC0	0x00000030	[  1] __ZN14CPktTimeWindow13probe2ArrivalEv.eh
0x00042EF0	0x00000030	[  1] __ZN14CPktTimeWindow13probe1ArrivalEv.eh
0x00042F20	0x00000030	[  1] __ZN14CPktTimeWindow12onPktArrivalEv.eh
0x00042F50	0x00000030	[  1] __ZN10CACKWindow11acknowledgeERKiRi.eh
0x00042F80	0x00000030	[  1] __ZN10CACKWindow5storeERKiS1_.eh
0x00042FB0	0x00000030	[  1] __ZNK14CPktTimeWindow12getBandwidthEv.eh
0x00042FE0	0x00000030	[  1] __ZNK14CPktTimeWindow14getPktRcvSpeedEv.eh
0x00043010	0x00000030	[  1] __ZN14CPktTimeWindowD1Ev.eh
0x00043040	0x00000030	[  1] __ZN14CPktTimeWindowD2Ev.eh
0x00043070	0x00000030	[  1] __ZN10CACKWindowD1Ev.eh
0x000430A0	0x00000030	[  1] __ZN10CACKWindowD2Ev.eh
0x000430D0	0x00000030	[  1] __ZN14CPktTimeWindowC1ERKiS1_.eh
0x00043100	0x00000030	[  1] __ZN14CPktTimeWindowC2ERKiS1_.eh
0x00043130	0x00000030	[  1] __ZN14CPktTimeWindowC1Ev.eh
0x00043160	0x00000030	[  1] __ZN14CPktTimeWindowC2Ev.eh
0x00043190	0x00000030	[  1] __ZN10CACKWindowC1ERKi.eh
0x000431C0	0x00000030	[  1] __ZN10CACKWindowC2ERKi.eh
0x000431F0	0x00000030	[  1] __ZN10CACKWindowC1Ev.eh
0x00043220	0x00000030	[  1] __ZN10CACKWindowC2Ev.eh
0x00043250	0x00000020	[  2] CIE
0x00043270	0x00000038	[  2] __ZnwmPv.eh
0x000432A8	0x00000038	[  2] __ZdlPvS_.eh
0x000432E0	0x00000038	[  2] __ZSt16__deque_buf_sizem.eh
0x00043318	0x00000038	[  2] __ZN10CUnitQueueC2Ev.eh
0x00043350	0x00000038	[  2] __ZN10CUnitQueueC1Ev.eh
0x00043388	0x00000038	[  2] __ZN10CUnitQueue6shrinkEv.eh
0x000433C0	0x00000038	[  2] __ZN9CSndUList7remove_EPK4CUDT.eh
0x000433F8	0x00000038	[  2] __ZN9CRcvUListC2Ev.eh
0x00043430	0x00000038	[  2] __ZN9CRcvUListC1Ev.eh
0x00043468	0x00000038	[  2] __ZN9CRcvUListD2Ev.eh
0x000434A0	0x00000038	[  2] __ZN9CRcvUListD1Ev.eh
0x000434D8	0x00000038	[  2] __ZN9CRcvUList6removeEPK4CUDT.eh
0x00043510	0x00000038	[  2] __ZN5CHashC2Ev.eh
0x00043548	0x00000038	[  2] __ZN5CHashC1Ev.eh
0x00043580	0x00000038	[  2] __ZN5CHash6lookupERKi.eh
0x000435B8	0x00000038	[  2] __ZSt3minImERKT_S2_S2_.eh
0x000435F0	0x00000038	[  2] __ZStL17__verify_groupingPKcmRKSs.eh
0x00043628	0x00000038	[  2] __ZN9__gnu_cxx17__normal_iteratorIPN16CRendezvousQueue3CRLESt6vectorIS2_SaIS2_EEEppEv.eh
0x00043660	0x00000038	[  2] __ZNK9__gnu_cxx17__normal_iteratorIPN16CRendezvousQueue3CRLESt6vectorIS2_SaIS2_EEEptEv.eh
0x00043698	0x00000038	[  2] __ZNSt15binary_functionIiibEC2Ev.eh
0x000436D0	0x00000038	[  2] __ZNSt4lessIiEC1Ev.eh
0x00043708	0x00000038	[  2] __ZNKSt17_Rb_tree_iteratorISt4pairIKiSt5queueIP7CPacketSt5dequeIS4_SaIS4_EEEEEneERKSA_.eh
0x00043740	0x00000038	[  2] __ZNKSt17_Rb_tree_iteratorISt4pairIKiSt5queueIP7CPacketSt5dequeIS4_SaIS4_EEEEEptEv.eh
0x00043778	0x00000038	[  2] __ZNKSt17_Rb_tree_iteratorISt4pairIKiSt5queueIP7CPacketSt5dequeIS4_SaIS4_EEEEEeqERKSA_.eh
0x000437B0	0x00000038	[  2] __ZNK9__gnu_cxx17__normal_iteratorIPP4CUDTSt6vectorIS2_SaIS2_EEEdeEv.eh
0x000437E8	0x00000038	[  2] __ZN9__gnu_cxx13new_allocatorIN16CRendezvousQueue3CRLEEC2Ev.eh
0x00043820	0x00000038	[  2] __ZNSaIN16CRendezvousQueue3CRLEEC1Ev.eh
0x00043858	0x00000038	[  2] __ZN9__gnu_cxx13new_allocatorIN16CRendezvousQueue3CRLEED2Ev.eh
0x00043890	0x00000038	[  2] __ZNSaIN16CRendezvousQueue3CRLEED1Ev.eh
0x000438C8	0x00000038	[  2] __ZNSaIN16CRendezvousQueue3CRLEED2Ev.eh
0x00043900	0x00000038	[  2] __ZN9__gnu_cxx13new_allocatorIN16CRendezvousQueue3CRLEEC2ERKS3_.eh
0x00043938	0x00000038	[  2] __ZNSaIN16CRendezvousQueue3CRLEEC1ERKS1_.eh
0x00043970	0x00000038	[  2] __ZNSaIN16CRendezvousQueue3CRLEEC2ERKS1_.eh
0x000439A8	0x00000038	[  2] __ZNSt12_Vector_baseIN16CRendezvousQueue3CRLESaIS1_EE12_Vector_implD1Ev.eh
0x000439E0	0x00000038	[  2] __ZNSt12_Vector_baseIN16CRendezvousQueue3CRLESaIS1_EE19_M_get_Tp_allocatorEv.eh
0x00043A18	0x00000038	[  2] __ZN9__gnu_cxx17__normal_iteratorIPN16CRendezvousQueue3CRLESt6vectorIS2_SaIS2_EEEC1ERKS3_.eh
0x00043A50	0x00000038	[  2] __ZNSt6vectorIN16CRendezvousQueue3CRLESaIS1_EE5beginEv.eh
0x00043A88	0x00000038	[  2] __ZNSt6vectorIN16CRendezvousQueue3CRLESaIS1_EE3endEv.eh
0x00043AC0	0x00000038	[  2] __ZNK9__gnu_cxx17__normal_iteratorIPN16CRendezvousQueue3CRLESt6vectorIS2_SaIS2_EEE4baseEv.eh
0x00043AF8	0x00000038	[  2] __ZN9__gnu_cxxneIPN16CRendezvousQueue3CRLESt6vectorIS2_SaIS2_EEEEbRKNS_17__normal_iteratorIT_T0_EESC_.eh
0x00043B30	0x00000038	[  2] __ZN9__gnu_cxxmiIPN16CRendezvousQueue3CRLESt6vectorIS2_SaIS2_EEEENS_17__normal_iteratorIT_T0_E15difference_typeERKSA_SD_.eh
0x00043B68	0x00000038	[  2] __ZN9__gnu_cxxeqIPN16CRendezvousQueue3CRLESt6vectorIS2_SaIS2_EEEEbRKNS_17__normal_iteratorIT_T0_EESC_.eh
0x00043BA0	0x00000038	[  2] __ZN9__gnu_cxx13new_allocatorIN16CRendezvousQueue3CRLEE9constructEPS2_RKS2_.eh
0x00043BD8	0x00000038	[  2] __ZNK9__gnu_cxx17__normal_iteratorIPN16CRendezvousQueue3CRLESt6vectorIS2_SaIS2_EEEplERKl.eh
0x00043C10	0x00000038	[  2] __ZN16CRendezvousQueue3CRLD1Ev.eh
0x00043C48	0x00000038	[  2] __ZN9__gnu_cxx13new_allocatorIN16CRendezvousQueue3CRLEE7destroyEPS2_.eh
0x00043C80	0x00000038	[  2] __ZN9__gnu_cxx13new_allocatorIP4CUDTEC2Ev.eh
0x00043CB8	0x00000038	[  2] __ZNSaIP4CUDTEC1Ev.eh
0x00043CF0	0x00000038	[  2] __ZN9__gnu_cxx13new_allocatorIP4CUDTED2Ev.eh
0x00043D28	0x00000038	[  2] __ZNSaIP4CUDTED1Ev.eh
0x00043D60	0x00000038	[  2] __ZNSaIP4CUDTED2Ev.eh
0x00043D98	0x00000038	[  2] __ZN9__gnu_cxx13new_allocatorIP4CUDTEC2ERKS3_.eh
0x00043DD0	0x00000038	[  2] __ZNSaIP4CUDTEC1ERKS1_.eh
0x00043E08	0x00000038	[  2] __ZNSaIP4CUDTEC2ERKS1_.eh
0x00043E40	0x00000038	[  2] __ZNSt12_Vector_baseIP4CUDTSaIS1_EE12_Vector_implD1Ev.eh
0x00043E78	0x00000038	[  2] __ZNSt12_Vector_baseIP4CUDTSaIS1_EE19_M_get_Tp_allocatorEv.eh
0x00043EB0	0x00000038	[  2] __ZNSt8_Rb_treeIiSt4pairIKiSt5queueIP7CPacketSt5dequeIS4_SaIS4_EEEESt10_Select1stIS9_ESt4lessIiESaIS9_EE8_M_beginEv.eh
0x00043EE8	0x00000038	[  2] __ZN9__gnu_cxx17__normal_iteratorIPP4CUDTSt6vectorIS2_SaIS2_EEEC1ERKS3_.eh
0x00043F20	0x00000038	[  2] __ZNSt6vectorIP4CUDTSaIS1_EE5beginEv.eh
0x00043F58	0x00000038	[  2] __ZNSt6vectorIP4CUDTSaIS1_EE3endEv.eh
0x00043F90	0x00000038	[  2] __ZN9__gnu_cxx13new_allocatorIP4CUDTE9constructEPS2_RKS2_.eh
0x00043FC8	0x00000038	[  2] __ZNK9__gnu_cxx17__normal_iteratorIPP4CUDTSt6vectorIS2_SaIS2_EEEplERKl.eh
0x00044000	0x00000038	[  2] __ZN9__gnu_cxx13new_allocatorIP4CUDTE7destroyEPS2_.eh
0x00044038	0x00000038	[  2] __ZNKSt17_Rb_tree_iteratorISt4pairIKiSt5queueIP7CPacketSt5dequeIS4_SaIS4_EEEEEdeEv.eh
0x00044070	0x00000038	[  2] __ZNKSt4lessIiEclERKiS2_.eh
0x000440A8	0x00000038	[  2] __ZNSt12_Vector_baseIN16CRendezvousQueue3CRLESaIS1_EE12_Vector_implC1ERKS2_.eh
0x000440E0	0x00000038	[  2] __ZNSt12_Vector_baseIN16CRendezvousQueue3CRLESaIS1_EEC2ERKS2_.eh
0x00044118	0x00000038	[  2] __ZNSt6vectorIN16CRendezvousQueue3CRLESaIS1_EEC1ERKS2_.eh
0x00044150	0x00000038	[  2] __ZNK9__gnu_cxx17__normal_iteratorIPN16CRendezvousQueue3CRLESt6vectorIS2_SaIS2_EEEdeEv.eh
0x00044188	0x00000038	[  2] __ZNKSt6vectorIN16CRendezvousQueue3CRLESaIS1_EE4sizeEv.eh
0x000441C0	0x00000038	[  2] __ZNSt12_Vector_baseIP4CUDTSaIS1_EE12_Vector_implC1ERKS2_.eh
0x000441F8	0x00000038	[  2] __ZNSt12_Vector_baseIP4CUDTSaIS1_EEC2ERKS2_.eh
0x00044230	0x00000038	[  2] __ZNSt6vectorIP4CUDTSaIS1_EEC1ERKS2_.eh
0x00044268	0x00000038	[  2] __ZN9__gnu_cxx13new_allocatorISt4pairIKiSt5queueIP7CPacketSt5dequeIS5_SaIS5_EEEEEC2Ev.eh
0x000442A0	0x00000038	[  2] __ZNSaISt4pairIKiSt5queueIP7CPacketSt5dequeIS3_SaIS3_EEEEEC1Ev.eh
0x000442D8	0x00000038	[  2] __ZN9__gnu_cxx13new_allocatorISt4pairIKiSt5queueIP7CPacketSt5dequeIS5_SaIS5_EEEEED2Ev.eh
0x00044310	0x00000038	[  2] __ZNSaISt4pairIKiSt5queueIP7CPacketSt5dequeIS3_SaIS3_EEEEED1Ev.eh
0x00044348	0x00000038	[  2] __ZN9__gnu_cxx13new_allocatorISt13_Rb_tree_nodeISt4pairIKiSt5queueIP7CPacketSt5dequeIS6_SaIS6_EEEEEED2Ev.eh
0x00044380	0x00000038	[  2] __ZNSaISt13_Rb_tree_nodeISt4pairIKiSt5queueIP7CPacketSt5dequeIS4_SaIS4_EEEEEED2Ev.eh
0x000443B8	0x00000038	[  2] __ZNSt8_Rb_treeIiSt4pairIKiSt5queueIP7CPacketSt5dequeIS4_SaIS4_EEEESt10_Select1stIS9_ESt4lessIiESaIS9_EE13_Rb_tree_implISD_Lb0EED1Ev.eh
0x000443F0	0x00000038	[  2] __ZNSaISt13_Rb_tree_nodeISt4pairIKiSt5queueIP7CPacketSt5dequeIS4_SaIS4_EEEEEED1Ev.eh
0x00044428	0x00000038	[  2] __ZNSt8_Rb_treeIiSt4pairIKiSt5queueIP7CPacketSt5dequeIS4_SaIS4_EEEESt10_Select1stIS9_ESt4lessIiESaIS9_EE8_S_rightEPSt18_Rb_tree_node_base.eh
0x00044460	0x00000038	[  2] __ZNSt8_Rb_treeIiSt4pairIKiSt5queueIP7CPacketSt5dequeIS4_SaIS4_EEEESt10_Select1stIS9_ESt4lessIiESaIS9_EE7_S_leftEPSt18_Rb_tree_node_base.eh
0x00044498	0x00000038	[  2] __ZNSt17_Rb_tree_iteratorISt4pairIKiSt5queueIP7CPacketSt5dequeIS4_SaIS4_EEEEEC1EPSt13_Rb_tree_nodeIS9_E.eh
0x000444D0	0x00000038	[  2] __ZNSt8_Rb_treeIiSt4pairIKiSt5queueIP7CPacketSt5dequeIS4_SaIS4_EEEESt10_Select1stIS9_ESt4lessIiESaIS9_EE3endEv.eh
0x00044508	0x00000038	[  2] __ZNSt3mapIiSt5queueIP7CPacketSt5dequeIS2_SaIS2_EEESt4lessIiESaISt4pairIKiS6_EEE3endEv.eh
0x00044540	0x00000038	[  2] __ZNSt8_Rb_treeIiSt4pairIKiSt5queueIP7CPacketSt5dequeIS4_SaIS4_EEEESt10_Select1stIS9_ESt4lessIiESaIS9_EE5beginEv.eh
0x00044578	0x00000038	[  2] __ZNSt3mapIiSt5queueIP7CPacketSt5dequeIS2_SaIS2_EEESt4lessIiESaISt4pairIKiS6_EEE5beginEv.eh
0x000445B0	0x00000038	[  2] __ZSteqIP7CPacketRS1_PS1_EbRKSt15_Deque_iteratorIT_T0_T1_ESA_.eh
0x000445E8	0x00000038	[  2] __ZNKSt5dequeIP7CPacketSaIS1_EE5emptyEv.eh
0x00044620	0x00000038	[  2] __ZNKSt5queueIP7CPacketSt5dequeIS1_SaIS1_EEE5emptyEv.eh
0x00044658	0x00000038	[  2] __ZNKSt15_Deque_iteratorIP7CPacketRS1_PS1_EdeEv.eh
0x00044690	0x00000038	[  2] __ZN9__gnu_cxx13new_allocatorIP7CPacketE7destroyEPS2_.eh
0x000446C8	0x00000038	[  2] __ZNSt8_Rb_treeIiSt4pairIKiSt5queueIP7CPacketSt5dequeIS4_SaIS4_EEEESt10_Select1stIS9_ESt4lessIiESaIS9_EE6_M_endEv.eh
0x00044700	0x00000038	[  2] __ZNSt14unary_functionISt4pairIKiSt5queueIP7CPacketSt5dequeIS4_SaIS4_EEEES1_EC2Ev.eh
0x00044738	0x00000038	[  2] __ZNSt10_Select1stISt4pairIKiSt5queueIP7CPacketSt5dequeIS4_SaIS4_EEEEEC1Ev.eh
0x00044770	0x00000038	[  2] __ZNK9__gnu_cxx17__normal_iteratorIPP4CUDTSt6vectorIS2_SaIS2_EEE4baseEv.eh
0x000447A8	0x00000038	[  2] __ZN9__gnu_cxxneIPP4CUDTSt6vectorIS2_SaIS2_EEEEbRKNS_17__normal_iteratorIT_T0_EESC_.eh
0x000447E0	0x00000038	[  2] __ZN9__gnu_cxxmiIPP4CUDTSt6vectorIS2_SaIS2_EEEENS_17__normal_iteratorIT_T0_E15difference_typeERKSA_SD_.eh
0x00044818	0x00000038	[  2] __ZN9__gnu_cxxeqIPP4CUDTSt6vectorIS2_SaIS2_EEEEbRKNS_17__normal_iteratorIT_T0_EESC_.eh
0x00044850	0x00000038	[  2] __ZNKSt6vectorIP4CUDTSaIS1_EE4sizeEv.eh
0x00044888	0x00000038	[  2] __ZN9__gnu_cxx17__normal_iteratorIPKP4CUDTSt6vectorIS2_SaIS2_EEEC1ERKS4_.eh
0x000448C0	0x00000038	[  2] __ZNKSt6vectorIP4CUDTSaIS1_EE3endEv.eh
0x000448F8	0x00000038	[  2] __ZNKSt6vectorIP4CUDTSaIS1_EE5beginEv.eh
0x00044930	0x00000038	[  2] __ZNK9__gnu_cxx17__normal_iteratorIPKP4CUDTSt6vectorIS2_SaIS2_EEE4baseEv.eh
0x00044968	0x00000038	[  2] __ZN9__gnu_cxxeqIPKP4CUDTSt6vectorIS2_SaIS2_EEEEbRKNS_17__normal_iteratorIT_T0_EESD_.eh
0x000449A0	0x00000038	[  2] __ZNKSt6vectorIP4CUDTSaIS1_EE5emptyEv.eh
0x000449D8	0x00000038	[  2] __ZN9CRcvQueue10ifNewEntryEv.eh
0x00044A10	0x00000038	[  2] __ZNKSt8_Rb_treeIiSt4pairIKiSt5queueIP7CPacketSt5dequeIS4_SaIS4_EEEESt10_Select1stIS9_ESt4lessIiESaIS9_EE8key_compEv.eh
0x00044A48	0x00000038	[  2] __ZNKSt3mapIiSt5queueIP7CPacketSt5dequeIS2_SaIS2_EEESt4lessIiESaISt4pairIKiS6_EEE8key_compEv.eh
0x00044A80	0x00000038	[  2] __ZN9__gnu_cxx13new_allocatorIP7CPacketEC2Ev.eh
0x00044AB8	0x00000038	[  2] __ZNSaIP7CPacketEC1Ev.eh
0x00044AF0	0x00000038	[  2] __ZN9__gnu_cxx13new_allocatorIP7CPacketED2Ev.eh
0x00044B28	0x00000038	[  2] __ZNSaIP7CPacketED2Ev.eh
0x00044B60	0x00000038	[  2] __ZNSaIP7CPacketED1Ev.eh
0x00044B98	0x00000038	[  2] __ZN9__gnu_cxx13new_allocatorIP7CPacketEC2ERKS3_.eh
0x00044BD0	0x00000038	[  2] __ZNSaIP7CPacketEC2ERKS1_.eh
0x00044C08	0x00000038	[  2] __ZNSaIP7CPacketEC1ERKS1_.eh
0x00044C40	0x00000038	[  2] __ZNSt11_Deque_baseIP7CPacketSaIS1_EE11_Deque_implD1Ev.eh
0x00044C78	0x00000038	[  2] __ZNSt11_Deque_baseIP7CPacketSaIS1_EE19_M_get_Tp_allocatorEv.eh
0x00044CB0	0x00000038	[  2] __ZNSt15_Deque_iteratorIP7CPacketRS1_PS1_EC1ERKS4_.eh
0x00044CE8	0x00000038	[  2] __ZNSt5dequeIP7CPacketSaIS1_EE3endEv.eh
0x00044D20	0x00000038	[  2] __ZNSt5dequeIP7CPacketSaIS1_EE5beginEv.eh
0x00044D58	0x00000038	[  2] __ZNSt5dequeIP7CPacketSaIS1_EE5frontEv.eh
0x00044D90	0x00000038	[  2] __ZNSt5queueIP7CPacketSt5dequeIS1_SaIS1_EEE5frontEv.eh
0x00044DC8	0x00000038	[  2] __ZNKSt11_Deque_baseIP7CPacketSaIS1_EE19_M_get_Tp_allocatorEv.eh
0x00044E00	0x00000038	[  2] __ZN9__gnu_cxx13new_allocatorIP7CPacketE9constructEPS2_RKS2_.eh
0x00044E38	0x00000038	[  2] __ZNKSt12_Vector_baseIN16CRendezvousQueue3CRLESaIS1_EE19_M_get_Tp_allocatorEv.eh
0x00044E70	0x00000038	[  2] __ZNK9__gnu_cxx13new_allocatorIN16CRendezvousQueue3CRLEE8max_sizeEv.eh
0x00044EA8	0x00000038	[  2] __ZNKSt6vectorIN16CRendezvousQueue3CRLESaIS1_EE8max_sizeEv.eh
0x00044EE0	0x00000038	[  2] __ZSt13__destroy_auxIPP4CUDTEvT_S3_St11__true_type.eh
0x00044F18	0x00000038	[  2] __ZSt8_DestroyIPP4CUDTEvT_S3_.eh
0x00044F50	0x00000038	[  2] __ZSt8_DestroyIPP4CUDTS1_EvT_S3_SaIT0_E.eh
0x00044F88	0x00000038	[  2] __ZN9__gnu_cxx13new_allocatorISt13_Rb_tree_nodeISt4pairIKiSt5queueIP7CPacketSt5dequeIS6_SaIS6_EEEEEEC2Ev.eh
0x00044FC0	0x00000038	[  2] __ZNSaISt13_Rb_tree_nodeISt4pairIKiSt5queueIP7CPacketSt5dequeIS4_SaIS4_EEEEEEC1IS9_EERKSaIT_E.eh
0x00044FF8	0x00000038	[  2] __ZNSt8_Rb_treeIiSt4pairIKiSt5queueIP7CPacketSt5dequeIS4_SaIS4_EEEESt10_Select1stIS9_ESt4lessIiESaIS9_EE8_S_valueEPKSt13_Rb_tree_nodeIS9_E.eh
0x00045030	0x00000038	[  2] __ZNKSt10_Select1stISt4pairIKiSt5queueIP7CPacketSt5dequeIS4_SaIS4_EEEEEclERKS9_.eh
0x00045068	0x00000038	[  2] __ZNSt8_Rb_treeIiSt4pairIKiSt5queueIP7CPacketSt5dequeIS4_SaIS4_EEEESt10_Select1stIS9_ESt4lessIiESaIS9_EE6_S_keyEPKSt13_Rb_tree_nodeIS9_E.eh
0x000450A0	0x00000038	[  2] __ZNSt8_Rb_treeIiSt4pairIKiSt5queueIP7CPacketSt5dequeIS4_SaIS4_EEEESt10_Select1stIS9_ESt4lessIiESaIS9_EE11lower_boundERS1_.eh
0x000450D8	0x00000038	[  2] __ZNSt3mapIiSt5queueIP7CPacketSt5dequeIS2_SaIS2_EEESt4lessIiESaISt4pairIKiS6_EEE11lower_boundERSA_.eh
0x00045110	0x00000038	[  2] __ZNSt8_Rb_treeIiSt4pairIKiSt5queueIP7CPacketSt5dequeIS4_SaIS4_EEEESt10_Select1stIS9_ESt4lessIiESaIS9_EE8_S_valueEPKSt18_Rb_tree_node_base.eh
0x00045148	0x00000038	[  2] __ZNSt8_Rb_treeIiSt4pairIKiSt5queueIP7CPacketSt5dequeIS4_SaIS4_EEEESt10_Select1stIS9_ESt4lessIiESaIS9_EE6_S_keyEPKSt18_Rb_tree_node_base.eh
0x00045180	0x00000038	[  2] __ZNSt8_Rb_treeIiSt4pairIKiSt5queueIP7CPacketSt5dequeIS4_SaIS4_EEEESt10_Select1stIS9_ESt4lessIiESaIS9_EE4findERS1_.eh
0x000451B8	0x00000038	[  2] __ZNSt3mapIiSt5queueIP7CPacketSt5dequeIS2_SaIS2_EEESt4lessIiESaISt4pairIKiS6_EEE4findERSA_.eh
0x000451F0	0x00000038	[  2] __ZNKSt12_Vector_baseIP4CUDTSaIS1_EE19_M_get_Tp_allocatorEv.eh
0x00045228	0x00000038	[  2] __ZNK9__gnu_cxx13new_allocatorIP4CUDTE8max_sizeEv.eh
0x00045260	0x00000038	[  2] __ZNKSt6vectorIP4CUDTSaIS1_EE8max_sizeEv.eh
0x00045298	0x00000038	[  2] __ZNSt5dequeIP7CPacketSaIS1_EE24_M_destroy_data_dispatchESt15_Deque_iteratorIS1_RS1_PS1_ES7_St11__true_type.eh
0x000452D0	0x00000038	[  2] __ZNSt5dequeIP7CPacketSaIS1_EE15_M_destroy_dataESt15_Deque_iteratorIS1_RS1_PS1_ES7_RKS2_.eh
0x00045308	0x00000038	[  2] __ZNSt15_Deque_iteratorIP7CPacketRKS1_PS2_EC1ERKS_IS1_RS1_PS1_E.eh
0x00045340	0x00000038	[  2] __ZNKSt5dequeIP7CPacketSaIS1_EE3endEv.eh
0x00045378	0x00000038	[  2] __ZNKSt5dequeIP7CPacketSaIS1_EE5beginEv.eh
0x000453B0	0x00000038	[  2] __ZNSt8_Rb_treeIiSt4pairIKiSt5queueIP7CPacketSt5dequeIS4_SaIS4_EEEESt10_Select1stIS9_ESt4lessIiESaIS9_EE12_M_rightmostEv.eh
0x000453E8	0x00000038	[  2] __ZNKSt8_Rb_treeIiSt4pairIKiSt5queueIP7CPacketSt5dequeIS4_SaIS4_EEEESt10_Select1stIS9_ESt4lessIiESaIS9_EE4sizeEv.eh
0x00045420	0x00000038	[  2] __ZNSt8_Rb_treeIiSt4pairIKiSt5queueIP7CPacketSt5dequeIS4_SaIS4_EEEESt10_Select1stIS9_ESt4lessIiESaIS9_EE11_M_leftmostEv.eh
0x00045458	0x00000038	[  2] __ZNSt15_Deque_iteratorIP7CPacketRS1_PS1_E14_S_buffer_sizeEv.eh
0x00045490	0x00000038	[  2] __ZNSt15_Deque_iteratorIP7CPacketRS1_PS1_E11_M_set_nodeEPS3_.eh
0x000454C8	0x00000038	[  2] __ZStmiIP7CPacketRS1_PS1_ENSt15_Deque_iteratorIT_T0_T1_E15difference_typeERKS8_SB_.eh
0x00045500	0x00000038	[  2] __ZNKSt5dequeIP7CPacketSaIS1_EE4sizeEv.eh
0x00045538	0x00000038	[  2] __ZNKSt5queueIP7CPacketSt5dequeIS1_SaIS1_EEE4sizeEv.eh
0x00045570	0x00000038	[  2] __ZSt8_DestroyIN16CRendezvousQueue3CRLEEvPT_.eh
0x000455A8	0x00000038	[  2] __ZSt13__destroy_auxIPN16CRendezvousQueue3CRLEEvT_S3_St12__false_type.eh
0x000455E0	0x00000038	[  2] __ZSt8_DestroyIPN16CRendezvousQueue3CRLEEvT_S3_.eh
0x00045618	0x00000038	[  2] __ZSt8_DestroyIPN16CRendezvousQueue3CRLES1_EvT_S3_SaIT0_E.eh
0x00045650	0x00000038	[  2] __ZNSt6vectorIN16CRendezvousQueue3CRLESaIS1_EE15_M_erase_at_endEPS1_.eh
0x00045688	0x00000038	[  2] __ZNSt6vectorIN16CRendezvousQueue3CRLESaIS1_EE5clearEv.eh
0x000456C0	0x00000038	[  2] __ZNSt6__copyILb0ESt26random_access_iterator_tagE4copyIPN16CRendezvousQueue3CRLES5_EET0_T_S7_S6_.eh
0x000456F8	0x00000038	[  2] __ZSt10__copy_auxIPN16CRendezvousQueue3CRLES2_ET0_T_S4_S3_.eh
0x00045730	0x00000040	[  2] __ZNSt13__copy_normalILb1ELb1EE8__copy_nIN9__gnu_cxx17__normal_iteratorIPN16CRendezvousQueue3CRLESt6vectorIS5_SaIS5_EEEESA_EET0_T_SC_SB_.eh
0x00045770	0x00000038	[  2] __ZSt4copyIN9__gnu_cxx17__normal_iteratorIPN16CRendezvousQueue3CRLESt6vectorIS3_SaIS3_EEEES8_ET0_T_SA_S9_.eh
0x000457A8	0x00000038	[  2] __ZNSt6vectorIN16CRendezvousQueue3CRLESaIS1_EE5eraseEN9__gnu_cxx17__normal_iteratorIPS1_S3_EE.eh
0x000457E0	0x00000038	[  2] __ZN9__gnu_cxx13new_allocatorISt13_Rb_tree_nodeISt4pairIKiSt5queueIP7CPacketSt5dequeIS6_SaIS6_EEEEEEC2ERKSD_.eh
0x00045818	0x00000038	[  2] __ZNSaISt13_Rb_tree_nodeISt4pairIKiSt5queueIP7CPacketSt5dequeIS4_SaIS4_EEEEEEC2ERKSB_.eh
0x00045850	0x00000038	[  2] __ZNSt8_Rb_treeIiSt4pairIKiSt5queueIP7CPacketSt5dequeIS4_SaIS4_EEEESt10_Select1stIS9_ESt4lessIiESaIS9_EE13_Rb_tree_implISD_Lb0EEC1ERKSaISt13_Rb_tree_nodeIS9_EERKSD_.eh
0x00045888	0x00000038	[  2] __ZNSt8_Rb_treeIiSt4pairIKiSt5queueIP7CPacketSt5dequeIS4_SaIS4_EEEESt10_Select1stIS9_ESt4lessIiESaIS9_EEC1ERKSD_RKSE_.eh
0x000458C0	0x00000038	[  2] __ZNSt3mapIiSt5queueIP7CPacketSt5dequeIS2_SaIS2_EEESt4lessIiESaISt4pairIKiS6_EEEC1Ev.eh
0x000458F8	0x00000038	[  2] __ZNKSt8_Rb_treeIiSt4pairIKiSt5queueIP7CPacketSt5dequeIS4_SaIS4_EEEESt10_Select1stIS9_ESt4lessIiESaIS9_EE21_M_get_Node_allocatorEv.eh
0x00045930	0x00000038	[  2] __ZNSaISt4pairIKiSt5queueIP7CPacketSt5dequeIS3_SaIS3_EEEEEC1ISt13_Rb_tree_nodeIS8_EEERKSaIT_E.eh
0x00045968	0x00000040	[  2] __ZNKSt8_Rb_treeIiSt4pairIKiSt5queueIP7CPacketSt5dequeIS4_SaIS4_EEEESt10_Select1stIS9_ESt4lessIiESaIS9_EE13get_allocatorEv.eh
0x000459A8	0x00000038	[  2] __ZNSt15_Deque_iteratorIP7CPacketRS1_PS1_EC1Ev.eh
0x000459E0	0x00000038	[  2] __ZNSt11_Deque_baseIP7CPacketSaIS1_EE11_Deque_implC1ERKS2_.eh
0x00045A18	0x00000038	[  2] __ZSt3maxImERKT_S2_S2_.eh
0x00045A50	0x00000038	[  2] __ZNSt4pairISt17_Rb_tree_iteratorIS_IKiSt5queueIP7CPacketSt5dequeIS4_SaIS4_EEEEEbEC1ERKSA_RKb.eh
0x00045A88	0x00000038	[  2] __ZNSt15__copy_backwardILb0ESt26random_access_iterator_tagE8__copy_bIPN16CRendezvousQueue3CRLES5_EET0_T_S7_S6_.eh
0x00045AC0	0x00000038	[  2] __ZSt19__copy_backward_auxIPN16CRendezvousQueue3CRLES2_ET0_T_S4_S3_.eh
0x00045AF8	0x00000038	[  2] __ZNSt22__copy_backward_normalILb0ELb0EE10__copy_b_nIPN16CRendezvousQueue3CRLES4_EET0_T_S6_S5_.eh
0x00045B30	0x00000038	[  2] __ZSt13copy_backwardIPN16CRendezvousQueue3CRLES2_ET0_T_S4_S3_.eh
0x00045B68	0x00000038	[  2] __ZSt10_ConstructIN16CRendezvousQueue3CRLES1_EvPT_RKT0_.eh
0x00045BA0	0x00000038	[  2] __ZSt24__uninitialized_copy_auxIPN16CRendezvousQueue3CRLES2_ET0_T_S4_S3_St12__false_type.eh
0x00045BD8	0x00000038	[  2] __ZSt18uninitialized_copyIPN16CRendezvousQueue3CRLES2_ET0_T_S4_S3_.eh
0x00045C10	0x00000038	[  2] __ZSt22__uninitialized_copy_aIPN16CRendezvousQueue3CRLES2_S1_ET0_T_S4_S3_SaIT1_E.eh
0x00045C48	0x00000038	[  2] __ZN9__gnu_cxx13new_allocatorIPP7CPacketED2Ev.eh
0x00045C80	0x00000038	[  2] __ZNSaIPP7CPacketED1Ev.eh
0x00045CB8	0x00000038	[  2] __ZNK9__gnu_cxx13new_allocatorIP7CPacketE8max_sizeEv.eh
0x00045CF0	0x00000038	[  2] __ZNK9__gnu_cxx13new_allocatorIPP7CPacketE8max_sizeEv.eh
0x00045D28	0x00000038	[  2] __ZN9__gnu_cxx13new_allocatorIPP7CPacketEC2Ev.eh
0x00045D60	0x00000038	[  2] __ZNSaIPP7CPacketEC1IS0_EERKSaIT_E.eh
0x00045D98	0x00000040	[  2] __ZNKSt11_Deque_baseIP7CPacketSaIS1_EE20_M_get_map_allocatorEv.eh
0x00045DD8	0x00000038	[  2] __ZNK9__gnu_cxx13new_allocatorISt13_Rb_tree_nodeISt4pairIKiSt5queueIP7CPacketSt5dequeIS6_SaIS6_EEEEEE8max_sizeEv.eh
0x00045E10	0x00000038	[  2] __ZNKSt15_Deque_iteratorIP7CPacketRKS1_PS2_EdeEv.eh
0x00045E48	0x00000038	[  2] __ZNSt15_Deque_iteratorIP7CPacketRS1_PS1_EppEv.eh
0x00045E80	0x00000038	[  2] __ZNSt15_Deque_iteratorIP7CPacketRKS1_PS2_E14_S_buffer_sizeEv.eh
0x00045EB8	0x00000038	[  2] __ZStmiIP7CPacketRKS1_PS2_ENSt15_Deque_iteratorIT_T0_T1_E15difference_typeERKS9_SC_.eh
0x00045EF0	0x00000038	[  2] __ZNSt15_Deque_iteratorIP7CPacketRKS1_PS2_E11_M_set_nodeEPPS1_.eh
0x00045F28	0x00000038	[  2] __ZNSt15_Deque_iteratorIP7CPacketRKS1_PS2_EppEv.eh
0x00045F60	0x00000038	[  2] __ZNSt6__copyILb0ESt26random_access_iterator_tagE4copyISt15_Deque_iteratorIP7CPacketRKS5_PS6_ES3_IS5_RS5_PS5_EEET0_T_SE_SD_.eh
0x00045F98	0x00000040	[  2] __ZSt10__copy_auxISt15_Deque_iteratorIP7CPacketRKS2_PS3_ES0_IS2_RS2_PS2_EET0_T_SB_SA_.eh
0x00045FD8	0x00000040	[  2] __ZNSt13__copy_normalILb0ELb0EE8__copy_nISt15_Deque_iteratorIP7CPacketRKS4_PS5_ES2_IS4_RS4_PS4_EEET0_T_SD_SC_.eh
0x00046018	0x00000040	[  2] __ZSt4copyISt15_Deque_iteratorIP7CPacketRKS2_PS3_ES0_IS2_RS2_PS2_EET0_T_SB_SA_.eh
0x00046058	0x00000040	[  2] __ZSt24__uninitialized_copy_auxISt15_Deque_iteratorIP7CPacketRKS2_PS3_ES0_IS2_RS2_PS2_EET0_T_SB_SA_St11__true_type.eh
0x00046098	0x00000040	[  2] __ZSt18uninitialized_copyISt15_Deque_iteratorIP7CPacketRKS2_PS3_ES0_IS2_RS2_PS2_EET0_T_SB_SA_.eh
0x000460D8	0x00000040	[  2] __ZSt22__uninitialized_copy_aISt15_Deque_iteratorIP7CPacketRKS2_PS3_ES0_IS2_RS2_PS2_ES2_ET0_T_SB_SA_SaIT1_E.eh
0x00046118	0x00000038	[  2] __ZN9CRcvQueue14removeListenerEPK4CUDT.eh
0x00046150	0x00000038	[  2] __ZN9CRcvQueue11setListenerEPK4CUDT.eh
0x00046188	0x00000038	[  2] __ZN9CSndUList15getNextProcTimeEv.eh
0x000461C0	0x00000038	[  2] __ZN9CSndUList6removeEPK4CUDT.eh
0x000461F8	0x00000038	[  2] __ZN9__gnu_cxx13new_allocatorIPP7CPacketE8allocateEmPKv.eh
0x00046230	0x00000038	[  2] __ZNSt11_Deque_baseIP7CPacketSaIS1_EE15_M_allocate_mapEm.eh
0x00046268	0x00000038	[  2] __ZN9__gnu_cxx13new_allocatorIP7CPacketE8allocateEmPKv.eh
0x000462A0	0x00000038	[  2] __ZNSt11_Deque_baseIP7CPacketSaIS1_EE16_M_allocate_nodeEv.eh
0x000462D8	0x00000038	[  2] __ZN9__gnu_cxx13new_allocatorISt13_Rb_tree_nodeISt4pairIKiSt5queueIP7CPacketSt5dequeIS6_SaIS6_EEEEEE8allocateEmPKv.eh
0x00046310	0x00000038	[  2] __ZNSt8_Rb_treeIiSt4pairIKiSt5queueIP7CPacketSt5dequeIS4_SaIS4_EEEESt10_Select1stIS9_ESt4lessIiESaIS9_EE11_M_get_nodeEv.eh
0x00046348	0x00000038	[  2] __ZN9__gnu_cxx13new_allocatorIP4CUDTE8allocateEmPKv.eh
0x00046380	0x00000038	[  2] __ZNSt12_Vector_baseIP4CUDTSaIS1_EE11_M_allocateEm.eh
0x000463B8	0x00000038	[  2] __ZN9__gnu_cxx13new_allocatorIN16CRendezvousQueue3CRLEE8allocateEmPKv.eh
0x000463F0	0x00000038	[  2] __ZNSt12_Vector_baseIN16CRendezvousQueue3CRLESaIS1_EE11_M_allocateEm.eh
0x00046428	0x00000038	[  2] __ZN5CHash6insertERKiPK4CUDT.eh
0x00046460	0x00000038	[  2] __ZN9__gnu_cxx13new_allocatorIP7CPacketE10deallocateEPS2_m.eh
0x00046498	0x00000038	[  2] __ZNSt11_Deque_baseIP7CPacketSaIS1_EE18_M_deallocate_nodeEPS1_.eh
0x000464D0	0x00000038	[  2] __ZNSt11_Deque_baseIP7CPacketSaIS1_EE16_M_destroy_nodesEPPS1_S5_.eh
0x00046508	0x00000038	[  2] __ZNSt11_Deque_baseIP7CPacketSaIS1_EE15_M_create_nodesEPPS1_S5_.eh
0x00046540	0x00000038	[  2] __ZNSt5dequeIP7CPacketSaIS1_EE16_M_pop_front_auxEv.eh
0x00046578	0x00000038	[  2] __ZNSt5dequeIP7CPacketSaIS1_EE9pop_frontEv.eh
0x000465B0	0x00000038	[  2] __ZNSt5queueIP7CPacketSt5dequeIS1_SaIS1_EEE3popEv.eh
0x000465E8	0x00000038	[  2] __ZN9__gnu_cxx13new_allocatorIPP7CPacketE10deallocateEPS3_m.eh
0x00046620	0x00000038	[  2] __ZNSt11_Deque_baseIP7CPacketSaIS1_EE17_M_deallocate_mapEPPS1_m.eh
0x00046658	0x00000038	[  2] __ZNSt11_Deque_baseIP7CPacketSaIS1_EE17_M_initialize_mapEm.eh
0x00046690	0x00000038	[  2] __ZNSt11_Deque_baseIP7CPacketSaIS1_EEC2ERKS2_m.eh
0x000466C8	0x00000038	[  2] __ZNSt5dequeIP7CPacketSaIS1_EEC1ERKS2_.eh
0x00046700	0x00000038	[  2] __ZNSt11_Deque_baseIP7CPacketSaIS1_EED2Ev.eh
0x00046738	0x00000038	[  2] __ZNSt5dequeIP7CPacketSaIS1_EEC1ERKS3_.eh
0x00046770	0x00000038	[  2] __ZNSt5queueIP7CPacketSt5dequeIS1_SaIS1_EEEC1ERKS4_.eh
0x000467A8	0x00000038	[  2] __ZNSt5queueIP7CPacketSt5dequeIS1_SaIS1_EEEC1ERKS5_.eh
0x000467E0	0x00000038	[  2] __ZNSt4pairIKiSt5queueIP7CPacketSt5dequeIS3_SaIS3_EEEEC1ERS0_RKS7_.eh
0x00046818	0x00000038	[  2] __ZNSt4pairIKiSt5queueIP7CPacketSt5dequeIS3_SaIS3_EEEEC1ERKS8_.eh
0x00046850	0x00000038	[  2] __ZN9__gnu_cxx13new_allocatorISt4pairIKiSt5queueIP7CPacketSt5dequeIS5_SaIS5_EEEEE9constructEPSA_RKSA_.eh
0x00046888	0x00000038	[  2] __ZNSt5dequeIP7CPacketSaIS1_EED1Ev.eh
0x000468C0	0x00000038	[  2] __ZNSt5queueIP7CPacketSt5dequeIS1_SaIS1_EEED1Ev.eh
0x000468F8	0x00000038	[  2] __ZNSt4pairIKiSt5queueIP7CPacketSt5dequeIS3_SaIS3_EEEED1Ev.eh
0x00046930	0x00000038	[  2] __ZN9__gnu_cxx13new_allocatorISt4pairIKiSt5queueIP7CPacketSt5dequeIS5_SaIS5_EEEEE7destroyEPSA_.eh
0x00046968	0x00000038	[  2] __ZN9__gnu_cxx13new_allocatorISt13_Rb_tree_nodeISt4pairIKiSt5queueIP7CPacketSt5dequeIS6_SaIS6_EEEEEE10deallocateEPSC_m.eh
0x000469A0	0x00000038	[  2] __ZNSt8_Rb_treeIiSt4pairIKiSt5queueIP7CPacketSt5dequeIS4_SaIS4_EEEESt10_Select1stIS9_ESt4lessIiESaIS9_EE11_M_put_nodeEPSt13_Rb_tree_nodeIS9_E.eh
0x000469D8	0x00000038	[  2] __ZNSt8_Rb_treeIiSt4pairIKiSt5queueIP7CPacketSt5dequeIS4_SaIS4_EEEESt10_Select1stIS9_ESt4lessIiESaIS9_EE14_M_create_nodeERKS9_.eh
0x00046A10	0x00000038	[  2] __ZNSt8_Rb_treeIiSt4pairIKiSt5queueIP7CPacketSt5dequeIS4_SaIS4_EEEESt10_Select1stIS9_ESt4lessIiESaIS9_EE15_M_destroy_nodeEPSt13_Rb_tree_nodeIS9_E.eh
0x00046A48	0x00000038	[  2] __ZNSt8_Rb_treeIiSt4pairIKiSt5queueIP7CPacketSt5dequeIS4_SaIS4_EEEESt10_Select1stIS9_ESt4lessIiESaIS9_EE8_M_eraseEPSt13_Rb_tree_nodeIS9_E.eh
0x00046A80	0x00000038	[  2] __ZNSt8_Rb_treeIiSt4pairIKiSt5queueIP7CPacketSt5dequeIS4_SaIS4_EEEESt10_Select1stIS9_ESt4lessIiESaIS9_EED1Ev.eh
0x00046AB8	0x00000038	[  2] __ZNSt3mapIiSt5queueIP7CPacketSt5dequeIS2_SaIS2_EEESt4lessIiESaISt4pairIKiS6_EEED1Ev.eh
0x00046AF0	0x00000038	[  2] __ZN9__gnu_cxx13new_allocatorIP4CUDTE10deallocateEPS2_m.eh
0x00046B28	0x00000038	[  2] __ZNSt12_Vector_baseIP4CUDTSaIS1_EE13_M_deallocateEPS1_m.eh
0x00046B60	0x00000038	[  2] __ZNSt12_Vector_baseIP4CUDTSaIS1_EED2Ev.eh
0x00046B98	0x00000038	[  2] __ZNSt6vectorIP4CUDTSaIS1_EED1Ev.eh
0x00046BD0	0x00000038	[  2] __ZN16CRendezvousQueue6removeERKi.eh
0x00046C08	0x00000038	[  2] __ZN9__gnu_cxx13new_allocatorIN16CRendezvousQueue3CRLEE10deallocateEPS2_m.eh
0x00046C40	0x00000038	[  2] __ZNSt12_Vector_baseIN16CRendezvousQueue3CRLESaIS1_EE13_M_deallocateEPS1_m.eh
0x00046C78	0x00000038	[  2] __ZNSt12_Vector_baseIN16CRendezvousQueue3CRLESaIS1_EED2Ev.eh
0x00046CB0	0x00000038	[  2] __ZNSt6vectorIN16CRendezvousQueue3CRLESaIS1_EED1Ev.eh
0x00046CE8	0x00000038	[  2] __ZN5CHash6removeERKi.eh
0x00046D20	0x00000038	[  2] __ZNSt17_Rb_tree_iteratorISt4pairIKiSt5queueIP7CPacketSt5dequeIS4_SaIS4_EEEEEmmEv.eh
0x00046D58	0x00000038	[  2] __ZNSt17_Rb_tree_iteratorISt4pairIKiSt5queueIP7CPacketSt5dequeIS4_SaIS4_EEEEEppEv.eh
0x00046D90	0x00000038	[  2] __ZNSt8_Rb_treeIiSt4pairIKiSt5queueIP7CPacketSt5dequeIS4_SaIS4_EEEESt10_Select1stIS9_ESt4lessIiESaIS9_EE9_M_insertEPSt18_Rb_tree_node_baseSH_RKS9_.eh
0x00046DC8	0x00000038	[  2] __ZNSt8_Rb_treeIiSt4pairIKiSt5queueIP7CPacketSt5dequeIS4_SaIS4_EEEESt10_Select1stIS9_ESt4lessIiESaIS9_EE16_M_insert_uniqueERKS9_.eh
0x00046E00	0x00000038	[  2] __ZNSt8_Rb_treeIiSt4pairIKiSt5queueIP7CPacketSt5dequeIS4_SaIS4_EEEESt10_Select1stIS9_ESt4lessIiESaIS9_EE16_M_insert_uniqueESt17_Rb_tree_iteratorIS9_ERKS9_.eh
0x00046E38	0x00000038	[  2] __ZNSt3mapIiSt5queueIP7CPacketSt5dequeIS2_SaIS2_EEESt4lessIiESaISt4pairIKiS6_EEE6insertESt17_Rb_tree_iteratorISB_ERKSB_.eh
0x00046E70	0x00000038	[  2] __ZNSt3mapIiSt5queueIP7CPacketSt5dequeIS2_SaIS2_EEESt4lessIiESaISt4pairIKiS6_EEEixERSA_.eh
0x00046EA8	0x00000038	[  2] __ZNSt15__copy_backwardILb1ESt26random_access_iterator_tagE8__copy_bIPP7CPacketEEPT_PKS6_S9_S7_.eh
0x00046EE0	0x00000038	[  2] __ZSt19__copy_backward_auxIPPP7CPacketS3_ET0_T_S5_S4_.eh
0x00046F18	0x00000038	[  2] __ZNSt22__copy_backward_normalILb0ELb0EE10__copy_b_nIPPP7CPacketS5_EET0_T_S7_S6_.eh
0x00046F50	0x00000038	[  2] __ZSt13copy_backwardIPPP7CPacketS3_ET0_T_S5_S4_.eh
0x00046F88	0x00000038	[  2] __ZNSt6__copyILb1ESt26random_access_iterator_tagE4copyIPP7CPacketEEPT_PKS6_S9_S7_.eh
0x00046FC0	0x00000038	[  2] __ZSt10__copy_auxIPPP7CPacketS3_ET0_T_S5_S4_.eh
0x00046FF8	0x00000038	[  2] __ZNSt13__copy_normalILb0ELb0EE8__copy_nIPPP7CPacketS5_EET0_T_S7_S6_.eh
0x00047030	0x00000038	[  2] __ZSt4copyIPPP7CPacketS3_ET0_T_S5_S4_.eh
0x00047068	0x00000038	[  2] __ZNSt5dequeIP7CPacketSaIS1_EE17_M_reallocate_mapEmb.eh
0x000470A0	0x00000038	[  2] __ZNSt5dequeIP7CPacketSaIS1_EE22_M_reserve_map_at_backEm.eh
0x000470D8	0x00000038	[  2] __ZNSt5dequeIP7CPacketSaIS1_EE16_M_push_back_auxERKS1_.eh
0x00047110	0x00000038	[  2] __ZNSt5dequeIP7CPacketSaIS1_EE9push_backERKS1_.eh
0x00047148	0x00000038	[  2] __ZNSt5queueIP7CPacketSt5dequeIS1_SaIS1_EEE4pushERKS1_.eh
0x00047180	0x00000038	[  2] __ZN9CRcvQueue8storePktERKiP7CPacket.eh
0x000471B8	0x00000038	[  2] __ZNSt6__copyILb1ESt26random_access_iterator_tagE4copyIP4CUDTEEPT_PKS5_S8_S6_.eh
0x000471F0	0x00000038	[  2] __ZSt10__copy_auxIPP4CUDTS2_ET0_T_S4_S3_.eh
0x00047228	0x00000040	[  2] __ZNSt13__copy_normalILb1ELb1EE8__copy_nIN9__gnu_cxx17__normal_iteratorIPP4CUDTSt6vectorIS5_SaIS5_EEEESA_EET0_T_SC_SB_.eh
0x00047268	0x00000038	[  2] __ZSt4copyIN9__gnu_cxx17__normal_iteratorIPP4CUDTSt6vectorIS3_SaIS3_EEEES8_ET0_T_SA_S9_.eh
0x000472A0	0x00000038	[  2] __ZNSt6vectorIP4CUDTSaIS1_EE5eraseEN9__gnu_cxx17__normal_iteratorIPS1_S3_EE.eh
0x000472D8	0x00000038	[  2] __ZN9CRcvQueue11getNewEntryEv.eh
0x00047310	0x00000038	[  2] __ZNSt13__copy_normalILb0ELb0EE8__copy_nIPP4CUDTS4_EET0_T_S6_S5_.eh
0x00047348	0x00000038	[  2] __ZSt4copyIPP4CUDTS2_ET0_T_S4_S3_.eh
0x00047380	0x00000038	[  2] __ZSt24__uninitialized_copy_auxIPP4CUDTS2_ET0_T_S4_S3_St11__true_type.eh
0x000473B8	0x00000038	[  2] __ZSt18uninitialized_copyIPP4CUDTS2_ET0_T_S4_S3_.eh
0x000473F0	0x00000038	[  2] __ZSt22__uninitialized_copy_aIPP4CUDTS2_S1_ET0_T_S4_S3_SaIT1_E.eh
0x00047428	0x00000038	[  2] __ZNSt15__copy_backwardILb1ESt26random_access_iterator_tagE8__copy_bIP4CUDTEEPT_PKS5_S8_S6_.eh
0x00047460	0x00000038	[  2] __ZSt19__copy_backward_auxIPP4CUDTS2_ET0_T_S4_S3_.eh
0x00047498	0x00000038	[  2] __ZNSt22__copy_backward_normalILb0ELb0EE10__copy_b_nIPP4CUDTS4_EET0_T_S6_S5_.eh
0x000474D0	0x00000038	[  2] __ZSt13copy_backwardIPP4CUDTS2_ET0_T_S4_S3_.eh
0x00047508	0x00000040	[  2] __ZNSt6vectorIP4CUDTSaIS1_EE13_M_insert_auxEN9__gnu_cxx17__normal_iteratorIPS1_S3_EERKS1_.eh
0x00047548	0x00000038	[  2] __ZNSt6vectorIP4CUDTSaIS1_EE6insertEN9__gnu_cxx17__normal_iteratorIPS1_S3_EERKS1_.eh
0x00047580	0x00000038	[  2] __ZN9CRcvQueue11setNewEntryEP4CUDT.eh
0x000475B8	0x00000040	[  2] __ZNSt6vectorIN16CRendezvousQueue3CRLESaIS1_EE13_M_insert_auxEN9__gnu_cxx17__normal_iteratorIPS1_S3_EERKS1_.eh
0x000475F8	0x00000038	[  2] __ZNSt6vectorIN16CRendezvousQueue3CRLESaIS1_EE6insertEN9__gnu_cxx17__normal_iteratorIPS1_S3_EERKS1_.eh
0x00047630	0x00000038	[  2] __ZN16CRendezvousQueue6insertERKiS1_PK8sockaddr.eh
0x00047668	0x00000038	[  2] __ZN5CHashD1Ev.eh
0x000476A0	0x00000038	[  2] __ZN5CHashD2Ev.eh
0x000476D8	0x00000038	[  2] __ZN5CUnitD1Ev.eh
0x00047710	0x00000038	[  2] __ZN10CUnitQueueD1Ev.eh
0x00047748	0x00000038	[  2] __ZN10CUnitQueueD2Ev.eh
0x00047780	0x00000038	[  2] __ZNSt8_Rb_treeIiSt4pairIKiSt5queueIP7CPacketSt5dequeIS4_SaIS4_EEEESt10_Select1stIS9_ESt4lessIiESaIS9_EE5eraseESt17_Rb_tree_iteratorIS9_E.eh
0x000477B8	0x00000038	[  2] __ZNSt3mapIiSt5queueIP7CPacketSt5dequeIS2_SaIS2_EEESt4lessIiESaISt4pairIKiS6_EEE5eraseESt17_Rb_tree_iteratorISB_E.eh
0x000477F0	0x00000038	[  2] __ZN9CRcvQueue8recvfromERKiR7CPacket.eh
0x00047828	0x00000038	[  2] __ZN5CUnitC1Ev.eh
0x00047860	0x00000038	[  2] __ZN5CHash4initERKi.eh
0x00047898	0x00000038	[  2] __ZN10CUnitQueue8increaseEv.eh
0x000478D0	0x00000038	[  2] __ZN10CUnitQueue16getNextAvailUnitEv.eh
0x00047908	0x00000038	[  2] __ZN10CUnitQueue4initERKiS1_S1_.eh
0x00047940	0x00000038	[  2] __ZN16CRendezvousQueue8retrieveEPK8sockaddrRi.eh
0x00047978	0x00000038	[  2] __ZN9CRcvUList6updateEPK4CUDT.eh
0x000479B0	0x00000038	[  2] __ZN9CRcvUList6insertEPK4CUDT.eh
0x000479E8	0x00000038	[  2] __ZN9CRcvQueue6workerEPv.eh
0x00047A20	0x00000038	[  2] __ZN16CRendezvousQueueD1Ev.eh
0x00047A58	0x00000038	[  2] __ZN16CRendezvousQueueD2Ev.eh
0x00047A90	0x00000038	[  2] __ZN9CSndUListD1Ev.eh
0x00047AC8	0x00000038	[  2] __ZN9CSndUListD2Ev.eh
0x00047B00	0x00000038	[  2] __ZN9CRcvQueueD1Ev.eh
0x00047B38	0x00000038	[  2] __ZN9CRcvQueueD2Ev.eh
0x00047B70	0x00000038	[  2] __ZN16CRendezvousQueueC1Ev.eh
0x00047BA8	0x00000038	[  2] __ZN9CRcvQueue4initERKiS1_S1_S1_PK8CChannelPK6CTimer.eh
0x00047BE0	0x00000038	[  2] __ZN16CRendezvousQueueC2Ev.eh
0x00047C18	0x00000038	[  2] __ZN9CSndUListC1Ev.eh
0x00047C50	0x00000038	[  2] __ZN9CSndQueue4initEPK8CChannelPK6CTimer.eh
0x00047C88	0x00000038	[  2] __ZN9CSndUListC2Ev.eh
0x00047CC0	0x00000038	[  2] __ZN9CRcvQueueC1Ev.eh
0x00047CF8	0x00000038	[  2] __ZN9CRcvQueueC2Ev.eh
0x00047D30	0x00000038	[  2] __ZN9CSndQueueC1Ev.eh
0x00047D68	0x00000038	[  2] __ZN9CSndQueueC2Ev.eh
0x00047DA0	0x00000038	[  2] __ZN9CSndQueue6sendtoEPK8sockaddrR7CPacket.eh
0x00047DD8	0x00000038	[  2] __ZN9CSndQueueD1Ev.eh
0x00047E10	0x00000038	[  2] __ZN9CSndQueueD2Ev.eh
0x00047E48	0x00000038	[  2] __ZN9CSndUList7insert_ERKxPK4CUDT.eh
0x00047E80	0x00000038	[  2] __ZN9CSndUList6insertERKxPK4CUDT.eh
0x00047EB8	0x00000038	[  2] __ZN9CSndUList3popERP8sockaddrR7CPacket.eh
0x00047EF0	0x00000038	[  2] __ZN9CSndQueue6workerEPv.eh
0x00047F28	0x00000038	[  2] __ZN9CSndUList6updateEPK4CUDTRKb.eh
0x00047F60	0x00000020	[  3] CIE
0x00047F80	0x00000030	[  3] __ZN7CPacketC2Ev.eh
0x00047FB0	0x00000030	[  3] __ZN7CPacketC1Ev.eh
0x00047FE0	0x00000030	[  3] __ZN7CPacketD2Ev.eh
0x00048010	0x00000030	[  3] __ZN7CPacketD1Ev.eh
0x00048040	0x00000030	[  3] __ZNK7CPacket9getLengthEv.eh
0x00048070	0x00000030	[  3] __ZN7CPacket9setLengthERKi.eh
0x000480A0	0x00000030	[  3] __ZN7CPacket4packERKiPvS2_S1_.eh
0x000480D0	0x00000030	[  3] __ZN7CPacket15getPacketVectorEv.eh
0x00048100	0x00000030	[  3] __ZNK7CPacket7getFlagEv.eh
0x00048130	0x00000030	[  3] __ZNK7CPacket7getTypeEv.eh
0x00048160	0x00000030	[  3] __ZNK7CPacket15getExtendedTypeEv.eh
0x00048190	0x00000030	[  3] __ZNK7CPacket11getAckSeqNoEv.eh
0x000481C0	0x00000030	[  3] __ZNK7CPacket14getMsgBoundaryEv.eh
0x000481F0	0x00000030	[  3] __ZNK7CPacket15getMsgOrderFlagEv.eh
0x00048220	0x00000030	[  3] __ZNK7CPacket9getMsgSeqEv.eh
0x00048250	0x00000030	[  3] __ZN10CHandShakeC2Ev.eh
0x00048280	0x00000030	[  3] __ZN10CHandShakeC1Ev.eh
0x000482B0	0x00000030	[  3] __ZN10CHandShake9serializeEPcRKi.eh
0x000482E0	0x00000030	[  3] __ZN10CHandShake11deserializeEPKcRKi.eh
0x00048310	0x00000030	[  3] __ZStL17__verify_groupingPKcmRKSs.eh
0x00048340	0x00000030	[  3] __ZNK7CPacket5cloneEv.eh
0x00048370	0x00000020	[  4] CIE
0x00048390	0x00000030	[  4] _md5_init.eh
0x000483C0	0x00000030	[  4] __ZL11md5_processP11md5_state_sPKh.eh
0x000483F0	0x00000030	[  4] _md5_append.eh
0x00048420	0x00000030	[  4] _md5_finish.eh
0x00048450	0x00000020	[  5] CIE
0x00048470	0x00000030	[  5] __ZN6CSeqNo6seqoffERKiS1_.eh
0x000484A0	0x00000030	[  5] __ZN6CSeqNo6incseqEi.eh
0x000484D0	0x00000030	[  5] __ZN6CSeqNo6decseqERKi.eh
0x00048500	0x00000030	[  5] __ZNK12CRcvLossList4findERKiS1_.eh
0x00048530	0x00000030	[  5] __ZNK12CRcvLossList13getLossLengthEv.eh
0x00048560	0x00000030	[  5] __ZNK12CRcvLossList15getFirstLostSeqEv.eh
0x00048590	0x00000030	[  5] __ZStL17__verify_groupingPKcmRKSs.eh
0x000485C0	0x00000030	[  5] __ZN12CRcvLossList12getLossArrayEPiRiRKiS3_.eh
0x000485F0	0x00000030	[  5] __ZN12CRcvLossList6removeERKi.eh
0x00048620	0x00000030	[  5] __ZN12CRcvLossList6removeERKiS1_.eh
0x00048650	0x00000030	[  5] __ZN12CRcvLossList6insertERKiS1_.eh
0x00048680	0x00000030	[  5] __ZN12CRcvLossListD1Ev.eh
0x000486B0	0x00000030	[  5] __ZN12CRcvLossListD2Ev.eh
0x000486E0	0x00000030	[  5] __ZN12CRcvLossListC1ERKi.eh
0x00048710	0x00000030	[  5] __ZN12CRcvLossListC2ERKi.eh
0x00048740	0x00000030	[  5] __ZN12CSndLossList10getLostSeqEv.eh
0x00048770	0x00000030	[  5] __ZN12CSndLossList13getLossLengthEv.eh
0x000487A0	0x00000030	[  5] __ZN12CSndLossList6removeERKi.eh
0x000487D0	0x00000030	[  5] __ZN12CSndLossList6insertERKiS1_.eh
0x00048800	0x00000030	[  5] __ZN12CSndLossListD1Ev.eh
0x00048830	0x00000030	[  5] __ZN12CSndLossListD2Ev.eh
0x00048860	0x00000030	[  5] __ZN12CSndLossListC1ERKi.eh
0x00048890	0x00000030	[  5] __ZN12CSndLossListC2ERKi.eh
0x000488C0	0x00000020	[  6] CIE
0x000488E0	0x00000038	[  6] __ZL17__darwin_fd_issetiPK6fd_set.eh
0x00048918	0x00000038	[  6] __ZNSt18_Rb_tree_node_base10_S_minimumEPS_.eh
0x00048950	0x00000038	[  6] __ZNSt18_Rb_tree_node_base10_S_maximumEPS_.eh
0x00048988	0x00000038	[  6] __ZStL17__verify_groupingPKcmRKSs.eh
0x000489C0	0x00000038	[  6] __ZNKSt17_Rb_tree_iteratorISt4pairIKi10CEPollDescEEeqERKS4_.eh
0x000489F8	0x00000038	[  6] __ZNKSt17_Rb_tree_iteratorISt4pairIKi10CEPollDescEEptEv.eh
0x00048A30	0x00000038	[  6] __ZNKSt23_Rb_tree_const_iteratorIiEneERKS0_.eh
0x00048A68	0x00000038	[  6] __ZNKSt23_Rb_tree_const_iteratorIiEdeEv.eh
0x00048AA0	0x00000038	[  6] __ZNSt17_Rb_tree_iteratorISt4pairIKi10CEPollDescEEC1Ev.eh
0x00048AD8	0x00000038	[  6] __ZN9__gnu_cxx17__normal_iteratorIPiSt6vectorIiSaIiEEEppEv.eh
0x00048B10	0x00000038	[  6] __ZNK9__gnu_cxx17__normal_iteratorIPiSt6vectorIiSaIiEEEdeEv.eh
0x00048B48	0x00000038	[  6] __ZNSt8_Rb_treeIiSt4pairIKi10CEPollDescESt10_Select1stIS3_ESt4lessIiESaIS3_EE8_M_beginEv.eh
0x00048B80	0x00000038	[  6] __ZNSt8_Rb_treeIiiSt9_IdentityIiESt4lessIiESaIiEE8_M_beginEv.eh
0x00048BB8	0x00000038	[  6] __ZNKSt17_Rb_tree_iteratorISt4pairIKi10CEPollDescEEdeEv.eh
0x00048BF0	0x00000038	[  6] __ZNSt14unary_functionIiiEC2Ev.eh
0x00048C28	0x00000038	[  6] __ZNSt9_IdentityIiEC1Ev.eh
0x00048C60	0x00000038	[  6] __ZNSt23_Rb_tree_const_iteratorIiEC1ERKSt17_Rb_tree_iteratorIiE.eh
0x00048C98	0x00000038	[  6] __ZNSt4pairISt23_Rb_tree_const_iteratorIiEbEC1ERKS1_RKb.eh
0x00048CD0	0x00000038	[  6] __ZNKSt8_Rb_treeIiiSt9_IdentityIiESt4lessIiESaIiEE5emptyEv.eh
0x00048D08	0x00000038	[  6] __ZNKSt3setIiSt4lessIiESaIiEE5emptyEv.eh
0x00048D40	0x00000038	[  6] __ZNKSt8_Rb_treeIiiSt9_IdentityIiESt4lessIiESaIiEE4sizeEv.eh
0x00048D78	0x00000038	[  6] __ZNKSt3setIiSt4lessIiESaIiEE4sizeEv.eh
0x00048DB0	0x00000038	[  6] __ZN9__gnu_cxx13new_allocatorIiEC2Ev.eh
0x00048DE8	0x00000038	[  6] __ZNSaIiEC1Ev.eh
0x00048E20	0x00000038	[  6] __ZN9__gnu_cxx13new_allocatorIiED2Ev.eh
0x00048E58	0x00000038	[  6] __ZNSaIiED1Ev.eh
0x00048E90	0x00000038	[  6] __ZNSaIiED2Ev.eh
0x00048EC8	0x00000038	[  6] __ZN9__gnu_cxx13new_allocatorIiEC2ERKS1_.eh
0x00048F00	0x00000038	[  6] __ZNSaIiEC2ERKS_.eh
0x00048F38	0x00000038	[  6] __ZNSaIiEC1ERKS_.eh
0x00048F70	0x00000038	[  6] __ZNSt12_Vector_baseIiSaIiEE12_Vector_implD1Ev.eh
0x00048FA8	0x00000038	[  6] __ZNSt12_Vector_baseIiSaIiEE19_M_get_Tp_allocatorEv.eh
0x00048FE0	0x00000038	[  6] __ZN9__gnu_cxx13new_allocatorIiE9constructEPiRKi.eh
0x00049018	0x00000038	[  6] __ZN9__gnu_cxx17__normal_iteratorIPiSt6vectorIiSaIiEEEC1ERKS1_.eh
0x00049050	0x00000038	[  6] __ZNSt6vectorIiSaIiEE5beginEv.eh
0x00049088	0x00000038	[  6] __ZNSt6vectorIiSaIiEE3endEv.eh
0x000490C0	0x00000038	[  6] __ZNK9__gnu_cxx17__normal_iteratorIPiSt6vectorIiSaIiEEE4baseEv.eh
0x000490F8	0x00000038	[  6] __ZN9__gnu_cxxneIPiSt6vectorIiSaIiEEEEbRKNS_17__normal_iteratorIT_T0_EESA_.eh
0x00049130	0x00000038	[  6] __ZN9__gnu_cxx13new_allocatorISt4pairIKi10CEPollDescEEC2Ev.eh
0x00049168	0x00000038	[  6] __ZNSaISt4pairIKi10CEPollDescEEC1Ev.eh
0x000491A0	0x00000038	[  6] __ZN9__gnu_cxx13new_allocatorISt4pairIKi10CEPollDescEED2Ev.eh
0x000491D8	0x00000038	[  6] __ZNSaISt4pairIKi10CEPollDescEED1Ev.eh
0x00049210	0x00000038	[  6] __ZN9__gnu_cxx13new_allocatorISt13_Rb_tree_nodeISt4pairIKi10CEPollDescEEED2Ev.eh
0x00049248	0x00000038	[  6] __ZNSaISt13_Rb_tree_nodeISt4pairIKi10CEPollDescEEED2Ev.eh
0x00049280	0x00000038	[  6] __ZNSt8_Rb_treeIiSt4pairIKi10CEPollDescESt10_Select1stIS3_ESt4lessIiESaIS3_EE13_Rb_tree_implIS7_Lb0EED1Ev.eh
0x000492B8	0x00000038	[  6] __ZNSaISt13_Rb_tree_nodeISt4pairIKi10CEPollDescEEED1Ev.eh
0x000492F0	0x00000038	[  6] __ZNSt8_Rb_treeIiSt4pairIKi10CEPollDescESt10_Select1stIS3_ESt4lessIiESaIS3_EE8_S_rightEPSt18_Rb_tree_node_base.eh
0x00049328	0x00000038	[  6] __ZNSt8_Rb_treeIiSt4pairIKi10CEPollDescESt10_Select1stIS3_ESt4lessIiESaIS3_EE7_S_leftEPSt18_Rb_tree_node_base.eh
0x00049360	0x00000038	[  6] __ZN9__gnu_cxx13new_allocatorISt13_Rb_tree_nodeIiEED2Ev.eh
0x00049398	0x00000038	[  6] __ZNSaISt13_Rb_tree_nodeIiEED2Ev.eh
0x000493D0	0x00000038	[  6] __ZNSt8_Rb_treeIiiSt9_IdentityIiESt4lessIiESaIiEE13_Rb_tree_implIS3_Lb0EED1Ev.eh
0x00049408	0x00000038	[  6] __ZNSaISt13_Rb_tree_nodeIiEED1Ev.eh
0x00049440	0x00000038	[  6] __ZNKSt8_Rb_treeIiSt4pairIKi10CEPollDescESt10_Select1stIS3_ESt4lessIiESaIS3_EE8key_compEv.eh
0x00049478	0x00000038	[  6] __ZNKSt3mapIi10CEPollDescSt4lessIiESaISt4pairIKiS0_EEE8key_compEv.eh
0x000494B0	0x00000038	[  6] __ZNSt14unary_functionISt4pairIKi10CEPollDescES1_EC2Ev.eh
0x000494E8	0x00000038	[  6] __ZNSt10_Select1stISt4pairIKi10CEPollDescEEC1Ev.eh
0x00049520	0x00000038	[  6] __ZNKSt8_Rb_treeIiiSt9_IdentityIiESt4lessIiESaIiEE7_M_rootEv.eh
0x00049558	0x00000038	[  6] __ZNKSt8_Rb_treeIiiSt9_IdentityIiESt4lessIiESaIiEE8_M_beginEv.eh
0x00049590	0x00000038	[  6] __ZNSt8_Rb_treeIiiSt9_IdentityIiESt4lessIiESaIiEE6_M_endEv.eh
0x000495C8	0x00000038	[  6] __ZNSt8_Rb_treeIiiSt9_IdentityIiESt4lessIiESaIiEE7_M_rootEv.eh
0x00049600	0x00000038	[  6] __ZNSt8_Rb_treeIiiSt9_IdentityIiESt4lessIiESaIiEE10_S_minimumEPSt18_Rb_tree_node_base.eh
0x00049638	0x00000038	[  6] __ZNSt8_Rb_treeIiiSt9_IdentityIiESt4lessIiESaIiEE11_M_leftmostEv.eh
0x00049670	0x00000038	[  6] __ZNSt8_Rb_treeIiiSt9_IdentityIiESt4lessIiESaIiEE10_S_maximumEPSt18_Rb_tree_node_base.eh
0x000496A8	0x00000038	[  6] __ZNSt8_Rb_treeIiiSt9_IdentityIiESt4lessIiESaIiEE12_M_rightmostEv.eh
0x000496E0	0x00000038	[  6] __ZNSt8_Rb_treeIiSt4pairIKi10CEPollDescESt10_Select1stIS3_ESt4lessIiESaIS3_EE6_M_endEv.eh
0x00049718	0x00000038	[  6] __ZNSt17_Rb_tree_iteratorISt4pairIKi10CEPollDescEEC1EPSt13_Rb_tree_nodeIS3_E.eh
0x00049750	0x00000038	[  6] __ZNSt8_Rb_treeIiSt4pairIKi10CEPollDescESt10_Select1stIS3_ESt4lessIiESaIS3_EE3endEv.eh
0x00049788	0x00000038	[  6] __ZNSt3mapIi10CEPollDescSt4lessIiESaISt4pairIKiS0_EEE3endEv.eh
0x000497C0	0x00000038	[  6] __ZNKSt9_IdentityIiEclERKi.eh
0x000497F8	0x00000038	[  6] __ZNSt17_Rb_tree_iteratorIiEC1EPSt13_Rb_tree_nodeIiE.eh
0x00049830	0x00000038	[  6] __ZNSt8_Rb_treeIiiSt9_IdentityIiESt4lessIiESaIiEE5beginEv.eh
0x00049868	0x00000038	[  6] __ZNKSt17_Rb_tree_iteratorIiEeqERKS0_.eh
0x000498A0	0x00000038	[  6] __ZNSt4pairISt17_Rb_tree_iteratorIiEbEC1ERKS1_RKb.eh
0x000498D8	0x00000038	[  6] __ZNSt23_Rb_tree_const_iteratorIiEC1EPKSt13_Rb_tree_nodeIiE.eh
0x00049910	0x00000038	[  6] __ZNKSt8_Rb_treeIiiSt9_IdentityIiESt4lessIiESaIiEE5beginEv.eh
0x00049948	0x00000038	[  6] __ZNKSt3setIiSt4lessIiESaIiEE5beginEv.eh
0x00049980	0x00000038	[  6] __ZNKSt8_Rb_treeIiiSt9_IdentityIiESt4lessIiESaIiEE3endEv.eh
0x000499B8	0x00000038	[  6] __ZNKSt3setIiSt4lessIiESaIiEE3endEv.eh
0x000499F0	0x00000038	[  6] __ZNSt12_Vector_baseIiSaIiEE12_Vector_implC1ERKS0_.eh
0x00049A28	0x00000038	[  6] __ZNSt12_Vector_baseIiSaIiEEC2ERKS0_.eh
0x00049A60	0x00000038	[  6] __ZNSt6vectorIiSaIiEEC1ERKS0_.eh
0x00049A98	0x00000038	[  6] __ZNKSt6vectorIiSaIiEE4sizeEv.eh
0x00049AD0	0x00000038	[  6] __ZN9__gnu_cxx13new_allocatorISt13_Rb_tree_nodeISt4pairIKi10CEPollDescEEEC2Ev.eh
0x00049B08	0x00000038	[  6] __ZNSaISt13_Rb_tree_nodeISt4pairIKi10CEPollDescEEEC1IS3_EERKSaIT_E.eh
0x00049B40	0x00000038	[  6] __ZN9__gnu_cxx13new_allocatorISt13_Rb_tree_nodeIiEEC2Ev.eh
0x00049B78	0x00000038	[  6] __ZNSaISt13_Rb_tree_nodeIiEEC1IiEERKSaIT_E.eh
0x00049BB0	0x00000038	[  6] __ZN9__gnu_cxx13new_allocatorIiE7destroyEPi.eh
0x00049BE8	0x00000038	[  6] __ZNKSt8_Rb_treeIiiSt9_IdentityIiESt4lessIiESaIiEE21_M_get_Node_allocatorEv.eh
0x00049C20	0x00000038	[  6] __ZNSt8_Rb_treeIiSt4pairIKi10CEPollDescESt10_Select1stIS3_ESt4lessIiESaIS3_EE12_M_rightmostEv.eh
0x00049C58	0x00000038	[  6] __ZNKSt10_Select1stISt4pairIKi10CEPollDescEEclERKS3_.eh
0x00049C90	0x00000038	[  6] __ZNKSt8_Rb_treeIiSt4pairIKi10CEPollDescESt10_Select1stIS3_ESt4lessIiESaIS3_EE4sizeEv.eh
0x00049CC8	0x00000038	[  6] __ZNSt8_Rb_treeIiSt4pairIKi10CEPollDescESt10_Select1stIS3_ESt4lessIiESaIS3_EE11_M_leftmostEv.eh
0x00049D00	0x00000038	[  6] __ZNSt8_Rb_treeIiiSt9_IdentityIiESt4lessIiESaIiEE8_S_rightEPKSt18_Rb_tree_node_base.eh
0x00049D38	0x00000038	[  6] __ZNSt8_Rb_treeIiiSt9_IdentityIiESt4lessIiESaIiEE7_S_leftEPKSt18_Rb_tree_node_base.eh
0x00049D70	0x00000038	[  6] __ZNSt8_Rb_treeIiSt4pairIKi10CEPollDescESt10_Select1stIS3_ESt4lessIiESaIS3_EE8_S_valueEPKSt13_Rb_tree_nodeIS3_E.eh
0x00049DA8	0x00000038	[  6] __ZNSt8_Rb_treeIiSt4pairIKi10CEPollDescESt10_Select1stIS3_ESt4lessIiESaIS3_EE6_S_keyEPKSt13_Rb_tree_nodeIS3_E.eh
0x00049DE0	0x00000038	[  6] __ZNSt8_Rb_treeIiSt4pairIKi10CEPollDescESt10_Select1stIS3_ESt4lessIiESaIS3_EE11lower_boundERS1_.eh
0x00049E18	0x00000038	[  6] __ZNSt3mapIi10CEPollDescSt4lessIiESaISt4pairIKiS0_EEE11lower_boundERS4_.eh
0x00049E50	0x00000038	[  6] __ZNSt8_Rb_treeIiSt4pairIKi10CEPollDescESt10_Select1stIS3_ESt4lessIiESaIS3_EE8_S_valueEPKSt18_Rb_tree_node_base.eh
0x00049E88	0x00000038	[  6] __ZNSt8_Rb_treeIiSt4pairIKi10CEPollDescESt10_Select1stIS3_ESt4lessIiESaIS3_EE6_S_keyEPKSt18_Rb_tree_node_base.eh
0x00049EC0	0x00000038	[  6] __ZNSt8_Rb_treeIiSt4pairIKi10CEPollDescESt10_Select1stIS3_ESt4lessIiESaIS3_EE4findERS1_.eh
0x00049EF8	0x00000038	[  6] __ZNSt3mapIi10CEPollDescSt4lessIiESaISt4pairIKiS0_EEE4findERS4_.eh
0x00049F30	0x00000038	[  6] __ZNSt8_Rb_treeIiiSt9_IdentityIiESt4lessIiESaIiEE8_S_valueEPKSt18_Rb_tree_node_base.eh
0x00049F68	0x00000038	[  6] __ZNSt8_Rb_treeIiiSt9_IdentityIiESt4lessIiESaIiEE6_S_keyEPKSt18_Rb_tree_node_base.eh
0x00049FA0	0x00000038	[  6] __ZNSt8_Rb_treeIiiSt9_IdentityIiESt4lessIiESaIiEE11lower_boundERKi.eh
0x00049FD8	0x00000038	[  6] __ZNSt8_Rb_treeIiiSt9_IdentityIiESt4lessIiESaIiEE11upper_boundERKi.eh
0x0004A010	0x00000038	[  6] __ZNSt4pairISt17_Rb_tree_iteratorIiES1_EC1ERKS1_S4_.eh
0x0004A048	0x00000038	[  6] __ZNSt8_Rb_treeIiiSt9_IdentityIiESt4lessIiESaIiEE11equal_rangeERKi.eh
0x0004A080	0x00000038	[  6] __ZNSt8_Rb_treeIiiSt9_IdentityIiESt4lessIiESaIiEE3endEv.eh
0x0004A0B8	0x00000038	[  6] __ZNKSt17_Rb_tree_iteratorIiEneERKS0_.eh
0x0004A0F0	0x00000038	[  6] __ZNKSt12_Vector_baseIiSaIiEE19_M_get_Tp_allocatorEv.eh
0x0004A128	0x00000038	[  6] __ZNK9__gnu_cxx13new_allocatorIiE8max_sizeEv.eh
0x0004A160	0x00000038	[  6] __ZNKSt6vectorIiSaIiEE8max_sizeEv.eh
0x0004A198	0x00000038	[  6] __ZN9__gnu_cxx13new_allocatorISt13_Rb_tree_nodeISt4pairIKi10CEPollDescEEEC2ERKS7_.eh
0x0004A1D0	0x00000038	[  6] __ZNSaISt13_Rb_tree_nodeISt4pairIKi10CEPollDescEEEC2ERKS5_.eh
0x0004A208	0x00000038	[  6] __ZNSt8_Rb_treeIiSt4pairIKi10CEPollDescESt10_Select1stIS3_ESt4lessIiESaIS3_EE13_Rb_tree_implIS7_Lb0EEC1ERKSaISt13_Rb_tree_nodeIS3_EERKS7_.eh
0x0004A240	0x00000038	[  6] __ZNSt8_Rb_treeIiSt4pairIKi10CEPollDescESt10_Select1stIS3_ESt4lessIiESaIS3_EEC1ERKS7_RKS8_.eh
0x0004A278	0x00000038	[  6] __ZNSt3mapIi10CEPollDescSt4lessIiESaISt4pairIKiS0_EEEC1Ev.eh
0x0004A2B0	0x00000038	[  6] __ZNKSt8_Rb_treeIiSt4pairIKi10CEPollDescESt10_Select1stIS3_ESt4lessIiESaIS3_EE21_M_get_Node_allocatorEv.eh
0x0004A2E8	0x00000038	[  6] __ZNSaISt4pairIKi10CEPollDescEEC1ISt13_Rb_tree_nodeIS2_EEERKSaIT_E.eh
0x0004A320	0x00000040	[  6] __ZNKSt8_Rb_treeIiSt4pairIKi10CEPollDescESt10_Select1stIS3_ESt4lessIiESaIS3_EE13get_allocatorEv.eh
0x0004A360	0x00000038	[  6] __ZN9__gnu_cxx13new_allocatorISt13_Rb_tree_nodeIiEEC2ERKS3_.eh
0x0004A398	0x00000038	[  6] __ZNSaISt13_Rb_tree_nodeIiEEC2ERKS1_.eh
0x0004A3D0	0x00000038	[  6] __ZNSt8_Rb_treeIiiSt9_IdentityIiESt4lessIiESaIiEE13_Rb_tree_implIS3_Lb0EEC1ERKSaISt13_Rb_tree_nodeIiEERKS3_.eh
0x0004A408	0x00000038	[  6] __ZNSt8_Rb_treeIiiSt9_IdentityIiESt4lessIiESaIiEEC1ERKS3_RKS4_.eh
0x0004A440	0x00000038	[  6] __ZNSt3setIiSt4lessIiESaIiEEC1Ev.eh
0x0004A478	0x00000038	[  6] __ZNSaIiEC1ISt13_Rb_tree_nodeIiEEERKSaIT_E.eh
0x0004A4B0	0x00000040	[  6] __ZNKSt8_Rb_treeIiiSt9_IdentityIiESt4lessIiESaIiEE13get_allocatorEv.eh
0x0004A4F0	0x00000038	[  6] __ZNSt8_Rb_treeIiSt4pairIKi10CEPollDescESt10_Select1stIS3_ESt4lessIiESaIS3_EE5beginEv.eh
0x0004A528	0x00000038	[  6] __ZNSt4pairISt17_Rb_tree_iteratorIS_IKi10CEPollDescEEbEC1ERKS4_RKb.eh
0x0004A560	0x00000038	[  6] __ZNK9__gnu_cxx13new_allocatorISt13_Rb_tree_nodeIiEE8max_sizeEv.eh
0x0004A598	0x00000038	[  6] __ZNK9__gnu_cxx13new_allocatorISt13_Rb_tree_nodeISt4pairIKi10CEPollDescEEE8max_sizeEv.eh
0x0004A5D0	0x00000038	[  6] __ZNSt15__copy_backwardILb1ESt26random_access_iterator_tagE8__copy_bIiEEPT_PKS3_S6_S4_.eh
0x0004A608	0x00000038	[  6] __ZSt19__copy_backward_auxIPiS0_ET0_T_S2_S1_.eh
0x0004A640	0x00000038	[  6] __ZSt13copy_backwardIPiS0_ET0_T_S2_S1_.eh
0x0004A678	0x00000038	[  6] __ZSt10__copy_auxIPiS0_ET0_T_S2_S1_.eh
0x0004A6B0	0x00000038	[  6] __ZSt4copyIPiS0_ET0_T_S2_S1_.eh
0x0004A6E8	0x00000038	[  6] __ZSt18uninitialized_copyIPiS0_ET0_T_S2_S1_.eh
0x0004A720	0x00000038	[  6] __ZSt22__uninitialized_copy_aIPiS0_iET0_T_S2_S1_SaIT1_E.eh
0x0004A758	0x00000038	[  6] __ZN9__gnu_cxx13new_allocatorIiE8allocateEmPKv.eh
0x0004A790	0x00000038	[  6] __ZNSt12_Vector_baseIiSaIiEE11_M_allocateEm.eh
0x0004A7C8	0x00000038	[  6] __ZN9__gnu_cxx13new_allocatorISt13_Rb_tree_nodeIiEE8allocateEmPKv.eh
0x0004A800	0x00000038	[  6] __ZNSt8_Rb_treeIiiSt9_IdentityIiESt4lessIiESaIiEE11_M_get_nodeEv.eh
0x0004A838	0x00000038	[  6] __ZN9__gnu_cxx13new_allocatorISt13_Rb_tree_nodeISt4pairIKi10CEPollDescEEE8allocateEmPKv.eh
0x0004A870	0x00000038	[  6] __ZNSt8_Rb_treeIiSt4pairIKi10CEPollDescESt10_Select1stIS3_ESt4lessIiESaIS3_EE11_M_get_nodeEv.eh
0x0004A8A8	0x00000038	[  6] __ZN9__gnu_cxx13new_allocatorIiE10deallocateEPim.eh
0x0004A8E0	0x00000038	[  6] __ZNSt12_Vector_baseIiSaIiEE13_M_deallocateEPim.eh
0x0004A918	0x00000040	[  6] __ZNSt6vectorIiSaIiEE13_M_insert_auxEN9__gnu_cxx17__normal_iteratorIPiS1_EERKi.eh
0x0004A958	0x00000038	[  6] __ZNSt6vectorIiSaIiEE9push_backERKi.eh
0x0004A990	0x00000038	[  6] __ZNSt12_Vector_baseIiSaIiEED2Ev.eh
0x0004A9C8	0x00000038	[  6] __ZNSt6vectorIiSaIiEED1Ev.eh
0x0004AA00	0x00000038	[  6] __ZN9__gnu_cxx13new_allocatorISt13_Rb_tree_nodeIiEE10deallocateEPS2_m.eh
0x0004AA38	0x00000038	[  6] __ZNSt8_Rb_treeIiiSt9_IdentityIiESt4lessIiESaIiEE11_M_put_nodeEPSt13_Rb_tree_nodeIiE.eh
0x0004AA70	0x00000038	[  6] __ZNSt8_Rb_treeIiiSt9_IdentityIiESt4lessIiESaIiEE15_M_destroy_nodeEPSt13_Rb_tree_nodeIiE.eh
0x0004AAA8	0x00000038	[  6] __ZNSt8_Rb_treeIiiSt9_IdentityIiESt4lessIiESaIiEE8_M_eraseEPSt13_Rb_tree_nodeIiE.eh
0x0004AAE0	0x00000038	[  6] __ZNSt8_Rb_treeIiiSt9_IdentityIiESt4lessIiESaIiEE5clearEv.eh
0x0004AB18	0x00000038	[  6] __ZNSt3setIiSt4lessIiESaIiEE5clearEv.eh
0x0004AB50	0x00000038	[  6] __ZNSt8_Rb_treeIiiSt9_IdentityIiESt4lessIiESaIiEED1Ev.eh
0x0004AB88	0x00000038	[  6] __ZNSt3setIiSt4lessIiESaIiEED1Ev.eh
0x0004ABC0	0x00000038	[  6] __ZN10CEPollDescD1Ev.eh
0x0004ABF8	0x00000038	[  6] __ZNSt4pairIKi10CEPollDescED1Ev.eh
0x0004AC30	0x00000038	[  6] __ZN9__gnu_cxx13new_allocatorISt4pairIKi10CEPollDescEE7destroyEPS4_.eh
0x0004AC68	0x00000038	[  6] __ZN10CEPollDescC1Ev.eh
0x0004ACA0	0x00000038	[  6] __ZNSt8_Rb_treeIiiSt9_IdentityIiESt4lessIiESaIiEE14_M_create_nodeERKi.eh
0x0004ACD8	0x00000038	[  6] __ZNSt8_Rb_treeIiiSt9_IdentityIiESt4lessIiESaIiEE13_M_clone_nodeEPKSt13_Rb_tree_nodeIiE.eh
0x0004AD10	0x00000038	[  6] __ZNSt8_Rb_treeIiiSt9_IdentityIiESt4lessIiESaIiEE7_M_copyEPKSt13_Rb_tree_nodeIiEPS7_.eh
0x0004AD48	0x00000040	[  6] __ZNSt8_Rb_treeIiiSt9_IdentityIiESt4lessIiESaIiEEaSERKS5_.eh
0x0004AD88	0x00000038	[  6] __ZNSt3setIiSt4lessIiESaIiEEaSERKS3_.eh
0x0004ADC0	0x00000038	[  6] __ZN10CEPollDescaSERKS_.eh
0x0004ADF8	0x00000038	[  6] __ZNSt8_Rb_treeIiiSt9_IdentityIiESt4lessIiESaIiEEC1ERKS5_.eh
0x0004AE30	0x00000038	[  6] __ZNSt3setIiSt4lessIiESaIiEEC1ERKS3_.eh
0x0004AE68	0x00000038	[  6] __ZN10CEPollDescC1ERKS_.eh
0x0004AEA0	0x00000038	[  6] __ZNSt4pairIKi10CEPollDescEC1ERS0_RKS1_.eh
0x0004AED8	0x00000038	[  6] __ZNSt4pairIKi10CEPollDescEC1ERKS2_.eh
0x0004AF10	0x00000038	[  6] __ZN9__gnu_cxx13new_allocatorISt4pairIKi10CEPollDescEE9constructEPS4_RKS4_.eh
0x0004AF48	0x00000038	[  6] __ZN9__gnu_cxx13new_allocatorISt13_Rb_tree_nodeISt4pairIKi10CEPollDescEEE10deallocateEPS6_m.eh
0x0004AF80	0x00000038	[  6] __ZNSt8_Rb_treeIiSt4pairIKi10CEPollDescESt10_Select1stIS3_ESt4lessIiESaIS3_EE11_M_put_nodeEPSt13_Rb_tree_nodeIS3_E.eh
0x0004AFB8	0x00000038	[  6] __ZNSt8_Rb_treeIiSt4pairIKi10CEPollDescESt10_Select1stIS3_ESt4lessIiESaIS3_EE15_M_destroy_nodeEPSt13_Rb_tree_nodeIS3_E.eh
0x0004AFF0	0x00000038	[  6] __ZNSt8_Rb_treeIiSt4pairIKi10CEPollDescESt10_Select1stIS3_ESt4lessIiESaIS3_EE8_M_eraseEPSt13_Rb_tree_nodeIS3_E.eh
0x0004B028	0x00000038	[  6] __ZNSt8_Rb_treeIiSt4pairIKi10CEPollDescESt10_Select1stIS3_ESt4lessIiESaIS3_EED1Ev.eh
0x0004B060	0x00000038	[  6] __ZNSt3mapIi10CEPollDescSt4lessIiESaISt4pairIKiS0_EEED1Ev.eh
0x0004B098	0x00000038	[  6] __ZNSt8_Rb_treeIiSt4pairIKi10CEPollDescESt10_Select1stIS3_ESt4lessIiESaIS3_EE14_M_create_nodeERKS3_.eh
0x0004B0D0	0x00000038	[  6] __ZNSt23_Rb_tree_const_iteratorIiEppEv.eh
0x0004B108	0x00000038	[  6] __ZNSt17_Rb_tree_iteratorIiEppEi.eh
0x0004B140	0x00000038	[  6] __ZNSt17_Rb_tree_iteratorISt4pairIKi10CEPollDescEEppEv.eh
0x0004B178	0x00000038	[  6] __ZNSt8_Rb_treeIiiSt9_IdentityIiESt4lessIiESaIiEE5eraseESt17_Rb_tree_iteratorIiE.eh
0x0004B1B0	0x00000038	[  6] __ZNSt8_Rb_treeIiiSt9_IdentityIiESt4lessIiESaIiEE5eraseESt17_Rb_tree_iteratorIiES7_.eh
0x0004B1E8	0x00000038	[  6] __ZNSt8_Rb_treeIiiSt9_IdentityIiESt4lessIiESaIiEE5eraseERKi.eh
0x0004B220	0x00000038	[  6] __ZNSt3setIiSt4lessIiESaIiEE5eraseERKi.eh
0x0004B258	0x00000038	[  6] __ZN6CEPoll12disable_readERKiRSt3setIiSt4lessIiESaIiEE.eh
0x0004B290	0x00000038	[  6] __ZN6CEPoll13disable_writeERKiRSt3setIiSt4lessIiESaIiEE.eh
0x0004B2C8	0x00000038	[  6] __ZNSt8_Rb_treeIiSt4pairIKi10CEPollDescESt10_Select1stIS3_ESt4lessIiESaIS3_EE5eraseESt17_Rb_tree_iteratorIS3_E.eh
0x0004B300	0x00000038	[  6] __ZNSt3mapIi10CEPollDescSt4lessIiESaISt4pairIKiS0_EEE5eraseESt17_Rb_tree_iteratorIS5_E.eh
0x0004B338	0x00000038	[  6] __ZNSt17_Rb_tree_iteratorIiEmmEv.eh
0x0004B370	0x00000038	[  6] __ZNSt17_Rb_tree_iteratorISt4pairIKi10CEPollDescEEmmEv.eh
0x0004B3A8	0x00000038	[  6] __ZNSt8_Rb_treeIiiSt9_IdentityIiESt4lessIiESaIiEE9_M_insertEPSt18_Rb_tree_node_baseS7_RKi.eh
0x0004B3E0	0x00000038	[  6] __ZNSt8_Rb_treeIiiSt9_IdentityIiESt4lessIiESaIiEE16_M_insert_uniqueERKi.eh
0x0004B418	0x00000038	[  6] __ZNSt3setIiSt4lessIiESaIiEE6insertERKi.eh
0x0004B450	0x00000038	[  6] __ZN6CEPoll11enable_readERKiRSt3setIiSt4lessIiESaIiEE.eh
0x0004B488	0x00000038	[  6] __ZN6CEPoll12enable_writeERKiRSt3setIiSt4lessIiESaIiEE.eh
0x0004B4C0	0x00000038	[  6] __ZNSt8_Rb_treeIiSt4pairIKi10CEPollDescESt10_Select1stIS3_ESt4lessIiESaIS3_EE9_M_insertEPSt18_Rb_tree_node_baseSB_RKS3_.eh
0x0004B4F8	0x00000038	[  6] __ZNSt8_Rb_treeIiSt4pairIKi10CEPollDescESt10_Select1stIS3_ESt4lessIiESaIS3_EE16_M_insert_uniqueERKS3_.eh
0x0004B530	0x00000038	[  6] __ZNSt8_Rb_treeIiSt4pairIKi10CEPollDescESt10_Select1stIS3_ESt4lessIiESaIS3_EE16_M_insert_uniqueESt17_Rb_tree_iteratorIS3_ERKS3_.eh
0x0004B568	0x00000038	[  6] __ZNSt3mapIi10CEPollDescSt4lessIiESaISt4pairIKiS0_EEE6insertESt17_Rb_tree_iteratorIS5_ERKS5_.eh
0x0004B5A0	0x00000038	[  6] __ZNSt3mapIi10CEPollDescSt4lessIiESaISt4pairIKiS0_EEEixERS4_.eh
0x0004B5D8	0x00000038	[  6] __ZN6CEPoll6createEv.eh
0x0004B610	0x00000038	[  6] __ZN6CEPoll7releaseEi.eh
0x0004B648	0x00000038	[  6] __ZN6CEPoll12remove_ssockEiRKiPS0_.eh
0x0004B680	0x00000038	[  6] __ZN6CEPoll12remove_usockEiRKiPS0_.eh
0x0004B6B8	0x00000038	[  6] __ZN6CEPoll9add_ssockEiRKiPS0_.eh
0x0004B6F0	0x00000038	[  6] __ZN6CEPoll9add_usockEiRKiPS0_.eh
0x0004B728	0x00000038	[  6] __ZN6CEPoll4waitEiPSt3setIiSt4lessIiESaIiEES5_xS5_S5_.eh
0x0004B760	0x00000038	[  6] __ZN6CEPollD1Ev.eh
0x0004B798	0x00000038	[  6] __ZN6CEPollD2Ev.eh
0x0004B7D0	0x00000038	[  6] __ZN6CEPollC1Ev.eh
0x0004B808	0x00000038	[  6] __ZN6CEPollC2Ev.eh
0x0004B840	0x00000020	[  7] CIE
0x0004B860	0x00000038	[  7] __ZN6CSeqNo6seqcmpERKiS1_.eh
0x0004B898	0x00000038	[  7] __ZN6CSeqNo6seqlenERKiS1_.eh
0x0004B8D0	0x00000038	[  7] __ZN6CSeqNo6incseqERKiS1_.eh
0x0004B908	0x00000038	[  7] __ZN6CAckNo6incackERKi.eh
0x0004B940	0x00000038	[  7] __ZN17CCCVirtualFactoryC2Ev.eh
0x0004B978	0x00000038	[  7] __ZN10CCCFactoryI6CUDTCCEC1Ev.eh
0x0004B9B0	0x00000038	[  7] __ZStL17__verify_groupingPKcmRKSs.eh
0x0004B9E8	0x00000038	[  7] __ZN13CUDTExceptionaSERKS_.eh
0x0004BA20	0x00000038	[  7] __ZNSt4fposI11__mbstate_tEC1Ex.eh
0x0004BA58	0x00000038	[  7] __ZNSt8_Rb_treeIiiSt9_IdentityIiESt4lessIiESaIiEE8_S_valueEPKSt13_Rb_tree_nodeIiE.eh
0x0004BA90	0x00000038	[  7] __ZNSt8_Rb_treeIiiSt9_IdentityIiESt4lessIiESaIiEE6_S_keyEPKSt13_Rb_tree_nodeIiE.eh
0x0004BAC8	0x00000038	[  7] __Z41__static_initialization_and_destruction_0ii.eh
0x0004BB00	0x00000038	[  7] __GLOBAL__I__ZN4CUDT11s_UDTUnitedE.eh
0x0004BB38	0x00000038	[  7] ___tcf_0.eh
0x0004BB70	0x00000038	[  7] __ZN10CCCFactoryI6CUDTCCED0Ev.eh
0x0004BBA8	0x00000038	[  7] __ZN10CCCFactoryI6CUDTCCED1Ev.eh
0x0004BBE0	0x00000038	[  7] __ZN17CCCVirtualFactoryD0Ev.eh
0x0004BC18	0x00000038	[  7] __ZN17CCCVirtualFactoryD1Ev.eh
0x0004BC50	0x00000038	[  7] __ZN4CUDT11removeEPollEi.eh
0x0004BC88	0x00000038	[  7] __ZN4CUDT8addEPollEi.eh
0x0004BCC0	0x00000038	[  7] __ZN10CCCFactoryI6CUDTCCE5cloneEv.eh
0x0004BCF8	0x00000038	[  7] __ZN4CUDT6listenEP8sockaddrR7CPacket.eh
0x0004BD30	0x00000038	[  7] __ZN4CUDT12releaseSynchEv.eh
0x0004BD68	0x00000038	[  7] __ZN4CUDT8sendCtrlERKiPvS2_S1_.eh
0x0004BDA0	0x00000038	[  7] __ZN4CUDT11checkTimersEv.eh
0x0004BDD8	0x00000038	[  7] __ZN4CUDT11processDataEP5CUnit.eh
0x0004BE10	0x00000038	[  7] __ZN4CUDT8packDataER7CPacketRy.eh
0x0004BE48	0x00000038	[  7] __ZN4CUDT11processCtrlER7CPacket.eh
0x0004BE80	0x00000038	[  7] __ZN4CUDT12destroySynchEv.eh
0x0004BEB8	0x00000038	[  7] __ZN4CUDT9initSynchEv.eh
0x0004BEF0	0x00000038	[  7] __ZN4CUDTC1ERKS_.eh
0x0004BF28	0x00000038	[  7] __ZN4CUDTC2ERKS_.eh
0x0004BF60	0x00000038	[  7] __ZN4CUDTC1Ev.eh
0x0004BF98	0x00000038	[  7] __ZN4CUDTC2Ev.eh
0x0004BFD0	0x00000038	[  7] __ZN4CUDT6getOptE6UDTOptPvRi.eh
0x0004C008	0x00000038	[  7] __ZN4CUDT6setOptE6UDTOptPKvRKi.eh
0x0004C040	0x00000038	[  7] __ZN4CUDT6sampleEP8CPerfMonb.eh
0x0004C078	0x00000038	[  7] __ZN4CUDT8recvfileERSt13basic_fstreamIcSt11char_traitsIcEERxRKxRKi.eh
0x0004C0B0	0x00000038	[  7] __ZN4CUDT8sendfileERSt13basic_fstreamIcSt11char_traitsIcEERxRKxRKi.eh
0x0004C0E8	0x00000038	[  7] __ZN4CUDT7recvmsgEPcRKi.eh
0x0004C120	0x00000038	[  7] __ZN4CUDT7sendmsgEPKcRKiS3_RKb.eh
0x0004C158	0x00000038	[  7] __ZN4CUDT4sendEPKcRKi.eh
0x0004C190	0x00000038	[  7] __ZN4CUDT4recvEPcRKi.eh
0x0004C1C8	0x00000038	[  7] __ZN4CUDT5closeEv.eh
0x0004C200	0x00000038	[  7] __ZN4CUDT7connectEPK8sockaddrP10CHandShake.eh
0x0004C238	0x00000038	[  7] __ZN4CUDT7connectEPK8sockaddr.eh
0x0004C270	0x00000038	[  7] __ZN4CUDT6listenEv.eh
0x0004C2A8	0x00000038	[  7] __ZN4CUDT4openEv.eh
0x0004C2E0	0x00000038	[  7] __ZN4CUDTD1Ev.eh
0x0004C318	0x00000038	[  7] __ZN4CUDTD2Ev.eh
0x0004C350	0x00000038	[  7] __ZN10CCCFactoryI6CUDTCCE6createEv.eh
0x0004C388	0x00000020	[  8] CIE
0x0004C3A8	0x00000038	[  8] __ZN6CTimer16readCPUFrequencyEv.eh
0x0004C3E0	0x00000038	[  8] __ZN6CTimer15getCPUFrequencyEv.eh
0x0004C418	0x00000038	[  8] __ZNK13CUDTException12getErrorCodeEv.eh
0x0004C450	0x00000038	[  8] __ZN13CUDTException5clearEv.eh
0x0004C488	0x00000038	[  8] __ZN10CIPAddress5ipcmpEPK8sockaddrS2_RKi.eh
0x0004C4C0	0x00000038	[  8] __ZN10CIPAddress4ntopEPK8sockaddrPjRKi.eh
0x0004C4F8	0x00000038	[  8] __ZN10CIPAddress4ptonEP8sockaddrPKjRKi.eh
0x0004C530	0x00000038	[  8] __ZStL17__verify_groupingPKcmRKSs.eh
0x0004C568	0x00000038	[  8] __Z41__static_initialization_and_destruction_0ii.eh
0x0004C5A0	0x00000038	[  8] __GLOBAL__I__ZN6CTimer17s_ullCPUFrequencyE.eh
0x0004C5D8	0x00000038	[  8] __ZN4CMD57computeEPKcPh.eh
0x0004C610	0x00000038	[  8] __ZN13CUDTException15getErrorMessageEv.eh
0x0004C648	0x00000038	[  8] __ZN13CUDTExceptionC1ERKS_.eh
0x0004C680	0x00000038	[  8] __ZN13CUDTExceptionC2ERKS_.eh
0x0004C6B8	0x00000038	[  8] __ZN13CUDTExceptionD0Ev.eh
0x0004C6F0	0x00000038	[  8] __ZN13CUDTExceptionD1Ev.eh
0x0004C728	0x00000038	[  8] __ZN13CUDTExceptionD2Ev.eh
0x0004C760	0x00000038	[  8] __ZN13CUDTExceptionC1Eiii.eh
0x0004C798	0x00000038	[  8] __ZN13CUDTExceptionC2Eiii.eh
0x0004C7D0	0x00000038	[  8] __ZN6CGuard11releaseCondER22_opaque_pthread_cond_t.eh
0x0004C808	0x00000038	[  8] __ZN6CGuard10createCondER22_opaque_pthread_cond_t.eh
0x0004C840	0x00000038	[  8] __ZN6CGuard12releaseMutexER23_opaque_pthread_mutex_t.eh
0x0004C878	0x00000038	[  8] __ZN6CTimerD1Ev.eh
0x0004C8B0	0x00000038	[  8] __ZN6CTimerD2Ev.eh
0x0004C8E8	0x00000038	[  8] __ZN6CGuard11createMutexER23_opaque_pthread_mutex_t.eh
0x0004C920	0x00000038	[  8] __ZN6CTimerC1Ev.eh
0x0004C958	0x00000038	[  8] __ZN6CTimerC2Ev.eh
0x0004C990	0x00000038	[  8] __ZN6CGuard7leaveCSER23_opaque_pthread_mutex_t.eh
0x0004C9C8	0x00000038	[  8] __ZN6CGuardD1Ev.eh
0x0004CA00	0x00000038	[  8] __ZN6CGuardD2Ev.eh
0x0004CA38	0x00000038	[  8] __ZN6CGuard7enterCSER23_opaque_pthread_mutex_t.eh
0x0004CA70	0x00000038	[  8] __ZN6CGuardC1ER23_opaque_pthread_mutex_t.eh
0x0004CAA8	0x00000038	[  8] __ZN6CGuardC2ER23_opaque_pthread_mutex_t.eh
0x0004CAE0	0x00000038	[  8] __ZN6CTimer5sleepEv.eh
0x0004CB18	0x00000038	[  8] __ZN6CTimer7getTimeEv.eh
0x0004CB50	0x00000038	[  8] __ZN6CTimer5rdtscERy.eh
0x0004CB88	0x00000038	[  8] __ZN6CTimer12waitForEventEv.eh
0x0004CBC0	0x00000038	[  8] __ZN6CTimer7sleeptoERKy.eh
0x0004CBF8	0x00000038	[  8] __ZN6CTimer5sleepERKy.eh
0x0004CC30	0x00000038	[  8] __ZN6CTimer12triggerEventEv.eh
0x0004CC68	0x00000038	[  8] __ZN6CTimer4tickEv.eh
0x0004CCA0	0x00000038	[  8] __ZN6CTimer9interruptEv.eh
0x0004CCD8	0x00000020	[  9] CIE
0x0004CCF8	0x00000038	[  9] __ZL12_OSSwapInt32j.eh
0x0004CD30	0x00000038	[  9] __ZN8CChannelC2Ev.eh
0x0004CD68	0x00000038	[  9] __ZN8CChannelC1Ev.eh
0x0004CDA0	0x00000038	[  9] __ZN8CChannelC2ERKi.eh
0x0004CDD8	0x00000038	[  9] __ZN8CChannelC1ERKi.eh
0x0004CE10	0x00000038	[  9] __ZN8CChannelD2Ev.eh
0x0004CE48	0x00000038	[  9] __ZN8CChannelD1Ev.eh
0x0004CE80	0x00000038	[  9] __ZN8CChannel13setSndBufSizeERKi.eh
0x0004CEB8	0x00000038	[  9] __ZN8CChannel13setRcvBufSizeERKi.eh
0x0004CEF0	0x00000038	[  9] __ZStL17__verify_groupingPKcmRKSs.eh
0x0004CF28	0x00000038	[  9] __ZNK8CChannel8recvfromEP8sockaddrR7CPacket.eh
0x0004CF60	0x00000038	[  9] __ZNK8CChannel6sendtoEPK8sockaddrR7CPacket.eh
0x0004CF98	0x00000038	[  9] __ZNK8CChannel11getPeerAddrEP8sockaddr.eh
0x0004CFD0	0x00000038	[  9] __ZNK8CChannel11getSockAddrEP8sockaddr.eh
0x0004D008	0x00000038	[  9] __ZN8CChannel13getRcvBufSizeEv.eh
0x0004D040	0x00000038	[  9] __ZN8CChannel13getSndBufSizeEv.eh
0x0004D078	0x00000038	[  9] __ZNK8CChannel5closeEv.eh
0x0004D0B0	0x00000038	[  9] __ZN8CChannel13setUDPSockOptEv.eh
0x0004D0E8	0x00000038	[  9] __ZN8CChannel4openEi.eh
0x0004D120	0x00000038	[  9] __ZN8CChannel4openEPK8sockaddr.eh
0x0004D158	0x00000020	[ 10] CIE
0x0004D178	0x00000030	[ 10] __ZN3CCC4initEv.eh
0x0004D1A8	0x00000030	[ 10] __ZN3CCC5closeEv.eh
0x0004D1D8	0x00000030	[ 10] __ZN3CCC5onACKERKi.eh
0x0004D208	0x00000030	[ 10] __ZN3CCC6onLossEPKiRS0_.eh
0x0004D238	0x00000030	[ 10] __ZN3CCC9onTimeoutEv.eh
0x0004D268	0x00000030	[ 10] __ZN3CCC9onPktSentEPK7CPacket.eh
0x0004D298	0x00000030	[ 10] __ZN3CCC13onPktReceivedEPK7CPacket.eh
0x0004D2C8	0x00000030	[ 10] __ZN3CCC16processCustomMsgEPK7CPacket.eh
0x0004D2F8	0x00000030	[ 10] __ZN3CCCC2Ev.eh
0x0004D328	0x00000030	[ 10] __ZN3CCCC1Ev.eh
0x0004D358	0x00000030	[ 10] __ZN3CCC11setACKTimerERKi.eh
0x0004D388	0x00000030	[ 10] __ZN3CCC14setACKIntervalERKi.eh
0x0004D3B8	0x00000030	[ 10] __ZN3CCC6setRTOERKi.eh
0x0004D3E8	0x00000030	[ 10] __ZN3CCC6setMSSERKi.eh
0x0004D418	0x00000030	[ 10] __ZN3CCC12setBandwidthERKi.eh
0x0004D448	0x00000030	[ 10] __ZN3CCC15setSndCurrSeqNoERKi.eh
0x0004D478	0x00000030	[ 10] __ZN3CCC10setRcvRateERKi.eh
0x0004D4A8	0x00000030	[ 10] __ZN3CCC14setMaxCWndSizeERKi.eh
0x0004D4D8	0x00000030	[ 10] __ZN3CCC6setRTTERKi.eh
0x0004D508	0x00000030	[ 10] __ZN6CUDTCCC2Ev.eh
0x0004D538	0x00000030	[ 10] __ZN6CUDTCCC1Ev.eh
0x0004D568	0x00000030	[ 10] __ZN6CUDTCC9onTimeoutEv.eh
0x0004D598	0x00000030	[ 10] __ZStL17__verify_groupingPKcmRKSs.eh
0x0004D5C8	0x00000030	[ 10] __ZN6CUDTCC6onLossEPKiRS0_.eh
0x0004D5F8	0x00000030	[ 10] __ZN6CUDTCC4initEv.eh
0x0004D628	0x00000030	[ 10] __ZN6CUDTCC5onACKERKi.eh
0x0004D658	0x00000030	[ 10] __ZN3CCCD0Ev.eh
0x0004D688	0x00000030	[ 10] __ZN3CCCD1Ev.eh
0x0004D6B8	0x00000030	[ 10] __ZN3CCCD2Ev.eh
0x0004D6E8	0x00000030	[ 10] __ZN6CUDTCCD0Ev.eh
0x0004D718	0x00000030	[ 10] __ZN6CUDTCCD1Ev.eh
0x0004D748	0x00000030	[ 10] __ZN3CCC12setUserParamEPKcRKi.eh
0x0004D778	0x00000030	[ 10] __ZN3CCC11getPerfInfoEv.eh
0x0004D7A8	0x00000030	[ 10] __ZNK3CCC13sendCustomMsgER7CPacket.eh
0x0004D7D8	0x00000020	[ 11] CIE
0x0004D7F8	0x00000038	[ 11] __ZNK7CIPCompclEPK10CInfoBlockS2_.eh
0x0004D830	0x00000038	[ 11] __ZNK7CTSCompclEPK10CInfoBlockS2_.eh
0x0004D868	0x00000038	[ 11] __ZStL17__verify_groupingPKcmRKSs.eh
0x0004D8A0	0x00000038	[ 11] __ZNKSt23_Rb_tree_const_iteratorIP10CInfoBlockEneERKS2_.eh
0x0004D8D8	0x00000038	[ 11] __ZNKSt23_Rb_tree_const_iteratorIP10CInfoBlockEdeEv.eh
0x0004D910	0x00000038	[ 11] __ZNKSt23_Rb_tree_const_iteratorIP10CInfoBlockEeqERKS2_.eh
0x0004D948	0x00000038	[ 11] __ZNSt8_Rb_treeIP10CInfoBlockS1_St9_IdentityIS1_E7CIPCompSaIS1_EE8_M_beginEv.eh
0x0004D980	0x00000038	[ 11] __ZNSt8_Rb_treeIP10CInfoBlockS1_St9_IdentityIS1_E7CTSCompSaIS1_EE8_M_beginEv.eh
0x0004D9B8	0x00000038	[ 11] __ZNSt23_Rb_tree_const_iteratorIP10CInfoBlockEC1ERKSt17_Rb_tree_iteratorIS1_E.eh
0x0004D9F0	0x00000038	[ 11] __ZNSt14unary_functionIP10CInfoBlockS1_EC2Ev.eh
0x0004DA28	0x00000038	[ 11] __ZNSt9_IdentityIP10CInfoBlockEC1Ev.eh
0x0004DA60	0x00000038	[ 11] __ZNSt4pairISt23_Rb_tree_const_iteratorIP10CInfoBlockEbEC1ERKS3_RKb.eh
0x0004DA98	0x00000038	[ 11] __ZNKSt8_Rb_treeIP10CInfoBlockS1_St9_IdentityIS1_E7CTSCompSaIS1_EE4sizeEv.eh
0x0004DAD0	0x00000038	[ 11] __ZNKSt3setIP10CInfoBlock7CTSCompSaIS1_EE4sizeEv.eh
0x0004DB08	0x00000038	[ 11] __ZN9__gnu_cxx13new_allocatorIP10CInfoBlockEC2Ev.eh
0x0004DB40	0x00000038	[ 11] __ZNSaIP10CInfoBlockEC1Ev.eh
0x0004DB78	0x00000038	[ 11] __ZN9__gnu_cxx13new_allocatorIP10CInfoBlockED2Ev.eh
0x0004DBB0	0x00000038	[ 11] __ZNSaIP10CInfoBlockED1Ev.eh
0x0004DBE8	0x00000038	[ 11] __ZN9__gnu_cxx13new_allocatorISt13_Rb_tree_nodeIP10CInfoBlockEED2Ev.eh
0x0004DC20	0x00000038	[ 11] __ZNSaISt13_Rb_tree_nodeIP10CInfoBlockEED2Ev.eh
0x0004DC58	0x00000038	[ 11] __ZNSt8_Rb_treeIP10CInfoBlockS1_St9_IdentityIS1_E7CTSCompSaIS1_EE13_Rb_tree_implIS4_Lb0EED1Ev.eh
0x0004DC90	0x00000038	[ 11] __ZNSt8_Rb_treeIP10CInfoBlockS1_St9_IdentityIS1_E7CIPCompSaIS1_EE13_Rb_tree_implIS4_Lb0EED1Ev.eh
0x0004DCC8	0x00000038	[ 11] __ZNSaISt13_Rb_tree_nodeIP10CInfoBlockEED1Ev.eh
0x0004DD00	0x00000038	[ 11] __ZNSt8_Rb_treeIP10CInfoBlockS1_St9_IdentityIS1_E7CIPCompSaIS1_EE8_S_rightEPSt18_Rb_tree_node_base.eh
0x0004DD38	0x00000038	[ 11] __ZNSt8_Rb_treeIP10CInfoBlockS1_St9_IdentityIS1_E7CIPCompSaIS1_EE7_S_leftEPSt18_Rb_tree_node_base.eh
0x0004DD70	0x00000038	[ 11] __ZNSt8_Rb_treeIP10CInfoBlockS1_St9_IdentityIS1_E7CTSCompSaIS1_EE8_S_rightEPSt18_Rb_tree_node_base.eh
0x0004DDA8	0x00000038	[ 11] __ZNSt8_Rb_treeIP10CInfoBlockS1_St9_IdentityIS1_E7CTSCompSaIS1_EE7_S_leftEPSt18_Rb_tree_node_base.eh
0x0004DDE0	0x00000038	[ 11] __ZNSt23_Rb_tree_const_iteratorIP10CInfoBlockEC1EPKSt13_Rb_tree_nodeIS1_E.eh
0x0004DE18	0x00000038	[ 11] __ZNKSt8_Rb_treeIP10CInfoBlockS1_St9_IdentityIS1_E7CIPCompSaIS1_EE3endEv.eh
0x0004DE50	0x00000038	[ 11] __ZNKSt3setIP10CInfoBlock7CIPCompSaIS1_EE3endEv.eh
0x0004DE88	0x00000038	[ 11] __ZNKSt8_Rb_treeIP10CInfoBlockS1_St9_IdentityIS1_E7CTSCompSaIS1_EE5beginEv.eh
0x0004DEC0	0x00000038	[ 11] __ZNKSt3setIP10CInfoBlock7CTSCompSaIS1_EE5beginEv.eh
0x0004DEF8	0x00000038	[ 11] __ZNKSt8_Rb_treeIP10CInfoBlockS1_St9_IdentityIS1_E7CTSCompSaIS1_EE3endEv.eh
0x0004DF30	0x00000038	[ 11] __ZNKSt3setIP10CInfoBlock7CTSCompSaIS1_EE3endEv.eh
0x0004DF68	0x00000038	[ 11] __ZNSt8_Rb_treeIP10CInfoBlockS1_St9_IdentityIS1_E7CIPCompSaIS1_EE6_M_endEv.eh
0x0004DFA0	0x00000038	[ 11] __ZNSt17_Rb_tree_iteratorIP10CInfoBlockEC1EPSt13_Rb_tree_nodeIS1_E.eh
0x0004DFD8	0x00000038	[ 11] __ZNSt8_Rb_treeIP10CInfoBlockS1_St9_IdentityIS1_E7CIPCompSaIS1_EE3endEv.eh
0x0004E010	0x00000038	[ 11] __ZNKSt17_Rb_tree_iteratorIP10CInfoBlockEeqERKS2_.eh
0x0004E048	0x00000038	[ 11] __ZNKSt9_IdentityIP10CInfoBlockEclERKS1_.eh
0x0004E080	0x00000038	[ 11] __ZNSt8_Rb_treeIP10CInfoBlockS1_St9_IdentityIS1_E7CIPCompSaIS1_EE5beginEv.eh
0x0004E0B8	0x00000038	[ 11] __ZNSt4pairISt17_Rb_tree_iteratorIP10CInfoBlockEbEC1ERKS3_RKb.eh
0x0004E0F0	0x00000038	[ 11] __ZNSt8_Rb_treeIP10CInfoBlockS1_St9_IdentityIS1_E7CTSCompSaIS1_EE6_M_endEv.eh
0x0004E128	0x00000038	[ 11] __ZNSt8_Rb_treeIP10CInfoBlockS1_St9_IdentityIS1_E7CTSCompSaIS1_EE5beginEv.eh
0x0004E160	0x00000038	[ 11] __ZNKSt8_Rb_treeIP10CInfoBlockS1_St9_IdentityIS1_E7CIPCompSaIS1_EE4sizeEv.eh
0x0004E198	0x00000038	[ 11] __ZN9__gnu_cxx13new_allocatorISt13_Rb_tree_nodeIP10CInfoBlockEEC2Ev.eh
0x0004E1D0	0x00000038	[ 11] __ZNSaISt13_Rb_tree_nodeIP10CInfoBlockEEC1IS1_EERKSaIT_E.eh
0x0004E208	0x00000038	[ 11] __ZN9__gnu_cxx13new_allocatorIP10CInfoBlockE7destroyEPS2_.eh
0x0004E240	0x00000038	[ 11] __ZNSt8_Rb_treeIP10CInfoBlockS1_St9_IdentityIS1_E7CIPCompSaIS1_EE8_S_valueEPKSt13_Rb_tree_nodeIS1_E.eh
0x0004E278	0x00000038	[ 11] __ZNSt8_Rb_treeIP10CInfoBlockS1_St9_IdentityIS1_E7CIPCompSaIS1_EE6_S_keyEPKSt13_Rb_tree_nodeIS1_E.eh
0x0004E2B0	0x00000038	[ 11] __ZNSt8_Rb_treeIP10CInfoBlockS1_St9_IdentityIS1_E7CIPCompSaIS1_EE8_S_valueEPKSt18_Rb_tree_node_base.eh
0x0004E2E8	0x00000038	[ 11] __ZNSt8_Rb_treeIP10CInfoBlockS1_St9_IdentityIS1_E7CIPCompSaIS1_EE6_S_keyEPKSt18_Rb_tree_node_base.eh
0x0004E320	0x00000038	[ 11] __ZNSt8_Rb_treeIP10CInfoBlockS1_St9_IdentityIS1_E7CIPCompSaIS1_EE4findERKS1_.eh
0x0004E358	0x00000038	[ 11] __ZNSt3setIP10CInfoBlock7CIPCompSaIS1_EE4findERKS1_.eh
0x0004E390	0x00000038	[ 11] __ZNSt4pairISt17_Rb_tree_iteratorIP10CInfoBlockES3_EC1ERKS3_S6_.eh
0x0004E3C8	0x00000038	[ 11] __ZNSt8_Rb_treeIP10CInfoBlockS1_St9_IdentityIS1_E7CTSCompSaIS1_EE3endEv.eh
0x0004E400	0x00000038	[ 11] __ZNKSt17_Rb_tree_iteratorIP10CInfoBlockEneERKS2_.eh
0x0004E438	0x00000038	[ 11] __ZNSt8_Rb_treeIP10CInfoBlockS1_St9_IdentityIS1_E7CTSCompSaIS1_EE8_S_valueEPKSt13_Rb_tree_nodeIS1_E.eh
0x0004E470	0x00000038	[ 11] __ZNSt8_Rb_treeIP10CInfoBlockS1_St9_IdentityIS1_E7CTSCompSaIS1_EE6_S_keyEPKSt13_Rb_tree_nodeIS1_E.eh
0x0004E4A8	0x00000038	[ 11] __ZNSt8_Rb_treeIP10CInfoBlockS1_St9_IdentityIS1_E7CTSCompSaIS1_EE11upper_boundERKS1_.eh
0x0004E4E0	0x00000038	[ 11] __ZNSt8_Rb_treeIP10CInfoBlockS1_St9_IdentityIS1_E7CTSCompSaIS1_EE11lower_boundERKS1_.eh
0x0004E518	0x00000038	[ 11] __ZNSt8_Rb_treeIP10CInfoBlockS1_St9_IdentityIS1_E7CTSCompSaIS1_EE11equal_rangeERKS1_.eh
0x0004E550	0x00000038	[ 11] __ZNSt8_Rb_treeIP10CInfoBlockS1_St9_IdentityIS1_E7CTSCompSaIS1_EE8_S_valueEPKSt18_Rb_tree_node_base.eh
0x0004E588	0x00000038	[ 11] __ZNSt8_Rb_treeIP10CInfoBlockS1_St9_IdentityIS1_E7CTSCompSaIS1_EE6_S_keyEPKSt18_Rb_tree_node_base.eh
0x0004E5C0	0x00000038	[ 11] __ZNSt8_Rb_treeIP10CInfoBlockS1_St9_IdentityIS1_E7CIPCompSaIS1_EE11lower_boundERKS1_.eh
0x0004E5F8	0x00000038	[ 11] __ZNSt8_Rb_treeIP10CInfoBlockS1_St9_IdentityIS1_E7CIPCompSaIS1_EE11upper_boundERKS1_.eh
0x0004E630	0x00000038	[ 11] __ZNSt8_Rb_treeIP10CInfoBlockS1_St9_IdentityIS1_E7CIPCompSaIS1_EE11equal_rangeERKS1_.eh
0x0004E668	0x00000038	[ 11] __ZN9__gnu_cxx13new_allocatorISt13_Rb_tree_nodeIP10CInfoBlockEEC2ERKS5_.eh
0x0004E6A0	0x00000038	[ 11] __ZNSaISt13_Rb_tree_nodeIP10CInfoBlockEEC2ERKS3_.eh
0x0004E6D8	0x00000038	[ 11] __ZNSt8_Rb_treeIP10CInfoBlockS1_St9_IdentityIS1_E7CIPCompSaIS1_EE13_Rb_tree_implIS4_Lb0EEC1ERKSaISt13_Rb_tree_nodeIS1_EERKS4_.eh
0x0004E710	0x00000038	[ 11] __ZNSt8_Rb_treeIP10CInfoBlockS1_St9_IdentityIS1_E7CIPCompSaIS1_EEC1ERKS4_RKS5_.eh
0x0004E748	0x00000038	[ 11] __ZNSt3setIP10CInfoBlock7CIPCompSaIS1_EEC1Ev.eh
0x0004E780	0x00000038	[ 11] __ZNSt8_Rb_treeIP10CInfoBlockS1_St9_IdentityIS1_E7CTSCompSaIS1_EE13_Rb_tree_implIS4_Lb0EEC1ERKSaISt13_Rb_tree_nodeIS1_EERKS4_.eh
0x0004E7B8	0x00000038	[ 11] __ZNSt8_Rb_treeIP10CInfoBlockS1_St9_IdentityIS1_E7CTSCompSaIS1_EEC1ERKS4_RKS5_.eh
0x0004E7F0	0x00000038	[ 11] __ZNSt3setIP10CInfoBlock7CTSCompSaIS1_EEC1Ev.eh
0x0004E828	0x00000038	[ 11] __ZNKSt8_Rb_treeIP10CInfoBlockS1_St9_IdentityIS1_E7CIPCompSaIS1_EE21_M_get_Node_allocatorEv.eh
0x0004E860	0x00000038	[ 11] __ZNSaIP10CInfoBlockEC1ISt13_Rb_tree_nodeIS0_EEERKSaIT_E.eh
0x0004E898	0x00000040	[ 11] __ZNKSt8_Rb_treeIP10CInfoBlockS1_St9_IdentityIS1_E7CIPCompSaIS1_EE13get_allocatorEv.eh
0x0004E8D8	0x00000038	[ 11] __ZNKSt8_Rb_treeIP10CInfoBlockS1_St9_IdentityIS1_E7CTSCompSaIS1_EE21_M_get_Node_allocatorEv.eh
0x0004E910	0x00000040	[ 11] __ZNKSt8_Rb_treeIP10CInfoBlockS1_St9_IdentityIS1_E7CTSCompSaIS1_EE13get_allocatorEv.eh
0x0004E950	0x00000038	[ 11] __ZNSt8_Rb_treeIP10CInfoBlockS1_St9_IdentityIS1_E7CTSCompSaIS1_EE11_M_leftmostEv.eh
0x0004E988	0x00000038	[ 11] __ZNSt8_Rb_treeIP10CInfoBlockS1_St9_IdentityIS1_E7CTSCompSaIS1_EE7_M_rootEv.eh
0x0004E9C0	0x00000038	[ 11] __ZNSt8_Rb_treeIP10CInfoBlockS1_St9_IdentityIS1_E7CTSCompSaIS1_EE12_M_rightmostEv.eh
0x0004E9F8	0x00000038	[ 11] __ZN9__gnu_cxx13new_allocatorIP10CInfoBlockE9constructEPS2_RKS2_.eh
0x0004EA30	0x00000038	[ 11] __ZNSt8_Rb_treeIP10CInfoBlockS1_St9_IdentityIS1_E7CIPCompSaIS1_EE11_M_leftmostEv.eh
0x0004EA68	0x00000038	[ 11] __ZNSt8_Rb_treeIP10CInfoBlockS1_St9_IdentityIS1_E7CIPCompSaIS1_EE7_M_rootEv.eh
0x0004EAA0	0x00000038	[ 11] __ZNSt8_Rb_treeIP10CInfoBlockS1_St9_IdentityIS1_E7CIPCompSaIS1_EE12_M_rightmostEv.eh
0x0004EAD8	0x00000038	[ 11] __ZNK9__gnu_cxx13new_allocatorISt13_Rb_tree_nodeIP10CInfoBlockEE8max_sizeEv.eh
0x0004EB10	0x00000038	[ 11] __ZN6CCache7convertEPK8sockaddrRKiPj.eh
0x0004EB48	0x00000038	[ 11] __ZN6CCache6lookupEPK8sockaddrRKiP10CInfoBlock.eh
0x0004EB80	0x00000038	[ 11] __ZN9__gnu_cxx13new_allocatorISt13_Rb_tree_nodeIP10CInfoBlockEE10deallocateEPS4_m.eh
0x0004EBB8	0x00000038	[ 11] __ZNSt8_Rb_treeIP10CInfoBlockS1_St9_IdentityIS1_E7CTSCompSaIS1_EE11_M_put_nodeEPSt13_Rb_tree_nodeIS1_E.eh
0x0004EBF0	0x00000038	[ 11] __ZNSt8_Rb_treeIP10CInfoBlockS1_St9_IdentityIS1_E7CTSCompSaIS1_EE15_M_destroy_nodeEPSt13_Rb_tree_nodeIS1_E.eh
0x0004EC28	0x00000038	[ 11] __ZNSt8_Rb_treeIP10CInfoBlockS1_St9_IdentityIS1_E7CTSCompSaIS1_EE8_M_eraseEPSt13_Rb_tree_nodeIS1_E.eh
0x0004EC60	0x00000038	[ 11] __ZNSt8_Rb_treeIP10CInfoBlockS1_St9_IdentityIS1_E7CTSCompSaIS1_EE5clearEv.eh
0x0004EC98	0x00000038	[ 11] __ZNSt8_Rb_treeIP10CInfoBlockS1_St9_IdentityIS1_E7CTSCompSaIS1_EED1Ev.eh
0x0004ECD0	0x00000038	[ 11] __ZNSt3setIP10CInfoBlock7CTSCompSaIS1_EED1Ev.eh
0x0004ED08	0x00000038	[ 11] __ZNSt8_Rb_treeIP10CInfoBlockS1_St9_IdentityIS1_E7CIPCompSaIS1_EE11_M_put_nodeEPSt13_Rb_tree_nodeIS1_E.eh
0x0004ED40	0x00000038	[ 11] __ZNSt8_Rb_treeIP10CInfoBlockS1_St9_IdentityIS1_E7CIPCompSaIS1_EE15_M_destroy_nodeEPSt13_Rb_tree_nodeIS1_E.eh
0x0004ED78	0x00000038	[ 11] __ZNSt8_Rb_treeIP10CInfoBlockS1_St9_IdentityIS1_E7CIPCompSaIS1_EE8_M_eraseEPSt13_Rb_tree_nodeIS1_E.eh
0x0004EDB0	0x00000038	[ 11] __ZNSt8_Rb_treeIP10CInfoBlockS1_St9_IdentityIS1_E7CIPCompSaIS1_EE5clearEv.eh
0x0004EDE8	0x00000038	[ 11] __ZNSt8_Rb_treeIP10CInfoBlockS1_St9_IdentityIS1_E7CIPCompSaIS1_EED1Ev.eh
0x0004EE20	0x00000038	[ 11] __ZNSt3setIP10CInfoBlock7CIPCompSaIS1_EED1Ev.eh
0x0004EE58	0x00000038	[ 11] __ZNSt17_Rb_tree_iteratorIP10CInfoBlockEppEi.eh
0x0004EE90	0x00000038	[ 11] __ZNSt8_Rb_treeIP10CInfoBlockS1_St9_IdentityIS1_E7CTSCompSaIS1_EE5eraseESt17_Rb_tree_iteratorIS1_E.eh
0x0004EEC8	0x00000038	[ 11] __ZNSt8_Rb_treeIP10CInfoBlockS1_St9_IdentityIS1_E7CTSCompSaIS1_EE5eraseESt17_Rb_tree_iteratorIS1_ES8_.eh
0x0004EF00	0x00000038	[ 11] __ZNSt8_Rb_treeIP10CInfoBlockS1_St9_IdentityIS1_E7CTSCompSaIS1_EE5eraseERKS1_.eh
0x0004EF38	0x00000038	[ 11] __ZNSt3setIP10CInfoBlock7CTSCompSaIS1_EE5eraseERKS1_.eh
0x0004EF70	0x00000038	[ 11] __ZNSt8_Rb_treeIP10CInfoBlockS1_St9_IdentityIS1_E7CIPCompSaIS1_EE5eraseESt23_Rb_tree_const_iteratorIS1_E.eh
0x0004EFA8	0x00000038	[ 11] __ZNSt3setIP10CInfoBlock7CIPCompSaIS1_EE5eraseESt23_Rb_tree_const_iteratorIS1_E.eh
0x0004EFE0	0x00000038	[ 11] __ZNSt8_Rb_treeIP10CInfoBlockS1_St9_IdentityIS1_E7CIPCompSaIS1_EE5eraseESt17_Rb_tree_iteratorIS1_E.eh
0x0004F018	0x00000038	[ 11] __ZNSt8_Rb_treeIP10CInfoBlockS1_St9_IdentityIS1_E7CIPCompSaIS1_EE5eraseESt17_Rb_tree_iteratorIS1_ES8_.eh
0x0004F050	0x00000038	[ 11] __ZNSt8_Rb_treeIP10CInfoBlockS1_St9_IdentityIS1_E7CIPCompSaIS1_EE5eraseERKS1_.eh
0x0004F088	0x00000038	[ 11] __ZNSt3setIP10CInfoBlock7CIPCompSaIS1_EE5eraseERKS1_.eh
0x0004F0C0	0x00000038	[ 11] __ZNSt8_Rb_treeIP10CInfoBlockS1_St9_IdentityIS1_E7CTSCompSaIS1_EE5eraseESt23_Rb_tree_const_iteratorIS1_E.eh
0x0004F0F8	0x00000038	[ 11] __ZNSt3setIP10CInfoBlock7CTSCompSaIS1_EE5eraseESt23_Rb_tree_const_iteratorIS1_E.eh
0x0004F130	0x00000038	[ 11] __ZNSt17_Rb_tree_iteratorIP10CInfoBlockEmmEv.eh
0x0004F168	0x00000038	[ 11] __ZN9__gnu_cxx13new_allocatorISt13_Rb_tree_nodeIP10CInfoBlockEE8allocateEmPKv.eh
0x0004F1A0	0x00000038	[ 11] __ZNSt8_Rb_treeIP10CInfoBlockS1_St9_IdentityIS1_E7CIPCompSaIS1_EE11_M_get_nodeEv.eh
0x0004F1D8	0x00000038	[ 11] __ZNSt8_Rb_treeIP10CInfoBlockS1_St9_IdentityIS1_E7CIPCompSaIS1_EE14_M_create_nodeERKS1_.eh
0x0004F210	0x00000038	[ 11] __ZNSt8_Rb_treeIP10CInfoBlockS1_St9_IdentityIS1_E7CIPCompSaIS1_EE9_M_insertEPSt18_Rb_tree_node_baseS8_RKS1_.eh
0x0004F248	0x00000038	[ 11] __ZNSt8_Rb_treeIP10CInfoBlockS1_St9_IdentityIS1_E7CIPCompSaIS1_EE16_M_insert_uniqueERKS1_.eh
0x0004F280	0x00000038	[ 11] __ZNSt3setIP10CInfoBlock7CIPCompSaIS1_EE6insertERKS1_.eh
0x0004F2B8	0x00000038	[ 11] __ZNSt8_Rb_treeIP10CInfoBlockS1_St9_IdentityIS1_E7CTSCompSaIS1_EE11_M_get_nodeEv.eh
0x0004F2F0	0x00000038	[ 11] __ZNSt8_Rb_treeIP10CInfoBlockS1_St9_IdentityIS1_E7CTSCompSaIS1_EE14_M_create_nodeERKS1_.eh
0x0004F328	0x00000038	[ 11] __ZNSt8_Rb_treeIP10CInfoBlockS1_St9_IdentityIS1_E7CTSCompSaIS1_EE9_M_insertEPSt18_Rb_tree_node_baseS8_RKS1_.eh
0x0004F360	0x00000038	[ 11] __ZNSt8_Rb_treeIP10CInfoBlockS1_St9_IdentityIS1_E7CTSCompSaIS1_EE16_M_insert_uniqueERKS1_.eh
0x0004F398	0x00000038	[ 11] __ZNSt3setIP10CInfoBlock7CTSCompSaIS1_EE6insertERKS1_.eh
0x0004F3D0	0x00000038	[ 11] __ZN6CCache6updateEPK8sockaddrRKiP10CInfoBlock.eh
0x0004F408	0x00000038	[ 11] __ZNSt23_Rb_tree_const_iteratorIP10CInfoBlockEppEv.eh
0x0004F440	0x00000038	[ 11] __ZN6CCacheD1Ev.eh
0x0004F478	0x00000038	[ 11] __ZN6CCacheD2Ev.eh
0x0004F4B0	0x00000038	[ 11] __ZN6CCacheC1ERKj.eh
0x0004F4E8	0x00000038	[ 11] __ZN6CCacheC2ERKj.eh
0x0004F520	0x00000038	[ 11] __ZN6CCacheC1Ev.eh
0x0004F558	0x00000038	[ 11] __ZN6CCacheC2Ev.eh
0x0004F590	0x00000020	[ 12] CIE
0x0004F5B0	0x00000038	[ 12] __ZN10CSndBuffer8readDataEPPcRi.eh
0x0004F5E8	0x00000038	[ 12] __ZNK10CSndBuffer14getCurrBufSizeEv.eh
0x0004F620	0x00000038	[ 12] __ZN10CRcvBuffer7addDataEP5CUniti.eh
0x0004F658	0x00000038	[ 12] __ZNK10CRcvBuffer14getRcvDataSizeEv.eh
0x0004F690	0x00000038	[ 12] __ZNK10CRcvBuffer15getAvailBufSizeEv.eh
0x0004F6C8	0x00000038	[ 12] __ZN10CRcvBuffer7dropMsgERKi.eh
0x0004F700	0x00000038	[ 12] __ZStL17__verify_groupingPKcmRKSs.eh
0x0004F738	0x00000038	[ 12] __ZN10CRcvBuffer7scanMsgERiS0_Rb.eh
0x0004F770	0x00000038	[ 12] __ZN10CRcvBuffer12getRcvMsgNumEv.eh
0x0004F7A8	0x00000038	[ 12] __ZN10CRcvBuffer7readMsgEPcRKi.eh
0x0004F7E0	0x00000038	[ 12] __ZN10CRcvBuffer10readBufferEPcRKi.eh
0x0004F818	0x00000038	[ 12] __ZN10CRcvBuffer7ackDataERKi.eh
0x0004F850	0x00000038	[ 12] __ZN10CRcvBuffer16readBufferToFileERSt13basic_fstreamIcSt11char_traitsIcEERKi.eh
0x0004F888	0x00000038	[ 12] __ZN10CRcvBufferD1Ev.eh
0x0004F8C0	0x00000038	[ 12] __ZN10CRcvBufferD2Ev.eh
0x0004F8F8	0x00000038	[ 12] __ZN10CRcvBufferC1ERKiP10CUnitQueue.eh
0x0004F930	0x00000038	[ 12] __ZN10CRcvBufferC2ERKiP10CUnitQueue.eh
0x0004F968	0x00000038	[ 12] __ZN10CRcvBufferC1EP10CUnitQueue.eh
0x0004F9A0	0x00000038	[ 12] __ZN10CRcvBufferC2EP10CUnitQueue.eh
0x0004F9D8	0x00000038	[ 12] __ZN10CSndBuffer8increaseEv.eh
0x0004FA10	0x00000038	[ 12] __ZN10CSndBuffer7ackDataERKi.eh
0x0004FA48	0x00000038	[ 12] __ZN10CSndBuffer8readDataEPPciRiS2_.eh
0x0004FA80	0x00000038	[ 12] __ZN10CSndBuffer17addBufferFromFileERSt13basic_fstreamIcSt11char_traitsIcEERKi.eh
0x0004FAB8	0x00000038	[ 12] __ZN10CSndBuffer9addBufferEPKcRKiS3_RKb.eh
0x0004FAF0	0x00000038	[ 12] __ZN10CSndBufferD1Ev.eh
0x0004FB28	0x00000038	[ 12] __ZN10CSndBufferD2Ev.eh
0x0004FB60	0x00000038	[ 12] __ZN10CSndBufferC1ERKiS1_.eh
0x0004FB98	0x00000038	[ 12] __ZN10CSndBufferC2ERKiS1_.eh
0x0004FBD0	0x00000020	[ 13] CIE
0x0004FBF0	0x00000038	[ 13] __ZL12_OSSwapInt16t.eh
0x0004FC28	0x00000038	[ 13] __ZN10CUDTUnited10TLSDestroyEPv.eh
0x0004FC60	0x00000038	[ 13] __ZStL17__verify_groupingPKcmRKSs.eh
0x0004FC98	0x00000038	[ 13] __ZNSt15binary_functionIxxbEC2Ev.eh
0x0004FCD0	0x00000038	[ 13] __ZNSt4lessIxEC1Ev.eh
0x0004FD08	0x00000038	[ 13] __ZNKSt17_Rb_tree_iteratorISt4pairIKiP10CUDTSocketEEeqERKS5_.eh
0x0004FD40	0x00000038	[ 13] __ZNKSt17_Rb_tree_iteratorISt4pairIKiP10CUDTSocketEEptEv.eh
0x0004FD78	0x00000038	[ 13] __ZNSt4pairIiP10CUDTSocketEC1ERKiRKS1_.eh
0x0004FDB0	0x00000038	[ 13] __ZNSt4pairIKiP10CUDTSocketEC1IiS2_EERKS_IT_T0_E.eh
0x0004FDE8	0x00000038	[ 13] __ZN9__gnu_cxx17__normal_iteratorIPP10CUDTSocketSt6vectorIS2_SaIS2_EEEppEv.eh
0x0004FE20	0x00000038	[ 13] __ZNK9__gnu_cxx17__normal_iteratorIPP10CUDTSocketSt6vectorIS2_SaIS2_EEEdeEv.eh
0x0004FE58	0x00000038	[ 13] __ZN9__gnu_cxx17__normal_iteratorIPKiSt6vectorIiSaIiEEEppEv.eh
0x0004FE90	0x00000038	[ 13] __ZNK9__gnu_cxx17__normal_iteratorIPKiSt6vectorIiSaIiEEEdeEv.eh
0x0004FEC8	0x00000038	[ 13] __ZNKSt17_Rb_tree_iteratorISt4pairIKxSt3setIiSt4lessIiESaIiEEEEeqERKS8_.eh
0x0004FF00	0x00000038	[ 13] __ZNKSt17_Rb_tree_iteratorISt4pairIKxSt3setIiSt4lessIiESaIiEEEEptEv.eh
0x0004FF38	0x00000038	[ 13] __ZNKSt17_Rb_tree_iteratorISt4pairIKiP10CUDTSocketEEneERKS5_.eh
0x0004FF70	0x00000038	[ 13] __ZNKSt17_Rb_tree_iteratorISt4pairIKxSt3setIiSt4lessIiESaIiEEEEneERKS8_.eh
0x0004FFA8	0x00000038	[ 13] __ZNSt17_Rb_tree_iteratorISt4pairIKi12CMultiplexerEEC1Ev.eh
0x0004FFE0	0x00000038	[ 13] __ZNKSt17_Rb_tree_iteratorISt4pairIKi12CMultiplexerEEeqERKS4_.eh
0x00050018	0x00000038	[ 13] __ZNKSt17_Rb_tree_iteratorISt4pairIKi12CMultiplexerEEptEv.eh
0x00050050	0x00000038	[ 13] __ZNKSt17_Rb_tree_iteratorISt4pairIKi12CMultiplexerEEneERKS4_.eh
0x00050088	0x00000038	[ 13] __ZNSt8_Rb_treeIiSt4pairIKiP10CUDTSocketESt10_Select1stIS4_ESt4lessIiESaIS4_EE8_M_beginEv.eh
0x000500C0	0x00000038	[ 13] __ZNSt8_Rb_treeIxSt4pairIKxSt3setIiSt4lessIiESaIiEEESt10_Select1stIS7_ES3_IxESaIS7_EE8_M_beginEv.eh
0x000500F8	0x00000038	[ 13] __ZNSt8_Rb_treeIiSt4pairIKi12CMultiplexerESt10_Select1stIS3_ESt4lessIiESaIS3_EE8_M_beginEv.eh
0x00050130	0x00000038	[ 13] __ZNKSt17_Rb_tree_iteratorISt4pairIKiP10CUDTSocketEEdeEv.eh
0x00050168	0x00000038	[ 13] __ZNSt4pairIKiP10CUDTSocketEC1ERS0_RKS2_.eh
0x000501A0	0x00000038	[ 13] __ZNKSt17_Rb_tree_iteratorISt4pairIKxSt3setIiSt4lessIiESaIiEEEEdeEv.eh
0x000501D8	0x00000038	[ 13] __ZNKSt4lessIxEclERKxS2_.eh
0x00050210	0x00000038	[ 13] __ZNSt14unary_functionISt4pairIKiP10CUDTSocketES1_EC2Ev.eh
0x00050248	0x00000038	[ 13] __ZNSt10_Select1stISt4pairIKiP10CUDTSocketEEC1Ev.eh
0x00050280	0x00000038	[ 13] __ZN9__gnu_cxx13new_allocatorIP10CUDTSocketEC2Ev.eh
0x000502B8	0x00000038	[ 13] __ZNSaIP10CUDTSocketEC1Ev.eh
0x000502F0	0x00000038	[ 13] __ZN9__gnu_cxx13new_allocatorIP10CUDTSocketED2Ev.eh
0x00050328	0x00000038	[ 13] __ZNSaIP10CUDTSocketED1Ev.eh
0x00050360	0x00000038	[ 13] __ZNSaIP10CUDTSocketED2Ev.eh
0x00050398	0x00000038	[ 13] __ZN9__gnu_cxx13new_allocatorIP10CUDTSocketEC2ERKS3_.eh
0x000503D0	0x00000038	[ 13] __ZNSaIP10CUDTSocketEC2ERKS1_.eh
0x00050408	0x00000038	[ 13] __ZNSaIP10CUDTSocketEC1ERKS1_.eh
0x00050440	0x00000038	[ 13] __ZNSt12_Vector_baseIP10CUDTSocketSaIS1_EE12_Vector_implD1Ev.eh
0x00050478	0x00000038	[ 13] __ZNSt12_Vector_baseIP10CUDTSocketSaIS1_EE19_M_get_Tp_allocatorEv.eh
0x000504B0	0x00000038	[ 13] __ZN9__gnu_cxx17__normal_iteratorIPP10CUDTSocketSt6vectorIS2_SaIS2_EEEC1ERKS3_.eh
0x000504E8	0x00000038	[ 13] __ZNSt6vectorIP10CUDTSocketSaIS1_EE5beginEv.eh
0x00050520	0x00000038	[ 13] __ZNSt6vectorIP10CUDTSocketSaIS1_EE3endEv.eh
0x00050558	0x00000038	[ 13] __ZN9__gnu_cxx13new_allocatorIP10CUDTSocketE9constructEPS2_RKS2_.eh
0x00050590	0x00000038	[ 13] __ZNK9__gnu_cxx17__normal_iteratorIPP10CUDTSocketSt6vectorIS2_SaIS2_EEE4baseEv.eh
0x000505C8	0x00000038	[ 13] __ZN9__gnu_cxxmiIPP10CUDTSocketSt6vectorIS2_SaIS2_EEEENS_17__normal_iteratorIT_T0_E15difference_typeERKSA_SD_.eh
0x00050600	0x00000038	[ 13] __ZN9__gnu_cxxeqIPP10CUDTSocketSt6vectorIS2_SaIS2_EEEEbRKNS_17__normal_iteratorIT_T0_EESC_.eh
0x00050638	0x00000038	[ 13] __ZN9__gnu_cxxneIPP10CUDTSocketSt6vectorIS2_SaIS2_EEEEbRKNS_17__normal_iteratorIT_T0_EESC_.eh
0x00050670	0x00000038	[ 13] __ZN9__gnu_cxx17__normal_iteratorIPKiSt6vectorIiSaIiEEEC1ERKS2_.eh
0x000506A8	0x00000038	[ 13] __ZNKSt6vectorIiSaIiEE5beginEv.eh
0x000506E0	0x00000038	[ 13] __ZNKSt6vectorIiSaIiEE3endEv.eh
0x00050718	0x00000038	[ 13] __ZNK9__gnu_cxx17__normal_iteratorIPKiSt6vectorIiSaIiEEE4baseEv.eh
0x00050750	0x00000038	[ 13] __ZN9__gnu_cxxneIPKiSt6vectorIiSaIiEEEEbRKNS_17__normal_iteratorIT_T0_EESB_.eh
0x00050788	0x00000038	[ 13] __ZNKSt17_Rb_tree_iteratorISt4pairIKi12CMultiplexerEEdeEv.eh
0x000507C0	0x00000038	[ 13] __ZNSt4pairIKi12CMultiplexerEC1ERS0_RKS1_.eh
0x000507F8	0x00000038	[ 13] __ZNKSt8_Rb_treeIiSt4pairIKiP10CUDTSocketESt10_Select1stIS4_ESt4lessIiESaIS4_EE5emptyEv.eh
0x00050830	0x00000038	[ 13] __ZNKSt3mapIiP10CUDTSocketSt4lessIiESaISt4pairIKiS1_EEE5emptyEv.eh
0x00050868	0x00000038	[ 13] __ZN9__gnu_cxx13new_allocatorISt4pairIKiP10CUDTSocketEEC2Ev.eh
0x000508A0	0x00000038	[ 13] __ZNSaISt4pairIKiP10CUDTSocketEEC1Ev.eh
0x000508D8	0x00000038	[ 13] __ZN9__gnu_cxx13new_allocatorISt4pairIKiP10CUDTSocketEED2Ev.eh
0x00050910	0x00000038	[ 13] __ZNSaISt4pairIKiP10CUDTSocketEED1Ev.eh
0x00050948	0x00000038	[ 13] __ZN9__gnu_cxx13new_allocatorISt13_Rb_tree_nodeISt4pairIKiP10CUDTSocketEEED2Ev.eh
0x00050980	0x00000038	[ 13] __ZNSaISt13_Rb_tree_nodeISt4pairIKiP10CUDTSocketEEED2Ev.eh
0x000509B8	0x00000038	[ 13] __ZNSt8_Rb_treeIiSt4pairIKiP10CUDTSocketESt10_Select1stIS4_ESt4lessIiESaIS4_EE13_Rb_tree_implIS8_Lb0EED1Ev.eh
0x000509F0	0x00000038	[ 13] __ZNSaISt13_Rb_tree_nodeISt4pairIKiP10CUDTSocketEEED1Ev.eh
0x00050A28	0x00000038	[ 13] __ZNSt8_Rb_treeIiSt4pairIKiP10CUDTSocketESt10_Select1stIS4_ESt4lessIiESaIS4_EE8_S_rightEPSt18_Rb_tree_node_base.eh
0x00050A60	0x00000038	[ 13] __ZNSt8_Rb_treeIiSt4pairIKiP10CUDTSocketESt10_Select1stIS4_ESt4lessIiESaIS4_EE7_S_leftEPSt18_Rb_tree_node_base.eh
0x00050A98	0x00000038	[ 13] __ZN9__gnu_cxx13new_allocatorISt4pairIKxSt3setIiSt4lessIiESaIiEEEEC2Ev.eh
0x00050AD0	0x00000038	[ 13] __ZNSaISt4pairIKxSt3setIiSt4lessIiESaIiEEEEC1Ev.eh
0x00050B08	0x00000038	[ 13] __ZN9__gnu_cxx13new_allocatorISt4pairIKxSt3setIiSt4lessIiESaIiEEEED2Ev.eh
0x00050B40	0x00000038	[ 13] __ZNSaISt4pairIKxSt3setIiSt4lessIiESaIiEEEED1Ev.eh
0x00050B78	0x00000038	[ 13] __ZN9__gnu_cxx13new_allocatorISt13_Rb_tree_nodeISt4pairIKxSt3setIiSt4lessIiESaIiEEEEED2Ev.eh
0x00050BB0	0x00000038	[ 13] __ZNSaISt13_Rb_tree_nodeISt4pairIKxSt3setIiSt4lessIiESaIiEEEEED2Ev.eh
0x00050BE8	0x00000038	[ 13] __ZNSt8_Rb_treeIxSt4pairIKxSt3setIiSt4lessIiESaIiEEESt10_Select1stIS7_ES3_IxESaIS7_EE13_Rb_tree_implISA_Lb0EED1Ev.eh
0x00050C20	0x00000038	[ 13] __ZNSaISt13_Rb_tree_nodeISt4pairIKxSt3setIiSt4lessIiESaIiEEEEED1Ev.eh
0x00050C58	0x00000038	[ 13] __ZNSt8_Rb_treeIxSt4pairIKxSt3setIiSt4lessIiESaIiEEESt10_Select1stIS7_ES3_IxESaIS7_EE8_S_rightEPSt18_Rb_tree_node_base.eh
0x00050C90	0x00000038	[ 13] __ZNSt8_Rb_treeIxSt4pairIKxSt3setIiSt4lessIiESaIiEEESt10_Select1stIS7_ES3_IxESaIS7_EE7_S_leftEPSt18_Rb_tree_node_base.eh
0x00050CC8	0x00000038	[ 13] __ZN9__gnu_cxx13new_allocatorISt4pairIKi12CMultiplexerEEC2Ev.eh
0x00050D00	0x00000038	[ 13] __ZNSaISt4pairIKi12CMultiplexerEEC1Ev.eh
0x00050D38	0x00000038	[ 13] __ZN9__gnu_cxx13new_allocatorISt4pairIKi12CMultiplexerEED2Ev.eh
0x00050D70	0x00000038	[ 13] __ZNSaISt4pairIKi12CMultiplexerEED1Ev.eh
0x00050DA8	0x00000038	[ 13] __ZN9__gnu_cxx13new_allocatorISt13_Rb_tree_nodeISt4pairIKi12CMultiplexerEEED2Ev.eh
0x00050DE0	0x00000038	[ 13] __ZNSaISt13_Rb_tree_nodeISt4pairIKi12CMultiplexerEEED2Ev.eh
0x00050E18	0x00000038	[ 13] __ZNSt8_Rb_treeIiSt4pairIKi12CMultiplexerESt10_Select1stIS3_ESt4lessIiESaIS3_EE13_Rb_tree_implIS7_Lb0EED1Ev.eh
0x00050E50	0x00000038	[ 13] __ZNSaISt13_Rb_tree_nodeISt4pairIKi12CMultiplexerEEED1Ev.eh
0x00050E88	0x00000038	[ 13] __ZNSt8_Rb_treeIiSt4pairIKi12CMultiplexerESt10_Select1stIS3_ESt4lessIiESaIS3_EE8_S_rightEPSt18_Rb_tree_node_base.eh
0x00050EC0	0x00000038	[ 13] __ZNSt8_Rb_treeIiSt4pairIKi12CMultiplexerESt10_Select1stIS3_ESt4lessIiESaIS3_EE7_S_leftEPSt18_Rb_tree_node_base.eh
0x00050EF8	0x00000038	[ 13] __ZNKSt8_Rb_treeIiSt4pairIKiP10CUDTSocketESt10_Select1stIS4_ESt4lessIiESaIS4_EE8key_compEv.eh
0x00050F30	0x00000038	[ 13] __ZNKSt3mapIiP10CUDTSocketSt4lessIiESaISt4pairIKiS1_EEE8key_compEv.eh
0x00050F68	0x00000038	[ 13] __ZNKSt8_Rb_treeIxSt4pairIKxSt3setIiSt4lessIiESaIiEEESt10_Select1stIS7_ES3_IxESaIS7_EE8key_compEv.eh
0x00050FA0	0x00000038	[ 13] __ZNKSt3mapIxSt3setIiSt4lessIiESaIiEES1_IxESaISt4pairIKxS4_EEE8key_compEv.eh
0x00050FD8	0x00000038	[ 13] __ZNSt14unary_functionISt4pairIKxSt3setIiSt4lessIiESaIiEEES1_EC2Ev.eh
0x00051010	0x00000038	[ 13] __ZNSt10_Select1stISt4pairIKxSt3setIiSt4lessIiESaIiEEEEC1Ev.eh
0x00051048	0x00000038	[ 13] __ZNSt8_Rb_treeIiSt4pairIKiP10CUDTSocketESt10_Select1stIS4_ESt4lessIiESaIS4_EE6_M_endEv.eh
0x00051080	0x00000038	[ 13] __ZNSt17_Rb_tree_iteratorISt4pairIKiP10CUDTSocketEEC1EPSt13_Rb_tree_nodeIS4_E.eh
0x000510B8	0x00000038	[ 13] __ZNSt8_Rb_treeIiSt4pairIKiP10CUDTSocketESt10_Select1stIS4_ESt4lessIiESaIS4_EE5beginEv.eh
0x000510F0	0x00000038	[ 13] __ZNSt3mapIiP10CUDTSocketSt4lessIiESaISt4pairIKiS1_EEE5beginEv.eh
0x00051128	0x00000038	[ 13] __ZNSt8_Rb_treeIiSt4pairIKiP10CUDTSocketESt10_Select1stIS4_ESt4lessIiESaIS4_EE3endEv.eh
0x00051160	0x00000038	[ 13] __ZNSt3mapIiP10CUDTSocketSt4lessIiESaISt4pairIKiS1_EEE3endEv.eh
0x00051198	0x00000038	[ 13] __ZNKSt8_Rb_treeIiSt4pairIKiP10CUDTSocketESt10_Select1stIS4_ESt4lessIiESaIS4_EE4sizeEv.eh
0x000511D0	0x00000038	[ 13] __ZNKSt10_Select1stISt4pairIKiP10CUDTSocketEEclERKS4_.eh
0x00051208	0x00000038	[ 13] __ZNSt4pairISt17_Rb_tree_iteratorIS_IKiP10CUDTSocketEEbEC1ERKS5_RKb.eh
0x00051240	0x00000038	[ 13] __ZNSt12_Vector_baseIP10CUDTSocketSaIS1_EE12_Vector_implC1ERKS2_.eh
0x00051278	0x00000038	[ 13] __ZNSt12_Vector_baseIP10CUDTSocketSaIS1_EEC2ERKS2_.eh
0x000512B0	0x00000038	[ 13] __ZNSt6vectorIP10CUDTSocketSaIS1_EEC1ERKS2_.eh
0x000512E8	0x00000038	[ 13] __ZNKSt6vectorIP10CUDTSocketSaIS1_EE4sizeEv.eh
0x00051320	0x00000038	[ 13] __ZNSt8_Rb_treeIxSt4pairIKxSt3setIiSt4lessIiESaIiEEESt10_Select1stIS7_ES3_IxESaIS7_EE6_M_endEv.eh
0x00051358	0x00000038	[ 13] __ZNSt17_Rb_tree_iteratorISt4pairIKxSt3setIiSt4lessIiESaIiEEEEC1EPSt13_Rb_tree_nodeIS7_E.eh
0x00051390	0x00000038	[ 13] __ZNSt8_Rb_treeIxSt4pairIKxSt3setIiSt4lessIiESaIiEEESt10_Select1stIS7_ES3_IxESaIS7_EE3endEv.eh
0x000513C8	0x00000038	[ 13] __ZNSt3mapIxSt3setIiSt4lessIiESaIiEES1_IxESaISt4pairIKxS4_EEE3endEv.eh
0x00051400	0x00000038	[ 13] __ZNSt8_Rb_treeIiSt4pairIKi12CMultiplexerESt10_Select1stIS3_ESt4lessIiESaIS3_EE6_M_endEv.eh
0x00051438	0x00000038	[ 13] __ZNSt14unary_functionISt4pairIKi12CMultiplexerES1_EC2Ev.eh
0x00051470	0x00000038	[ 13] __ZNSt10_Select1stISt4pairIKi12CMultiplexerEEC1Ev.eh
0x000514A8	0x00000038	[ 13] __ZNSt17_Rb_tree_iteratorISt4pairIKi12CMultiplexerEEC1EPSt13_Rb_tree_nodeIS3_E.eh
0x000514E0	0x00000038	[ 13] __ZNSt8_Rb_treeIiSt4pairIKi12CMultiplexerESt10_Select1stIS3_ESt4lessIiESaIS3_EE5beginEv.eh
0x00051518	0x00000038	[ 13] __ZNSt3mapIi12CMultiplexerSt4lessIiESaISt4pairIKiS0_EEE5beginEv.eh
0x00051550	0x00000038	[ 13] __ZNSt8_Rb_treeIiSt4pairIKi12CMultiplexerESt10_Select1stIS3_ESt4lessIiESaIS3_EE3endEv.eh
0x00051588	0x00000038	[ 13] __ZNSt3mapIi12CMultiplexerSt4lessIiESaISt4pairIKiS0_EEE3endEv.eh
0x000515C0	0x00000038	[ 13] __ZNKSt8_Rb_treeIiSt4pairIKi12CMultiplexerESt10_Select1stIS3_ESt4lessIiESaIS3_EE8key_compEv.eh
0x000515F8	0x00000038	[ 13] __ZNKSt3mapIi12CMultiplexerSt4lessIiESaISt4pairIKiS0_EEE8key_compEv.eh
0x00051630	0x00000038	[ 13] __ZNSt8_Rb_treeIiSt4pairIKiP10CUDTSocketESt10_Select1stIS4_ESt4lessIiESaIS4_EE11_M_leftmostEv.eh
0x00051668	0x00000038	[ 13] __ZNSt8_Rb_treeIiSt4pairIKiP10CUDTSocketESt10_Select1stIS4_ESt4lessIiESaIS4_EE7_M_rootEv.eh
0x000516A0	0x00000038	[ 13] __ZNSt8_Rb_treeIiSt4pairIKiP10CUDTSocketESt10_Select1stIS4_ESt4lessIiESaIS4_EE12_M_rightmostEv.eh
0x000516D8	0x00000038	[ 13] __ZN9__gnu_cxx13new_allocatorISt13_Rb_tree_nodeISt4pairIKiP10CUDTSocketEEEC2Ev.eh
0x00051710	0x00000038	[ 13] __ZNSaISt13_Rb_tree_nodeISt4pairIKiP10CUDTSocketEEEC1IS4_EERKSaIT_E.eh
0x00051748	0x00000038	[ 13] __ZNSt4pairIKiP10CUDTSocketED1Ev.eh
0x00051780	0x00000038	[ 13] __ZN9__gnu_cxx13new_allocatorISt4pairIKiP10CUDTSocketEE7destroyEPS5_.eh
0x000517B8	0x00000038	[ 13] __ZN9__gnu_cxx13new_allocatorISt13_Rb_tree_nodeISt4pairIKxSt3setIiSt4lessIiESaIiEEEEEC2Ev.eh
0x000517F0	0x00000038	[ 13] __ZNSaISt13_Rb_tree_nodeISt4pairIKxSt3setIiSt4lessIiESaIiEEEEEC1IS7_EERKSaIT_E.eh
0x00051828	0x00000038	[ 13] __ZN9__gnu_cxx13new_allocatorISt13_Rb_tree_nodeISt4pairIKi12CMultiplexerEEEC2Ev.eh
0x00051860	0x00000038	[ 13] __ZNSaISt13_Rb_tree_nodeISt4pairIKi12CMultiplexerEEEC1IS3_EERKSaIT_E.eh
0x00051898	0x00000038	[ 13] __ZNSt4pairIKi12CMultiplexerED1Ev.eh
0x000518D0	0x00000038	[ 13] __ZN9__gnu_cxx13new_allocatorISt4pairIKi12CMultiplexerEE7destroyEPS4_.eh
0x00051908	0x00000038	[ 13] __ZNSt8_Rb_treeIxSt4pairIKxSt3setIiSt4lessIiESaIiEEESt10_Select1stIS7_ES3_IxESaIS7_EE12_M_rightmostEv.eh
0x00051940	0x00000038	[ 13] __ZNKSt10_Select1stISt4pairIKxSt3setIiSt4lessIiESaIiEEEEclERKS7_.eh
0x00051978	0x00000038	[ 13] __ZNKSt8_Rb_treeIxSt4pairIKxSt3setIiSt4lessIiESaIiEEESt10_Select1stIS7_ES3_IxESaIS7_EE4sizeEv.eh
0x000519B0	0x00000038	[ 13] __ZNSt8_Rb_treeIxSt4pairIKxSt3setIiSt4lessIiESaIiEEESt10_Select1stIS7_ES3_IxESaIS7_EE11_M_leftmostEv.eh
0x000519E8	0x00000038	[ 13] __ZNSt8_Rb_treeIiSt4pairIKiP10CUDTSocketESt10_Select1stIS4_ESt4lessIiESaIS4_EE8_S_valueEPKSt13_Rb_tree_nodeIS4_E.eh
0x00051A20	0x00000038	[ 13] __ZNSt8_Rb_treeIiSt4pairIKiP10CUDTSocketESt10_Select1stIS4_ESt4lessIiESaIS4_EE6_S_keyEPKSt13_Rb_tree_nodeIS4_E.eh
0x00051A58	0x00000038	[ 13] __ZNSt8_Rb_treeIiSt4pairIKiP10CUDTSocketESt10_Select1stIS4_ESt4lessIiESaIS4_EE11lower_boundERS1_.eh
0x00051A90	0x00000038	[ 13] __ZNSt3mapIiP10CUDTSocketSt4lessIiESaISt4pairIKiS1_EEE11lower_boundERS5_.eh
0x00051AC8	0x00000038	[ 13] __ZNSt8_Rb_treeIiSt4pairIKiP10CUDTSocketESt10_Select1stIS4_ESt4lessIiESaIS4_EE8_S_valueEPKSt18_Rb_tree_node_base.eh
0x00051B00	0x00000038	[ 13] __ZNSt8_Rb_treeIiSt4pairIKiP10CUDTSocketESt10_Select1stIS4_ESt4lessIiESaIS4_EE6_S_keyEPKSt18_Rb_tree_node_base.eh
0x00051B38	0x00000038	[ 13] __ZNSt8_Rb_treeIiSt4pairIKiP10CUDTSocketESt10_Select1stIS4_ESt4lessIiESaIS4_EE4findERS1_.eh
0x00051B70	0x00000038	[ 13] __ZNSt3mapIiP10CUDTSocketSt4lessIiESaISt4pairIKiS1_EEE4findERS5_.eh
0x00051BA8	0x00000038	[ 13] __ZNSt8_Rb_treeIiSt4pairIKiP10CUDTSocketESt10_Select1stIS4_ESt4lessIiESaIS4_EE11upper_boundERS1_.eh
0x00051BE0	0x00000038	[ 13] __ZNSt4pairISt17_Rb_tree_iteratorIS_IKiP10CUDTSocketEES5_EC1ERKS5_S8_.eh
0x00051C18	0x00000038	[ 13] __ZNSt8_Rb_treeIiSt4pairIKiP10CUDTSocketESt10_Select1stIS4_ESt4lessIiESaIS4_EE11equal_rangeERS1_.eh
0x00051C50	0x00000038	[ 13] __ZSt13__destroy_auxIPP10CUDTSocketEvT_S3_St11__true_type.eh
0x00051C88	0x00000038	[ 13] __ZSt8_DestroyIPP10CUDTSocketEvT_S3_.eh
0x00051CC0	0x00000038	[ 13] __ZSt8_DestroyIPP10CUDTSocketS1_EvT_S3_SaIT0_E.eh
0x00051CF8	0x00000038	[ 13] __ZNKSt12_Vector_baseIP10CUDTSocketSaIS1_EE19_M_get_Tp_allocatorEv.eh
0x00051D30	0x00000038	[ 13] __ZNK9__gnu_cxx13new_allocatorIP10CUDTSocketE8max_sizeEv.eh
0x00051D68	0x00000038	[ 13] __ZNKSt6vectorIP10CUDTSocketSaIS1_EE8max_sizeEv.eh
0x00051DA0	0x00000038	[ 13] __ZNSt8_Rb_treeIxSt4pairIKxSt3setIiSt4lessIiESaIiEEESt10_Select1stIS7_ES3_IxESaIS7_EE8_S_valueEPKSt13_Rb_tree_nodeIS7_E.eh
0x00051DD8	0x00000038	[ 13] __ZNSt8_Rb_treeIxSt4pairIKxSt3setIiSt4lessIiESaIiEEESt10_Select1stIS7_ES3_IxESaIS7_EE6_S_keyEPKSt13_Rb_tree_nodeIS7_E.eh
0x00051E10	0x00000038	[ 13] __ZNSt8_Rb_treeIxSt4pairIKxSt3setIiSt4lessIiESaIiEEESt10_Select1stIS7_ES3_IxESaIS7_EE11lower_boundERS1_.eh
0x00051E48	0x00000038	[ 13] __ZNSt3mapIxSt3setIiSt4lessIiESaIiEES1_IxESaISt4pairIKxS4_EEE11lower_boundERS7_.eh
0x00051E80	0x00000038	[ 13] __ZNSt8_Rb_treeIxSt4pairIKxSt3setIiSt4lessIiESaIiEEESt10_Select1stIS7_ES3_IxESaIS7_EE8_S_valueEPKSt18_Rb_tree_node_base.eh
0x00051EB8	0x00000038	[ 13] __ZNSt8_Rb_treeIxSt4pairIKxSt3setIiSt4lessIiESaIiEEESt10_Select1stIS7_ES3_IxESaIS7_EE6_S_keyEPKSt18_Rb_tree_node_base.eh
0x00051EF0	0x00000038	[ 13] __ZNSt8_Rb_treeIxSt4pairIKxSt3setIiSt4lessIiESaIiEEESt10_Select1stIS7_ES3_IxESaIS7_EE4findERS1_.eh
0x00051F28	0x00000038	[ 13] __ZNSt3mapIxSt3setIiSt4lessIiESaIiEES1_IxESaISt4pairIKxS4_EEE4findERS7_.eh
0x00051F60	0x00000038	[ 13] __ZNSt6vectorIiSaIiEE15_M_erase_at_endEPi.eh
0x00051F98	0x00000038	[ 13] __ZNSt6vectorIiSaIiEE5clearEv.eh
0x00051FD0	0x00000038	[ 13] __ZNSt8_Rb_treeIiSt4pairIKi12CMultiplexerESt10_Select1stIS3_ESt4lessIiESaIS3_EE8_S_valueEPKSt13_Rb_tree_nodeIS3_E.eh
0x00052008	0x00000038	[ 13] __ZNKSt10_Select1stISt4pairIKi12CMultiplexerEEclERKS3_.eh
0x00052040	0x00000038	[ 13] __ZNSt8_Rb_treeIiSt4pairIKi12CMultiplexerESt10_Select1stIS3_ESt4lessIiESaIS3_EE6_S_keyEPKSt13_Rb_tree_nodeIS3_E.eh
0x00052078	0x00000038	[ 13] __ZNSt8_Rb_treeIiSt4pairIKi12CMultiplexerESt10_Select1stIS3_ESt4lessIiESaIS3_EE11lower_boundERS1_.eh
0x000520B0	0x00000038	[ 13] __ZNSt3mapIi12CMultiplexerSt4lessIiESaISt4pairIKiS0_EEE11lower_boundERS4_.eh
0x000520E8	0x00000038	[ 13] __ZNSt8_Rb_treeIiSt4pairIKi12CMultiplexerESt10_Select1stIS3_ESt4lessIiESaIS3_EE8_S_valueEPKSt18_Rb_tree_node_base.eh
0x00052120	0x00000038	[ 13] __ZNSt8_Rb_treeIiSt4pairIKi12CMultiplexerESt10_Select1stIS3_ESt4lessIiESaIS3_EE6_S_keyEPKSt18_Rb_tree_node_base.eh
0x00052158	0x00000038	[ 13] __ZNSt8_Rb_treeIiSt4pairIKi12CMultiplexerESt10_Select1stIS3_ESt4lessIiESaIS3_EE4findERS1_.eh
0x00052190	0x00000038	[ 13] __ZNSt3mapIi12CMultiplexerSt4lessIiESaISt4pairIKiS0_EEE4findERS4_.eh
0x000521C8	0x00000038	[ 13] __ZNSt8_Rb_treeIiSt4pairIKi12CMultiplexerESt10_Select1stIS3_ESt4lessIiESaIS3_EE12_M_rightmostEv.eh
0x00052200	0x00000038	[ 13] __ZNKSt8_Rb_treeIiSt4pairIKi12CMultiplexerESt10_Select1stIS3_ESt4lessIiESaIS3_EE4sizeEv.eh
0x00052238	0x00000038	[ 13] __ZNSt8_Rb_treeIiSt4pairIKi12CMultiplexerESt10_Select1stIS3_ESt4lessIiESaIS3_EE11_M_leftmostEv.eh
0x00052270	0x00000038	[ 13] __ZN9__gnu_cxx13new_allocatorISt13_Rb_tree_nodeISt4pairIKiP10CUDTSocketEEEC2ERKS8_.eh
0x000522A8	0x00000038	[ 13] __ZNSaISt13_Rb_tree_nodeISt4pairIKiP10CUDTSocketEEEC2ERKS6_.eh
0x000522E0	0x00000038	[ 13] __ZNSt8_Rb_treeIiSt4pairIKiP10CUDTSocketESt10_Select1stIS4_ESt4lessIiESaIS4_EE13_Rb_tree_implIS8_Lb0EEC1ERKSaISt13_Rb_tree_nodeIS4_EERKS8_.eh
0x00052318	0x00000038	[ 13] __ZNSt8_Rb_treeIiSt4pairIKiP10CUDTSocketESt10_Select1stIS4_ESt4lessIiESaIS4_EEC1ERKS8_RKS9_.eh
0x00052350	0x00000038	[ 13] __ZNSt3mapIiP10CUDTSocketSt4lessIiESaISt4pairIKiS1_EEEC1Ev.eh
0x00052388	0x00000038	[ 13] __ZNKSt8_Rb_treeIiSt4pairIKiP10CUDTSocketESt10_Select1stIS4_ESt4lessIiESaIS4_EE21_M_get_Node_allocatorEv.eh
0x000523C0	0x00000038	[ 13] __ZNSaISt4pairIKiP10CUDTSocketEEC1ISt13_Rb_tree_nodeIS3_EEERKSaIT_E.eh
0x000523F8	0x00000040	[ 13] __ZNKSt8_Rb_treeIiSt4pairIKiP10CUDTSocketESt10_Select1stIS4_ESt4lessIiESaIS4_EE13get_allocatorEv.eh
0x00052438	0x00000038	[ 13] __ZN9__gnu_cxx13new_allocatorISt13_Rb_tree_nodeISt4pairIKxSt3setIiSt4lessIiESaIiEEEEEC2ERKSB_.eh
0x00052470	0x00000038	[ 13] __ZNSaISt13_Rb_tree_nodeISt4pairIKxSt3setIiSt4lessIiESaIiEEEEEC2ERKS9_.eh
0x000524A8	0x00000038	[ 13] __ZNSt8_Rb_treeIxSt4pairIKxSt3setIiSt4lessIiESaIiEEESt10_Select1stIS7_ES3_IxESaIS7_EE13_Rb_tree_implISA_Lb0EEC1ERKSaISt13_Rb_tree_nodeIS7_EERKSA_.eh
0x000524E0	0x00000038	[ 13] __ZNSt8_Rb_treeIxSt4pairIKxSt3setIiSt4lessIiESaIiEEESt10_Select1stIS7_ES3_IxESaIS7_EEC1ERKSA_RKSB_.eh
0x00052518	0x00000038	[ 13] __ZNSt3mapIxSt3setIiSt4lessIiESaIiEES1_IxESaISt4pairIKxS4_EEEC1Ev.eh
0x00052550	0x00000038	[ 13] __ZNKSt8_Rb_treeIxSt4pairIKxSt3setIiSt4lessIiESaIiEEESt10_Select1stIS7_ES3_IxESaIS7_EE21_M_get_Node_allocatorEv.eh
0x00052588	0x00000038	[ 13] __ZNSaISt4pairIKxSt3setIiSt4lessIiESaIiEEEEC1ISt13_Rb_tree_nodeIS6_EEERKSaIT_E.eh
0x000525C0	0x00000040	[ 13] __ZNKSt8_Rb_treeIxSt4pairIKxSt3setIiSt4lessIiESaIiEEESt10_Select1stIS7_ES3_IxESaIS7_EE13get_allocatorEv.eh
0x00052600	0x00000038	[ 13] __ZN9__gnu_cxx13new_allocatorISt13_Rb_tree_nodeISt4pairIKi12CMultiplexerEEEC2ERKS7_.eh
0x00052638	0x00000038	[ 13] __ZNSaISt13_Rb_tree_nodeISt4pairIKi12CMultiplexerEEEC2ERKS5_.eh
0x00052670	0x00000038	[ 13] __ZNSt8_Rb_treeIiSt4pairIKi12CMultiplexerESt10_Select1stIS3_ESt4lessIiESaIS3_EE13_Rb_tree_implIS7_Lb0EEC1ERKSaISt13_Rb_tree_nodeIS3_EERKS7_.eh
0x000526A8	0x00000038	[ 13] __ZNSt8_Rb_treeIiSt4pairIKi12CMultiplexerESt10_Select1stIS3_ESt4lessIiESaIS3_EEC1ERKS7_RKS8_.eh
0x000526E0	0x00000038	[ 13] __ZNSt3mapIi12CMultiplexerSt4lessIiESaISt4pairIKiS0_EEEC1Ev.eh
0x00052718	0x00000038	[ 13] __ZNKSt8_Rb_treeIiSt4pairIKi12CMultiplexerESt10_Select1stIS3_ESt4lessIiESaIS3_EE21_M_get_Node_allocatorEv.eh
0x00052750	0x00000038	[ 13] __ZNSaISt4pairIKi12CMultiplexerEEC1ISt13_Rb_tree_nodeIS2_EEERKSaIT_E.eh
0x00052788	0x00000040	[ 13] __ZNKSt8_Rb_treeIiSt4pairIKi12CMultiplexerESt10_Select1stIS3_ESt4lessIiESaIS3_EE13get_allocatorEv.eh
0x000527C8	0x00000038	[ 13] __ZNSt8_Rb_treeIxSt4pairIKxSt3setIiSt4lessIiESaIiEEESt10_Select1stIS7_ES3_IxESaIS7_EE5beginEv.eh
0x00052800	0x00000038	[ 13] __ZNSt4pairISt17_Rb_tree_iteratorIS_IKxSt3setIiSt4lessIiESaIiEEEEbEC1ERKS8_RKb.eh
0x00052838	0x00000038	[ 13] __ZN9__gnu_cxx13new_allocatorISt4pairIKiP10CUDTSocketEE9constructEPS5_RKS5_.eh
0x00052870	0x00000038	[ 13] __ZNSt4pairISt17_Rb_tree_iteratorIS_IKi12CMultiplexerEEbEC1ERKS4_RKb.eh
0x000528A8	0x00000038	[ 13] __ZN9__gnu_cxx13new_allocatorISt4pairIKi12CMultiplexerEE9constructEPS4_RKS4_.eh
0x000528E0	0x00000038	[ 13] __ZNK9__gnu_cxx13new_allocatorISt13_Rb_tree_nodeISt4pairIKiP10CUDTSocketEEE8max_sizeEv.eh
0x00052918	0x00000038	[ 13] __ZNK9__gnu_cxx13new_allocatorISt13_Rb_tree_nodeISt4pairIKxSt3setIiSt4lessIiESaIiEEEEE8max_sizeEv.eh
0x00052950	0x00000038	[ 13] __ZNK9__gnu_cxx13new_allocatorISt13_Rb_tree_nodeISt4pairIKi12CMultiplexerEEE8max_sizeEv.eh
0x00052988	0x00000038	[ 13] __ZN9__gnu_cxx13new_allocatorISt13_Rb_tree_nodeISt4pairIKiP10CUDTSocketEEE10deallocateEPS7_m.eh
0x000529C0	0x00000038	[ 13] __ZNSt8_Rb_treeIiSt4pairIKiP10CUDTSocketESt10_Select1stIS4_ESt4lessIiESaIS4_EE11_M_put_nodeEPSt13_Rb_tree_nodeIS4_E.eh
0x000529F8	0x00000038	[ 13] __ZNSt8_Rb_treeIiSt4pairIKiP10CUDTSocketESt10_Select1stIS4_ESt4lessIiESaIS4_EE15_M_destroy_nodeEPSt13_Rb_tree_nodeIS4_E.eh
0x00052A30	0x00000038	[ 13] __ZNSt8_Rb_treeIiSt4pairIKiP10CUDTSocketESt10_Select1stIS4_ESt4lessIiESaIS4_EE8_M_eraseEPSt13_Rb_tree_nodeIS4_E.eh
0x00052A68	0x00000038	[ 13] __ZNSt8_Rb_treeIiSt4pairIKiP10CUDTSocketESt10_Select1stIS4_ESt4lessIiESaIS4_EE5clearEv.eh
0x00052AA0	0x00000038	[ 13] __ZNSt3mapIiP10CUDTSocketSt4lessIiESaISt4pairIKiS1_EEE5clearEv.eh
0x00052AD8	0x00000038	[ 13] __ZNSt8_Rb_treeIiSt4pairIKiP10CUDTSocketESt10_Select1stIS4_ESt4lessIiESaIS4_EED1Ev.eh
0x00052B10	0x00000038	[ 13] __ZNSt3mapIiP10CUDTSocketSt4lessIiESaISt4pairIKiS1_EEED1Ev.eh
0x00052B48	0x00000038	[ 13] __ZNSt4pairIKxSt3setIiSt4lessIiESaIiEEED1Ev.eh
0x00052B80	0x00000038	[ 13] __ZN9__gnu_cxx13new_allocatorISt4pairIKxSt3setIiSt4lessIiESaIiEEEE7destroyEPS8_.eh
0x00052BB8	0x00000038	[ 13] __ZN9__gnu_cxx13new_allocatorISt13_Rb_tree_nodeISt4pairIKi12CMultiplexerEEE10deallocateEPS6_m.eh
0x00052BF0	0x00000038	[ 13] __ZNSt8_Rb_treeIiSt4pairIKi12CMultiplexerESt10_Select1stIS3_ESt4lessIiESaIS3_EE11_M_put_nodeEPSt13_Rb_tree_nodeIS3_E.eh
0x00052C28	0x00000038	[ 13] __ZNSt8_Rb_treeIiSt4pairIKi12CMultiplexerESt10_Select1stIS3_ESt4lessIiESaIS3_EE15_M_destroy_nodeEPSt13_Rb_tree_nodeIS3_E.eh
0x00052C60	0x00000038	[ 13] __ZNSt8_Rb_treeIiSt4pairIKi12CMultiplexerESt10_Select1stIS3_ESt4lessIiESaIS3_EE8_M_eraseEPSt13_Rb_tree_nodeIS3_E.eh
0x00052C98	0x00000038	[ 13] __ZNSt8_Rb_treeIiSt4pairIKi12CMultiplexerESt10_Select1stIS3_ESt4lessIiESaIS3_EED1Ev.eh
0x00052CD0	0x00000038	[ 13] __ZNSt3mapIi12CMultiplexerSt4lessIiESaISt4pairIKiS0_EEED1Ev.eh
0x00052D08	0x00000038	[ 13] __ZN9__gnu_cxx13new_allocatorISt13_Rb_tree_nodeISt4pairIKxSt3setIiSt4lessIiESaIiEEEEE10deallocateEPSA_m.eh
0x00052D40	0x00000038	[ 13] __ZNSt8_Rb_treeIxSt4pairIKxSt3setIiSt4lessIiESaIiEEESt10_Select1stIS7_ES3_IxESaIS7_EE11_M_put_nodeEPSt13_Rb_tree_nodeIS7_E.eh
0x00052D78	0x00000038	[ 13] __ZNSt8_Rb_treeIxSt4pairIKxSt3setIiSt4lessIiESaIiEEESt10_Select1stIS7_ES3_IxESaIS7_EE15_M_destroy_nodeEPSt13_Rb_tree_nodeIS7_E.eh
0x00052DB0	0x00000038	[ 13] __ZNSt8_Rb_treeIxSt4pairIKxSt3setIiSt4lessIiESaIiEEESt10_Select1stIS7_ES3_IxESaIS7_EE8_M_eraseEPSt13_Rb_tree_nodeIS7_E.eh
0x00052DE8	0x00000038	[ 13] __ZNSt8_Rb_treeIxSt4pairIKxSt3setIiSt4lessIiESaIiEEESt10_Select1stIS7_ES3_IxESaIS7_EED1Ev.eh
0x00052E20	0x00000038	[ 13] __ZNSt3mapIxSt3setIiSt4lessIiESaIiEES1_IxESaISt4pairIKxS4_EEED1Ev.eh
0x00052E58	0x00000038	[ 13] __ZN9__gnu_cxx13new_allocatorIP10CUDTSocketE10deallocateEPS2_m.eh
0x00052E90	0x00000038	[ 13] __ZNSt12_Vector_baseIP10CUDTSocketSaIS1_EE13_M_deallocateEPS1_m.eh
0x00052EC8	0x00000038	[ 13] __ZNSt12_Vector_baseIP10CUDTSocketSaIS1_EED2Ev.eh
0x00052F00	0x00000038	[ 13] __ZNSt6vectorIP10CUDTSocketSaIS1_EED1Ev.eh
0x00052F38	0x00000038	[ 13] __ZN10CUDTUnited6locateEi.eh
0x00052F70	0x00000038	[ 13] __ZN10CUDTUnited9getStatusEi.eh
0x00052FA8	0x00000038	[ 13] __ZNSt17_Rb_tree_iteratorISt4pairIKiP10CUDTSocketEEmmEv.eh
0x00052FE0	0x00000038	[ 13] __ZNSt17_Rb_tree_iteratorISt4pairIKi12CMultiplexerEEmmEv.eh
0x00053018	0x00000038	[ 13] __ZNSt17_Rb_tree_iteratorISt4pairIKxSt3setIiSt4lessIiESaIiEEEEmmEv.eh
0x00053050	0x00000038	[ 13] __ZN9__gnu_cxx13new_allocatorISt13_Rb_tree_nodeISt4pairIKiP10CUDTSocketEEE8allocateEmPKv.eh
0x00053088	0x00000038	[ 13] __ZNSt8_Rb_treeIiSt4pairIKiP10CUDTSocketESt10_Select1stIS4_ESt4lessIiESaIS4_EE11_M_get_nodeEv.eh
0x000530C0	0x00000038	[ 13] __ZNSt8_Rb_treeIiSt4pairIKiP10CUDTSocketESt10_Select1stIS4_ESt4lessIiESaIS4_EE14_M_create_nodeERKS4_.eh
0x000530F8	0x00000038	[ 13] __ZNSt8_Rb_treeIiSt4pairIKiP10CUDTSocketESt10_Select1stIS4_ESt4lessIiESaIS4_EE9_M_insertEPSt18_Rb_tree_node_baseSC_RKS4_.eh
0x00053130	0x00000038	[ 13] __ZNSt8_Rb_treeIiSt4pairIKiP10CUDTSocketESt10_Select1stIS4_ESt4lessIiESaIS4_EE16_M_insert_uniqueERKS4_.eh
0x00053168	0x00000038	[ 13] __ZNSt3mapIiP10CUDTSocketSt4lessIiESaISt4pairIKiS1_EEE6insertERKS6_.eh
0x000531A0	0x00000038	[ 13] __ZN9__gnu_cxx13new_allocatorISt13_Rb_tree_nodeISt4pairIKi12CMultiplexerEEE8allocateEmPKv.eh
0x000531D8	0x00000038	[ 13] __ZNSt8_Rb_treeIiSt4pairIKi12CMultiplexerESt10_Select1stIS3_ESt4lessIiESaIS3_EE11_M_get_nodeEv.eh
0x00053210	0x00000038	[ 13] __ZNSt8_Rb_treeIiSt4pairIKi12CMultiplexerESt10_Select1stIS3_ESt4lessIiESaIS3_EE14_M_create_nodeERKS3_.eh
0x00053248	0x00000038	[ 13] __ZNSt8_Rb_treeIiSt4pairIKi12CMultiplexerESt10_Select1stIS3_ESt4lessIiESaIS3_EE9_M_insertEPSt18_Rb_tree_node_baseSB_RKS3_.eh
0x00053280	0x00000038	[ 13] __ZNSt8_Rb_treeIiSt4pairIKi12CMultiplexerESt10_Select1stIS3_ESt4lessIiESaIS3_EE16_M_insert_uniqueERKS3_.eh
0x000532B8	0x00000038	[ 13] __ZN9__gnu_cxx13new_allocatorIP10CUDTSocketE8allocateEmPKv.eh
0x000532F0	0x00000038	[ 13] __ZNSt12_Vector_baseIP10CUDTSocketSaIS1_EE11_M_allocateEm.eh
0x00053328	0x00000038	[ 13] __ZNSt4pairIKxSt3setIiSt4lessIiESaIiEEEC1ERS0_RKS5_.eh
0x00053360	0x00000038	[ 13] __ZNSt4pairIKxSt3setIiSt4lessIiESaIiEEEC1ERKS6_.eh
0x00053398	0x00000038	[ 13] __ZN9__gnu_cxx13new_allocatorISt4pairIKxSt3setIiSt4lessIiESaIiEEEE9constructEPS8_RKS8_.eh
0x000533D0	0x00000038	[ 13] __ZNSt8_Rb_treeIiiSt9_IdentityIiESt4lessIiESaIiEE9_M_insertEPKSt18_Rb_tree_node_baseS8_RKi.eh
0x00053408	0x00000038	[ 13] __ZN9__gnu_cxx13new_allocatorISt13_Rb_tree_nodeISt4pairIKxSt3setIiSt4lessIiESaIiEEEEE8allocateEmPKv.eh
0x00053440	0x00000038	[ 13] __ZNSt8_Rb_treeIxSt4pairIKxSt3setIiSt4lessIiESaIiEEESt10_Select1stIS7_ES3_IxESaIS7_EE11_M_get_nodeEv.eh
0x00053478	0x00000038	[ 13] __ZNSt8_Rb_treeIxSt4pairIKxSt3setIiSt4lessIiESaIiEEESt10_Select1stIS7_ES3_IxESaIS7_EE14_M_create_nodeERKS7_.eh
0x000534B0	0x00000038	[ 13] __ZNSt8_Rb_treeIxSt4pairIKxSt3setIiSt4lessIiESaIiEEESt10_Select1stIS7_ES3_IxESaIS7_EE9_M_insertEPSt18_Rb_tree_node_baseSE_RKS7_.eh
0x000534E8	0x00000038	[ 13] __ZNSt8_Rb_treeIxSt4pairIKxSt3setIiSt4lessIiESaIiEEESt10_Select1stIS7_ES3_IxESaIS7_EE16_M_insert_uniqueERKS7_.eh
0x00053520	0x00000038	[ 13] __ZNSt17_Rb_tree_iteratorISt4pairIKiP10CUDTSocketEEppEv.eh
0x00053558	0x00000038	[ 13] __ZNSt8_Rb_treeIiSt4pairIKiP10CUDTSocketESt10_Select1stIS4_ESt4lessIiESaIS4_EE16_M_insert_uniqueESt17_Rb_tree_iteratorIS4_ERKS4_.eh
0x00053590	0x00000038	[ 13] __ZNSt3mapIiP10CUDTSocketSt4lessIiESaISt4pairIKiS1_EEE6insertESt17_Rb_tree_iteratorIS6_ERKS6_.eh
0x000535C8	0x00000038	[ 13] __ZNSt3mapIiP10CUDTSocketSt4lessIiESaISt4pairIKiS1_EEEixERS5_.eh
0x00053600	0x00000038	[ 13] __ZNSt17_Rb_tree_iteratorISt4pairIKi12CMultiplexerEEppEv.eh
0x00053638	0x00000038	[ 13] __ZN10CUDTUnited9updateMuxEP10CUDTSocketPKS0_.eh
0x00053670	0x00000038	[ 13] __ZNSt8_Rb_treeIiSt4pairIKi12CMultiplexerESt10_Select1stIS3_ESt4lessIiESaIS3_EE16_M_insert_uniqueESt17_Rb_tree_iteratorIS3_ERKS3_.eh
0x000536A8	0x00000038	[ 13] __ZNSt3mapIi12CMultiplexerSt4lessIiESaISt4pairIKiS0_EEE6insertESt17_Rb_tree_iteratorIS5_ERKS5_.eh
0x000536E0	0x00000038	[ 13] __ZNSt3mapIi12CMultiplexerSt4lessIiESaISt4pairIKiS0_EEEixERS4_.eh
0x00053718	0x00000038	[ 13] __ZNSt17_Rb_tree_iteratorISt4pairIKiP10CUDTSocketEEppEi.eh
0x00053750	0x00000038	[ 13] __ZNSt17_Rb_tree_iteratorISt4pairIKxSt3setIiSt4lessIiESaIiEEEEppEv.eh
0x00053788	0x00000038	[ 13] __ZNSt8_Rb_treeIxSt4pairIKxSt3setIiSt4lessIiESaIiEEESt10_Select1stIS7_ES3_IxESaIS7_EE16_M_insert_uniqueESt17_Rb_tree_iteratorIS7_ERKS7_.eh
0x000537C0	0x00000038	[ 13] __ZNSt3mapIxSt3setIiSt4lessIiESaIiEES1_IxESaISt4pairIKxS4_EEE6insertESt17_Rb_tree_iteratorIS8_ERKS8_.eh
0x000537F8	0x00000038	[ 13] __ZNSt3mapIxSt3setIiSt4lessIiESaIiEES1_IxESaISt4pairIKxS4_EEEixERS7_.eh
0x00053830	0x00000038	[ 13] __ZNSt8_Rb_treeIiSt4pairIKiP10CUDTSocketESt10_Select1stIS4_ESt4lessIiESaIS4_EE5eraseESt17_Rb_tree_iteratorIS4_E.eh
0x00053868	0x00000038	[ 13] __ZNSt8_Rb_treeIiSt4pairIKiP10CUDTSocketESt10_Select1stIS4_ESt4lessIiESaIS4_EE5eraseESt17_Rb_tree_iteratorIS4_ESC_.eh
0x000538A0	0x00000038	[ 13] __ZNSt8_Rb_treeIiSt4pairIKiP10CUDTSocketESt10_Select1stIS4_ESt4lessIiESaIS4_EE5eraseERS1_.eh
0x000538D8	0x00000038	[ 13] __ZNSt3mapIiP10CUDTSocketSt4lessIiESaISt4pairIKiS1_EEE5eraseERS5_.eh
0x00053910	0x00000038	[ 13] __ZNSt3mapIiP10CUDTSocketSt4lessIiESaISt4pairIKiS1_EEE5eraseESt17_Rb_tree_iteratorIS6_E.eh
0x00053948	0x00000038	[ 13] __ZNSt8_Rb_treeIxSt4pairIKxSt3setIiSt4lessIiESaIiEEESt10_Select1stIS7_ES3_IxESaIS7_EE5eraseESt17_Rb_tree_iteratorIS7_E.eh
0x00053980	0x00000038	[ 13] __ZNSt3mapIxSt3setIiSt4lessIiESaIiEES1_IxESaISt4pairIKxS4_EEE5eraseESt17_Rb_tree_iteratorIS8_E.eh
0x000539B8	0x00000038	[ 13] __ZNSt8_Rb_treeIiSt4pairIKi12CMultiplexerESt10_Select1stIS3_ESt4lessIiESaIS3_EE5eraseESt17_Rb_tree_iteratorIS3_E.eh
0x000539F0	0x00000038	[ 13] __ZNSt3mapIi12CMultiplexerSt4lessIiESaISt4pairIKiS0_EEE5eraseESt17_Rb_tree_iteratorIS5_E.eh
0x00053A28	0x00000038	[ 13] __ZNSt8_Rb_treeIiiSt9_IdentityIiESt4lessIiESaIiEE5eraseESt23_Rb_tree_const_iteratorIiE.eh
0x00053A60	0x00000038	[ 13] __ZNSt3setIiSt4lessIiESaIiEE5eraseESt23_Rb_tree_const_iteratorIiE.eh
0x00053A98	0x00000038	[ 13] __ZN10CUDTUnited9updateMuxEP10CUDTSocketPK8sockaddrPKi.eh
0x00053AD0	0x00000038	[ 13] __ZN10CUDTUnited8getErrorEv.eh
0x00053B08	0x00000038	[ 13] __ZN4CUDT12getlasterrorEv.eh
0x00053B40	0x00000038	[ 13] __ZN3UDT12getlasterrorEv.eh
0x00053B78	0x00000038	[ 13] __ZN10CUDTUnited8setErrorEP13CUDTException.eh
0x00053BB0	0x00000038	[ 13] __ZNSt15__copy_backwardILb1ESt26random_access_iterator_tagE8__copy_bIP10CUDTSocketEEPT_PKS5_S8_S6_.eh
0x00053BE8	0x00000038	[ 13] __ZSt19__copy_backward_auxIPP10CUDTSocketS2_ET0_T_S4_S3_.eh
0x00053C20	0x00000038	[ 13] __ZNSt22__copy_backward_normalILb0ELb0EE10__copy_b_nIPP10CUDTSocketS4_EET0_T_S6_S5_.eh
0x00053C58	0x00000038	[ 13] __ZSt13copy_backwardIPP10CUDTSocketS2_ET0_T_S4_S3_.eh
0x00053C90	0x00000038	[ 13] __ZNSt6__copyILb1ESt26random_access_iterator_tagE4copyIP10CUDTSocketEEPT_PKS5_S8_S6_.eh
0x00053CC8	0x00000038	[ 13] __ZSt10__copy_auxIPP10CUDTSocketS2_ET0_T_S4_S3_.eh
0x00053D00	0x00000038	[ 13] __ZNSt13__copy_normalILb0ELb0EE8__copy_nIPP10CUDTSocketS4_EET0_T_S6_S5_.eh
0x00053D38	0x00000038	[ 13] __ZSt4copyIPP10CUDTSocketS2_ET0_T_S4_S3_.eh
0x00053D70	0x00000038	[ 13] __ZSt24__uninitialized_copy_auxIPP10CUDTSocketS2_ET0_T_S4_S3_St11__true_type.eh
0x00053DA8	0x00000038	[ 13] __ZSt18uninitialized_copyIPP10CUDTSocketS2_ET0_T_S4_S3_.eh
0x00053DE0	0x00000038	[ 13] __ZSt22__uninitialized_copy_aIPP10CUDTSocketS2_S1_ET0_T_S4_S3_SaIT1_E.eh
0x00053E18	0x00000040	[ 13] __ZNSt6vectorIP10CUDTSocketSaIS1_EE13_M_insert_auxEN9__gnu_cxx17__normal_iteratorIPS1_S3_EERKS1_.eh
0x00053E58	0x00000038	[ 13] __ZNSt6vectorIP10CUDTSocketSaIS1_EE6insertEN9__gnu_cxx17__normal_iteratorIPS1_S3_EERKS1_.eh
0x00053E90	0x00000038	[ 13] __ZN10CUDTUnited6locateEiPK8sockaddrRKiS4_.eh
0x00053EC8	0x00000038	[ 13] __ZN10CUDTUnited13epoll_releaseEi.eh
0x00053F00	0x00000038	[ 13] __ZN4CUDT13epoll_releaseEi.eh
0x00053F38	0x00000038	[ 13] __ZN3UDT13epoll_releaseEi.eh
0x00053F70	0x00000038	[ 13] __ZN10CUDTUnited10epoll_waitEiPSt3setIiSt4lessIiESaIiEES5_xS5_S5_.eh
0x00053FA8	0x00000038	[ 13] __ZN4CUDT10epoll_waitEiPSt3setIiSt4lessIiESaIiEES5_xS5_S5_.eh
0x00053FE0	0x00000038	[ 13] __ZN3UDT10epoll_waitEiPSt3setIiSt4lessIiESaIiEES5_xS5_S5_.eh
0x00054018	0x00000038	[ 13] __ZN10CUDTUnited18epoll_remove_ssockEiiPKi.eh
0x00054050	0x00000038	[ 13] __ZN4CUDT18epoll_remove_ssockEiiPKi.eh
0x00054088	0x00000038	[ 13] __ZN10CUDTUnited18epoll_remove_usockEiiPKi.eh
0x000540C0	0x00000038	[ 13] __ZN4CUDT18epoll_remove_usockEiiPKi.eh
0x000540F8	0x00000038	[ 13] __ZN3UDT18epoll_remove_ssockEiiPKi.eh
0x00054130	0x00000038	[ 13] __ZN3UDT18epoll_remove_usockEiiPKi.eh
0x00054168	0x00000038	[ 13] __ZN10CUDTUnited6lookupEi.eh
0x000541A0	0x00000038	[ 13] __ZN4CUDT12getUDTHandleEi.eh
0x000541D8	0x00000038	[ 13] __ZN4CUDT7perfmonEiP8CPerfMonb.eh
0x00054210	0x00000038	[ 13] __ZN3UDT7perfmonEiP8CPerfMonb.eh
0x00054248	0x00000038	[ 13] __ZN4CUDT8recvfileEiRSt13basic_fstreamIcSt11char_traitsIcEERxRKxRKi.eh
0x00054280	0x00000038	[ 13] __ZN3UDT8recvfileEiRSt13basic_fstreamIcSt11char_traitsIcEERxxi.eh
0x000542B8	0x00000038	[ 13] __ZN4CUDT8sendfileEiRSt13basic_fstreamIcSt11char_traitsIcEERxRKxRKi.eh
0x000542F0	0x00000038	[ 13] __ZN3UDT8sendfileEiRSt13basic_fstreamIcSt11char_traitsIcEERxxi.eh
0x00054328	0x00000038	[ 13] __ZN4CUDT7recvmsgEiPci.eh
0x00054360	0x00000038	[ 13] __ZN3UDT7recvmsgEiPci.eh
0x00054398	0x00000038	[ 13] __ZN4CUDT7sendmsgEiPKciib.eh
0x000543D0	0x00000038	[ 13] __ZN3UDT7sendmsgEiPKciib.eh
0x00054408	0x00000038	[ 13] __ZN4CUDT4recvEiPcii.eh
0x00054440	0x00000038	[ 13] __ZN3UDT4recvEiPcii.eh
0x00054478	0x00000038	[ 13] __ZN4CUDT4sendEiPKcii.eh
0x000544B0	0x00000038	[ 13] __ZN3UDT4sendEiPKcii.eh
0x000544E8	0x00000038	[ 13] __ZN4CUDT10setsockoptEii6UDTOptPKvi.eh
0x00054520	0x00000038	[ 13] __ZN3UDT10setsockoptEii6UDTOptPKvi.eh
0x00054558	0x00000038	[ 13] __ZN4CUDT10getsockoptEii6UDTOptPvPi.eh
0x00054590	0x00000038	[ 13] __ZN3UDT10getsockoptEii6UDTOptPvPi.eh
0x000545C8	0x00000038	[ 13] __ZN10CUDTUnited15epoll_add_ssockEiiPKi.eh
0x00054600	0x00000038	[ 13] __ZN4CUDT15epoll_add_ssockEiiPKi.eh
0x00054638	0x00000038	[ 13] __ZN3UDT15epoll_add_ssockEiiPKi.eh
0x00054670	0x00000038	[ 13] __ZN10CUDTUnited15epoll_add_usockEiiPKi.eh
0x000546A8	0x00000038	[ 13] __ZN4CUDT15epoll_add_usockEiiPKi.eh
0x000546E0	0x00000038	[ 13] __ZN3UDT15epoll_add_usockEiiPKi.eh
0x00054718	0x00000038	[ 13] __ZN10CUDTUnited12epoll_createEv.eh
0x00054750	0x00000038	[ 13] __ZN4CUDT12epoll_createEv.eh
0x00054788	0x00000038	[ 13] __ZN3UDT12epoll_createEv.eh
0x000547C0	0x00000038	[ 13] __ZN10CUDTUnited8selectExERKSt6vectorIiSaIiEEPS2_S5_S5_x.eh
0x000547F8	0x00000038	[ 13] __ZN4CUDT8selectExERKSt6vectorIiSaIiEEPS2_S5_S5_x.eh
0x00054830	0x00000038	[ 13] __ZN3UDT8selectExERKSt6vectorIiSaIiEEPS2_S5_S5_x.eh
0x00054868	0x00000038	[ 13] __ZN10CUDTUnited6selectEPSt3setIiSt4lessIiESaIiEES5_S5_PK7timeval.eh
0x000548A0	0x00000038	[ 13] __ZN4CUDT6selectEiPSt3setIiSt4lessIiESaIiEES5_S5_PK7timeval.eh
0x000548D8	0x00000038	[ 13] __ZN3UDT6selectEiPSt3setIiSt4lessIiESaIiEES5_S5_PK7timeval.eh
0x00054910	0x00000038	[ 13] __ZN10CUDTUnited11getsocknameEiP8sockaddrPi.eh
0x00054948	0x00000038	[ 13] __ZN4CUDT11getsocknameEiP8sockaddrPi.eh
0x00054980	0x00000038	[ 13] __ZN3UDT11getsocknameEiP8sockaddrPi.eh
0x000549B8	0x00000038	[ 13] __ZN10CUDTUnited11getpeernameEiP8sockaddrPi.eh
0x000549F0	0x00000038	[ 13] __ZN4CUDT11getpeernameEiP8sockaddrPi.eh
0x00054A28	0x00000038	[ 13] __ZN3UDT11getpeernameEiP8sockaddrPi.eh
0x00054A60	0x00000038	[ 13] __ZN10CUDTUnited5closeEi.eh
0x00054A98	0x00000038	[ 13] __ZN4CUDT5closeEi.eh
0x00054AD0	0x00000038	[ 13] __ZN3UDT5closeEi.eh
0x00054B08	0x00000038	[ 13] __ZN10CUDTUnited4bindEiPK8sockaddrRKi.eh
0x00054B40	0x00000038	[ 13] __ZN4CUDT4bindEiPK8sockaddri.eh
0x00054B78	0x00000038	[ 13] __ZN3UDT4bindEiPK8sockaddri.eh
0x00054BB0	0x00000038	[ 13] __ZN10CUDTUnited7connectEiPK8sockaddrRKi.eh
0x00054BE8	0x00000038	[ 13] __ZN4CUDT7connectEiPK8sockaddri.eh
0x00054C20	0x00000038	[ 13] __ZN3UDT7connectEiPK8sockaddri.eh
0x00054C58	0x00000038	[ 13] __ZNSt23_Rb_tree_const_iteratorIiEmmEv.eh
0x00054C90	0x00000038	[ 13] __ZNSt8_Rb_treeIiiSt9_IdentityIiESt4lessIiESaIiEE16_M_insert_uniqueESt23_Rb_tree_const_iteratorIiERKi.eh
0x00054CC8	0x00000038	[ 13] __ZNSt3setIiSt4lessIiESaIiEE6insertESt23_Rb_tree_const_iteratorIiERKi.eh
0x00054D00	0x00000038	[ 13] __ZN10CUDTUnited6acceptEiP8sockaddrPi.eh
0x00054D38	0x00000038	[ 13] __ZN4CUDT6acceptEiP8sockaddrPi.eh
0x00054D70	0x00000038	[ 13] __ZN3UDT6acceptEiP8sockaddrPi.eh
0x00054DA8	0x00000038	[ 13] __ZN10CUDTUnited6listenEiRKi.eh
0x00054DE0	0x00000038	[ 13] __ZN4CUDT6listenEii.eh
0x00054E18	0x00000038	[ 13] __ZN3UDT6listenEii.eh
0x00054E50	0x00000038	[ 13] __ZN10CUDTUnited4bindEii.eh
0x00054E88	0x00000038	[ 13] __ZN4CUDT4bindEii.eh
0x00054EC0	0x00000038	[ 13] __ZN3UDT4bindEii.eh
0x00054EF8	0x00000038	[ 13] __ZN10CUDTUnited7cleanupEv.eh
0x00054F30	0x00000038	[ 13] __ZN4CUDT7cleanupEv.eh
0x00054F68	0x00000038	[ 13] __ZN3UDT7cleanupEv.eh
0x00054FA0	0x00000038	[ 13] __ZN10CUDTSocketC1Ev.eh
0x00054FD8	0x00000038	[ 13] __ZN10CUDTSocketC2Ev.eh
0x00055010	0x00000038	[ 13] __ZN10CUDTUnited7startupEv.eh
0x00055048	0x00000038	[ 13] __ZN4CUDT7startupEv.eh
0x00055080	0x00000038	[ 13] __ZN3UDT7startupEv.eh
0x000550B8	0x00000038	[ 13] __ZN10CUDTUnitedD1Ev.eh
0x000550F0	0x00000038	[ 13] __ZN10CUDTUnitedD2Ev.eh
0x00055128	0x00000038	[ 13] __ZN10CUDTUnitedC1Ev.eh
0x00055160	0x00000038	[ 13] __ZN10CUDTUnitedC2Ev.eh
0x00055198	0x00000038	[ 13] __ZN10CUDTSocketD1Ev.eh
0x000551D0	0x00000038	[ 13] __ZN10CUDTUnited12removeSocketEi.eh
0x00055208	0x00000038	[ 13] __ZN10CUDTUnited18checkBrokenSocketsEv.eh
0x00055240	0x00000038	[ 13] __ZN10CUDTUnited14garbageCollectEPv.eh
0x00055278	0x00000038	[ 13] __ZN10CUDTUnited13newConnectionEiPK8sockaddrP10CHandShake.eh
0x000552B0	0x00000038	[ 13] __ZN10CUDTUnited9newSocketERKiS1_.eh
0x000552E8	0x00000038	[ 13] __ZN4CUDT6socketEiii.eh
0x00055320	0x00000038	[ 13] __ZN3UDT6socketEiii.eh
0x00055358	0x00000038	[ 13] __ZN10CUDTSocketD2Ev.eh
0x00055390	0x00000020	[ 14] CIE
0x000553B0	0x00000038	[ 14] __ZN7JNIEnv_9FindClassEPKc.eh
0x000553E8	0x00000038	[ 14] __ZN7JNIEnv_5ThrowEP11_jthrowable.eh
0x00055420	0x00000038	[ 14] __ZN7JNIEnv_8ThrowNewEP7_jclassPKc.eh
0x00055458	0x00000038	[ 14] __ZN7JNIEnv_12NewGlobalRefEP8_jobject.eh
0x00055490	0x00000038	[ 14] __ZN7JNIEnv_12IsSameObjectEP8_jobjectS1_.eh
0x000554C8	0x00000038	[ 14] __ZN7JNIEnv_11GetMethodIDEP7_jclassPKcS3_.eh
0x00055500	0x00000038	[ 14] __ZN7JNIEnv_10GetFieldIDEP7_jclassPKcS3_.eh
0x00055538	0x00000038	[ 14] __ZN7JNIEnv_14GetObjectFieldEP8_jobjectP9_jfieldID.eh
0x00055570	0x00000038	[ 14] __ZN7JNIEnv_11GetIntFieldEP8_jobjectP9_jfieldID.eh
0x000555A8	0x00000038	[ 14] __ZN7JNIEnv_14SetObjectFieldEP8_jobjectP9_jfieldIDS1_.eh
0x000555E0	0x00000038	[ 14] __ZN7JNIEnv_15SetBooleanFieldEP8_jobjectP9_jfieldIDh.eh
0x00055618	0x00000038	[ 14] __ZN7JNIEnv_11SetIntFieldEP8_jobjectP9_jfieldIDi.eh
0x00055650	0x00000038	[ 14] __ZN7JNIEnv_12SetLongFieldEP8_jobjectP9_jfieldIDx.eh
0x00055688	0x00000038	[ 14] __ZN7JNIEnv_14SetDoubleFieldEP8_jobjectP9_jfieldIDd.eh
0x000556C0	0x00000038	[ 14] __ZN7JNIEnv_12NewStringUTFEPKc.eh
0x000556F8	0x00000038	[ 14] __ZN7JNIEnv_14GetArrayLengthEP7_jarray.eh
0x00055730	0x00000038	[ 14] __ZN7JNIEnv_21GetObjectArrayElementEP13_jobjectArrayi.eh
0x00055768	0x00000038	[ 14] __ZN7JNIEnv_11NewIntArrayEi.eh
0x000557A0	0x00000038	[ 14] __ZN7JNIEnv_20GetByteArrayElementsEP11_jbyteArrayPh.eh
0x000557D8	0x00000038	[ 14] __ZN7JNIEnv_19GetIntArrayElementsEP10_jintArrayPh.eh
0x00055810	0x00000038	[ 14] __ZN7JNIEnv_24ReleaseByteArrayElementsEP11_jbyteArrayPai.eh
0x00055848	0x00000038	[ 14] __ZN7JNIEnv_23ReleaseIntArrayElementsEP10_jintArrayPii.eh
0x00055880	0x00000038	[ 14] __ZN7JNIEnv_18GetByteArrayRegionEP11_jbyteArrayiiPa.eh
0x000558B8	0x00000038	[ 14] __ZN7JNIEnv_17GetIntArrayRegionEP10_jintArrayiiPi.eh
0x000558F0	0x00000038	[ 14] __ZN7JNIEnv_18SetByteArrayRegionEP11_jbyteArrayiiPKa.eh
0x00055928	0x00000038	[ 14] __ZN7JNIEnv_17SetIntArrayRegionEP10_jintArrayiiPKi.eh
0x00055960	0x00000038	[ 14] __ZN7JNIEnv_22GetDirectBufferAddressEP8_jobject.eh
0x00055998	0x00000038	[ 14] __ZN7JNIEnv_23GetDirectBufferCapacityEP8_jobject.eh
0x000559D0	0x00000038	[ 14] __ZL12_OSSwapInt16t.eh
0x00055A08	0x00000038	[ 14] __ZL12_OSSwapInt32j.eh
0x00055A40	0x00000038	[ 14] _X_IsInRange.eh
0x00055A78	0x00000038	[ 14] _X_ConvertMillisIntoTimeValue.eh
0x00055AB0	0x00000038	[ 14] _UDT_GetSocketID.eh
0x00055AE8	0x00000038	[ 14] _UDT_SetSocketID.eh
0x00055B20	0x00000038	[ 14] _UDT_InitFieldMonitor.eh
0x00055B58	0x00000038	[ 14] _UDT_InitFieldRefAll.eh
0x00055B90	0x00000038	[ 14] _Java_com_barchart_udt_SocketUDT_getSignatureJNI0.eh
0x00055BC8	0x00000038	[ 14] _Java_com_barchart_udt_SocketUDT_testEmptyCall0.eh
0x00055C00	0x00000038	[ 14] _Java_com_barchart_udt_SocketUDT_testIterateArray0.eh
0x00055C38	0x00000038	[ 14] _Java_com_barchart_udt_SocketUDT_testMakeArray0.eh
0x00055C70	0x00000038	[ 14] _Java_com_barchart_udt_SocketUDT_testGetSetArray0.eh
0x00055CA8	0x00000038	[ 14] _Java_com_barchart_udt_SocketUDT_testFillArray0.eh
0x00055CE0	0x00000038	[ 14] _Java_com_barchart_udt_SocketUDT_testFillBuffer0.eh
0x00055D18	0x00000038	[ 14] _Java_com_barchart_udt_SocketUDT_testSocketStatus0.eh
0x00055D50	0x00000038	[ 14] __ZStL17__verify_groupingPKcmRKSs.eh
0x00055D88	0x00000038	[ 14] __ZN9__gnu_cxx17__normal_iteratorIPiSt6vectorIiSaIiEEEC1Ev.eh
0x00055DC0	0x00000038	[ 14] __ZNSt23_Rb_tree_const_iteratorIiEC1Ev.eh
0x00055DF8	0x00000038	[ 14] __ZNSt4pairISt23_Rb_tree_const_iteratorIiEbEC1Ev.eh
0x00055E30	0x00000038	[ 14] __ZNSt18input_iterator_tagC2Ev.eh
0x00055E68	0x00000038	[ 14] __ZNSt20forward_iterator_tagC2Ev.eh
0x00055EA0	0x00000038	[ 14] __ZNSt26bidirectional_iterator_tagC2Ev.eh
0x00055ED8	0x00000038	[ 14] __ZNSt26random_access_iterator_tagC1Ev.eh
0x00055F10	0x00000038	[ 14] __ZSt19__iterator_categoryIN9__gnu_cxx17__normal_iteratorIPiSt6vectorIiSaIiEEEEENSt15iterator_traitsIT_E17iterator_categoryERKS8_.eh
0x00055F48	0x00000038	[ 14] __ZNSt8_Rb_treeIiiSt9_IdentityIiESt4lessIiESaIiEE8_S_rightEPSt18_Rb_tree_node_base.eh
0x00055F80	0x00000038	[ 14] __ZNSt8_Rb_treeIiiSt9_IdentityIiESt4lessIiESaIiEE7_S_leftEPSt18_Rb_tree_node_base.eh
0x00055FB8	0x00000038	[ 14] __ZN9__gnu_cxxeqIPKiSt6vectorIiSaIiEEEEbRKNS_17__normal_iteratorIT_T0_EESB_.eh
0x00055FF0	0x00000038	[ 14] __ZNKSt6vectorIiSaIiEE5emptyEv.eh
0x00056028	0x00000038	[ 14] __ZN9__gnu_cxxmiIPiSt6vectorIiSaIiEEEENS_17__normal_iteratorIT_T0_E15difference_typeERKS8_SB_.eh
0x00056060	0x00000038	[ 14] __ZSt6__findIN9__gnu_cxx17__normal_iteratorIPiSt6vectorIiSaIiEEEEiET_S7_S7_RKT0_St26random_access_iterator_tag.eh
0x00056098	0x00000038	[ 14] __ZSt4findIN9__gnu_cxx17__normal_iteratorIPiSt6vectorIiSaIiEEEEiET_S7_S7_RKT0_.eh
0x000560D0	0x00000038	[ 14] __ZSt13__destroy_auxIPiEvT_S1_St11__true_type.eh
0x00056108	0x00000038	[ 14] __ZSt8_DestroyIPiEvT_S1_.eh
0x00056140	0x00000038	[ 14] __ZSt8_DestroyIPiiEvT_S1_SaIT0_E.eh
0x00056178	0x00000038	[ 14] _Java_com_barchart_udt_SocketUDT_testDirectIntBufferAccess0.eh
0x000561B0	0x00000038	[ 14] _Java_com_barchart_udt_SocketUDT_testDirectByteBufferAccess0.eh
0x000561E8	0x00000038	[ 14] _UDT_InitMethodRefAll.eh
0x00056220	0x00000038	[ 14] _X_InitMethodRef.eh
0x00056258	0x00000038	[ 14] _XXX_ThrowSocketExceptionMessage.eh
0x00056290	0x00000038	[ 14] _X_IsSockaddrEqualsInetSocketAddress.eh
0x000562C8	0x00000038	[ 14] _X_ConvertSockaddrToInetSocketAddress.eh
0x00056300	0x00000038	[ 14] _X_ConvertInetSocketAddressToSockaddr.eh
0x00056338	0x00000038	[ 14] _X_InitClassReference.eh
0x00056370	0x00000038	[ 14] _UDT_InitClassRefAll.eh
0x000563A8	0x00000038	[ 14] _Java_com_barchart_udt_SocketUDT_testCrashJVM0.eh
0x000563E0	0x00000038	[ 14] _Java_com_barchart_udt_SocketUDT_clearError0.eh
0x00056418	0x00000038	[ 14] _Java_com_barchart_udt_SocketUDT_getErrorMessage0.eh
0x00056450	0x00000038	[ 14] _Java_com_barchart_udt_SocketUDT_getErrorCode0.eh
0x00056488	0x00000038	[ 14] __ZN7JNIEnv_16CallObjectMethodEP8_jobjectP10_jmethodIDz.eh
0x000564C0	0x00000038	[ 14] __ZN7JNIEnv_17CallBooleanMethodEP8_jobjectP10_jmethodIDz.eh
0x000564F8	0x00000038	[ 14] _Java_com_barchart_udt_SocketUDT_testIterateSet0.eh
0x00056530	0x00000038	[ 14] __ZN7JNIEnv_13CallIntMethodEP8_jobjectP10_jmethodIDz.eh
0x00056568	0x00000038	[ 14] __ZN7JNIEnv_14CallLongMethodEP8_jobjectP10_jmethodIDz.eh
0x000565A0	0x00000038	[ 14] __ZN7JNIEnv_9NewObjectEP7_jclassP10_jmethodIDz.eh
0x000565D8	0x00000038	[ 14] _UDT_NewExceptionUDT.eh
0x00056610	0x00000038	[ 14] _UDT_ThrowExceptionUDT_ErrorInfo.eh
0x00056648	0x00000038	[ 14] _Java_com_barchart_udt_SocketUDT_testInvalidClose0.eh
0x00056680	0x00000038	[ 14] _Java_com_barchart_udt_SocketUDT_initInstance1.eh
0x000566B8	0x00000038	[ 14] _UDT_ThrowExceptionUDT_Message.eh
0x000566F0	0x00000038	[ 14] _X_IsValidRange.eh
0x00056728	0x00000038	[ 14] _UDT_NewLingerUDT.eh
0x00056760	0x00000038	[ 14] _X_NewInetAddress.eh
0x00056798	0x00000038	[ 14] _X_NewInetSocketAddress.eh
0x000567D0	0x00000038	[ 14] _X_NewLong.eh
0x00056808	0x00000038	[ 14] _X_NewInteger.eh
0x00056840	0x00000038	[ 14] _X_NewBoolean.eh
0x00056878	0x00000038	[ 14] __ZNSt22__copy_backward_normalILb0ELb0EE10__copy_b_nIPiS2_EET0_T_S4_S3_.eh
0x000568B0	0x00000038	[ 14] __ZNSt6__copyILb1ESt26random_access_iterator_tagE4copyIiEEPT_PKS3_S6_S4_.eh
0x000568E8	0x00000038	[ 14] __ZNSt13__copy_normalILb0ELb0EE8__copy_nIPiS2_EET0_T_S4_S3_.eh
0x00056920	0x00000038	[ 14] __ZSt24__uninitialized_copy_auxIPiS0_ET0_T_S2_S1_St11__true_type.eh
0x00056958	0x00000038	[ 14] _Java_com_barchart_udt_SocketUDT_selectEx1.eh
0x00056990	0x00000038	[ 14] _Java_com_barchart_udt_SocketUDT_selectEx0.eh
0x000569C8	0x00000038	[ 14] _UDT_CopySetToArray.eh
0x00056A00	0x00000038	[ 14] _UDT_CopyArrayToSet.eh
0x00056A38	0x00000038	[ 14] _Java_com_barchart_udt_SocketUDT_select1.eh
0x00056A70	0x00000038	[ 14] _Java_com_barchart_udt_SocketUDT_select0.eh
0x00056AA8	0x00000038	[ 14] _Java_com_barchart_udt_SocketUDT_updateMonitor0.eh
0x00056AE0	0x00000038	[ 14] _UDT_ReturnSendError.eh
0x00056B18	0x00000038	[ 14] _Java_com_barchart_udt_SocketUDT_send2.eh
0x00056B50	0x00000038	[ 14] _Java_com_barchart_udt_SocketUDT_send1.eh
0x00056B88	0x00000038	[ 14] _Java_com_barchart_udt_SocketUDT_send0.eh
0x00056BC0	0x00000038	[ 14] _UDT_ReturnReceiveError.eh
0x00056BF8	0x00000038	[ 14] _Java_com_barchart_udt_SocketUDT_receive2.eh
0x00056C30	0x00000038	[ 14] _Java_com_barchart_udt_SocketUDT_receive1.eh
0x00056C68	0x00000038	[ 14] _Java_com_barchart_udt_SocketUDT_receive0.eh
0x00056CA0	0x00000038	[ 14] _Java_com_barchart_udt_SocketUDT_listen0.eh
0x00056CD8	0x00000038	[ 14] _Java_com_barchart_udt_SocketUDT_setOption0.eh
0x00056D10	0x00000038	[ 14] _Java_com_barchart_udt_SocketUDT_getOption0.eh
0x00056D48	0x00000038	[ 14] _UDT_IsSocketOpen.eh
0x00056D80	0x00000038	[ 14] _Java_com_barchart_udt_SocketUDT_isOpen0.eh
0x00056DB8	0x00000038	[ 14] _Java_com_barchart_udt_SocketUDT_close0.eh
0x00056DF0	0x00000038	[ 14] _Java_com_barchart_udt_SocketUDT_hasLoadedLocalSocketAddress.eh
0x00056E28	0x00000038	[ 14] _Java_com_barchart_udt_SocketUDT_hasLoadedRemoteSocketAddress.eh
0x00056E60	0x00000038	[ 14] _Java_com_barchart_udt_SocketUDT_accept0.eh
0x00056E98	0x00000038	[ 14] _Java_com_barchart_udt_SocketUDT_initInstance0.eh
0x00056ED0	0x00000038	[ 14] _Java_com_barchart_udt_SocketUDT_stopClass0.eh
0x00056F08	0x00000038	[ 14] _Java_com_barchart_udt_SocketUDT_initClass0.eh
0x00056F40	0x00000038	[ 14] _X_InitSockAddr.eh
0x00056F78	0x00000038	[ 14] _Java_com_barchart_udt_SocketUDT_connect0.eh
0x00056FB0	0x00000038	[ 14] _Java_com_barchart_udt_SocketUDT_bind0.eh
0x00057000	0x00000008	[  7] initializer$0
0x00057008	0x00000008	[  8] initializer$0
0x00057010	0x00000008	[  0] __ZN10CUDTUnited10TLSDestroyEPv$non_lazy_pointer
0x00057018	0x00000008	[  0] __ZTI13CUDTException$non_lazy_pointer
0x00057020	0x00000008	[  0] __ZTISt9bad_alloc$non_lazy_pointer
0x00057028	0x00000008	[  0] __ZTV10CCCFactoryI6CUDTCCE$non_lazy_pointer
0x00057030	0x00000008	[  0] __ZTV17CCCVirtualFactory$non_lazy_pointer
0x00057038	0x00000008	[  0] ___gxx_personality_v0$non_lazy_pointer
0x00057040	0x00000008	[  0] ___stack_chk_guard$non_lazy_pointer
0x00057048	0x00000008	[  0] dyld_stub_binder$non_lazy_pointer
0x00057050	0x00000008	[  0] none
0x00057058	0x00000008	[  0] _X_ConvertMillisIntoTimeValue$lazy_pointer
0x00057060	0x00000008	[  0] _X_IsInRange$lazy_pointer
0x00057068	0x00000008	[  0] __Unwind_Resume$lazy_pointer
0x00057070	0x00000008	[  0] __ZN10CCCFactoryI6CUDTCCEC1Ev$lazy_pointer
0x00057078	0x00000008	[  0] __ZN10CEPollDescC1ERKS_$lazy_pointer
0x00057080	0x00000008	[  0] __ZN10CEPollDescC1Ev$lazy_pointer
0x00057088	0x00000008	[  0] __ZN10CEPollDescD1Ev$lazy_pointer
0x00057090	0x00000008	[  0] __ZN10CEPollDescaSERKS_$lazy_pointer
0x00057098	0x00000008	[  0] __ZN13CUDTExceptionaSERKS_$lazy_pointer
0x000570A0	0x00000008	[  0] __ZN16CRendezvousQueue3CRLD1Ev$lazy_pointer
0x000570A8	0x00000008	[  0] __ZN17CCCVirtualFactoryC2Ev$lazy_pointer
0x000570B0	0x00000008	[  0] __ZN5CUnitC1Ev$lazy_pointer
0x000570B8	0x00000008	[  0] __ZN5CUnitD1Ev$lazy_pointer
0x000570C0	0x00000008	[  0] __ZN6CAckNo6incackERKi$lazy_pointer
0x000570C8	0x00000008	[  0] __ZN6CSeqNo6decseqERKi$lazy_pointer
0x000570D0	0x00000008	[  0] __ZN6CSeqNo6incseqERKiS1_$lazy_pointer
0x000570D8	0x00000008	[  0] __ZN6CSeqNo6incseqEi$lazy_pointer
0x000570E0	0x00000008	[  0] __ZN6CSeqNo6seqcmpERKiS1_$lazy_pointer
0x000570E8	0x00000008	[  0] __ZN6CSeqNo6seqlenERKiS1_$lazy_pointer
0x000570F0	0x00000008	[  0] __ZN6CSeqNo6seqoffERKiS1_$lazy_pointer
0x000570F8	0x00000008	[  0] __ZN7JNIEnv_10GetFieldIDEP7_jclassPKcS3_$lazy_pointer
0x00057100	0x00000008	[  0] __ZN7JNIEnv_11GetIntFieldEP8_jobjectP9_jfieldID$lazy_pointer
0x00057108	0x00000008	[  0] __ZN7JNIEnv_11GetMethodIDEP7_jclassPKcS3_$lazy_pointer
0x00057110	0x00000008	[  0] __ZN7JNIEnv_11NewIntArrayEi$lazy_pointer
0x00057118	0x00000008	[  0] __ZN7JNIEnv_11SetIntFieldEP8_jobjectP9_jfieldIDi$lazy_pointer
0x00057120	0x00000008	[  0] __ZN7JNIEnv_12IsSameObjectEP8_jobjectS1_$lazy_pointer
0x00057128	0x00000008	[  0] __ZN7JNIEnv_12NewGlobalRefEP8_jobject$lazy_pointer
0x00057130	0x00000008	[  0] __ZN7JNIEnv_12NewStringUTFEPKc$lazy_pointer
0x00057138	0x00000008	[  0] __ZN7JNIEnv_12SetLongFieldEP8_jobjectP9_jfieldIDx$lazy_pointer
0x00057140	0x00000008	[  0] __ZN7JNIEnv_13CallIntMethodEP8_jobjectP10_jmethodIDz$lazy_pointer
0x00057148	0x00000008	[  0] __ZN7JNIEnv_14CallLongMethodEP8_jobjectP10_jmethodIDz$lazy_pointer
0x00057150	0x00000008	[  0] __ZN7JNIEnv_14GetArrayLengthEP7_jarray$lazy_pointer
0x00057158	0x00000008	[  0] __ZN7JNIEnv_14GetObjectFieldEP8_jobjectP9_jfieldID$lazy_pointer
0x00057160	0x00000008	[  0] __ZN7JNIEnv_14SetDoubleFieldEP8_jobjectP9_jfieldIDd$lazy_pointer
0x00057168	0x00000008	[  0] __ZN7JNIEnv_14SetObjectFieldEP8_jobjectP9_jfieldIDS1_$lazy_pointer
0x00057170	0x00000008	[  0] __ZN7JNIEnv_15SetBooleanFieldEP8_jobjectP9_jfieldIDh$lazy_pointer
0x00057178	0x00000008	[  0] __ZN7JNIEnv_16CallObjectMethodEP8_jobjectP10_jmethodIDz$lazy_pointer
0x00057180	0x00000008	[  0] __ZN7JNIEnv_17CallBooleanMethodEP8_jobjectP10_jmethodIDz$lazy_pointer
0x00057188	0x00000008	[  0] __ZN7JNIEnv_17GetIntArrayRegionEP10_jintArrayiiPi$lazy_pointer
0x00057190	0x00000008	[  0] __ZN7JNIEnv_17SetIntArrayRegionEP10_jintArrayiiPKi$lazy_pointer
0x00057198	0x00000008	[  0] __ZN7JNIEnv_18GetByteArrayRegionEP11_jbyteArrayiiPa$lazy_pointer
0x000571A0	0x00000008	[  0] __ZN7JNIEnv_18SetByteArrayRegionEP11_jbyteArrayiiPKa$lazy_pointer
0x000571A8	0x00000008	[  0] __ZN7JNIEnv_19GetIntArrayElementsEP10_jintArrayPh$lazy_pointer
0x000571B0	0x00000008	[  0] __ZN7JNIEnv_20GetByteArrayElementsEP11_jbyteArrayPh$lazy_pointer
0x000571B8	0x00000008	[  0] __ZN7JNIEnv_21GetObjectArrayElementEP13_jobjectArrayi$lazy_pointer
0x000571C0	0x00000008	[  0] __ZN7JNIEnv_22GetDirectBufferAddressEP8_jobject$lazy_pointer
0x000571C8	0x00000008	[  0] __ZN7JNIEnv_23GetDirectBufferCapacityEP8_jobject$lazy_pointer
0x000571D0	0x00000008	[  0] __ZN7JNIEnv_23ReleaseIntArrayElementsEP10_jintArrayPii$lazy_pointer
0x000571D8	0x00000008	[  0] __ZN7JNIEnv_24ReleaseByteArrayElementsEP11_jbyteArrayPai$lazy_pointer
0x000571E0	0x00000008	[  0] __ZN7JNIEnv_5ThrowEP11_jthrowable$lazy_pointer
0x000571E8	0x00000008	[  0] __ZN7JNIEnv_8ThrowNewEP7_jclassPKc$lazy_pointer
0x000571F0	0x00000008	[  0] __ZN7JNIEnv_9FindClassEPKc$lazy_pointer
0x000571F8	0x00000008	[  0] __ZN7JNIEnv_9NewObjectEP7_jclassP10_jmethodIDz$lazy_pointer
0x00057200	0x00000008	[  0] __ZN9__gnu_cxx13new_allocatorIN16CRendezvousQueue3CRLEE10deallocateEPS2_m$lazy_pointer
0x00057208	0x00000008	[  0] __ZN9__gnu_cxx13new_allocatorIN16CRendezvousQueue3CRLEE7destroyEPS2_$lazy_pointer
0x00057210	0x00000008	[  0] __ZN9__gnu_cxx13new_allocatorIN16CRendezvousQueue3CRLEE8allocateEmPKv$lazy_pointer
0x00057218	0x00000008	[  0] __ZN9__gnu_cxx13new_allocatorIN16CRendezvousQueue3CRLEE9constructEPS2_RKS2_$lazy_pointer
0x00057220	0x00000008	[  0] __ZN9__gnu_cxx13new_allocatorIN16CRendezvousQueue3CRLEEC2ERKS3_$lazy_pointer
0x00057228	0x00000008	[  0] __ZN9__gnu_cxx13new_allocatorIN16CRendezvousQueue3CRLEEC2Ev$lazy_pointer
0x00057230	0x00000008	[  0] __ZN9__gnu_cxx13new_allocatorIN16CRendezvousQueue3CRLEED2Ev$lazy_pointer
0x00057238	0x00000008	[  0] __ZN9__gnu_cxx13new_allocatorIP10CInfoBlockE7destroyEPS2_$lazy_pointer
0x00057240	0x00000008	[  0] __ZN9__gnu_cxx13new_allocatorIP10CInfoBlockE9constructEPS2_RKS2_$lazy_pointer
0x00057248	0x00000008	[  0] __ZN9__gnu_cxx13new_allocatorIP10CInfoBlockEC2Ev$lazy_pointer
0x00057250	0x00000008	[  0] __ZN9__gnu_cxx13new_allocatorIP10CInfoBlockED2Ev$lazy_pointer
0x00057258	0x00000008	[  0] __ZN9__gnu_cxx13new_allocatorIP10CUDTSocketE10deallocateEPS2_m$lazy_pointer
0x00057260	0x00000008	[  0] __ZN9__gnu_cxx13new_allocatorIP10CUDTSocketE8allocateEmPKv$lazy_pointer
0x00057268	0x00000008	[  0] __ZN9__gnu_cxx13new_allocatorIP10CUDTSocketE9constructEPS2_RKS2_$lazy_pointer
0x00057270	0x00000008	[  0] __ZN9__gnu_cxx13new_allocatorIP10CUDTSocketEC2ERKS3_$lazy_pointer
0x00057278	0x00000008	[  0] __ZN9__gnu_cxx13new_allocatorIP10CUDTSocketEC2Ev$lazy_pointer
0x00057280	0x00000008	[  0] __ZN9__gnu_cxx13new_allocatorIP10CUDTSocketED2Ev$lazy_pointer
0x00057288	0x00000008	[  0] __ZN9__gnu_cxx13new_allocatorIP4CUDTE10deallocateEPS2_m$lazy_pointer
0x00057290	0x00000008	[  0] __ZN9__gnu_cxx13new_allocatorIP4CUDTE7destroyEPS2_$lazy_pointer
0x00057298	0x00000008	[  0] __ZN9__gnu_cxx13new_allocatorIP4CUDTE8allocateEmPKv$lazy_pointer
0x000572A0	0x00000008	[  0] __ZN9__gnu_cxx13new_allocatorIP4CUDTE9constructEPS2_RKS2_$lazy_pointer
0x000572A8	0x00000008	[  0] __ZN9__gnu_cxx13new_allocatorIP4CUDTEC2ERKS3_$lazy_pointer
0x000572B0	0x00000008	[  0] __ZN9__gnu_cxx13new_allocatorIP4CUDTEC2Ev$lazy_pointer
0x000572B8	0x00000008	[  0] __ZN9__gnu_cxx13new_allocatorIP4CUDTED2Ev$lazy_pointer
0x000572C0	0x00000008	[  0] __ZN9__gnu_cxx13new_allocatorIP7CPacketE10deallocateEPS2_m$lazy_pointer
0x000572C8	0x00000008	[  0] __ZN9__gnu_cxx13new_allocatorIP7CPacketE7destroyEPS2_$lazy_pointer
0x000572D0	0x00000008	[  0] __ZN9__gnu_cxx13new_allocatorIP7CPacketE8allocateEmPKv$lazy_pointer
0x000572D8	0x00000008	[  0] __ZN9__gnu_cxx13new_allocatorIP7CPacketE9constructEPS2_RKS2_$lazy_pointer
0x000572E0	0x00000008	[  0] __ZN9__gnu_cxx13new_allocatorIP7CPacketEC2ERKS3_$lazy_pointer
0x000572E8	0x00000008	[  0] __ZN9__gnu_cxx13new_allocatorIP7CPacketEC2Ev$lazy_pointer
0x000572F0	0x00000008	[  0] __ZN9__gnu_cxx13new_allocatorIP7CPacketED2Ev$lazy_pointer
0x000572F8	0x00000008	[  0] __ZN9__gnu_cxx13new_allocatorIPP7CPacketE10deallocateEPS3_m$lazy_pointer
0x00057300	0x00000008	[  0] __ZN9__gnu_cxx13new_allocatorIPP7CPacketE8allocateEmPKv$lazy_pointer
0x00057308	0x00000008	[  0] __ZN9__gnu_cxx13new_allocatorIPP7CPacketEC2Ev$lazy_pointer
0x00057310	0x00000008	[  0] __ZN9__gnu_cxx13new_allocatorIPP7CPacketED2Ev$lazy_pointer
0x00057318	0x00000008	[  0] __ZN9__gnu_cxx13new_allocatorISt13_Rb_tree_nodeIP10CInfoBlockEE10deallocateEPS4_m$lazy_pointer
0x00057320	0x00000008	[  0] __ZN9__gnu_cxx13new_allocatorISt13_Rb_tree_nodeIP10CInfoBlockEE8allocateEmPKv$lazy_pointer
0x00057328	0x00000008	[  0] __ZN9__gnu_cxx13new_allocatorISt13_Rb_tree_nodeIP10CInfoBlockEEC2ERKS5_$lazy_pointer
0x00057330	0x00000008	[  0] __ZN9__gnu_cxx13new_allocatorISt13_Rb_tree_nodeIP10CInfoBlockEEC2Ev$lazy_pointer
0x00057338	0x00000008	[  0] __ZN9__gnu_cxx13new_allocatorISt13_Rb_tree_nodeIP10CInfoBlockEED2Ev$lazy_pointer
0x00057340	0x00000008	[  0] __ZN9__gnu_cxx13new_allocatorISt13_Rb_tree_nodeISt4pairIKi10CEPollDescEEE10deallocateEPS6_m$lazy_pointer
0x00057348	0x00000008	[  0] __ZN9__gnu_cxx13new_allocatorISt13_Rb_tree_nodeISt4pairIKi10CEPollDescEEE8allocateEmPKv$lazy_pointer
0x00057350	0x00000008	[  0] __ZN9__gnu_cxx13new_allocatorISt13_Rb_tree_nodeISt4pairIKi10CEPollDescEEEC2ERKS7_$lazy_pointer
0x00057358	0x00000008	[  0] __ZN9__gnu_cxx13new_allocatorISt13_Rb_tree_nodeISt4pairIKi10CEPollDescEEEC2Ev$lazy_pointer
0x00057360	0x00000008	[  0] __ZN9__gnu_cxx13new_allocatorISt13_Rb_tree_nodeISt4pairIKi10CEPollDescEEED2Ev$lazy_pointer
0x00057368	0x00000008	[  0] __ZN9__gnu_cxx13new_allocatorISt13_Rb_tree_nodeISt4pairIKi12CMultiplexerEEE10deallocateEPS6_m$lazy_pointer
0x00057370	0x00000008	[  0] __ZN9__gnu_cxx13new_allocatorISt13_Rb_tree_nodeISt4pairIKi12CMultiplexerEEE8allocateEmPKv$lazy_pointer
0x00057378	0x00000008	[  0] __ZN9__gnu_cxx13new_allocatorISt13_Rb_tree_nodeISt4pairIKi12CMultiplexerEEEC2ERKS7_$lazy_pointer
0x00057380	0x00000008	[  0] __ZN9__gnu_cxx13new_allocatorISt13_Rb_tree_nodeISt4pairIKi12CMultiplexerEEEC2Ev$lazy_pointer
0x00057388	0x00000008	[  0] __ZN9__gnu_cxx13new_allocatorISt13_Rb_tree_nodeISt4pairIKi12CMultiplexerEEED2Ev$lazy_pointer
0x00057390	0x00000008	[  0] __ZN9__gnu_cxx13new_allocatorISt13_Rb_tree_nodeISt4pairIKiP10CUDTSocketEEE10deallocateEPS7_m$lazy_pointer
0x00057398	0x00000008	[  0] __ZN9__gnu_cxx13new_allocatorISt13_Rb_tree_nodeISt4pairIKiP10CUDTSocketEEE8allocateEmPKv$lazy_pointer
0x000573A0	0x00000008	[  0] __ZN9__gnu_cxx13new_allocatorISt13_Rb_tree_nodeISt4pairIKiP10CUDTSocketEEEC2ERKS8_$lazy_pointer
0x000573A8	0x00000008	[  0] __ZN9__gnu_cxx13new_allocatorISt13_Rb_tree_nodeISt4pairIKiP10CUDTSocketEEEC2Ev$lazy_pointer
0x000573B0	0x00000008	[  0] __ZN9__gnu_cxx13new_allocatorISt13_Rb_tree_nodeISt4pairIKiP10CUDTSocketEEED2Ev$lazy_pointer
0x000573B8	0x00000008	[  0] __ZN9__gnu_cxx13new_allocatorISt13_Rb_tree_nodeISt4pairIKiSt5queueIP7CPacketSt5dequeIS6_SaIS6_EEEEEE10deallocateEPSC_m$lazy_pointer
0x000573C0	0x00000008	[  0] __ZN9__gnu_cxx13new_allocatorISt13_Rb_tree_nodeISt4pairIKiSt5queueIP7CPacketSt5dequeIS6_SaIS6_EEEEEE8allocateEmPKv$lazy_pointer
0x000573C8	0x00000008	[  0] __ZN9__gnu_cxx13new_allocatorISt13_Rb_tree_nodeISt4pairIKiSt5queueIP7CPacketSt5dequeIS6_SaIS6_EEEEEEC2ERKSD_$lazy_pointer
0x000573D0	0x00000008	[  0] __ZN9__gnu_cxx13new_allocatorISt13_Rb_tree_nodeISt4pairIKiSt5queueIP7CPacketSt5dequeIS6_SaIS6_EEEEEEC2Ev$lazy_pointer
0x000573D8	0x00000008	[  0] __ZN9__gnu_cxx13new_allocatorISt13_Rb_tree_nodeISt4pairIKiSt5queueIP7CPacketSt5dequeIS6_SaIS6_EEEEEED2Ev$lazy_pointer
0x000573E0	0x00000008	[  0] __ZN9__gnu_cxx13new_allocatorISt13_Rb_tree_nodeISt4pairIKxSt3setIiSt4lessIiESaIiEEEEE10deallocateEPSA_m$lazy_pointer
0x000573E8	0x00000008	[  0] __ZN9__gnu_cxx13new_allocatorISt13_Rb_tree_nodeISt4pairIKxSt3setIiSt4lessIiESaIiEEEEE8allocateEmPKv$lazy_pointer
0x000573F0	0x00000008	[  0] __ZN9__gnu_cxx13new_allocatorISt13_Rb_tree_nodeISt4pairIKxSt3setIiSt4lessIiESaIiEEEEEC2ERKSB_$lazy_pointer
0x000573F8	0x00000008	[  0] __ZN9__gnu_cxx13new_allocatorISt13_Rb_tree_nodeISt4pairIKxSt3setIiSt4lessIiESaIiEEEEEC2Ev$lazy_pointer
0x00057400	0x00000008	[  0] __ZN9__gnu_cxx13new_allocatorISt13_Rb_tree_nodeISt4pairIKxSt3setIiSt4lessIiESaIiEEEEED2Ev$lazy_pointer
0x00057408	0x00000008	[  0] __ZN9__gnu_cxx13new_allocatorISt13_Rb_tree_nodeIiEE10deallocateEPS2_m$lazy_pointer
0x00057410	0x00000008	[  0] __ZN9__gnu_cxx13new_allocatorISt13_Rb_tree_nodeIiEE8allocateEmPKv$lazy_pointer
0x00057418	0x00000008	[  0] __ZN9__gnu_cxx13new_allocatorISt13_Rb_tree_nodeIiEEC2ERKS3_$lazy_pointer
0x00057420	0x00000008	[  0] __ZN9__gnu_cxx13new_allocatorISt13_Rb_tree_nodeIiEEC2Ev$lazy_pointer
0x00057428	0x00000008	[  0] __ZN9__gnu_cxx13new_allocatorISt13_Rb_tree_nodeIiEED2Ev$lazy_pointer
0x00057430	0x00000008	[  0] __ZN9__gnu_cxx13new_allocatorISt4pairIKi10CEPollDescEE7destroyEPS4_$lazy_pointer
0x00057438	0x00000008	[  0] __ZN9__gnu_cxx13new_allocatorISt4pairIKi10CEPollDescEE9constructEPS4_RKS4_$lazy_pointer
0x00057440	0x00000008	[  0] __ZN9__gnu_cxx13new_allocatorISt4pairIKi10CEPollDescEEC2Ev$lazy_pointer
0x00057448	0x00000008	[  0] __ZN9__gnu_cxx13new_allocatorISt4pairIKi10CEPollDescEED2Ev$lazy_pointer
0x00057450	0x00000008	[  0] __ZN9__gnu_cxx13new_allocatorISt4pairIKi12CMultiplexerEE7destroyEPS4_$lazy_pointer
0x00057458	0x00000008	[  0] __ZN9__gnu_cxx13new_allocatorISt4pairIKi12CMultiplexerEE9constructEPS4_RKS4_$lazy_pointer
0x00057460	0x00000008	[  0] __ZN9__gnu_cxx13new_allocatorISt4pairIKi12CMultiplexerEEC2Ev$lazy_pointer
0x00057468	0x00000008	[  0] __ZN9__gnu_cxx13new_allocatorISt4pairIKi12CMultiplexerEED2Ev$lazy_pointer
0x00057470	0x00000008	[  0] __ZN9__gnu_cxx13new_allocatorISt4pairIKiP10CUDTSocketEE7destroyEPS5_$lazy_pointer
0x00057478	0x00000008	[  0] __ZN9__gnu_cxx13new_allocatorISt4pairIKiP10CUDTSocketEE9constructEPS5_RKS5_$lazy_pointer
0x00057480	0x00000008	[  0] __ZN9__gnu_cxx13new_allocatorISt4pairIKiP10CUDTSocketEEC2Ev$lazy_pointer
0x00057488	0x00000008	[  0] __ZN9__gnu_cxx13new_allocatorISt4pairIKiP10CUDTSocketEED2Ev$lazy_pointer
0x00057490	0x00000008	[  0] __ZN9__gnu_cxx13new_allocatorISt4pairIKiSt5queueIP7CPacketSt5dequeIS5_SaIS5_EEEEE7destroyEPSA_$lazy_pointer
0x00057498	0x00000008	[  0] __ZN9__gnu_cxx13new_allocatorISt4pairIKiSt5queueIP7CPacketSt5dequeIS5_SaIS5_EEEEE9constructEPSA_RKSA_$lazy_pointer
0x000574A0	0x00000008	[  0] __ZN9__gnu_cxx13new_allocatorISt4pairIKiSt5queueIP7CPacketSt5dequeIS5_SaIS5_EEEEEC2Ev$lazy_pointer
0x000574A8	0x00000008	[  0] __ZN9__gnu_cxx13new_allocatorISt4pairIKiSt5queueIP7CPacketSt5dequeIS5_SaIS5_EEEEED2Ev$lazy_pointer
0x000574B0	0x00000008	[  0] __ZN9__gnu_cxx13new_allocatorISt4pairIKxSt3setIiSt4lessIiESaIiEEEE7destroyEPS8_$lazy_pointer
0x000574B8	0x00000008	[  0] __ZN9__gnu_cxx13new_allocatorISt4pairIKxSt3setIiSt4lessIiESaIiEEEE9constructEPS8_RKS8_$lazy_pointer
0x000574C0	0x00000008	[  0] __ZN9__gnu_cxx13new_allocatorISt4pairIKxSt3setIiSt4lessIiESaIiEEEEC2Ev$lazy_pointer
0x000574C8	0x00000008	[  0] __ZN9__gnu_cxx13new_allocatorISt4pairIKxSt3setIiSt4lessIiESaIiEEEED2Ev$lazy_pointer
0x000574D0	0x00000008	[  0] __ZN9__gnu_cxx13new_allocatorIiE10deallocateEPim$lazy_pointer
0x000574D8	0x00000008	[  0] __ZN9__gnu_cxx13new_allocatorIiE7destroyEPi$lazy_pointer
0x000574E0	0x00000008	[  0] __ZN9__gnu_cxx13new_allocatorIiE8allocateEmPKv$lazy_pointer
0x000574E8	0x00000008	[  0] __ZN9__gnu_cxx13new_allocatorIiE9constructEPiRKi$lazy_pointer
0x000574F0	0x00000008	[  0] __ZN9__gnu_cxx13new_allocatorIiEC2ERKS1_$lazy_pointer
0x000574F8	0x00000008	[  0] __ZN9__gnu_cxx13new_allocatorIiEC2Ev$lazy_pointer
0x00057500	0x00000008	[  0] __ZN9__gnu_cxx13new_allocatorIiED2Ev$lazy_pointer
0x00057508	0x00000008	[  0] __ZN9__gnu_cxx17__normal_iteratorIPKP4CUDTSt6vectorIS2_SaIS2_EEEC1ERKS4_$lazy_pointer
0x00057510	0x00000008	[  0] __ZN9__gnu_cxx17__normal_iteratorIPKiSt6vectorIiSaIiEEEC1ERKS2_$lazy_pointer
0x00057518	0x00000008	[  0] __ZN9__gnu_cxx17__normal_iteratorIPKiSt6vectorIiSaIiEEEppEv$lazy_pointer
0x00057520	0x00000008	[  0] __ZN9__gnu_cxx17__normal_iteratorIPN16CRendezvousQueue3CRLESt6vectorIS2_SaIS2_EEEC1ERKS3_$lazy_pointer
0x00057528	0x00000008	[  0] __ZN9__gnu_cxx17__normal_iteratorIPN16CRendezvousQueue3CRLESt6vectorIS2_SaIS2_EEEppEv$lazy_pointer
0x00057530	0x00000008	[  0] __ZN9__gnu_cxx17__normal_iteratorIPP10CUDTSocketSt6vectorIS2_SaIS2_EEEC1ERKS3_$lazy_pointer
0x00057538	0x00000008	[  0] __ZN9__gnu_cxx17__normal_iteratorIPP10CUDTSocketSt6vectorIS2_SaIS2_EEEppEv$lazy_pointer
0x00057540	0x00000008	[  0] __ZN9__gnu_cxx17__normal_iteratorIPP4CUDTSt6vectorIS2_SaIS2_EEEC1ERKS3_$lazy_pointer
0x00057548	0x00000008	[  0] __ZN9__gnu_cxx17__normal_iteratorIPiSt6vectorIiSaIiEEEC1ERKS1_$lazy_pointer
0x00057550	0x00000008	[  0] __ZN9__gnu_cxx17__normal_iteratorIPiSt6vectorIiSaIiEEEC1Ev$lazy_pointer
0x00057558	0x00000008	[  0] __ZN9__gnu_cxx17__normal_iteratorIPiSt6vectorIiSaIiEEEppEv$lazy_pointer
0x00057560	0x00000008	[  0] __ZN9__gnu_cxxeqIPKP4CUDTSt6vectorIS2_SaIS2_EEEEbRKNS_17__normal_iteratorIT_T0_EESD_$lazy_pointer
0x00057568	0x00000008	[  0] __ZN9__gnu_cxxeqIPKiSt6vectorIiSaIiEEEEbRKNS_17__normal_iteratorIT_T0_EESB_$lazy_pointer
0x00057570	0x00000008	[  0] __ZN9__gnu_cxxeqIPN16CRendezvousQueue3CRLESt6vectorIS2_SaIS2_EEEEbRKNS_17__normal_iteratorIT_T0_EESC_$lazy_pointer
0x00057578	0x00000008	[  0] __ZN9__gnu_cxxeqIPP10CUDTSocketSt6vectorIS2_SaIS2_EEEEbRKNS_17__normal_iteratorIT_T0_EESC_$lazy_pointer
0x00057580	0x00000008	[  0] __ZN9__gnu_cxxeqIPP4CUDTSt6vectorIS2_SaIS2_EEEEbRKNS_17__normal_iteratorIT_T0_EESC_$lazy_pointer
0x00057588	0x00000008	[  0] __ZN9__gnu_cxxmiIPN16CRendezvousQueue3CRLESt6vectorIS2_SaIS2_EEEENS_17__normal_iteratorIT_T0_E15difference_typeERKSA_SD_$lazy_pointer
0x00057590	0x00000008	[  0] __ZN9__gnu_cxxmiIPP10CUDTSocketSt6vectorIS2_SaIS2_EEEENS_17__normal_iteratorIT_T0_E15difference_typeERKSA_SD_$lazy_pointer
0x00057598	0x00000008	[  0] __ZN9__gnu_cxxmiIPP4CUDTSt6vectorIS2_SaIS2_EEEENS_17__normal_iteratorIT_T0_E15difference_typeERKSA_SD_$lazy_pointer
0x000575A0	0x00000008	[  0] __ZN9__gnu_cxxmiIPiSt6vectorIiSaIiEEEENS_17__normal_iteratorIT_T0_E15difference_typeERKS8_SB_$lazy_pointer
0x000575A8	0x00000008	[  0] __ZN9__gnu_cxxneIPKiSt6vectorIiSaIiEEEEbRKNS_17__normal_iteratorIT_T0_EESB_$lazy_pointer
0x000575B0	0x00000008	[  0] __ZN9__gnu_cxxneIPN16CRendezvousQueue3CRLESt6vectorIS2_SaIS2_EEEEbRKNS_17__normal_iteratorIT_T0_EESC_$lazy_pointer
0x000575B8	0x00000008	[  0] __ZN9__gnu_cxxneIPP10CUDTSocketSt6vectorIS2_SaIS2_EEEEbRKNS_17__normal_iteratorIT_T0_EESC_$lazy_pointer
0x000575C0	0x00000008	[  0] __ZN9__gnu_cxxneIPP4CUDTSt6vectorIS2_SaIS2_EEEEbRKNS_17__normal_iteratorIT_T0_EESC_$lazy_pointer
0x000575C8	0x00000008	[  0] __ZN9__gnu_cxxneIPiSt6vectorIiSaIiEEEEbRKNS_17__normal_iteratorIT_T0_EESA_$lazy_pointer
0x000575D0	0x00000008	[  0] __ZNK9__gnu_cxx13new_allocatorIN16CRendezvousQueue3CRLEE8max_sizeEv$lazy_pointer
0x000575D8	0x00000008	[  0] __ZNK9__gnu_cxx13new_allocatorIP10CUDTSocketE8max_sizeEv$lazy_pointer
0x000575E0	0x00000008	[  0] __ZNK9__gnu_cxx13new_allocatorIP4CUDTE8max_sizeEv$lazy_pointer
0x000575E8	0x00000008	[  0] __ZNK9__gnu_cxx13new_allocatorIP7CPacketE8max_sizeEv$lazy_pointer
0x000575F0	0x00000008	[  0] __ZNK9__gnu_cxx13new_allocatorIPP7CPacketE8max_sizeEv$lazy_pointer
0x000575F8	0x00000008	[  0] __ZNK9__gnu_cxx13new_allocatorISt13_Rb_tree_nodeIP10CInfoBlockEE8max_sizeEv$lazy_pointer
0x00057600	0x00000008	[  0] __ZNK9__gnu_cxx13new_allocatorISt13_Rb_tree_nodeISt4pairIKi10CEPollDescEEE8max_sizeEv$lazy_pointer
0x00057608	0x00000008	[  0] __ZNK9__gnu_cxx13new_allocatorISt13_Rb_tree_nodeISt4pairIKi12CMultiplexerEEE8max_sizeEv$lazy_pointer
0x00057610	0x00000008	[  0] __ZNK9__gnu_cxx13new_allocatorISt13_Rb_tree_nodeISt4pairIKiP10CUDTSocketEEE8max_sizeEv$lazy_pointer
0x00057618	0x00000008	[  0] __ZNK9__gnu_cxx13new_allocatorISt13_Rb_tree_nodeISt4pairIKiSt5queueIP7CPacketSt5dequeIS6_SaIS6_EEEEEE8max_sizeEv$lazy_pointer
0x00057620	0x00000008	[  0] __ZNK9__gnu_cxx13new_allocatorISt13_Rb_tree_nodeISt4pairIKxSt3setIiSt4lessIiESaIiEEEEE8max_sizeEv$lazy_pointer
0x00057628	0x00000008	[  0] __ZNK9__gnu_cxx13new_allocatorISt13_Rb_tree_nodeIiEE8max_sizeEv$lazy_pointer
0x00057630	0x00000008	[  0] __ZNK9__gnu_cxx13new_allocatorIiE8max_sizeEv$lazy_pointer
0x00057638	0x00000008	[  0] __ZNK9__gnu_cxx17__normal_iteratorIPKP4CUDTSt6vectorIS2_SaIS2_EEE4baseEv$lazy_pointer
0x00057640	0x00000008	[  0] __ZNK9__gnu_cxx17__normal_iteratorIPKiSt6vectorIiSaIiEEE4baseEv$lazy_pointer
0x00057648	0x00000008	[  0] __ZNK9__gnu_cxx17__normal_iteratorIPKiSt6vectorIiSaIiEEEdeEv$lazy_pointer
0x00057650	0x00000008	[  0] __ZNK9__gnu_cxx17__normal_iteratorIPN16CRendezvousQueue3CRLESt6vectorIS2_SaIS2_EEE4baseEv$lazy_pointer
0x00057658	0x00000008	[  0] __ZNK9__gnu_cxx17__normal_iteratorIPN16CRendezvousQueue3CRLESt6vectorIS2_SaIS2_EEEdeEv$lazy_pointer
0x00057660	0x00000008	[  0] __ZNK9__gnu_cxx17__normal_iteratorIPN16CRendezvousQueue3CRLESt6vectorIS2_SaIS2_EEEplERKl$lazy_pointer
0x00057668	0x00000008	[  0] __ZNK9__gnu_cxx17__normal_iteratorIPN16CRendezvousQueue3CRLESt6vectorIS2_SaIS2_EEEptEv$lazy_pointer
0x00057670	0x00000008	[  0] __ZNK9__gnu_cxx17__normal_iteratorIPP10CUDTSocketSt6vectorIS2_SaIS2_EEE4baseEv$lazy_pointer
0x00057678	0x00000008	[  0] __ZNK9__gnu_cxx17__normal_iteratorIPP10CUDTSocketSt6vectorIS2_SaIS2_EEEdeEv$lazy_pointer
0x00057680	0x00000008	[  0] __ZNK9__gnu_cxx17__normal_iteratorIPP4CUDTSt6vectorIS2_SaIS2_EEE4baseEv$lazy_pointer
0x00057688	0x00000008	[  0] __ZNK9__gnu_cxx17__normal_iteratorIPP4CUDTSt6vectorIS2_SaIS2_EEEdeEv$lazy_pointer
0x00057690	0x00000008	[  0] __ZNK9__gnu_cxx17__normal_iteratorIPP4CUDTSt6vectorIS2_SaIS2_EEEplERKl$lazy_pointer
0x00057698	0x00000008	[  0] __ZNK9__gnu_cxx17__normal_iteratorIPiSt6vectorIiSaIiEEE4baseEv$lazy_pointer
0x000576A0	0x00000008	[  0] __ZNK9__gnu_cxx17__normal_iteratorIPiSt6vectorIiSaIiEEEdeEv$lazy_pointer
0x000576A8	0x00000008	[  0] __ZNKSi6gcountEv$lazy_pointer
0x000576B0	0x00000008	[  0] __ZNKSs4sizeEv$lazy_pointer
0x000576B8	0x00000008	[  0] __ZNKSs5c_strEv$lazy_pointer
0x000576C0	0x00000008	[  0] __ZNKSsixEm$lazy_pointer
0x000576C8	0x00000008	[  0] __ZNKSt10_Select1stISt4pairIKi10CEPollDescEEclERKS3_$lazy_pointer
0x000576D0	0x00000008	[  0] __ZNKSt10_Select1stISt4pairIKi12CMultiplexerEEclERKS3_$lazy_pointer
0x000576D8	0x00000008	[  0] __ZNKSt10_Select1stISt4pairIKiP10CUDTSocketEEclERKS4_$lazy_pointer
0x000576E0	0x00000008	[  0] __ZNKSt10_Select1stISt4pairIKiSt5queueIP7CPacketSt5dequeIS4_SaIS4_EEEEEclERKS9_$lazy_pointer
0x000576E8	0x00000008	[  0] __ZNKSt10_Select1stISt4pairIKxSt3setIiSt4lessIiESaIiEEEEclERKS7_$lazy_pointer
0x000576F0	0x00000008	[  0] __ZNKSt11_Deque_baseIP7CPacketSaIS1_EE19_M_get_Tp_allocatorEv$lazy_pointer
0x000576F8	0x00000008	[  0] __ZNKSt11_Deque_baseIP7CPacketSaIS1_EE20_M_get_map_allocatorEv$lazy_pointer
0x00057700	0x00000008	[  0] __ZNKSt12_Vector_baseIN16CRendezvousQueue3CRLESaIS1_EE19_M_get_Tp_allocatorEv$lazy_pointer
0x00057708	0x00000008	[  0] __ZNKSt12_Vector_baseIP10CUDTSocketSaIS1_EE19_M_get_Tp_allocatorEv$lazy_pointer
0x00057710	0x00000008	[  0] __ZNKSt12_Vector_baseIP4CUDTSaIS1_EE19_M_get_Tp_allocatorEv$lazy_pointer
0x00057718	0x00000008	[  0] __ZNKSt12_Vector_baseIiSaIiEE19_M_get_Tp_allocatorEv$lazy_pointer
0x00057720	0x00000008	[  0] __ZNKSt15_Deque_iteratorIP7CPacketRKS1_PS2_EdeEv$lazy_pointer
0x00057728	0x00000008	[  0] __ZNKSt15_Deque_iteratorIP7CPacketRS1_PS1_EdeEv$lazy_pointer
0x00057730	0x00000008	[  0] __ZNKSt17_Rb_tree_iteratorIP10CInfoBlockEeqERKS2_$lazy_pointer
0x00057738	0x00000008	[  0] __ZNKSt17_Rb_tree_iteratorIP10CInfoBlockEneERKS2_$lazy_pointer
0x00057740	0x00000008	[  0] __ZNKSt17_Rb_tree_iteratorISt4pairIKi10CEPollDescEEdeEv$lazy_pointer
0x00057748	0x00000008	[  0] __ZNKSt17_Rb_tree_iteratorISt4pairIKi10CEPollDescEEeqERKS4_$lazy_pointer
0x00057750	0x00000008	[  0] __ZNKSt17_Rb_tree_iteratorISt4pairIKi10CEPollDescEEptEv$lazy_pointer
0x00057758	0x00000008	[  0] __ZNKSt17_Rb_tree_iteratorISt4pairIKi12CMultiplexerEEdeEv$lazy_pointer
0x00057760	0x00000008	[  0] __ZNKSt17_Rb_tree_iteratorISt4pairIKi12CMultiplexerEEeqERKS4_$lazy_pointer
0x00057768	0x00000008	[  0] __ZNKSt17_Rb_tree_iteratorISt4pairIKi12CMultiplexerEEneERKS4_$lazy_pointer
0x00057770	0x00000008	[  0] __ZNKSt17_Rb_tree_iteratorISt4pairIKi12CMultiplexerEEptEv$lazy_pointer
0x00057778	0x00000008	[  0] __ZNKSt17_Rb_tree_iteratorISt4pairIKiP10CUDTSocketEEdeEv$lazy_pointer
0x00057780	0x00000008	[  0] __ZNKSt17_Rb_tree_iteratorISt4pairIKiP10CUDTSocketEEeqERKS5_$lazy_pointer
0x00057788	0x00000008	[  0] __ZNKSt17_Rb_tree_iteratorISt4pairIKiP10CUDTSocketEEneERKS5_$lazy_pointer
0x00057790	0x00000008	[  0] __ZNKSt17_Rb_tree_iteratorISt4pairIKiP10CUDTSocketEEptEv$lazy_pointer
0x00057798	0x00000008	[  0] __ZNKSt17_Rb_tree_iteratorISt4pairIKiSt5queueIP7CPacketSt5dequeIS4_SaIS4_EEEEEdeEv$lazy_pointer
0x000577A0	0x00000008	[  0] __ZNKSt17_Rb_tree_iteratorISt4pairIKiSt5queueIP7CPacketSt5dequeIS4_SaIS4_EEEEEeqERKSA_$lazy_pointer
0x000577A8	0x00000008	[  0] __ZNKSt17_Rb_tree_iteratorISt4pairIKiSt5queueIP7CPacketSt5dequeIS4_SaIS4_EEEEEneERKSA_$lazy_pointer
0x000577B0	0x00000008	[  0] __ZNKSt17_Rb_tree_iteratorISt4pairIKiSt5queueIP7CPacketSt5dequeIS4_SaIS4_EEEEEptEv$lazy_pointer
0x000577B8	0x00000008	[  0] __ZNKSt17_Rb_tree_iteratorISt4pairIKxSt3setIiSt4lessIiESaIiEEEEdeEv$lazy_pointer
0x000577C0	0x00000008	[  0] __ZNKSt17_Rb_tree_iteratorISt4pairIKxSt3setIiSt4lessIiESaIiEEEEeqERKS8_$lazy_pointer
0x000577C8	0x00000008	[  0] __ZNKSt17_Rb_tree_iteratorISt4pairIKxSt3setIiSt4lessIiESaIiEEEEneERKS8_$lazy_pointer
0x000577D0	0x00000008	[  0] __ZNKSt17_Rb_tree_iteratorISt4pairIKxSt3setIiSt4lessIiESaIiEEEEptEv$lazy_pointer
0x000577D8	0x00000008	[  0] __ZNKSt17_Rb_tree_iteratorIiEeqERKS0_$lazy_pointer
0x000577E0	0x00000008	[  0] __ZNKSt17_Rb_tree_iteratorIiEneERKS0_$lazy_pointer
0x000577E8	0x00000008	[  0] __ZNKSt23_Rb_tree_const_iteratorIP10CInfoBlockEdeEv$lazy_pointer
0x000577F0	0x00000008	[  0] __ZNKSt23_Rb_tree_const_iteratorIP10CInfoBlockEeqERKS2_$lazy_pointer
0x000577F8	0x00000008	[  0] __ZNKSt23_Rb_tree_const_iteratorIP10CInfoBlockEneERKS2_$lazy_pointer
0x00057800	0x00000008	[  0] __ZNKSt23_Rb_tree_const_iteratorIiEdeEv$lazy_pointer
0x00057808	0x00000008	[  0] __ZNKSt23_Rb_tree_const_iteratorIiEneERKS0_$lazy_pointer
0x00057810	0x00000008	[  0] __ZNKSt3mapIi10CEPollDescSt4lessIiESaISt4pairIKiS0_EEE8key_compEv$lazy_pointer
0x00057818	0x00000008	[  0] __ZNKSt3mapIi12CMultiplexerSt4lessIiESaISt4pairIKiS0_EEE8key_compEv$lazy_pointer
0x00057820	0x00000008	[  0] __ZNKSt3mapIiP10CUDTSocketSt4lessIiESaISt4pairIKiS1_EEE5emptyEv$lazy_pointer
0x00057828	0x00000008	[  0] __ZNKSt3mapIiP10CUDTSocketSt4lessIiESaISt4pairIKiS1_EEE8key_compEv$lazy_pointer
0x00057830	0x00000008	[  0] __ZNKSt3mapIiSt5queueIP7CPacketSt5dequeIS2_SaIS2_EEESt4lessIiESaISt4pairIKiS6_EEE8key_compEv$lazy_pointer
0x00057838	0x00000008	[  0] __ZNKSt3mapIxSt3setIiSt4lessIiESaIiEES1_IxESaISt4pairIKxS4_EEE8key_compEv$lazy_pointer
0x00057840	0x00000008	[  0] __ZNKSt3setIP10CInfoBlock7CIPCompSaIS1_EE3endEv$lazy_pointer
0x00057848	0x00000008	[  0] __ZNKSt3setIP10CInfoBlock7CTSCompSaIS1_EE3endEv$lazy_pointer
0x00057850	0x00000008	[  0] __ZNKSt3setIP10CInfoBlock7CTSCompSaIS1_EE4sizeEv$lazy_pointer
0x00057858	0x00000008	[  0] __ZNKSt3setIP10CInfoBlock7CTSCompSaIS1_EE5beginEv$lazy_pointer
0x00057860	0x00000008	[  0] __ZNKSt3setIiSt4lessIiESaIiEE3endEv$lazy_pointer
0x00057868	0x00000008	[  0] __ZNKSt3setIiSt4lessIiESaIiEE4sizeEv$lazy_pointer
0x00057870	0x00000008	[  0] __ZNKSt3setIiSt4lessIiESaIiEE5beginEv$lazy_pointer
0x00057878	0x00000008	[  0] __ZNKSt3setIiSt4lessIiESaIiEE5emptyEv$lazy_pointer
0x00057880	0x00000008	[  0] __ZNKSt4lessIiEclERKiS2_$lazy_pointer
0x00057888	0x00000008	[  0] __ZNKSt4lessIxEclERKxS2_$lazy_pointer
0x00057890	0x00000008	[  0] __ZNKSt5dequeIP7CPacketSaIS1_EE3endEv$lazy_pointer
0x00057898	0x00000008	[  0] __ZNKSt5dequeIP7CPacketSaIS1_EE4sizeEv$lazy_pointer
0x000578A0	0x00000008	[  0] __ZNKSt5dequeIP7CPacketSaIS1_EE5beginEv$lazy_pointer
0x000578A8	0x00000008	[  0] __ZNKSt5dequeIP7CPacketSaIS1_EE5emptyEv$lazy_pointer
0x000578B0	0x00000008	[  0] __ZNKSt5queueIP7CPacketSt5dequeIS1_SaIS1_EEE4sizeEv$lazy_pointer
0x000578B8	0x00000008	[  0] __ZNKSt5queueIP7CPacketSt5dequeIS1_SaIS1_EEE5emptyEv$lazy_pointer
0x000578C0	0x00000008	[  0] __ZNKSt6vectorIN16CRendezvousQueue3CRLESaIS1_EE4sizeEv$lazy_pointer
0x000578C8	0x00000008	[  0] __ZNKSt6vectorIN16CRendezvousQueue3CRLESaIS1_EE8max_sizeEv$lazy_pointer
0x000578D0	0x00000008	[  0] __ZNKSt6vectorIP10CUDTSocketSaIS1_EE4sizeEv$lazy_pointer
0x000578D8	0x00000008	[  0] __ZNKSt6vectorIP10CUDTSocketSaIS1_EE8max_sizeEv$lazy_pointer
0x000578E0	0x00000008	[  0] __ZNKSt6vectorIP4CUDTSaIS1_EE3endEv$lazy_pointer
0x000578E8	0x00000008	[  0] __ZNKSt6vectorIP4CUDTSaIS1_EE4sizeEv$lazy_pointer
0x000578F0	0x00000008	[  0] __ZNKSt6vectorIP4CUDTSaIS1_EE5beginEv$lazy_pointer
0x000578F8	0x00000008	[  0] __ZNKSt6vectorIP4CUDTSaIS1_EE5emptyEv$lazy_pointer
0x00057900	0x00000008	[  0] __ZNKSt6vectorIP4CUDTSaIS1_EE8max_sizeEv$lazy_pointer
0x00057908	0x00000008	[  0] __ZNKSt6vectorIiSaIiEE3endEv$lazy_pointer
0x00057910	0x00000008	[  0] __ZNKSt6vectorIiSaIiEE4sizeEv$lazy_pointer
0x00057918	0x00000008	[  0] __ZNKSt6vectorIiSaIiEE5beginEv$lazy_pointer
0x00057920	0x00000008	[  0] __ZNKSt6vectorIiSaIiEE5emptyEv$lazy_pointer
0x00057928	0x00000008	[  0] __ZNKSt6vectorIiSaIiEE8max_sizeEv$lazy_pointer
0x00057930	0x00000008	[  0] __ZNKSt8_Rb_treeIP10CInfoBlockS1_St9_IdentityIS1_E7CIPCompSaIS1_EE13get_allocatorEv$lazy_pointer
0x00057938	0x00000008	[  0] __ZNKSt8_Rb_treeIP10CInfoBlockS1_St9_IdentityIS1_E7CIPCompSaIS1_EE21_M_get_Node_allocatorEv$lazy_pointer
0x00057940	0x00000008	[  0] __ZNKSt8_Rb_treeIP10CInfoBlockS1_St9_IdentityIS1_E7CIPCompSaIS1_EE3endEv$lazy_pointer
0x00057948	0x00000008	[  0] __ZNKSt8_Rb_treeIP10CInfoBlockS1_St9_IdentityIS1_E7CIPCompSaIS1_EE4sizeEv$lazy_pointer
0x00057950	0x00000008	[  0] __ZNKSt8_Rb_treeIP10CInfoBlockS1_St9_IdentityIS1_E7CTSCompSaIS1_EE13get_allocatorEv$lazy_pointer
0x00057958	0x00000008	[  0] __ZNKSt8_Rb_treeIP10CInfoBlockS1_St9_IdentityIS1_E7CTSCompSaIS1_EE21_M_get_Node_allocatorEv$lazy_pointer
0x00057960	0x00000008	[  0] __ZNKSt8_Rb_treeIP10CInfoBlockS1_St9_IdentityIS1_E7CTSCompSaIS1_EE3endEv$lazy_pointer
0x00057968	0x00000008	[  0] __ZNKSt8_Rb_treeIP10CInfoBlockS1_St9_IdentityIS1_E7CTSCompSaIS1_EE4sizeEv$lazy_pointer
0x00057970	0x00000008	[  0] __ZNKSt8_Rb_treeIP10CInfoBlockS1_St9_IdentityIS1_E7CTSCompSaIS1_EE5beginEv$lazy_pointer
0x00057978	0x00000008	[  0] __ZNKSt8_Rb_treeIiSt4pairIKi10CEPollDescESt10_Select1stIS3_ESt4lessIiESaIS3_EE13get_allocatorEv$lazy_pointer
0x00057980	0x00000008	[  0] __ZNKSt8_Rb_treeIiSt4pairIKi10CEPollDescESt10_Select1stIS3_ESt4lessIiESaIS3_EE21_M_get_Node_allocatorEv$lazy_pointer
0x00057988	0x00000008	[  0] __ZNKSt8_Rb_treeIiSt4pairIKi10CEPollDescESt10_Select1stIS3_ESt4lessIiESaIS3_EE4sizeEv$lazy_pointer
0x00057990	0x00000008	[  0] __ZNKSt8_Rb_treeIiSt4pairIKi10CEPollDescESt10_Select1stIS3_ESt4lessIiESaIS3_EE8key_compEv$lazy_pointer
0x00057998	0x00000008	[  0] __ZNKSt8_Rb_treeIiSt4pairIKi12CMultiplexerESt10_Select1stIS3_ESt4lessIiESaIS3_EE13get_allocatorEv$lazy_pointer
0x000579A0	0x00000008	[  0] __ZNKSt8_Rb_treeIiSt4pairIKi12CMultiplexerESt10_Select1stIS3_ESt4lessIiESaIS3_EE21_M_get_Node_allocatorEv$lazy_pointer
0x000579A8	0x00000008	[  0] __ZNKSt8_Rb_treeIiSt4pairIKi12CMultiplexerESt10_Select1stIS3_ESt4lessIiESaIS3_EE4sizeEv$lazy_pointer
0x000579B0	0x00000008	[  0] __ZNKSt8_Rb_treeIiSt4pairIKi12CMultiplexerESt10_Select1stIS3_ESt4lessIiESaIS3_EE8key_compEv$lazy_pointer
0x000579B8	0x00000008	[  0] __ZNKSt8_Rb_treeIiSt4pairIKiP10CUDTSocketESt10_Select1stIS4_ESt4lessIiESaIS4_EE13get_allocatorEv$lazy_pointer
0x000579C0	0x00000008	[  0] __ZNKSt8_Rb_treeIiSt4pairIKiP10CUDTSocketESt10_Select1stIS4_ESt4lessIiESaIS4_EE21_M_get_Node_allocatorEv$lazy_pointer
0x000579C8	0x00000008	[  0] __ZNKSt8_Rb_treeIiSt4pairIKiP10CUDTSocketESt10_Select1stIS4_ESt4lessIiESaIS4_EE4sizeEv$lazy_pointer
0x000579D0	0x00000008	[  0] __ZNKSt8_Rb_treeIiSt4pairIKiP10CUDTSocketESt10_Select1stIS4_ESt4lessIiESaIS4_EE5emptyEv$lazy_pointer
0x000579D8	0x00000008	[  0] __ZNKSt8_Rb_treeIiSt4pairIKiP10CUDTSocketESt10_Select1stIS4_ESt4lessIiESaIS4_EE8key_compEv$lazy_pointer
0x000579E0	0x00000008	[  0] __ZNKSt8_Rb_treeIiSt4pairIKiSt5queueIP7CPacketSt5dequeIS4_SaIS4_EEEESt10_Select1stIS9_ESt4lessIiESaIS9_EE13get_allocatorEv$lazy_pointer
0x000579E8	0x00000008	[  0] __ZNKSt8_Rb_treeIiSt4pairIKiSt5queueIP7CPacketSt5dequeIS4_SaIS4_EEEESt10_Select1stIS9_ESt4lessIiESaIS9_EE21_M_get_Node_allocatorEv$lazy_pointer
0x000579F0	0x00000008	[  0] __ZNKSt8_Rb_treeIiSt4pairIKiSt5queueIP7CPacketSt5dequeIS4_SaIS4_EEEESt10_Select1stIS9_ESt4lessIiESaIS9_EE4sizeEv$lazy_pointer
0x000579F8	0x00000008	[  0] __ZNKSt8_Rb_treeIiSt4pairIKiSt5queueIP7CPacketSt5dequeIS4_SaIS4_EEEESt10_Select1stIS9_ESt4lessIiESaIS9_EE8key_compEv$lazy_pointer
0x00057A00	0x00000008	[  0] __ZNKSt8_Rb_treeIiiSt9_IdentityIiESt4lessIiESaIiEE13get_allocatorEv$lazy_pointer
0x00057A08	0x00000008	[  0] __ZNKSt8_Rb_treeIiiSt9_IdentityIiESt4lessIiESaIiEE21_M_get_Node_allocatorEv$lazy_pointer
0x00057A10	0x00000008	[  0] __ZNKSt8_Rb_treeIiiSt9_IdentityIiESt4lessIiESaIiEE3endEv$lazy_pointer
0x00057A18	0x00000008	[  0] __ZNKSt8_Rb_treeIiiSt9_IdentityIiESt4lessIiESaIiEE4sizeEv$lazy_pointer
0x00057A20	0x00000008	[  0] __ZNKSt8_Rb_treeIiiSt9_IdentityIiESt4lessIiESaIiEE5beginEv$lazy_pointer
0x00057A28	0x00000008	[  0] __ZNKSt8_Rb_treeIiiSt9_IdentityIiESt4lessIiESaIiEE5emptyEv$lazy_pointer
0x00057A30	0x00000008	[  0] __ZNKSt8_Rb_treeIiiSt9_IdentityIiESt4lessIiESaIiEE7_M_rootEv$lazy_pointer
0x00057A38	0x00000008	[  0] __ZNKSt8_Rb_treeIiiSt9_IdentityIiESt4lessIiESaIiEE8_M_beginEv$lazy_pointer
0x00057A40	0x00000008	[  0] __ZNKSt8_Rb_treeIxSt4pairIKxSt3setIiSt4lessIiESaIiEEESt10_Select1stIS7_ES3_IxESaIS7_EE13get_allocatorEv$lazy_pointer
0x00057A48	0x00000008	[  0] __ZNKSt8_Rb_treeIxSt4pairIKxSt3setIiSt4lessIiESaIiEEESt10_Select1stIS7_ES3_IxESaIS7_EE21_M_get_Node_allocatorEv$lazy_pointer
0x00057A50	0x00000008	[  0] __ZNKSt8_Rb_treeIxSt4pairIKxSt3setIiSt4lessIiESaIiEEESt10_Select1stIS7_ES3_IxESaIS7_EE4sizeEv$lazy_pointer
0x00057A58	0x00000008	[  0] __ZNKSt8_Rb_treeIxSt4pairIKxSt3setIiSt4lessIiESaIiEEESt10_Select1stIS7_ES3_IxESaIS7_EE8key_compEv$lazy_pointer
0x00057A60	0x00000008	[  0] __ZNKSt9_IdentityIP10CInfoBlockEclERKS1_$lazy_pointer
0x00057A68	0x00000008	[  0] __ZNKSt9_IdentityIiEclERKi$lazy_pointer
0x00057A70	0x00000008	[  0] __ZNKSt9basic_iosIcSt11char_traitsIcEE3badEv$lazy_pointer
0x00057A78	0x00000008	[  0] __ZNKSt9basic_iosIcSt11char_traitsIcEE3eofEv$lazy_pointer
0x00057A80	0x00000008	[  0] __ZNKSt9basic_iosIcSt11char_traitsIcEE4failEv$lazy_pointer
0x00057A88	0x00000008	[  0] __ZNSaIN16CRendezvousQueue3CRLEEC1ERKS1_$lazy_pointer
0x00057A90	0x00000008	[  0] __ZNSaIN16CRendezvousQueue3CRLEEC1Ev$lazy_pointer
0x00057A98	0x00000008	[  0] __ZNSaIN16CRendezvousQueue3CRLEEC2ERKS1_$lazy_pointer
0x00057AA0	0x00000008	[  0] __ZNSaIN16CRendezvousQueue3CRLEED1Ev$lazy_pointer
0x00057AA8	0x00000008	[  0] __ZNSaIN16CRendezvousQueue3CRLEED2Ev$lazy_pointer
0x00057AB0	0x00000008	[  0] __ZNSaIP10CInfoBlockEC1Ev$lazy_pointer
0x00057AB8	0x00000008	[  0] __ZNSaIP10CInfoBlockEC1ISt13_Rb_tree_nodeIS0_EEERKSaIT_E$lazy_pointer
0x00057AC0	0x00000008	[  0] __ZNSaIP10CInfoBlockED1Ev$lazy_pointer
0x00057AC8	0x00000008	[  0] __ZNSaIP10CUDTSocketEC1ERKS1_$lazy_pointer
0x00057AD0	0x00000008	[  0] __ZNSaIP10CUDTSocketEC1Ev$lazy_pointer
0x00057AD8	0x00000008	[  0] __ZNSaIP10CUDTSocketEC2ERKS1_$lazy_pointer
0x00057AE0	0x00000008	[  0] __ZNSaIP10CUDTSocketED1Ev$lazy_pointer
0x00057AE8	0x00000008	[  0] __ZNSaIP10CUDTSocketED2Ev$lazy_pointer
0x00057AF0	0x00000008	[  0] __ZNSaIP4CUDTEC1ERKS1_$lazy_pointer
0x00057AF8	0x00000008	[  0] __ZNSaIP4CUDTEC1Ev$lazy_pointer
0x00057B00	0x00000008	[  0] __ZNSaIP4CUDTEC2ERKS1_$lazy_pointer
0x00057B08	0x00000008	[  0] __ZNSaIP4CUDTED1Ev$lazy_pointer
0x00057B10	0x00000008	[  0] __ZNSaIP4CUDTED2Ev$lazy_pointer
0x00057B18	0x00000008	[  0] __ZNSaIP7CPacketEC1ERKS1_$lazy_pointer
0x00057B20	0x00000008	[  0] __ZNSaIP7CPacketEC1Ev$lazy_pointer
0x00057B28	0x00000008	[  0] __ZNSaIP7CPacketEC2ERKS1_$lazy_pointer
0x00057B30	0x00000008	[  0] __ZNSaIP7CPacketED1Ev$lazy_pointer
0x00057B38	0x00000008	[  0] __ZNSaIP7CPacketED2Ev$lazy_pointer
0x00057B40	0x00000008	[  0] __ZNSaIPP7CPacketEC1IS0_EERKSaIT_E$lazy_pointer
0x00057B48	0x00000008	[  0] __ZNSaIPP7CPacketED1Ev$lazy_pointer
0x00057B50	0x00000008	[  0] __ZNSaISt13_Rb_tree_nodeIP10CInfoBlockEEC1IS1_EERKSaIT_E$lazy_pointer
0x00057B58	0x00000008	[  0] __ZNSaISt13_Rb_tree_nodeIP10CInfoBlockEEC2ERKS3_$lazy_pointer
0x00057B60	0x00000008	[  0] __ZNSaISt13_Rb_tree_nodeIP10CInfoBlockEED1Ev$lazy_pointer
0x00057B68	0x00000008	[  0] __ZNSaISt13_Rb_tree_nodeIP10CInfoBlockEED2Ev$lazy_pointer
0x00057B70	0x00000008	[  0] __ZNSaISt13_Rb_tree_nodeISt4pairIKi10CEPollDescEEEC1IS3_EERKSaIT_E$lazy_pointer
0x00057B78	0x00000008	[  0] __ZNSaISt13_Rb_tree_nodeISt4pairIKi10CEPollDescEEEC2ERKS5_$lazy_pointer
0x00057B80	0x00000008	[  0] __ZNSaISt13_Rb_tree_nodeISt4pairIKi10CEPollDescEEED1Ev$lazy_pointer
0x00057B88	0x00000008	[  0] __ZNSaISt13_Rb_tree_nodeISt4pairIKi10CEPollDescEEED2Ev$lazy_pointer
0x00057B90	0x00000008	[  0] __ZNSaISt13_Rb_tree_nodeISt4pairIKi12CMultiplexerEEEC1IS3_EERKSaIT_E$lazy_pointer
0x00057B98	0x00000008	[  0] __ZNSaISt13_Rb_tree_nodeISt4pairIKi12CMultiplexerEEEC2ERKS5_$lazy_pointer
0x00057BA0	0x00000008	[  0] __ZNSaISt13_Rb_tree_nodeISt4pairIKi12CMultiplexerEEED1Ev$lazy_pointer
0x00057BA8	0x00000008	[  0] __ZNSaISt13_Rb_tree_nodeISt4pairIKi12CMultiplexerEEED2Ev$lazy_pointer
0x00057BB0	0x00000008	[  0] __ZNSaISt13_Rb_tree_nodeISt4pairIKiP10CUDTSocketEEEC1IS4_EERKSaIT_E$lazy_pointer
0x00057BB8	0x00000008	[  0] __ZNSaISt13_Rb_tree_nodeISt4pairIKiP10CUDTSocketEEEC2ERKS6_$lazy_pointer
0x00057BC0	0x00000008	[  0] __ZNSaISt13_Rb_tree_nodeISt4pairIKiP10CUDTSocketEEED1Ev$lazy_pointer
0x00057BC8	0x00000008	[  0] __ZNSaISt13_Rb_tree_nodeISt4pairIKiP10CUDTSocketEEED2Ev$lazy_pointer
0x00057BD0	0x00000008	[  0] __ZNSaISt13_Rb_tree_nodeISt4pairIKiSt5queueIP7CPacketSt5dequeIS4_SaIS4_EEEEEEC1IS9_EERKSaIT_E$lazy_pointer
0x00057BD8	0x00000008	[  0] __ZNSaISt13_Rb_tree_nodeISt4pairIKiSt5queueIP7CPacketSt5dequeIS4_SaIS4_EEEEEEC2ERKSB_$lazy_pointer
0x00057BE0	0x00000008	[  0] __ZNSaISt13_Rb_tree_nodeISt4pairIKiSt5queueIP7CPacketSt5dequeIS4_SaIS4_EEEEEED1Ev$lazy_pointer
0x00057BE8	0x00000008	[  0] __ZNSaISt13_Rb_tree_nodeISt4pairIKiSt5queueIP7CPacketSt5dequeIS4_SaIS4_EEEEEED2Ev$lazy_pointer
0x00057BF0	0x00000008	[  0] __ZNSaISt13_Rb_tree_nodeISt4pairIKxSt3setIiSt4lessIiESaIiEEEEEC1IS7_EERKSaIT_E$lazy_pointer
0x00057BF8	0x00000008	[  0] __ZNSaISt13_Rb_tree_nodeISt4pairIKxSt3setIiSt4lessIiESaIiEEEEEC2ERKS9_$lazy_pointer
0x00057C00	0x00000008	[  0] __ZNSaISt13_Rb_tree_nodeISt4pairIKxSt3setIiSt4lessIiESaIiEEEEED1Ev$lazy_pointer
0x00057C08	0x00000008	[  0] __ZNSaISt13_Rb_tree_nodeISt4pairIKxSt3setIiSt4lessIiESaIiEEEEED2Ev$lazy_pointer
0x00057C10	0x00000008	[  0] __ZNSaISt13_Rb_tree_nodeIiEEC1IiEERKSaIT_E$lazy_pointer
0x00057C18	0x00000008	[  0] __ZNSaISt13_Rb_tree_nodeIiEEC2ERKS1_$lazy_pointer
0x00057C20	0x00000008	[  0] __ZNSaISt13_Rb_tree_nodeIiEED1Ev$lazy_pointer
0x00057C28	0x00000008	[  0] __ZNSaISt13_Rb_tree_nodeIiEED2Ev$lazy_pointer
0x00057C30	0x00000008	[  0] __ZNSaISt4pairIKi10CEPollDescEEC1Ev$lazy_pointer
0x00057C38	0x00000008	[  0] __ZNSaISt4pairIKi10CEPollDescEEC1ISt13_Rb_tree_nodeIS2_EEERKSaIT_E$lazy_pointer
0x00057C40	0x00000008	[  0] __ZNSaISt4pairIKi10CEPollDescEED1Ev$lazy_pointer
0x00057C48	0x00000008	[  0] __ZNSaISt4pairIKi12CMultiplexerEEC1Ev$lazy_pointer
0x00057C50	0x00000008	[  0] __ZNSaISt4pairIKi12CMultiplexerEEC1ISt13_Rb_tree_nodeIS2_EEERKSaIT_E$lazy_pointer
0x00057C58	0x00000008	[  0] __ZNSaISt4pairIKi12CMultiplexerEED1Ev$lazy_pointer
0x00057C60	0x00000008	[  0] __ZNSaISt4pairIKiP10CUDTSocketEEC1Ev$lazy_pointer
0x00057C68	0x00000008	[  0] __ZNSaISt4pairIKiP10CUDTSocketEEC1ISt13_Rb_tree_nodeIS3_EEERKSaIT_E$lazy_pointer
0x00057C70	0x00000008	[  0] __ZNSaISt4pairIKiP10CUDTSocketEED1Ev$lazy_pointer
0x00057C78	0x00000008	[  0] __ZNSaISt4pairIKiSt5queueIP7CPacketSt5dequeIS3_SaIS3_EEEEEC1Ev$lazy_pointer
0x00057C80	0x00000008	[  0] __ZNSaISt4pairIKiSt5queueIP7CPacketSt5dequeIS3_SaIS3_EEEEEC1ISt13_Rb_tree_nodeIS8_EEERKSaIT_E$lazy_pointer
0x00057C88	0x00000008	[  0] __ZNSaISt4pairIKiSt5queueIP7CPacketSt5dequeIS3_SaIS3_EEEEED1Ev$lazy_pointer
0x00057C90	0x00000008	[  0] __ZNSaISt4pairIKxSt3setIiSt4lessIiESaIiEEEEC1Ev$lazy_pointer
0x00057C98	0x00000008	[  0] __ZNSaISt4pairIKxSt3setIiSt4lessIiESaIiEEEEC1ISt13_Rb_tree_nodeIS6_EEERKSaIT_E$lazy_pointer
0x00057CA0	0x00000008	[  0] __ZNSaISt4pairIKxSt3setIiSt4lessIiESaIiEEEED1Ev$lazy_pointer
0x00057CA8	0x00000008	[  0] __ZNSaIiEC1ERKS_$lazy_pointer
0x00057CB0	0x00000008	[  0] __ZNSaIiEC1Ev$lazy_pointer
0x00057CB8	0x00000008	[  0] __ZNSaIiEC1ISt13_Rb_tree_nodeIiEEERKSaIT_E$lazy_pointer
0x00057CC0	0x00000008	[  0] __ZNSaIiEC2ERKS_$lazy_pointer
0x00057CC8	0x00000008	[  0] __ZNSaIiED1Ev$lazy_pointer
0x00057CD0	0x00000008	[  0] __ZNSaIiED2Ev$lazy_pointer
0x00057CD8	0x00000008	[  0] __ZNSi4readEPcl$lazy_pointer
0x00057CE0	0x00000008	[  0] __ZNSi5seekgESt4fposI11__mbstate_tE$lazy_pointer
0x00057CE8	0x00000008	[  0] __ZNSo5seekpESt4fposI11__mbstate_tE$lazy_pointer
0x00057CF0	0x00000008	[  0] __ZNSo5writeEPKcl$lazy_pointer
0x00057CF8	0x00000008	[  0] __ZNSsC1Ev$lazy_pointer
0x00057D00	0x00000008	[  0] __ZNSsD1Ev$lazy_pointer
0x00057D08	0x00000008	[  0] __ZNSsaSEPKc$lazy_pointer
0x00057D10	0x00000008	[  0] __ZNSsaSERKSs$lazy_pointer
0x00057D18	0x00000008	[  0] __ZNSspLEPKc$lazy_pointer
0x00057D20	0x00000008	[  0] __ZNSt10_Select1stISt4pairIKi10CEPollDescEEC1Ev$lazy_pointer
0x00057D28	0x00000008	[  0] __ZNSt10_Select1stISt4pairIKi12CMultiplexerEEC1Ev$lazy_pointer
0x00057D30	0x00000008	[  0] __ZNSt10_Select1stISt4pairIKiP10CUDTSocketEEC1Ev$lazy_pointer
0x00057D38	0x00000008	[  0] __ZNSt10_Select1stISt4pairIKiSt5queueIP7CPacketSt5dequeIS4_SaIS4_EEEEEC1Ev$lazy_pointer
0x00057D40	0x00000008	[  0] __ZNSt10_Select1stISt4pairIKxSt3setIiSt4lessIiESaIiEEEEC1Ev$lazy_pointer
0x00057D48	0x00000008	[  0] __ZNSt11_Deque_baseIP7CPacketSaIS1_EE11_Deque_implC1ERKS2_$lazy_pointer
0x00057D50	0x00000008	[  0] __ZNSt11_Deque_baseIP7CPacketSaIS1_EE11_Deque_implD1Ev$lazy_pointer
0x00057D58	0x00000008	[  0] __ZNSt11_Deque_baseIP7CPacketSaIS1_EE15_M_allocate_mapEm$lazy_pointer
0x00057D60	0x00000008	[  0] __ZNSt11_Deque_baseIP7CPacketSaIS1_EE15_M_create_nodesEPPS1_S5_$lazy_pointer
0x00057D68	0x00000008	[  0] __ZNSt11_Deque_baseIP7CPacketSaIS1_EE16_M_allocate_nodeEv$lazy_pointer
0x00057D70	0x00000008	[  0] __ZNSt11_Deque_baseIP7CPacketSaIS1_EE16_M_destroy_nodesEPPS1_S5_$lazy_pointer
0x00057D78	0x00000008	[  0] __ZNSt11_Deque_baseIP7CPacketSaIS1_EE17_M_deallocate_mapEPPS1_m$lazy_pointer
0x00057D80	0x00000008	[  0] __ZNSt11_Deque_baseIP7CPacketSaIS1_EE17_M_initialize_mapEm$lazy_pointer
0x00057D88	0x00000008	[  0] __ZNSt11_Deque_baseIP7CPacketSaIS1_EE18_M_deallocate_nodeEPS1_$lazy_pointer
0x00057D90	0x00000008	[  0] __ZNSt11_Deque_baseIP7CPacketSaIS1_EE19_M_get_Tp_allocatorEv$lazy_pointer
0x00057D98	0x00000008	[  0] __ZNSt11_Deque_baseIP7CPacketSaIS1_EEC2ERKS2_m$lazy_pointer
0x00057DA0	0x00000008	[  0] __ZNSt11_Deque_baseIP7CPacketSaIS1_EED2Ev$lazy_pointer
0x00057DA8	0x00000008	[  0] __ZNSt12_Vector_baseIN16CRendezvousQueue3CRLESaIS1_EE11_M_allocateEm$lazy_pointer
0x00057DB0	0x00000008	[  0] __ZNSt12_Vector_baseIN16CRendezvousQueue3CRLESaIS1_EE12_Vector_implC1ERKS2_$lazy_pointer
0x00057DB8	0x00000008	[  0] __ZNSt12_Vector_baseIN16CRendezvousQueue3CRLESaIS1_EE12_Vector_implD1Ev$lazy_pointer
0x00057DC0	0x00000008	[  0] __ZNSt12_Vector_baseIN16CRendezvousQueue3CRLESaIS1_EE13_M_deallocateEPS1_m$lazy_pointer
0x00057DC8	0x00000008	[  0] __ZNSt12_Vector_baseIN16CRendezvousQueue3CRLESaIS1_EE19_M_get_Tp_allocatorEv$lazy_pointer
0x00057DD0	0x00000008	[  0] __ZNSt12_Vector_baseIN16CRendezvousQueue3CRLESaIS1_EEC2ERKS2_$lazy_pointer
0x00057DD8	0x00000008	[  0] __ZNSt12_Vector_baseIN16CRendezvousQueue3CRLESaIS1_EED2Ev$lazy_pointer
0x00057DE0	0x00000008	[  0] __ZNSt12_Vector_baseIP10CUDTSocketSaIS1_EE11_M_allocateEm$lazy_pointer
0x00057DE8	0x00000008	[  0] __ZNSt12_Vector_baseIP10CUDTSocketSaIS1_EE12_Vector_implC1ERKS2_$lazy_pointer
0x00057DF0	0x00000008	[  0] __ZNSt12_Vector_baseIP10CUDTSocketSaIS1_EE12_Vector_implD1Ev$lazy_pointer
0x00057DF8	0x00000008	[  0] __ZNSt12_Vector_baseIP10CUDTSocketSaIS1_EE13_M_deallocateEPS1_m$lazy_pointer
0x00057E00	0x00000008	[  0] __ZNSt12_Vector_baseIP10CUDTSocketSaIS1_EE19_M_get_Tp_allocatorEv$lazy_pointer
0x00057E08	0x00000008	[  0] __ZNSt12_Vector_baseIP10CUDTSocketSaIS1_EEC2ERKS2_$lazy_pointer
0x00057E10	0x00000008	[  0] __ZNSt12_Vector_baseIP10CUDTSocketSaIS1_EED2Ev$lazy_pointer
0x00057E18	0x00000008	[  0] __ZNSt12_Vector_baseIP4CUDTSaIS1_EE11_M_allocateEm$lazy_pointer
0x00057E20	0x00000008	[  0] __ZNSt12_Vector_baseIP4CUDTSaIS1_EE12_Vector_implC1ERKS2_$lazy_pointer
0x00057E28	0x00000008	[  0] __ZNSt12_Vector_baseIP4CUDTSaIS1_EE12_Vector_implD1Ev$lazy_pointer
0x00057E30	0x00000008	[  0] __ZNSt12_Vector_baseIP4CUDTSaIS1_EE13_M_deallocateEPS1_m$lazy_pointer
0x00057E38	0x00000008	[  0] __ZNSt12_Vector_baseIP4CUDTSaIS1_EE19_M_get_Tp_allocatorEv$lazy_pointer
0x00057E40	0x00000008	[  0] __ZNSt12_Vector_baseIP4CUDTSaIS1_EEC2ERKS2_$lazy_pointer
0x00057E48	0x00000008	[  0] __ZNSt12_Vector_baseIP4CUDTSaIS1_EED2Ev$lazy_pointer
0x00057E50	0x00000008	[  0] __ZNSt12_Vector_baseIiSaIiEE11_M_allocateEm$lazy_pointer
0x00057E58	0x00000008	[  0] __ZNSt12_Vector_baseIiSaIiEE12_Vector_implC1ERKS0_$lazy_pointer
0x00057E60	0x00000008	[  0] __ZNSt12_Vector_baseIiSaIiEE12_Vector_implD1Ev$lazy_pointer
0x00057E68	0x00000008	[  0] __ZNSt12_Vector_baseIiSaIiEE13_M_deallocateEPim$lazy_pointer
0x00057E70	0x00000008	[  0] __ZNSt12_Vector_baseIiSaIiEE19_M_get_Tp_allocatorEv$lazy_pointer
0x00057E78	0x00000008	[  0] __ZNSt12_Vector_baseIiSaIiEEC2ERKS0_$lazy_pointer
0x00057E80	0x00000008	[  0] __ZNSt12_Vector_baseIiSaIiEED2Ev$lazy_pointer
0x00057E88	0x00000008	[  0] __ZNSt13__copy_normalILb0ELb0EE8__copy_nIPP10CUDTSocketS4_EET0_T_S6_S5_$lazy_pointer
0x00057E90	0x00000008	[  0] __ZNSt13__copy_normalILb0ELb0EE8__copy_nIPP4CUDTS4_EET0_T_S6_S5_$lazy_pointer
0x00057E98	0x00000008	[  0] __ZNSt13__copy_normalILb0ELb0EE8__copy_nIPPP7CPacketS5_EET0_T_S7_S6_$lazy_pointer
0x00057EA0	0x00000008	[  0] __ZNSt13__copy_normalILb0ELb0EE8__copy_nIPiS2_EET0_T_S4_S3_$lazy_pointer
0x00057EA8	0x00000008	[  0] __ZNSt13__copy_normalILb0ELb0EE8__copy_nISt15_Deque_iteratorIP7CPacketRKS4_PS5_ES2_IS4_RS4_PS4_EEET0_T_SD_SC_$lazy_pointer
0x00057EB0	0x00000008	[  0] __ZNSt13__copy_normalILb1ELb1EE8__copy_nIN9__gnu_cxx17__normal_iteratorIPN16CRendezvousQueue3CRLESt6vectorIS5_SaIS5_EEEESA_EET0_T_SC_SB_$lazy_pointer
0x00057EB8	0x00000008	[  0] __ZNSt13__copy_normalILb1ELb1EE8__copy_nIN9__gnu_cxx17__normal_iteratorIPP4CUDTSt6vectorIS5_SaIS5_EEEESA_EET0_T_SC_SB_$lazy_pointer
0x00057EC0	0x00000008	[  0] __ZNSt14unary_functionIP10CInfoBlockS1_EC2Ev$lazy_pointer
0x00057EC8	0x00000008	[  0] __ZNSt14unary_functionISt4pairIKi10CEPollDescES1_EC2Ev$lazy_pointer
0x00057ED0	0x00000008	[  0] __ZNSt14unary_functionISt4pairIKi12CMultiplexerES1_EC2Ev$lazy_pointer
0x00057ED8	0x00000008	[  0] __ZNSt14unary_functionISt4pairIKiP10CUDTSocketES1_EC2Ev$lazy_pointer
0x00057EE0	0x00000008	[  0] __ZNSt14unary_functionISt4pairIKiSt5queueIP7CPacketSt5dequeIS4_SaIS4_EEEES1_EC2Ev$lazy_pointer
0x00057EE8	0x00000008	[  0] __ZNSt14unary_functionISt4pairIKxSt3setIiSt4lessIiESaIiEEES1_EC2Ev$lazy_pointer
0x00057EF0	0x00000008	[  0] __ZNSt14unary_functionIiiEC2Ev$lazy_pointer
0x00057EF8	0x00000008	[  0] __ZNSt15_Deque_iteratorIP7CPacketRKS1_PS2_E11_M_set_nodeEPPS1_$lazy_pointer
0x00057F00	0x00000008	[  0] __ZNSt15_Deque_iteratorIP7CPacketRKS1_PS2_E14_S_buffer_sizeEv$lazy_pointer
0x00057F08	0x00000008	[  0] __ZNSt15_Deque_iteratorIP7CPacketRKS1_PS2_EC1ERKS_IS1_RS1_PS1_E$lazy_pointer
0x00057F10	0x00000008	[  0] __ZNSt15_Deque_iteratorIP7CPacketRKS1_PS2_EppEv$lazy_pointer
0x00057F18	0x00000008	[  0] __ZNSt15_Deque_iteratorIP7CPacketRS1_PS1_E11_M_set_nodeEPS3_$lazy_pointer
0x00057F20	0x00000008	[  0] __ZNSt15_Deque_iteratorIP7CPacketRS1_PS1_E14_S_buffer_sizeEv$lazy_pointer
0x00057F28	0x00000008	[  0] __ZNSt15_Deque_iteratorIP7CPacketRS1_PS1_EC1ERKS4_$lazy_pointer
0x00057F30	0x00000008	[  0] __ZNSt15_Deque_iteratorIP7CPacketRS1_PS1_EC1Ev$lazy_pointer
0x00057F38	0x00000008	[  0] __ZNSt15_Deque_iteratorIP7CPacketRS1_PS1_EppEv$lazy_pointer
0x00057F40	0x00000008	[  0] __ZNSt15__copy_backwardILb0ESt26random_access_iterator_tagE8__copy_bIPN16CRendezvousQueue3CRLES5_EET0_T_S7_S6_$lazy_pointer
0x00057F48	0x00000008	[  0] __ZNSt15__copy_backwardILb1ESt26random_access_iterator_tagE8__copy_bIP10CUDTSocketEEPT_PKS5_S8_S6_$lazy_pointer
0x00057F50	0x00000008	[  0] __ZNSt15__copy_backwardILb1ESt26random_access_iterator_tagE8__copy_bIP4CUDTEEPT_PKS5_S8_S6_$lazy_pointer
0x00057F58	0x00000008	[  0] __ZNSt15__copy_backwardILb1ESt26random_access_iterator_tagE8__copy_bIPP7CPacketEEPT_PKS6_S9_S7_$lazy_pointer
0x00057F60	0x00000008	[  0] __ZNSt15__copy_backwardILb1ESt26random_access_iterator_tagE8__copy_bIiEEPT_PKS3_S6_S4_$lazy_pointer
0x00057F68	0x00000008	[  0] __ZNSt15binary_functionIiibEC2Ev$lazy_pointer
0x00057F70	0x00000008	[  0] __ZNSt15binary_functionIxxbEC2Ev$lazy_pointer
0x00057F78	0x00000008	[  0] __ZNSt17_Rb_tree_iteratorIP10CInfoBlockEC1EPSt13_Rb_tree_nodeIS1_E$lazy_pointer
0x00057F80	0x00000008	[  0] __ZNSt17_Rb_tree_iteratorIP10CInfoBlockEmmEv$lazy_pointer
0x00057F88	0x00000008	[  0] __ZNSt17_Rb_tree_iteratorIP10CInfoBlockEppEi$lazy_pointer
0x00057F90	0x00000008	[  0] __ZNSt17_Rb_tree_iteratorISt4pairIKi10CEPollDescEEC1EPSt13_Rb_tree_nodeIS3_E$lazy_pointer
0x00057F98	0x00000008	[  0] __ZNSt17_Rb_tree_iteratorISt4pairIKi10CEPollDescEEC1Ev$lazy_pointer
0x00057FA0	0x00000008	[  0] __ZNSt17_Rb_tree_iteratorISt4pairIKi10CEPollDescEEmmEv$lazy_pointer
0x00057FA8	0x00000008	[  0] __ZNSt17_Rb_tree_iteratorISt4pairIKi10CEPollDescEEppEv$lazy_pointer
0x00057FB0	0x00000008	[  0] __ZNSt17_Rb_tree_iteratorISt4pairIKi12CMultiplexerEEC1EPSt13_Rb_tree_nodeIS3_E$lazy_pointer
0x00057FB8	0x00000008	[  0] __ZNSt17_Rb_tree_iteratorISt4pairIKi12CMultiplexerEEC1Ev$lazy_pointer
0x00057FC0	0x00000008	[  0] __ZNSt17_Rb_tree_iteratorISt4pairIKi12CMultiplexerEEmmEv$lazy_pointer
0x00057FC8	0x00000008	[  0] __ZNSt17_Rb_tree_iteratorISt4pairIKi12CMultiplexerEEppEv$lazy_pointer
0x00057FD0	0x00000008	[  0] __ZNSt17_Rb_tree_iteratorISt4pairIKiP10CUDTSocketEEC1EPSt13_Rb_tree_nodeIS4_E$lazy_pointer
0x00057FD8	0x00000008	[  0] __ZNSt17_Rb_tree_iteratorISt4pairIKiP10CUDTSocketEEmmEv$lazy_pointer
0x00057FE0	0x00000008	[  0] __ZNSt17_Rb_tree_iteratorISt4pairIKiP10CUDTSocketEEppEi$lazy_pointer
0x00057FE8	0x00000008	[  0] __ZNSt17_Rb_tree_iteratorISt4pairIKiP10CUDTSocketEEppEv$lazy_pointer
0x00057FF0	0x00000008	[  0] __ZNSt17_Rb_tree_iteratorISt4pairIKiSt5queueIP7CPacketSt5dequeIS4_SaIS4_EEEEEC1EPSt13_Rb_tree_nodeIS9_E$lazy_pointer
0x00057FF8	0x00000008	[  0] __ZNSt17_Rb_tree_iteratorISt4pairIKiSt5queueIP7CPacketSt5dequeIS4_SaIS4_EEEEEmmEv$lazy_pointer
0x00058000	0x00000008	[  0] __ZNSt17_Rb_tree_iteratorISt4pairIKiSt5queueIP7CPacketSt5dequeIS4_SaIS4_EEEEEppEv$lazy_pointer
0x00058008	0x00000008	[  0] __ZNSt17_Rb_tree_iteratorISt4pairIKxSt3setIiSt4lessIiESaIiEEEEC1EPSt13_Rb_tree_nodeIS7_E$lazy_pointer
0x00058010	0x00000008	[  0] __ZNSt17_Rb_tree_iteratorISt4pairIKxSt3setIiSt4lessIiESaIiEEEEmmEv$lazy_pointer
0x00058018	0x00000008	[  0] __ZNSt17_Rb_tree_iteratorISt4pairIKxSt3setIiSt4lessIiESaIiEEEEppEv$lazy_pointer
0x00058020	0x00000008	[  0] __ZNSt17_Rb_tree_iteratorIiEC1EPSt13_Rb_tree_nodeIiE$lazy_pointer
0x00058028	0x00000008	[  0] __ZNSt17_Rb_tree_iteratorIiEmmEv$lazy_pointer
0x00058030	0x00000008	[  0] __ZNSt17_Rb_tree_iteratorIiEppEi$lazy_pointer
0x00058038	0x00000008	[  0] __ZNSt18_Rb_tree_node_base10_S_maximumEPS_$lazy_pointer
0x00058040	0x00000008	[  0] __ZNSt18_Rb_tree_node_base10_S_minimumEPS_$lazy_pointer
0x00058048	0x00000008	[  0] __ZNSt18input_iterator_tagC2Ev$lazy_pointer
0x00058050	0x00000008	[  0] __ZNSt20forward_iterator_tagC2Ev$lazy_pointer
0x00058058	0x00000008	[  0] __ZNSt22__copy_backward_normalILb0ELb0EE10__copy_b_nIPN16CRendezvousQueue3CRLES4_EET0_T_S6_S5_$lazy_pointer
0x00058060	0x00000008	[  0] __ZNSt22__copy_backward_normalILb0ELb0EE10__copy_b_nIPP10CUDTSocketS4_EET0_T_S6_S5_$lazy_pointer
0x00058068	0x00000008	[  0] __ZNSt22__copy_backward_normalILb0ELb0EE10__copy_b_nIPP4CUDTS4_EET0_T_S6_S5_$lazy_pointer
0x00058070	0x00000008	[  0] __ZNSt22__copy_backward_normalILb0ELb0EE10__copy_b_nIPPP7CPacketS5_EET0_T_S7_S6_$lazy_pointer
0x00058078	0x00000008	[  0] __ZNSt22__copy_backward_normalILb0ELb0EE10__copy_b_nIPiS2_EET0_T_S4_S3_$lazy_pointer
0x00058080	0x00000008	[  0] __ZNSt23_Rb_tree_const_iteratorIP10CInfoBlockEC1EPKSt13_Rb_tree_nodeIS1_E$lazy_pointer
0x00058088	0x00000008	[  0] __ZNSt23_Rb_tree_const_iteratorIP10CInfoBlockEC1ERKSt17_Rb_tree_iteratorIS1_E$lazy_pointer
0x00058090	0x00000008	[  0] __ZNSt23_Rb_tree_const_iteratorIP10CInfoBlockEppEv$lazy_pointer
0x00058098	0x00000008	[  0] __ZNSt23_Rb_tree_const_iteratorIiEC1EPKSt13_Rb_tree_nodeIiE$lazy_pointer
0x000580A0	0x00000008	[  0] __ZNSt23_Rb_tree_const_iteratorIiEC1ERKSt17_Rb_tree_iteratorIiE$lazy_pointer
0x000580A8	0x00000008	[  0] __ZNSt23_Rb_tree_const_iteratorIiEC1Ev$lazy_pointer
0x000580B0	0x00000008	[  0] __ZNSt23_Rb_tree_const_iteratorIiEmmEv$lazy_pointer
0x000580B8	0x00000008	[  0] __ZNSt23_Rb_tree_const_iteratorIiEppEv$lazy_pointer
0x000580C0	0x00000008	[  0] __ZNSt26bidirectional_iterator_tagC2Ev$lazy_pointer
0x000580C8	0x00000008	[  0] __ZNSt26random_access_iterator_tagC1Ev$lazy_pointer
0x000580D0	0x00000008	[  0] __ZNSt3mapIi10CEPollDescSt4lessIiESaISt4pairIKiS0_EEE11lower_boundERS4_$lazy_pointer
0x000580D8	0x00000008	[  0] __ZNSt3mapIi10CEPollDescSt4lessIiESaISt4pairIKiS0_EEE3endEv$lazy_pointer
0x000580E0	0x00000008	[  0] __ZNSt3mapIi10CEPollDescSt4lessIiESaISt4pairIKiS0_EEE4findERS4_$lazy_pointer
0x000580E8	0x00000008	[  0] __ZNSt3mapIi10CEPollDescSt4lessIiESaISt4pairIKiS0_EEE5eraseESt17_Rb_tree_iteratorIS5_E$lazy_pointer
0x000580F0	0x00000008	[  0] __ZNSt3mapIi10CEPollDescSt4lessIiESaISt4pairIKiS0_EEE6insertESt17_Rb_tree_iteratorIS5_ERKS5_$lazy_pointer
0x000580F8	0x00000008	[  0] __ZNSt3mapIi10CEPollDescSt4lessIiESaISt4pairIKiS0_EEEC1Ev$lazy_pointer
0x00058100	0x00000008	[  0] __ZNSt3mapIi10CEPollDescSt4lessIiESaISt4pairIKiS0_EEED1Ev$lazy_pointer
0x00058108	0x00000008	[  0] __ZNSt3mapIi10CEPollDescSt4lessIiESaISt4pairIKiS0_EEEixERS4_$lazy_pointer
0x00058110	0x00000008	[  0] __ZNSt3mapIi12CMultiplexerSt4lessIiESaISt4pairIKiS0_EEE11lower_boundERS4_$lazy_pointer
0x00058118	0x00000008	[  0] __ZNSt3mapIi12CMultiplexerSt4lessIiESaISt4pairIKiS0_EEE3endEv$lazy_pointer
0x00058120	0x00000008	[  0] __ZNSt3mapIi12CMultiplexerSt4lessIiESaISt4pairIKiS0_EEE4findERS4_$lazy_pointer
0x00058128	0x00000008	[  0] __ZNSt3mapIi12CMultiplexerSt4lessIiESaISt4pairIKiS0_EEE5beginEv$lazy_pointer
0x00058130	0x00000008	[  0] __ZNSt3mapIi12CMultiplexerSt4lessIiESaISt4pairIKiS0_EEE5eraseESt17_Rb_tree_iteratorIS5_E$lazy_pointer
0x00058138	0x00000008	[  0] __ZNSt3mapIi12CMultiplexerSt4lessIiESaISt4pairIKiS0_EEE6insertESt17_Rb_tree_iteratorIS5_ERKS5_$lazy_pointer
0x00058140	0x00000008	[  0] __ZNSt3mapIi12CMultiplexerSt4lessIiESaISt4pairIKiS0_EEEC1Ev$lazy_pointer
0x00058148	0x00000008	[  0] __ZNSt3mapIi12CMultiplexerSt4lessIiESaISt4pairIKiS0_EEED1Ev$lazy_pointer
0x00058150	0x00000008	[  0] __ZNSt3mapIi12CMultiplexerSt4lessIiESaISt4pairIKiS0_EEEixERS4_$lazy_pointer
0x00058158	0x00000008	[  0] __ZNSt3mapIiP10CUDTSocketSt4lessIiESaISt4pairIKiS1_EEE11lower_boundERS5_$lazy_pointer
0x00058160	0x00000008	[  0] __ZNSt3mapIiP10CUDTSocketSt4lessIiESaISt4pairIKiS1_EEE3endEv$lazy_pointer
0x00058168	0x00000008	[  0] __ZNSt3mapIiP10CUDTSocketSt4lessIiESaISt4pairIKiS1_EEE4findERS5_$lazy_pointer
0x00058170	0x00000008	[  0] __ZNSt3mapIiP10CUDTSocketSt4lessIiESaISt4pairIKiS1_EEE5beginEv$lazy_pointer
0x00058178	0x00000008	[  0] __ZNSt3mapIiP10CUDTSocketSt4lessIiESaISt4pairIKiS1_EEE5clearEv$lazy_pointer
0x00058180	0x00000008	[  0] __ZNSt3mapIiP10CUDTSocketSt4lessIiESaISt4pairIKiS1_EEE5eraseERS5_$lazy_pointer
0x00058188	0x00000008	[  0] __ZNSt3mapIiP10CUDTSocketSt4lessIiESaISt4pairIKiS1_EEE5eraseESt17_Rb_tree_iteratorIS6_E$lazy_pointer
0x00058190	0x00000008	[  0] __ZNSt3mapIiP10CUDTSocketSt4lessIiESaISt4pairIKiS1_EEE6insertERKS6_$lazy_pointer
0x00058198	0x00000008	[  0] __ZNSt3mapIiP10CUDTSocketSt4lessIiESaISt4pairIKiS1_EEE6insertESt17_Rb_tree_iteratorIS6_ERKS6_$lazy_pointer
0x000581A0	0x00000008	[  0] __ZNSt3mapIiP10CUDTSocketSt4lessIiESaISt4pairIKiS1_EEEC1Ev$lazy_pointer
0x000581A8	0x00000008	[  0] __ZNSt3mapIiP10CUDTSocketSt4lessIiESaISt4pairIKiS1_EEED1Ev$lazy_pointer
0x000581B0	0x00000008	[  0] __ZNSt3mapIiP10CUDTSocketSt4lessIiESaISt4pairIKiS1_EEEixERS5_$lazy_pointer
0x000581B8	0x00000008	[  0] __ZNSt3mapIiSt5queueIP7CPacketSt5dequeIS2_SaIS2_EEESt4lessIiESaISt4pairIKiS6_EEE11lower_boundERSA_$lazy_pointer
0x000581C0	0x00000008	[  0] __ZNSt3mapIiSt5queueIP7CPacketSt5dequeIS2_SaIS2_EEESt4lessIiESaISt4pairIKiS6_EEE3endEv$lazy_pointer
0x000581C8	0x00000008	[  0] __ZNSt3mapIiSt5queueIP7CPacketSt5dequeIS2_SaIS2_EEESt4lessIiESaISt4pairIKiS6_EEE4findERSA_$lazy_pointer
0x000581D0	0x00000008	[  0] __ZNSt3mapIiSt5queueIP7CPacketSt5dequeIS2_SaIS2_EEESt4lessIiESaISt4pairIKiS6_EEE5beginEv$lazy_pointer
0x000581D8	0x00000008	[  0] __ZNSt3mapIiSt5queueIP7CPacketSt5dequeIS2_SaIS2_EEESt4lessIiESaISt4pairIKiS6_EEE5eraseESt17_Rb_tree_iteratorISB_E$lazy_pointer
0x000581E0	0x00000008	[  0] __ZNSt3mapIiSt5queueIP7CPacketSt5dequeIS2_SaIS2_EEESt4lessIiESaISt4pairIKiS6_EEE6insertESt17_Rb_tree_iteratorISB_ERKSB_$lazy_pointer
0x000581E8	0x00000008	[  0] __ZNSt3mapIiSt5queueIP7CPacketSt5dequeIS2_SaIS2_EEESt4lessIiESaISt4pairIKiS6_EEEC1Ev$lazy_pointer
0x000581F0	0x00000008	[  0] __ZNSt3mapIiSt5queueIP7CPacketSt5dequeIS2_SaIS2_EEESt4lessIiESaISt4pairIKiS6_EEED1Ev$lazy_pointer
0x000581F8	0x00000008	[  0] __ZNSt3mapIiSt5queueIP7CPacketSt5dequeIS2_SaIS2_EEESt4lessIiESaISt4pairIKiS6_EEEixERSA_$lazy_pointer
0x00058200	0x00000008	[  0] __ZNSt3mapIxSt3setIiSt4lessIiESaIiEES1_IxESaISt4pairIKxS4_EEE11lower_boundERS7_$lazy_pointer
0x00058208	0x00000008	[  0] __ZNSt3mapIxSt3setIiSt4lessIiESaIiEES1_IxESaISt4pairIKxS4_EEE3endEv$lazy_pointer
0x00058210	0x00000008	[  0] __ZNSt3mapIxSt3setIiSt4lessIiESaIiEES1_IxESaISt4pairIKxS4_EEE4findERS7_$lazy_pointer
0x00058218	0x00000008	[  0] __ZNSt3mapIxSt3setIiSt4lessIiESaIiEES1_IxESaISt4pairIKxS4_EEE5eraseESt17_Rb_tree_iteratorIS8_E$lazy_pointer
0x00058220	0x00000008	[  0] __ZNSt3mapIxSt3setIiSt4lessIiESaIiEES1_IxESaISt4pairIKxS4_EEE6insertESt17_Rb_tree_iteratorIS8_ERKS8_$lazy_pointer
0x00058228	0x00000008	[  0] __ZNSt3mapIxSt3setIiSt4lessIiESaIiEES1_IxESaISt4pairIKxS4_EEEC1Ev$lazy_pointer
0x00058230	0x00000008	[  0] __ZNSt3mapIxSt3setIiSt4lessIiESaIiEES1_IxESaISt4pairIKxS4_EEED1Ev$lazy_pointer
0x00058238	0x00000008	[  0] __ZNSt3mapIxSt3setIiSt4lessIiESaIiEES1_IxESaISt4pairIKxS4_EEEixERS7_$lazy_pointer
0x00058240	0x00000008	[  0] __ZNSt3setIP10CInfoBlock7CIPCompSaIS1_EE4findERKS1_$lazy_pointer
0x00058248	0x00000008	[  0] __ZNSt3setIP10CInfoBlock7CIPCompSaIS1_EE5eraseERKS1_$lazy_pointer
0x00058250	0x00000008	[  0] __ZNSt3setIP10CInfoBlock7CIPCompSaIS1_EE5eraseESt23_Rb_tree_const_iteratorIS1_E$lazy_pointer
0x00058258	0x00000008	[  0] __ZNSt3setIP10CInfoBlock7CIPCompSaIS1_EE6insertERKS1_$lazy_pointer
0x00058260	0x00000008	[  0] __ZNSt3setIP10CInfoBlock7CIPCompSaIS1_EEC1Ev$lazy_pointer
0x00058268	0x00000008	[  0] __ZNSt3setIP10CInfoBlock7CIPCompSaIS1_EED1Ev$lazy_pointer
0x00058270	0x00000008	[  0] __ZNSt3setIP10CInfoBlock7CTSCompSaIS1_EE5eraseERKS1_$lazy_pointer
0x00058278	0x00000008	[  0] __ZNSt3setIP10CInfoBlock7CTSCompSaIS1_EE5eraseESt23_Rb_tree_const_iteratorIS1_E$lazy_pointer
0x00058280	0x00000008	[  0] __ZNSt3setIP10CInfoBlock7CTSCompSaIS1_EE6insertERKS1_$lazy_pointer
0x00058288	0x00000008	[  0] __ZNSt3setIP10CInfoBlock7CTSCompSaIS1_EEC1Ev$lazy_pointer
0x00058290	0x00000008	[  0] __ZNSt3setIP10CInfoBlock7CTSCompSaIS1_EED1Ev$lazy_pointer
0x00058298	0x00000008	[  0] __ZNSt3setIiSt4lessIiESaIiEE5clearEv$lazy_pointer
0x000582A0	0x00000008	[  0] __ZNSt3setIiSt4lessIiESaIiEE5eraseERKi$lazy_pointer
0x000582A8	0x00000008	[  0] __ZNSt3setIiSt4lessIiESaIiEE5eraseESt23_Rb_tree_const_iteratorIiE$lazy_pointer
0x000582B0	0x00000008	[  0] __ZNSt3setIiSt4lessIiESaIiEE6insertERKi$lazy_pointer
0x000582B8	0x00000008	[  0] __ZNSt3setIiSt4lessIiESaIiEE6insertESt23_Rb_tree_const_iteratorIiERKi$lazy_pointer
0x000582C0	0x00000008	[  0] __ZNSt3setIiSt4lessIiESaIiEEC1ERKS3_$lazy_pointer
0x000582C8	0x00000008	[  0] __ZNSt3setIiSt4lessIiESaIiEEC1Ev$lazy_pointer
0x000582D0	0x00000008	[  0] __ZNSt3setIiSt4lessIiESaIiEED1Ev$lazy_pointer
0x000582D8	0x00000008	[  0] __ZNSt3setIiSt4lessIiESaIiEEaSERKS3_$lazy_pointer
0x000582E0	0x00000008	[  0] __ZNSt4fposI11__mbstate_tEC1Ex$lazy_pointer
0x000582E8	0x00000008	[  0] __ZNSt4lessIiEC1Ev$lazy_pointer
0x000582F0	0x00000008	[  0] __ZNSt4lessIxEC1Ev$lazy_pointer
0x000582F8	0x00000008	[  0] __ZNSt4pairIKi10CEPollDescEC1ERKS2_$lazy_pointer
0x00058300	0x00000008	[  0] __ZNSt4pairIKi10CEPollDescEC1ERS0_RKS1_$lazy_pointer
0x00058308	0x00000008	[  0] __ZNSt4pairIKi10CEPollDescED1Ev$lazy_pointer
0x00058310	0x00000008	[  0] __ZNSt4pairIKi12CMultiplexerEC1ERS0_RKS1_$lazy_pointer
0x00058318	0x00000008	[  0] __ZNSt4pairIKi12CMultiplexerED1Ev$lazy_pointer
0x00058320	0x00000008	[  0] __ZNSt4pairIKiP10CUDTSocketEC1ERS0_RKS2_$lazy_pointer
0x00058328	0x00000008	[  0] __ZNSt4pairIKiP10CUDTSocketEC1IiS2_EERKS_IT_T0_E$lazy_pointer
0x00058330	0x00000008	[  0] __ZNSt4pairIKiP10CUDTSocketED1Ev$lazy_pointer
0x00058338	0x00000008	[  0] __ZNSt4pairIKiSt5queueIP7CPacketSt5dequeIS3_SaIS3_EEEEC1ERKS8_$lazy_pointer
0x00058340	0x00000008	[  0] __ZNSt4pairIKiSt5queueIP7CPacketSt5dequeIS3_SaIS3_EEEEC1ERS0_RKS7_$lazy_pointer
0x00058348	0x00000008	[  0] __ZNSt4pairIKiSt5queueIP7CPacketSt5dequeIS3_SaIS3_EEEED1Ev$lazy_pointer
0x00058350	0x00000008	[  0] __ZNSt4pairIKxSt3setIiSt4lessIiESaIiEEEC1ERKS6_$lazy_pointer
0x00058358	0x00000008	[  0] __ZNSt4pairIKxSt3setIiSt4lessIiESaIiEEEC1ERS0_RKS5_$lazy_pointer
0x00058360	0x00000008	[  0] __ZNSt4pairIKxSt3setIiSt4lessIiESaIiEEED1Ev$lazy_pointer
0x00058368	0x00000008	[  0] __ZNSt4pairISt17_Rb_tree_iteratorIP10CInfoBlockES3_EC1ERKS3_S6_$lazy_pointer
0x00058370	0x00000008	[  0] __ZNSt4pairISt17_Rb_tree_iteratorIP10CInfoBlockEbEC1ERKS3_RKb$lazy_pointer
0x00058378	0x00000008	[  0] __ZNSt4pairISt17_Rb_tree_iteratorIS_IKi10CEPollDescEEbEC1ERKS4_RKb$lazy_pointer
0x00058380	0x00000008	[  0] __ZNSt4pairISt17_Rb_tree_iteratorIS_IKi12CMultiplexerEEbEC1ERKS4_RKb$lazy_pointer
0x00058388	0x00000008	[  0] __ZNSt4pairISt17_Rb_tree_iteratorIS_IKiP10CUDTSocketEES5_EC1ERKS5_S8_$lazy_pointer
0x00058390	0x00000008	[  0] __ZNSt4pairISt17_Rb_tree_iteratorIS_IKiP10CUDTSocketEEbEC1ERKS5_RKb$lazy_pointer
0x00058398	0x00000008	[  0] __ZNSt4pairISt17_Rb_tree_iteratorIS_IKiSt5queueIP7CPacketSt5dequeIS4_SaIS4_EEEEEbEC1ERKSA_RKb$lazy_pointer
0x000583A0	0x00000008	[  0] __ZNSt4pairISt17_Rb_tree_iteratorIS_IKxSt3setIiSt4lessIiESaIiEEEEbEC1ERKS8_RKb$lazy_pointer
0x000583A8	0x00000008	[  0] __ZNSt4pairISt17_Rb_tree_iteratorIiES1_EC1ERKS1_S4_$lazy_pointer
0x000583B0	0x00000008	[  0] __ZNSt4pairISt17_Rb_tree_iteratorIiEbEC1ERKS1_RKb$lazy_pointer
0x000583B8	0x00000008	[  0] __ZNSt4pairISt23_Rb_tree_const_iteratorIP10CInfoBlockEbEC1ERKS3_RKb$lazy_pointer
0x000583C0	0x00000008	[  0] __ZNSt4pairISt23_Rb_tree_const_iteratorIiEbEC1ERKS1_RKb$lazy_pointer
0x000583C8	0x00000008	[  0] __ZNSt4pairISt23_Rb_tree_const_iteratorIiEbEC1Ev$lazy_pointer
0x000583D0	0x00000008	[  0] __ZNSt4pairIiP10CUDTSocketEC1ERKiRKS1_$lazy_pointer
0x000583D8	0x00000008	[  0] __ZNSt5dequeIP7CPacketSaIS1_EE15_M_destroy_dataESt15_Deque_iteratorIS1_RS1_PS1_ES7_RKS2_$lazy_pointer
0x000583E0	0x00000008	[  0] __ZNSt5dequeIP7CPacketSaIS1_EE16_M_pop_front_auxEv$lazy_pointer
0x000583E8	0x00000008	[  0] __ZNSt5dequeIP7CPacketSaIS1_EE16_M_push_back_auxERKS1_$lazy_pointer
0x000583F0	0x00000008	[  0] __ZNSt5dequeIP7CPacketSaIS1_EE17_M_reallocate_mapEmb$lazy_pointer
0x000583F8	0x00000008	[  0] __ZNSt5dequeIP7CPacketSaIS1_EE22_M_reserve_map_at_backEm$lazy_pointer
0x00058400	0x00000008	[  0] __ZNSt5dequeIP7CPacketSaIS1_EE24_M_destroy_data_dispatchESt15_Deque_iteratorIS1_RS1_PS1_ES7_St11__true_type$lazy_pointer
0x00058408	0x00000008	[  0] __ZNSt5dequeIP7CPacketSaIS1_EE3endEv$lazy_pointer
0x00058410	0x00000008	[  0] __ZNSt5dequeIP7CPacketSaIS1_EE5beginEv$lazy_pointer
0x00058418	0x00000008	[  0] __ZNSt5dequeIP7CPacketSaIS1_EE5frontEv$lazy_pointer
0x00058420	0x00000008	[  0] __ZNSt5dequeIP7CPacketSaIS1_EE9pop_frontEv$lazy_pointer
0x00058428	0x00000008	[  0] __ZNSt5dequeIP7CPacketSaIS1_EE9push_backERKS1_$lazy_pointer
0x00058430	0x00000008	[  0] __ZNSt5dequeIP7CPacketSaIS1_EEC1ERKS2_$lazy_pointer
0x00058438	0x00000008	[  0] __ZNSt5dequeIP7CPacketSaIS1_EEC1ERKS3_$lazy_pointer
0x00058440	0x00000008	[  0] __ZNSt5dequeIP7CPacketSaIS1_EED1Ev$lazy_pointer
0x00058448	0x00000008	[  0] __ZNSt5queueIP7CPacketSt5dequeIS1_SaIS1_EEE3popEv$lazy_pointer
0x00058450	0x00000008	[  0] __ZNSt5queueIP7CPacketSt5dequeIS1_SaIS1_EEE4pushERKS1_$lazy_pointer
0x00058458	0x00000008	[  0] __ZNSt5queueIP7CPacketSt5dequeIS1_SaIS1_EEE5frontEv$lazy_pointer
0x00058460	0x00000008	[  0] __ZNSt5queueIP7CPacketSt5dequeIS1_SaIS1_EEEC1ERKS4_$lazy_pointer
0x00058468	0x00000008	[  0] __ZNSt5queueIP7CPacketSt5dequeIS1_SaIS1_EEEC1ERKS5_$lazy_pointer
0x00058470	0x00000008	[  0] __ZNSt5queueIP7CPacketSt5dequeIS1_SaIS1_EEED1Ev$lazy_pointer
0x00058478	0x00000008	[  0] __ZNSt6__copyILb0ESt26random_access_iterator_tagE4copyIPN16CRendezvousQueue3CRLES5_EET0_T_S7_S6_$lazy_pointer
0x00058480	0x00000008	[  0] __ZNSt6__copyILb0ESt26random_access_iterator_tagE4copyISt15_Deque_iteratorIP7CPacketRKS5_PS6_ES3_IS5_RS5_PS5_EEET0_T_SE_SD_$lazy_pointer
0x00058488	0x00000008	[  0] __ZNSt6__copyILb1ESt26random_access_iterator_tagE4copyIP10CUDTSocketEEPT_PKS5_S8_S6_$lazy_pointer
0x00058490	0x00000008	[  0] __ZNSt6__copyILb1ESt26random_access_iterator_tagE4copyIP4CUDTEEPT_PKS5_S8_S6_$lazy_pointer
0x00058498	0x00000008	[  0] __ZNSt6__copyILb1ESt26random_access_iterator_tagE4copyIPP7CPacketEEPT_PKS6_S9_S7_$lazy_pointer
0x000584A0	0x00000008	[  0] __ZNSt6__copyILb1ESt26random_access_iterator_tagE4copyIiEEPT_PKS3_S6_S4_$lazy_pointer
0x000584A8	0x00000008	[  0] __ZNSt6vectorIN16CRendezvousQueue3CRLESaIS1_EE13_M_insert_auxEN9__gnu_cxx17__normal_iteratorIPS1_S3_EERKS1_$lazy_pointer
0x000584B0	0x00000008	[  0] __ZNSt6vectorIN16CRendezvousQueue3CRLESaIS1_EE15_M_erase_at_endEPS1_$lazy_pointer
0x000584B8	0x00000008	[  0] __ZNSt6vectorIN16CRendezvousQueue3CRLESaIS1_EE3endEv$lazy_pointer
0x000584C0	0x00000008	[  0] __ZNSt6vectorIN16CRendezvousQueue3CRLESaIS1_EE5beginEv$lazy_pointer
0x000584C8	0x00000008	[  0] __ZNSt6vectorIN16CRendezvousQueue3CRLESaIS1_EE5clearEv$lazy_pointer
0x000584D0	0x00000008	[  0] __ZNSt6vectorIN16CRendezvousQueue3CRLESaIS1_EE5eraseEN9__gnu_cxx17__normal_iteratorIPS1_S3_EE$lazy_pointer
0x000584D8	0x00000008	[  0] __ZNSt6vectorIN16CRendezvousQueue3CRLESaIS1_EE6insertEN9__gnu_cxx17__normal_iteratorIPS1_S3_EERKS1_$lazy_pointer
0x000584E0	0x00000008	[  0] __ZNSt6vectorIN16CRendezvousQueue3CRLESaIS1_EEC1ERKS2_$lazy_pointer
0x000584E8	0x00000008	[  0] __ZNSt6vectorIN16CRendezvousQueue3CRLESaIS1_EED1Ev$lazy_pointer
0x000584F0	0x00000008	[  0] __ZNSt6vectorIP10CUDTSocketSaIS1_EE13_M_insert_auxEN9__gnu_cxx17__normal_iteratorIPS1_S3_EERKS1_$lazy_pointer
0x000584F8	0x00000008	[  0] __ZNSt6vectorIP10CUDTSocketSaIS1_EE3endEv$lazy_pointer
0x00058500	0x00000008	[  0] __ZNSt6vectorIP10CUDTSocketSaIS1_EE5beginEv$lazy_pointer
0x00058508	0x00000008	[  0] __ZNSt6vectorIP10CUDTSocketSaIS1_EE6insertEN9__gnu_cxx17__normal_iteratorIPS1_S3_EERKS1_$lazy_pointer
0x00058510	0x00000008	[  0] __ZNSt6vectorIP10CUDTSocketSaIS1_EEC1ERKS2_$lazy_pointer
0x00058518	0x00000008	[  0] __ZNSt6vectorIP10CUDTSocketSaIS1_EED1Ev$lazy_pointer
0x00058520	0x00000008	[  0] __ZNSt6vectorIP4CUDTSaIS1_EE13_M_insert_auxEN9__gnu_cxx17__normal_iteratorIPS1_S3_EERKS1_$lazy_pointer
0x00058528	0x00000008	[  0] __ZNSt6vectorIP4CUDTSaIS1_EE3endEv$lazy_pointer
0x00058530	0x00000008	[  0] __ZNSt6vectorIP4CUDTSaIS1_EE5beginEv$lazy_pointer
0x00058538	0x00000008	[  0] __ZNSt6vectorIP4CUDTSaIS1_EE5eraseEN9__gnu_cxx17__normal_iteratorIPS1_S3_EE$lazy_pointer
0x00058540	0x00000008	[  0] __ZNSt6vectorIP4CUDTSaIS1_EE6insertEN9__gnu_cxx17__normal_iteratorIPS1_S3_EERKS1_$lazy_pointer
0x00058548	0x00000008	[  0] __ZNSt6vectorIP4CUDTSaIS1_EEC1ERKS2_$lazy_pointer
0x00058550	0x00000008	[  0] __ZNSt6vectorIP4CUDTSaIS1_EED1Ev$lazy_pointer
0x00058558	0x00000008	[  0] __ZNSt6vectorIiSaIiEE13_M_insert_auxEN9__gnu_cxx17__normal_iteratorIPiS1_EERKi$lazy_pointer
0x00058560	0x00000008	[  0] __ZNSt6vectorIiSaIiEE15_M_erase_at_endEPi$lazy_pointer
0x00058568	0x00000008	[  0] __ZNSt6vectorIiSaIiEE3endEv$lazy_pointer
0x00058570	0x00000008	[  0] __ZNSt6vectorIiSaIiEE5beginEv$lazy_pointer
0x00058578	0x00000008	[  0] __ZNSt6vectorIiSaIiEE5clearEv$lazy_pointer
0x00058580	0x00000008	[  0] __ZNSt6vectorIiSaIiEE9push_backERKi$lazy_pointer
0x00058588	0x00000008	[  0] __ZNSt6vectorIiSaIiEEC1ERKS0_$lazy_pointer
0x00058590	0x00000008	[  0] __ZNSt6vectorIiSaIiEED1Ev$lazy_pointer
0x00058598	0x00000008	[  0] __ZNSt8_Rb_treeIP10CInfoBlockS1_St9_IdentityIS1_E7CIPCompSaIS1_EE11_M_get_nodeEv$lazy_pointer
0x000585A0	0x00000008	[  0] __ZNSt8_Rb_treeIP10CInfoBlockS1_St9_IdentityIS1_E7CIPCompSaIS1_EE11_M_leftmostEv$lazy_pointer
0x000585A8	0x00000008	[  0] __ZNSt8_Rb_treeIP10CInfoBlockS1_St9_IdentityIS1_E7CIPCompSaIS1_EE11_M_put_nodeEPSt13_Rb_tree_nodeIS1_E$lazy_pointer
0x000585B0	0x00000008	[  0] __ZNSt8_Rb_treeIP10CInfoBlockS1_St9_IdentityIS1_E7CIPCompSaIS1_EE11equal_rangeERKS1_$lazy_pointer
0x000585B8	0x00000008	[  0] __ZNSt8_Rb_treeIP10CInfoBlockS1_St9_IdentityIS1_E7CIPCompSaIS1_EE11lower_boundERKS1_$lazy_pointer
0x000585C0	0x00000008	[  0] __ZNSt8_Rb_treeIP10CInfoBlockS1_St9_IdentityIS1_E7CIPCompSaIS1_EE11upper_boundERKS1_$lazy_pointer
0x000585C8	0x00000008	[  0] __ZNSt8_Rb_treeIP10CInfoBlockS1_St9_IdentityIS1_E7CIPCompSaIS1_EE12_M_rightmostEv$lazy_pointer
0x000585D0	0x00000008	[  0] __ZNSt8_Rb_treeIP10CInfoBlockS1_St9_IdentityIS1_E7CIPCompSaIS1_EE13_Rb_tree_implIS4_Lb0EEC1ERKSaISt13_Rb_tree_nodeIS1_EERKS4_$lazy_pointer
0x000585D8	0x00000008	[  0] __ZNSt8_Rb_treeIP10CInfoBlockS1_St9_IdentityIS1_E7CIPCompSaIS1_EE13_Rb_tree_implIS4_Lb0EED1Ev$lazy_pointer
0x000585E0	0x00000008	[  0] __ZNSt8_Rb_treeIP10CInfoBlockS1_St9_IdentityIS1_E7CIPCompSaIS1_EE14_M_create_nodeERKS1_$lazy_pointer
0x000585E8	0x00000008	[  0] __ZNSt8_Rb_treeIP10CInfoBlockS1_St9_IdentityIS1_E7CIPCompSaIS1_EE15_M_destroy_nodeEPSt13_Rb_tree_nodeIS1_E$lazy_pointer
0x000585F0	0x00000008	[  0] __ZNSt8_Rb_treeIP10CInfoBlockS1_St9_IdentityIS1_E7CIPCompSaIS1_EE16_M_insert_uniqueERKS1_$lazy_pointer
0x000585F8	0x00000008	[  0] __ZNSt8_Rb_treeIP10CInfoBlockS1_St9_IdentityIS1_E7CIPCompSaIS1_EE3endEv$lazy_pointer
0x00058600	0x00000008	[  0] __ZNSt8_Rb_treeIP10CInfoBlockS1_St9_IdentityIS1_E7CIPCompSaIS1_EE4findERKS1_$lazy_pointer
0x00058608	0x00000008	[  0] __ZNSt8_Rb_treeIP10CInfoBlockS1_St9_IdentityIS1_E7CIPCompSaIS1_EE5beginEv$lazy_pointer
0x00058610	0x00000008	[  0] __ZNSt8_Rb_treeIP10CInfoBlockS1_St9_IdentityIS1_E7CIPCompSaIS1_EE5clearEv$lazy_pointer
0x00058618	0x00000008	[  0] __ZNSt8_Rb_treeIP10CInfoBlockS1_St9_IdentityIS1_E7CIPCompSaIS1_EE5eraseERKS1_$lazy_pointer
0x00058620	0x00000008	[  0] __ZNSt8_Rb_treeIP10CInfoBlockS1_St9_IdentityIS1_E7CIPCompSaIS1_EE5eraseESt17_Rb_tree_iteratorIS1_E$lazy_pointer
0x00058628	0x00000008	[  0] __ZNSt8_Rb_treeIP10CInfoBlockS1_St9_IdentityIS1_E7CIPCompSaIS1_EE5eraseESt17_Rb_tree_iteratorIS1_ES8_$lazy_pointer
0x00058630	0x00000008	[  0] __ZNSt8_Rb_treeIP10CInfoBlockS1_St9_IdentityIS1_E7CIPCompSaIS1_EE5eraseESt23_Rb_tree_const_iteratorIS1_E$lazy_pointer
0x00058638	0x00000008	[  0] __ZNSt8_Rb_treeIP10CInfoBlockS1_St9_IdentityIS1_E7CIPCompSaIS1_EE6_M_endEv$lazy_pointer
0x00058640	0x00000008	[  0] __ZNSt8_Rb_treeIP10CInfoBlockS1_St9_IdentityIS1_E7CIPCompSaIS1_EE6_S_keyEPKSt13_Rb_tree_nodeIS1_E$lazy_pointer
0x00058648	0x00000008	[  0] __ZNSt8_Rb_treeIP10CInfoBlockS1_St9_IdentityIS1_E7CIPCompSaIS1_EE6_S_keyEPKSt18_Rb_tree_node_base$lazy_pointer
0x00058650	0x00000008	[  0] __ZNSt8_Rb_treeIP10CInfoBlockS1_St9_IdentityIS1_E7CIPCompSaIS1_EE7_M_rootEv$lazy_pointer
0x00058658	0x00000008	[  0] __ZNSt8_Rb_treeIP10CInfoBlockS1_St9_IdentityIS1_E7CIPCompSaIS1_EE7_S_leftEPSt18_Rb_tree_node_base$lazy_pointer
0x00058660	0x00000008	[  0] __ZNSt8_Rb_treeIP10CInfoBlockS1_St9_IdentityIS1_E7CIPCompSaIS1_EE8_M_beginEv$lazy_pointer
0x00058668	0x00000008	[  0] __ZNSt8_Rb_treeIP10CInfoBlockS1_St9_IdentityIS1_E7CIPCompSaIS1_EE8_M_eraseEPSt13_Rb_tree_nodeIS1_E$lazy_pointer
0x00058670	0x00000008	[  0] __ZNSt8_Rb_treeIP10CInfoBlockS1_St9_IdentityIS1_E7CIPCompSaIS1_EE8_S_rightEPSt18_Rb_tree_node_base$lazy_pointer
0x00058678	0x00000008	[  0] __ZNSt8_Rb_treeIP10CInfoBlockS1_St9_IdentityIS1_E7CIPCompSaIS1_EE8_S_valueEPKSt13_Rb_tree_nodeIS1_E$lazy_pointer
0x00058680	0x00000008	[  0] __ZNSt8_Rb_treeIP10CInfoBlockS1_St9_IdentityIS1_E7CIPCompSaIS1_EE8_S_valueEPKSt18_Rb_tree_node_base$lazy_pointer
0x00058688	0x00000008	[  0] __ZNSt8_Rb_treeIP10CInfoBlockS1_St9_IdentityIS1_E7CIPCompSaIS1_EE9_M_insertEPSt18_Rb_tree_node_baseS8_RKS1_$lazy_pointer
0x00058690	0x00000008	[  0] __ZNSt8_Rb_treeIP10CInfoBlockS1_St9_IdentityIS1_E7CIPCompSaIS1_EEC1ERKS4_RKS5_$lazy_pointer
0x00058698	0x00000008	[  0] __ZNSt8_Rb_treeIP10CInfoBlockS1_St9_IdentityIS1_E7CIPCompSaIS1_EED1Ev$lazy_pointer
0x000586A0	0x00000008	[  0] __ZNSt8_Rb_treeIP10CInfoBlockS1_St9_IdentityIS1_E7CTSCompSaIS1_EE11_M_get_nodeEv$lazy_pointer
0x000586A8	0x00000008	[  0] __ZNSt8_Rb_treeIP10CInfoBlockS1_St9_IdentityIS1_E7CTSCompSaIS1_EE11_M_leftmostEv$lazy_pointer
0x000586B0	0x00000008	[  0] __ZNSt8_Rb_treeIP10CInfoBlockS1_St9_IdentityIS1_E7CTSCompSaIS1_EE11_M_put_nodeEPSt13_Rb_tree_nodeIS1_E$lazy_pointer
0x000586B8	0x00000008	[  0] __ZNSt8_Rb_treeIP10CInfoBlockS1_St9_IdentityIS1_E7CTSCompSaIS1_EE11equal_rangeERKS1_$lazy_pointer
0x000586C0	0x00000008	[  0] __ZNSt8_Rb_treeIP10CInfoBlockS1_St9_IdentityIS1_E7CTSCompSaIS1_EE11lower_boundERKS1_$lazy_pointer
0x000586C8	0x00000008	[  0] __ZNSt8_Rb_treeIP10CInfoBlockS1_St9_IdentityIS1_E7CTSCompSaIS1_EE11upper_boundERKS1_$lazy_pointer
0x000586D0	0x00000008	[  0] __ZNSt8_Rb_treeIP10CInfoBlockS1_St9_IdentityIS1_E7CTSCompSaIS1_EE12_M_rightmostEv$lazy_pointer
0x000586D8	0x00000008	[  0] __ZNSt8_Rb_treeIP10CInfoBlockS1_St9_IdentityIS1_E7CTSCompSaIS1_EE13_Rb_tree_implIS4_Lb0EEC1ERKSaISt13_Rb_tree_nodeIS1_EERKS4_$lazy_pointer
0x000586E0	0x00000008	[  0] __ZNSt8_Rb_treeIP10CInfoBlockS1_St9_IdentityIS1_E7CTSCompSaIS1_EE13_Rb_tree_implIS4_Lb0EED1Ev$lazy_pointer
0x000586E8	0x00000008	[  0] __ZNSt8_Rb_treeIP10CInfoBlockS1_St9_IdentityIS1_E7CTSCompSaIS1_EE14_M_create_nodeERKS1_$lazy_pointer
0x000586F0	0x00000008	[  0] __ZNSt8_Rb_treeIP10CInfoBlockS1_St9_IdentityIS1_E7CTSCompSaIS1_EE15_M_destroy_nodeEPSt13_Rb_tree_nodeIS1_E$lazy_pointer
0x000586F8	0x00000008	[  0] __ZNSt8_Rb_treeIP10CInfoBlockS1_St9_IdentityIS1_E7CTSCompSaIS1_EE16_M_insert_uniqueERKS1_$lazy_pointer
0x00058700	0x00000008	[  0] __ZNSt8_Rb_treeIP10CInfoBlockS1_St9_IdentityIS1_E7CTSCompSaIS1_EE3endEv$lazy_pointer
0x00058708	0x00000008	[  0] __ZNSt8_Rb_treeIP10CInfoBlockS1_St9_IdentityIS1_E7CTSCompSaIS1_EE5beginEv$lazy_pointer
0x00058710	0x00000008	[  0] __ZNSt8_Rb_treeIP10CInfoBlockS1_St9_IdentityIS1_E7CTSCompSaIS1_EE5clearEv$lazy_pointer
0x00058718	0x00000008	[  0] __ZNSt8_Rb_treeIP10CInfoBlockS1_St9_IdentityIS1_E7CTSCompSaIS1_EE5eraseERKS1_$lazy_pointer
0x00058720	0x00000008	[  0] __ZNSt8_Rb_treeIP10CInfoBlockS1_St9_IdentityIS1_E7CTSCompSaIS1_EE5eraseESt17_Rb_tree_iteratorIS1_E$lazy_pointer
0x00058728	0x00000008	[  0] __ZNSt8_Rb_treeIP10CInfoBlockS1_St9_IdentityIS1_E7CTSCompSaIS1_EE5eraseESt17_Rb_tree_iteratorIS1_ES8_$lazy_pointer
0x00058730	0x00000008	[  0] __ZNSt8_Rb_treeIP10CInfoBlockS1_St9_IdentityIS1_E7CTSCompSaIS1_EE5eraseESt23_Rb_tree_const_iteratorIS1_E$lazy_pointer
0x00058738	0x00000008	[  0] __ZNSt8_Rb_treeIP10CInfoBlockS1_St9_IdentityIS1_E7CTSCompSaIS1_EE6_M_endEv$lazy_pointer
0x00058740	0x00000008	[  0] __ZNSt8_Rb_treeIP10CInfoBlockS1_St9_IdentityIS1_E7CTSCompSaIS1_EE6_S_keyEPKSt13_Rb_tree_nodeIS1_E$lazy_pointer
0x00058748	0x00000008	[  0] __ZNSt8_Rb_treeIP10CInfoBlockS1_St9_IdentityIS1_E7CTSCompSaIS1_EE6_S_keyEPKSt18_Rb_tree_node_base$lazy_pointer
0x00058750	0x00000008	[  0] __ZNSt8_Rb_treeIP10CInfoBlockS1_St9_IdentityIS1_E7CTSCompSaIS1_EE7_M_rootEv$lazy_pointer
0x00058758	0x00000008	[  0] __ZNSt8_Rb_treeIP10CInfoBlockS1_St9_IdentityIS1_E7CTSCompSaIS1_EE7_S_leftEPSt18_Rb_tree_node_base$lazy_pointer
0x00058760	0x00000008	[  0] __ZNSt8_Rb_treeIP10CInfoBlockS1_St9_IdentityIS1_E7CTSCompSaIS1_EE8_M_beginEv$lazy_pointer
0x00058768	0x00000008	[  0] __ZNSt8_Rb_treeIP10CInfoBlockS1_St9_IdentityIS1_E7CTSCompSaIS1_EE8_M_eraseEPSt13_Rb_tree_nodeIS1_E$lazy_pointer
0x00058770	0x00000008	[  0] __ZNSt8_Rb_treeIP10CInfoBlockS1_St9_IdentityIS1_E7CTSCompSaIS1_EE8_S_rightEPSt18_Rb_tree_node_base$lazy_pointer
0x00058778	0x00000008	[  0] __ZNSt8_Rb_treeIP10CInfoBlockS1_St9_IdentityIS1_E7CTSCompSaIS1_EE8_S_valueEPKSt13_Rb_tree_nodeIS1_E$lazy_pointer
0x00058780	0x00000008	[  0] __ZNSt8_Rb_treeIP10CInfoBlockS1_St9_IdentityIS1_E7CTSCompSaIS1_EE8_S_valueEPKSt18_Rb_tree_node_base$lazy_pointer
0x00058788	0x00000008	[  0] __ZNSt8_Rb_treeIP10CInfoBlockS1_St9_IdentityIS1_E7CTSCompSaIS1_EE9_M_insertEPSt18_Rb_tree_node_baseS8_RKS1_$lazy_pointer
0x00058790	0x00000008	[  0] __ZNSt8_Rb_treeIP10CInfoBlockS1_St9_IdentityIS1_E7CTSCompSaIS1_EEC1ERKS4_RKS5_$lazy_pointer
0x00058798	0x00000008	[  0] __ZNSt8_Rb_treeIP10CInfoBlockS1_St9_IdentityIS1_E7CTSCompSaIS1_EED1Ev$lazy_pointer
0x000587A0	0x00000008	[  0] __ZNSt8_Rb_treeIiSt4pairIKi10CEPollDescESt10_Select1stIS3_ESt4lessIiESaIS3_EE11_M_get_nodeEv$lazy_pointer
0x000587A8	0x00000008	[  0] __ZNSt8_Rb_treeIiSt4pairIKi10CEPollDescESt10_Select1stIS3_ESt4lessIiESaIS3_EE11_M_leftmostEv$lazy_pointer
0x000587B0	0x00000008	[  0] __ZNSt8_Rb_treeIiSt4pairIKi10CEPollDescESt10_Select1stIS3_ESt4lessIiESaIS3_EE11_M_put_nodeEPSt13_Rb_tree_nodeIS3_E$lazy_pointer
0x000587B8	0x00000008	[  0] __ZNSt8_Rb_treeIiSt4pairIKi10CEPollDescESt10_Select1stIS3_ESt4lessIiESaIS3_EE11lower_boundERS1_$lazy_pointer
0x000587C0	0x00000008	[  0] __ZNSt8_Rb_treeIiSt4pairIKi10CEPollDescESt10_Select1stIS3_ESt4lessIiESaIS3_EE12_M_rightmostEv$lazy_pointer
0x000587C8	0x00000008	[  0] __ZNSt8_Rb_treeIiSt4pairIKi10CEPollDescESt10_Select1stIS3_ESt4lessIiESaIS3_EE13_Rb_tree_implIS7_Lb0EEC1ERKSaISt13_Rb_tree_nodeIS3_EERKS7_$lazy_pointer
0x000587D0	0x00000008	[  0] __ZNSt8_Rb_treeIiSt4pairIKi10CEPollDescESt10_Select1stIS3_ESt4lessIiESaIS3_EE13_Rb_tree_implIS7_Lb0EED1Ev$lazy_pointer
0x000587D8	0x00000008	[  0] __ZNSt8_Rb_treeIiSt4pairIKi10CEPollDescESt10_Select1stIS3_ESt4lessIiESaIS3_EE14_M_create_nodeERKS3_$lazy_pointer
0x000587E0	0x00000008	[  0] __ZNSt8_Rb_treeIiSt4pairIKi10CEPollDescESt10_Select1stIS3_ESt4lessIiESaIS3_EE15_M_destroy_nodeEPSt13_Rb_tree_nodeIS3_E$lazy_pointer
0x000587E8	0x00000008	[  0] __ZNSt8_Rb_treeIiSt4pairIKi10CEPollDescESt10_Select1stIS3_ESt4lessIiESaIS3_EE16_M_insert_uniqueERKS3_$lazy_pointer
0x000587F0	0x00000008	[  0] __ZNSt8_Rb_treeIiSt4pairIKi10CEPollDescESt10_Select1stIS3_ESt4lessIiESaIS3_EE16_M_insert_uniqueESt17_Rb_tree_iteratorIS3_ERKS3_$lazy_pointer
0x000587F8	0x00000008	[  0] __ZNSt8_Rb_treeIiSt4pairIKi10CEPollDescESt10_Select1stIS3_ESt4lessIiESaIS3_EE3endEv$lazy_pointer
0x00058800	0x00000008	[  0] __ZNSt8_Rb_treeIiSt4pairIKi10CEPollDescESt10_Select1stIS3_ESt4lessIiESaIS3_EE4findERS1_$lazy_pointer
0x00058808	0x00000008	[  0] __ZNSt8_Rb_treeIiSt4pairIKi10CEPollDescESt10_Select1stIS3_ESt4lessIiESaIS3_EE5beginEv$lazy_pointer
0x00058810	0x00000008	[  0] __ZNSt8_Rb_treeIiSt4pairIKi10CEPollDescESt10_Select1stIS3_ESt4lessIiESaIS3_EE5eraseESt17_Rb_tree_iteratorIS3_E$lazy_pointer
0x00058818	0x00000008	[  0] __ZNSt8_Rb_treeIiSt4pairIKi10CEPollDescESt10_Select1stIS3_ESt4lessIiESaIS3_EE6_M_endEv$lazy_pointer
0x00058820	0x00000008	[  0] __ZNSt8_Rb_treeIiSt4pairIKi10CEPollDescESt10_Select1stIS3_ESt4lessIiESaIS3_EE6_S_keyEPKSt13_Rb_tree_nodeIS3_E$lazy_pointer
0x00058828	0x00000008	[  0] __ZNSt8_Rb_treeIiSt4pairIKi10CEPollDescESt10_Select1stIS3_ESt4lessIiESaIS3_EE6_S_keyEPKSt18_Rb_tree_node_base$lazy_pointer
0x00058830	0x00000008	[  0] __ZNSt8_Rb_treeIiSt4pairIKi10CEPollDescESt10_Select1stIS3_ESt4lessIiESaIS3_EE7_S_leftEPSt18_Rb_tree_node_base$lazy_pointer
0x00058838	0x00000008	[  0] __ZNSt8_Rb_treeIiSt4pairIKi10CEPollDescESt10_Select1stIS3_ESt4lessIiESaIS3_EE8_M_beginEv$lazy_pointer
0x00058840	0x00000008	[  0] __ZNSt8_Rb_treeIiSt4pairIKi10CEPollDescESt10_Select1stIS3_ESt4lessIiESaIS3_EE8_M_eraseEPSt13_Rb_tree_nodeIS3_E$lazy_pointer
0x00058848	0x00000008	[  0] __ZNSt8_Rb_treeIiSt4pairIKi10CEPollDescESt10_Select1stIS3_ESt4lessIiESaIS3_EE8_S_rightEPSt18_Rb_tree_node_base$lazy_pointer
0x00058850	0x00000008	[  0] __ZNSt8_Rb_treeIiSt4pairIKi10CEPollDescESt10_Select1stIS3_ESt4lessIiESaIS3_EE8_S_valueEPKSt13_Rb_tree_nodeIS3_E$lazy_pointer
0x00058858	0x00000008	[  0] __ZNSt8_Rb_treeIiSt4pairIKi10CEPollDescESt10_Select1stIS3_ESt4lessIiESaIS3_EE8_S_valueEPKSt18_Rb_tree_node_base$lazy_pointer
0x00058860	0x00000008	[  0] __ZNSt8_Rb_treeIiSt4pairIKi10CEPollDescESt10_Select1stIS3_ESt4lessIiESaIS3_EE9_M_insertEPSt18_Rb_tree_node_baseSB_RKS3_$lazy_pointer
0x00058868	0x00000008	[  0] __ZNSt8_Rb_treeIiSt4pairIKi10CEPollDescESt10_Select1stIS3_ESt4lessIiESaIS3_EEC1ERKS7_RKS8_$lazy_pointer
0x00058870	0x00000008	[  0] __ZNSt8_Rb_treeIiSt4pairIKi10CEPollDescESt10_Select1stIS3_ESt4lessIiESaIS3_EED1Ev$lazy_pointer
0x00058878	0x00000008	[  0] __ZNSt8_Rb_treeIiSt4pairIKi12CMultiplexerESt10_Select1stIS3_ESt4lessIiESaIS3_EE11_M_get_nodeEv$lazy_pointer
0x00058880	0x00000008	[  0] __ZNSt8_Rb_treeIiSt4pairIKi12CMultiplexerESt10_Select1stIS3_ESt4lessIiESaIS3_EE11_M_leftmostEv$lazy_pointer
0x00058888	0x00000008	[  0] __ZNSt8_Rb_treeIiSt4pairIKi12CMultiplexerESt10_Select1stIS3_ESt4lessIiESaIS3_EE11_M_put_nodeEPSt13_Rb_tree_nodeIS3_E$lazy_pointer
0x00058890	0x00000008	[  0] __ZNSt8_Rb_treeIiSt4pairIKi12CMultiplexerESt10_Select1stIS3_ESt4lessIiESaIS3_EE11lower_boundERS1_$lazy_pointer
0x00058898	0x00000008	[  0] __ZNSt8_Rb_treeIiSt4pairIKi12CMultiplexerESt10_Select1stIS3_ESt4lessIiESaIS3_EE12_M_rightmostEv$lazy_pointer
0x000588A0	0x00000008	[  0] __ZNSt8_Rb_treeIiSt4pairIKi12CMultiplexerESt10_Select1stIS3_ESt4lessIiESaIS3_EE13_Rb_tree_implIS7_Lb0EEC1ERKSaISt13_Rb_tree_nodeIS3_EERKS7_$lazy_pointer
0x000588A8	0x00000008	[  0] __ZNSt8_Rb_treeIiSt4pairIKi12CMultiplexerESt10_Select1stIS3_ESt4lessIiESaIS3_EE13_Rb_tree_implIS7_Lb0EED1Ev$lazy_pointer
0x000588B0	0x00000008	[  0] __ZNSt8_Rb_treeIiSt4pairIKi12CMultiplexerESt10_Select1stIS3_ESt4lessIiESaIS3_EE14_M_create_nodeERKS3_$lazy_pointer
0x000588B8	0x00000008	[  0] __ZNSt8_Rb_treeIiSt4pairIKi12CMultiplexerESt10_Select1stIS3_ESt4lessIiESaIS3_EE15_M_destroy_nodeEPSt13_Rb_tree_nodeIS3_E$lazy_pointer
0x000588C0	0x00000008	[  0] __ZNSt8_Rb_treeIiSt4pairIKi12CMultiplexerESt10_Select1stIS3_ESt4lessIiESaIS3_EE16_M_insert_uniqueERKS3_$lazy_pointer
0x000588C8	0x00000008	[  0] __ZNSt8_Rb_treeIiSt4pairIKi12CMultiplexerESt10_Select1stIS3_ESt4lessIiESaIS3_EE16_M_insert_uniqueESt17_Rb_tree_iteratorIS3_ERKS3_$lazy_pointer
0x000588D0	0x00000008	[  0] __ZNSt8_Rb_treeIiSt4pairIKi12CMultiplexerESt10_Select1stIS3_ESt4lessIiESaIS3_EE3endEv$lazy_pointer
0x000588D8	0x00000008	[  0] __ZNSt8_Rb_treeIiSt4pairIKi12CMultiplexerESt10_Select1stIS3_ESt4lessIiESaIS3_EE4findERS1_$lazy_pointer
0x000588E0	0x00000008	[  0] __ZNSt8_Rb_treeIiSt4pairIKi12CMultiplexerESt10_Select1stIS3_ESt4lessIiESaIS3_EE5beginEv$lazy_pointer
0x000588E8	0x00000008	[  0] __ZNSt8_Rb_treeIiSt4pairIKi12CMultiplexerESt10_Select1stIS3_ESt4lessIiESaIS3_EE5eraseESt17_Rb_tree_iteratorIS3_E$lazy_pointer
0x000588F0	0x00000008	[  0] __ZNSt8_Rb_treeIiSt4pairIKi12CMultiplexerESt10_Select1stIS3_ESt4lessIiESaIS3_EE6_M_endEv$lazy_pointer
0x000588F8	0x00000008	[  0] __ZNSt8_Rb_treeIiSt4pairIKi12CMultiplexerESt10_Select1stIS3_ESt4lessIiESaIS3_EE6_S_keyEPKSt13_Rb_tree_nodeIS3_E$lazy_pointer
0x00058900	0x00000008	[  0] __ZNSt8_Rb_treeIiSt4pairIKi12CMultiplexerESt10_Select1stIS3_ESt4lessIiESaIS3_EE6_S_keyEPKSt18_Rb_tree_node_base$lazy_pointer
0x00058908	0x00000008	[  0] __ZNSt8_Rb_treeIiSt4pairIKi12CMultiplexerESt10_Select1stIS3_ESt4lessIiESaIS3_EE7_S_leftEPSt18_Rb_tree_node_base$lazy_pointer
0x00058910	0x00000008	[  0] __ZNSt8_Rb_treeIiSt4pairIKi12CMultiplexerESt10_Select1stIS3_ESt4lessIiESaIS3_EE8_M_beginEv$lazy_pointer
0x00058918	0x00000008	[  0] __ZNSt8_Rb_treeIiSt4pairIKi12CMultiplexerESt10_Select1stIS3_ESt4lessIiESaIS3_EE8_M_eraseEPSt13_Rb_tree_nodeIS3_E$lazy_pointer
0x00058920	0x00000008	[  0] __ZNSt8_Rb_treeIiSt4pairIKi12CMultiplexerESt10_Select1stIS3_ESt4lessIiESaIS3_EE8_S_rightEPSt18_Rb_tree_node_base$lazy_pointer
0x00058928	0x00000008	[  0] __ZNSt8_Rb_treeIiSt4pairIKi12CMultiplexerESt10_Select1stIS3_ESt4lessIiESaIS3_EE8_S_valueEPKSt13_Rb_tree_nodeIS3_E$lazy_pointer
0x00058930	0x00000008	[  0] __ZNSt8_Rb_treeIiSt4pairIKi12CMultiplexerESt10_Select1stIS3_ESt4lessIiESaIS3_EE8_S_valueEPKSt18_Rb_tree_node_base$lazy_pointer
0x00058938	0x00000008	[  0] __ZNSt8_Rb_treeIiSt4pairIKi12CMultiplexerESt10_Select1stIS3_ESt4lessIiESaIS3_EE9_M_insertEPSt18_Rb_tree_node_baseSB_RKS3_$lazy_pointer
0x00058940	0x00000008	[  0] __ZNSt8_Rb_treeIiSt4pairIKi12CMultiplexerESt10_Select1stIS3_ESt4lessIiESaIS3_EEC1ERKS7_RKS8_$lazy_pointer
0x00058948	0x00000008	[  0] __ZNSt8_Rb_treeIiSt4pairIKi12CMultiplexerESt10_Select1stIS3_ESt4lessIiESaIS3_EED1Ev$lazy_pointer
0x00058950	0x00000008	[  0] __ZNSt8_Rb_treeIiSt4pairIKiP10CUDTSocketESt10_Select1stIS4_ESt4lessIiESaIS4_EE11_M_get_nodeEv$lazy_pointer
0x00058958	0x00000008	[  0] __ZNSt8_Rb_treeIiSt4pairIKiP10CUDTSocketESt10_Select1stIS4_ESt4lessIiESaIS4_EE11_M_leftmostEv$lazy_pointer
0x00058960	0x00000008	[  0] __ZNSt8_Rb_treeIiSt4pairIKiP10CUDTSocketESt10_Select1stIS4_ESt4lessIiESaIS4_EE11_M_put_nodeEPSt13_Rb_tree_nodeIS4_E$lazy_pointer
0x00058968	0x00000008	[  0] __ZNSt8_Rb_treeIiSt4pairIKiP10CUDTSocketESt10_Select1stIS4_ESt4lessIiESaIS4_EE11equal_rangeERS1_$lazy_pointer
0x00058970	0x00000008	[  0] __ZNSt8_Rb_treeIiSt4pairIKiP10CUDTSocketESt10_Select1stIS4_ESt4lessIiESaIS4_EE11lower_boundERS1_$lazy_pointer
0x00058978	0x00000008	[  0] __ZNSt8_Rb_treeIiSt4pairIKiP10CUDTSocketESt10_Select1stIS4_ESt4lessIiESaIS4_EE11upper_boundERS1_$lazy_pointer
0x00058980	0x00000008	[  0] __ZNSt8_Rb_treeIiSt4pairIKiP10CUDTSocketESt10_Select1stIS4_ESt4lessIiESaIS4_EE12_M_rightmostEv$lazy_pointer
0x00058988	0x00000008	[  0] __ZNSt8_Rb_treeIiSt4pairIKiP10CUDTSocketESt10_Select1stIS4_ESt4lessIiESaIS4_EE13_Rb_tree_implIS8_Lb0EEC1ERKSaISt13_Rb_tree_nodeIS4_EERKS8_$lazy_pointer
0x00058990	0x00000008	[  0] __ZNSt8_Rb_treeIiSt4pairIKiP10CUDTSocketESt10_Select1stIS4_ESt4lessIiESaIS4_EE13_Rb_tree_implIS8_Lb0EED1Ev$lazy_pointer
0x00058998	0x00000008	[  0] __ZNSt8_Rb_treeIiSt4pairIKiP10CUDTSocketESt10_Select1stIS4_ESt4lessIiESaIS4_EE14_M_create_nodeERKS4_$lazy_pointer
0x000589A0	0x00000008	[  0] __ZNSt8_Rb_treeIiSt4pairIKiP10CUDTSocketESt10_Select1stIS4_ESt4lessIiESaIS4_EE15_M_destroy_nodeEPSt13_Rb_tree_nodeIS4_E$lazy_pointer
0x000589A8	0x00000008	[  0] __ZNSt8_Rb_treeIiSt4pairIKiP10CUDTSocketESt10_Select1stIS4_ESt4lessIiESaIS4_EE16_M_insert_uniqueERKS4_$lazy_pointer
0x000589B0	0x00000008	[  0] __ZNSt8_Rb_treeIiSt4pairIKiP10CUDTSocketESt10_Select1stIS4_ESt4lessIiESaIS4_EE16_M_insert_uniqueESt17_Rb_tree_iteratorIS4_ERKS4_$lazy_pointer
0x000589B8	0x00000008	[  0] __ZNSt8_Rb_treeIiSt4pairIKiP10CUDTSocketESt10_Select1stIS4_ESt4lessIiESaIS4_EE3endEv$lazy_pointer
0x000589C0	0x00000008	[  0] __ZNSt8_Rb_treeIiSt4pairIKiP10CUDTSocketESt10_Select1stIS4_ESt4lessIiESaIS4_EE4findERS1_$lazy_pointer
0x000589C8	0x00000008	[  0] __ZNSt8_Rb_treeIiSt4pairIKiP10CUDTSocketESt10_Select1stIS4_ESt4lessIiESaIS4_EE5beginEv$lazy_pointer
0x000589D0	0x00000008	[  0] __ZNSt8_Rb_treeIiSt4pairIKiP10CUDTSocketESt10_Select1stIS4_ESt4lessIiESaIS4_EE5clearEv$lazy_pointer
0x000589D8	0x00000008	[  0] __ZNSt8_Rb_treeIiSt4pairIKiP10CUDTSocketESt10_Select1stIS4_ESt4lessIiESaIS4_EE5eraseERS1_$lazy_pointer
0x000589E0	0x00000008	[  0] __ZNSt8_Rb_treeIiSt4pairIKiP10CUDTSocketESt10_Select1stIS4_ESt4lessIiESaIS4_EE5eraseESt17_Rb_tree_iteratorIS4_E$lazy_pointer
0x000589E8	0x00000008	[  0] __ZNSt8_Rb_treeIiSt4pairIKiP10CUDTSocketESt10_Select1stIS4_ESt4lessIiESaIS4_EE5eraseESt17_Rb_tree_iteratorIS4_ESC_$lazy_pointer
0x000589F0	0x00000008	[  0] __ZNSt8_Rb_treeIiSt4pairIKiP10CUDTSocketESt10_Select1stIS4_ESt4lessIiESaIS4_EE6_M_endEv$lazy_pointer
0x000589F8	0x00000008	[  0] __ZNSt8_Rb_treeIiSt4pairIKiP10CUDTSocketESt10_Select1stIS4_ESt4lessIiESaIS4_EE6_S_keyEPKSt13_Rb_tree_nodeIS4_E$lazy_pointer
0x00058A00	0x00000008	[  0] __ZNSt8_Rb_treeIiSt4pairIKiP10CUDTSocketESt10_Select1stIS4_ESt4lessIiESaIS4_EE6_S_keyEPKSt18_Rb_tree_node_base$lazy_pointer
0x00058A08	0x00000008	[  0] __ZNSt8_Rb_treeIiSt4pairIKiP10CUDTSocketESt10_Select1stIS4_ESt4lessIiESaIS4_EE7_M_rootEv$lazy_pointer
0x00058A10	0x00000008	[  0] __ZNSt8_Rb_treeIiSt4pairIKiP10CUDTSocketESt10_Select1stIS4_ESt4lessIiESaIS4_EE7_S_leftEPSt18_Rb_tree_node_base$lazy_pointer
0x00058A18	0x00000008	[  0] __ZNSt8_Rb_treeIiSt4pairIKiP10CUDTSocketESt10_Select1stIS4_ESt4lessIiESaIS4_EE8_M_beginEv$lazy_pointer
0x00058A20	0x00000008	[  0] __ZNSt8_Rb_treeIiSt4pairIKiP10CUDTSocketESt10_Select1stIS4_ESt4lessIiESaIS4_EE8_M_eraseEPSt13_Rb_tree_nodeIS4_E$lazy_pointer
0x00058A28	0x00000008	[  0] __ZNSt8_Rb_treeIiSt4pairIKiP10CUDTSocketESt10_Select1stIS4_ESt4lessIiESaIS4_EE8_S_rightEPSt18_Rb_tree_node_base$lazy_pointer
0x00058A30	0x00000008	[  0] __ZNSt8_Rb_treeIiSt4pairIKiP10CUDTSocketESt10_Select1stIS4_ESt4lessIiESaIS4_EE8_S_valueEPKSt13_Rb_tree_nodeIS4_E$lazy_pointer
0x00058A38	0x00000008	[  0] __ZNSt8_Rb_treeIiSt4pairIKiP10CUDTSocketESt10_Select1stIS4_ESt4lessIiESaIS4_EE8_S_valueEPKSt18_Rb_tree_node_base$lazy_pointer
0x00058A40	0x00000008	[  0] __ZNSt8_Rb_treeIiSt4pairIKiP10CUDTSocketESt10_Select1stIS4_ESt4lessIiESaIS4_EE9_M_insertEPSt18_Rb_tree_node_baseSC_RKS4_$lazy_pointer
0x00058A48	0x00000008	[  0] __ZNSt8_Rb_treeIiSt4pairIKiP10CUDTSocketESt10_Select1stIS4_ESt4lessIiESaIS4_EEC1ERKS8_RKS9_$lazy_pointer
0x00058A50	0x00000008	[  0] __ZNSt8_Rb_treeIiSt4pairIKiP10CUDTSocketESt10_Select1stIS4_ESt4lessIiESaIS4_EED1Ev$lazy_pointer
0x00058A58	0x00000008	[  0] __ZNSt8_Rb_treeIiSt4pairIKiSt5queueIP7CPacketSt5dequeIS4_SaIS4_EEEESt10_Select1stIS9_ESt4lessIiESaIS9_EE11_M_get_nodeEv$lazy_pointer
0x00058A60	0x00000008	[  0] __ZNSt8_Rb_treeIiSt4pairIKiSt5queueIP7CPacketSt5dequeIS4_SaIS4_EEEESt10_Select1stIS9_ESt4lessIiESaIS9_EE11_M_leftmostEv$lazy_pointer
0x00058A68	0x00000008	[  0] __ZNSt8_Rb_treeIiSt4pairIKiSt5queueIP7CPacketSt5dequeIS4_SaIS4_EEEESt10_Select1stIS9_ESt4lessIiESaIS9_EE11_M_put_nodeEPSt13_Rb_tree_nodeIS9_E$lazy_pointer
0x00058A70	0x00000008	[  0] __ZNSt8_Rb_treeIiSt4pairIKiSt5queueIP7CPacketSt5dequeIS4_SaIS4_EEEESt10_Select1stIS9_ESt4lessIiESaIS9_EE11lower_boundERS1_$lazy_pointer
0x00058A78	0x00000008	[  0] __ZNSt8_Rb_treeIiSt4pairIKiSt5queueIP7CPacketSt5dequeIS4_SaIS4_EEEESt10_Select1stIS9_ESt4lessIiESaIS9_EE12_M_rightmostEv$lazy_pointer
0x00058A80	0x00000008	[  0] __ZNSt8_Rb_treeIiSt4pairIKiSt5queueIP7CPacketSt5dequeIS4_SaIS4_EEEESt10_Select1stIS9_ESt4lessIiESaIS9_EE13_Rb_tree_implISD_Lb0EEC1ERKSaISt13_Rb_tree_nodeIS9_EERKSD_$lazy_pointer
0x00058A88	0x00000008	[  0] __ZNSt8_Rb_treeIiSt4pairIKiSt5queueIP7CPacketSt5dequeIS4_SaIS4_EEEESt10_Select1stIS9_ESt4lessIiESaIS9_EE13_Rb_tree_implISD_Lb0EED1Ev$lazy_pointer
0x00058A90	0x00000008	[  0] __ZNSt8_Rb_treeIiSt4pairIKiSt5queueIP7CPacketSt5dequeIS4_SaIS4_EEEESt10_Select1stIS9_ESt4lessIiESaIS9_EE14_M_create_nodeERKS9_$lazy_pointer
0x00058A98	0x00000008	[  0] __ZNSt8_Rb_treeIiSt4pairIKiSt5queueIP7CPacketSt5dequeIS4_SaIS4_EEEESt10_Select1stIS9_ESt4lessIiESaIS9_EE15_M_destroy_nodeEPSt13_Rb_tree_nodeIS9_E$lazy_pointer
0x00058AA0	0x00000008	[  0] __ZNSt8_Rb_treeIiSt4pairIKiSt5queueIP7CPacketSt5dequeIS4_SaIS4_EEEESt10_Select1stIS9_ESt4lessIiESaIS9_EE16_M_insert_uniqueERKS9_$lazy_pointer
0x00058AA8	0x00000008	[  0] __ZNSt8_Rb_treeIiSt4pairIKiSt5queueIP7CPacketSt5dequeIS4_SaIS4_EEEESt10_Select1stIS9_ESt4lessIiESaIS9_EE16_M_insert_uniqueESt17_Rb_tree_iteratorIS9_ERKS9_$lazy_pointer
0x00058AB0	0x00000008	[  0] __ZNSt8_Rb_treeIiSt4pairIKiSt5queueIP7CPacketSt5dequeIS4_SaIS4_EEEESt10_Select1stIS9_ESt4lessIiESaIS9_EE3endEv$lazy_pointer
0x00058AB8	0x00000008	[  0] __ZNSt8_Rb_treeIiSt4pairIKiSt5queueIP7CPacketSt5dequeIS4_SaIS4_EEEESt10_Select1stIS9_ESt4lessIiESaIS9_EE4findERS1_$lazy_pointer
0x00058AC0	0x00000008	[  0] __ZNSt8_Rb_treeIiSt4pairIKiSt5queueIP7CPacketSt5dequeIS4_SaIS4_EEEESt10_Select1stIS9_ESt4lessIiESaIS9_EE5beginEv$lazy_pointer
0x00058AC8	0x00000008	[  0] __ZNSt8_Rb_treeIiSt4pairIKiSt5queueIP7CPacketSt5dequeIS4_SaIS4_EEEESt10_Select1stIS9_ESt4lessIiESaIS9_EE5eraseESt17_Rb_tree_iteratorIS9_E$lazy_pointer
0x00058AD0	0x00000008	[  0] __ZNSt8_Rb_treeIiSt4pairIKiSt5queueIP7CPacketSt5dequeIS4_SaIS4_EEEESt10_Select1stIS9_ESt4lessIiESaIS9_EE6_M_endEv$lazy_pointer
0x00058AD8	0x00000008	[  0] __ZNSt8_Rb_treeIiSt4pairIKiSt5queueIP7CPacketSt5dequeIS4_SaIS4_EEEESt10_Select1stIS9_ESt4lessIiESaIS9_EE6_S_keyEPKSt13_Rb_tree_nodeIS9_E$lazy_pointer
0x00058AE0	0x00000008	[  0] __ZNSt8_Rb_treeIiSt4pairIKiSt5queueIP7CPacketSt5dequeIS4_SaIS4_EEEESt10_Select1stIS9_ESt4lessIiESaIS9_EE6_S_keyEPKSt18_Rb_tree_node_base$lazy_pointer
0x00058AE8	0x00000008	[  0] __ZNSt8_Rb_treeIiSt4pairIKiSt5queueIP7CPacketSt5dequeIS4_SaIS4_EEEESt10_Select1stIS9_ESt4lessIiESaIS9_EE7_S_leftEPSt18_Rb_tree_node_base$lazy_pointer
0x00058AF0	0x00000008	[  0] __ZNSt8_Rb_treeIiSt4pairIKiSt5queueIP7CPacketSt5dequeIS4_SaIS4_EEEESt10_Select1stIS9_ESt4lessIiESaIS9_EE8_M_beginEv$lazy_pointer
0x00058AF8	0x00000008	[  0] __ZNSt8_Rb_treeIiSt4pairIKiSt5queueIP7CPacketSt5dequeIS4_SaIS4_EEEESt10_Select1stIS9_ESt4lessIiESaIS9_EE8_M_eraseEPSt13_Rb_tree_nodeIS9_E$lazy_pointer
0x00058B00	0x00000008	[  0] __ZNSt8_Rb_treeIiSt4pairIKiSt5queueIP7CPacketSt5dequeIS4_SaIS4_EEEESt10_Select1stIS9_ESt4lessIiESaIS9_EE8_S_rightEPSt18_Rb_tree_node_base$lazy_pointer
0x00058B08	0x00000008	[  0] __ZNSt8_Rb_treeIiSt4pairIKiSt5queueIP7CPacketSt5dequeIS4_SaIS4_EEEESt10_Select1stIS9_ESt4lessIiESaIS9_EE8_S_valueEPKSt13_Rb_tree_nodeIS9_E$lazy_pointer
0x00058B10	0x00000008	[  0] __ZNSt8_Rb_treeIiSt4pairIKiSt5queueIP7CPacketSt5dequeIS4_SaIS4_EEEESt10_Select1stIS9_ESt4lessIiESaIS9_EE8_S_valueEPKSt18_Rb_tree_node_base$lazy_pointer
0x00058B18	0x00000008	[  0] __ZNSt8_Rb_treeIiSt4pairIKiSt5queueIP7CPacketSt5dequeIS4_SaIS4_EEEESt10_Select1stIS9_ESt4lessIiESaIS9_EE9_M_insertEPSt18_Rb_tree_node_baseSH_RKS9_$lazy_pointer
0x00058B20	0x00000008	[  0] __ZNSt8_Rb_treeIiSt4pairIKiSt5queueIP7CPacketSt5dequeIS4_SaIS4_EEEESt10_Select1stIS9_ESt4lessIiESaIS9_EEC1ERKSD_RKSE_$lazy_pointer
0x00058B28	0x00000008	[  0] __ZNSt8_Rb_treeIiSt4pairIKiSt5queueIP7CPacketSt5dequeIS4_SaIS4_EEEESt10_Select1stIS9_ESt4lessIiESaIS9_EED1Ev$lazy_pointer
0x00058B30	0x00000008	[  0] __ZNSt8_Rb_treeIiiSt9_IdentityIiESt4lessIiESaIiEE10_S_maximumEPSt18_Rb_tree_node_base$lazy_pointer
0x00058B38	0x00000008	[  0] __ZNSt8_Rb_treeIiiSt9_IdentityIiESt4lessIiESaIiEE10_S_minimumEPSt18_Rb_tree_node_base$lazy_pointer
0x00058B40	0x00000008	[  0] __ZNSt8_Rb_treeIiiSt9_IdentityIiESt4lessIiESaIiEE11_M_get_nodeEv$lazy_pointer
0x00058B48	0x00000008	[  0] __ZNSt8_Rb_treeIiiSt9_IdentityIiESt4lessIiESaIiEE11_M_leftmostEv$lazy_pointer
0x00058B50	0x00000008	[  0] __ZNSt8_Rb_treeIiiSt9_IdentityIiESt4lessIiESaIiEE11_M_put_nodeEPSt13_Rb_tree_nodeIiE$lazy_pointer
0x00058B58	0x00000008	[  0] __ZNSt8_Rb_treeIiiSt9_IdentityIiESt4lessIiESaIiEE11equal_rangeERKi$lazy_pointer
0x00058B60	0x00000008	[  0] __ZNSt8_Rb_treeIiiSt9_IdentityIiESt4lessIiESaIiEE11lower_boundERKi$lazy_pointer
0x00058B68	0x00000008	[  0] __ZNSt8_Rb_treeIiiSt9_IdentityIiESt4lessIiESaIiEE11upper_boundERKi$lazy_pointer
0x00058B70	0x00000008	[  0] __ZNSt8_Rb_treeIiiSt9_IdentityIiESt4lessIiESaIiEE12_M_rightmostEv$lazy_pointer
0x00058B78	0x00000008	[  0] __ZNSt8_Rb_treeIiiSt9_IdentityIiESt4lessIiESaIiEE13_M_clone_nodeEPKSt13_Rb_tree_nodeIiE$lazy_pointer
0x00058B80	0x00000008	[  0] __ZNSt8_Rb_treeIiiSt9_IdentityIiESt4lessIiESaIiEE13_Rb_tree_implIS3_Lb0EEC1ERKSaISt13_Rb_tree_nodeIiEERKS3_$lazy_pointer
0x00058B88	0x00000008	[  0] __ZNSt8_Rb_treeIiiSt9_IdentityIiESt4lessIiESaIiEE13_Rb_tree_implIS3_Lb0EED1Ev$lazy_pointer
0x00058B90	0x00000008	[  0] __ZNSt8_Rb_treeIiiSt9_IdentityIiESt4lessIiESaIiEE14_M_create_nodeERKi$lazy_pointer
0x00058B98	0x00000008	[  0] __ZNSt8_Rb_treeIiiSt9_IdentityIiESt4lessIiESaIiEE15_M_destroy_nodeEPSt13_Rb_tree_nodeIiE$lazy_pointer
0x00058BA0	0x00000008	[  0] __ZNSt8_Rb_treeIiiSt9_IdentityIiESt4lessIiESaIiEE16_M_insert_uniqueERKi$lazy_pointer
0x00058BA8	0x00000008	[  0] __ZNSt8_Rb_treeIiiSt9_IdentityIiESt4lessIiESaIiEE16_M_insert_uniqueESt23_Rb_tree_const_iteratorIiERKi$lazy_pointer
0x00058BB0	0x00000008	[  0] __ZNSt8_Rb_treeIiiSt9_IdentityIiESt4lessIiESaIiEE3endEv$lazy_pointer
0x00058BB8	0x00000008	[  0] __ZNSt8_Rb_treeIiiSt9_IdentityIiESt4lessIiESaIiEE5beginEv$lazy_pointer
0x00058BC0	0x00000008	[  0] __ZNSt8_Rb_treeIiiSt9_IdentityIiESt4lessIiESaIiEE5clearEv$lazy_pointer
0x00058BC8	0x00000008	[  0] __ZNSt8_Rb_treeIiiSt9_IdentityIiESt4lessIiESaIiEE5eraseERKi$lazy_pointer
0x00058BD0	0x00000008	[  0] __ZNSt8_Rb_treeIiiSt9_IdentityIiESt4lessIiESaIiEE5eraseESt17_Rb_tree_iteratorIiE$lazy_pointer
0x00058BD8	0x00000008	[  0] __ZNSt8_Rb_treeIiiSt9_IdentityIiESt4lessIiESaIiEE5eraseESt17_Rb_tree_iteratorIiES7_$lazy_pointer
0x00058BE0	0x00000008	[  0] __ZNSt8_Rb_treeIiiSt9_IdentityIiESt4lessIiESaIiEE5eraseESt23_Rb_tree_const_iteratorIiE$lazy_pointer
0x00058BE8	0x00000008	[  0] __ZNSt8_Rb_treeIiiSt9_IdentityIiESt4lessIiESaIiEE6_M_endEv$lazy_pointer
0x00058BF0	0x00000008	[  0] __ZNSt8_Rb_treeIiiSt9_IdentityIiESt4lessIiESaIiEE6_S_keyEPKSt13_Rb_tree_nodeIiE$lazy_pointer
0x00058BF8	0x00000008	[  0] __ZNSt8_Rb_treeIiiSt9_IdentityIiESt4lessIiESaIiEE6_S_keyEPKSt18_Rb_tree_node_base$lazy_pointer
0x00058C00	0x00000008	[  0] __ZNSt8_Rb_treeIiiSt9_IdentityIiESt4lessIiESaIiEE7_M_copyEPKSt13_Rb_tree_nodeIiEPS7_$lazy_pointer
0x00058C08	0x00000008	[  0] __ZNSt8_Rb_treeIiiSt9_IdentityIiESt4lessIiESaIiEE7_M_rootEv$lazy_pointer
0x00058C10	0x00000008	[  0] __ZNSt8_Rb_treeIiiSt9_IdentityIiESt4lessIiESaIiEE7_S_leftEPKSt18_Rb_tree_node_base$lazy_pointer
0x00058C18	0x00000008	[  0] __ZNSt8_Rb_treeIiiSt9_IdentityIiESt4lessIiESaIiEE7_S_leftEPSt18_Rb_tree_node_base$lazy_pointer
0x00058C20	0x00000008	[  0] __ZNSt8_Rb_treeIiiSt9_IdentityIiESt4lessIiESaIiEE8_M_beginEv$lazy_pointer
0x00058C28	0x00000008	[  0] __ZNSt8_Rb_treeIiiSt9_IdentityIiESt4lessIiESaIiEE8_M_eraseEPSt13_Rb_tree_nodeIiE$lazy_pointer
0x00058C30	0x00000008	[  0] __ZNSt8_Rb_treeIiiSt9_IdentityIiESt4lessIiESaIiEE8_S_rightEPKSt18_Rb_tree_node_base$lazy_pointer
0x00058C38	0x00000008	[  0] __ZNSt8_Rb_treeIiiSt9_IdentityIiESt4lessIiESaIiEE8_S_rightEPSt18_Rb_tree_node_base$lazy_pointer
0x00058C40	0x00000008	[  0] __ZNSt8_Rb_treeIiiSt9_IdentityIiESt4lessIiESaIiEE8_S_valueEPKSt13_Rb_tree_nodeIiE$lazy_pointer
0x00058C48	0x00000008	[  0] __ZNSt8_Rb_treeIiiSt9_IdentityIiESt4lessIiESaIiEE8_S_valueEPKSt18_Rb_tree_node_base$lazy_pointer
0x00058C50	0x00000008	[  0] __ZNSt8_Rb_treeIiiSt9_IdentityIiESt4lessIiESaIiEE9_M_insertEPKSt18_Rb_tree_node_baseS8_RKi$lazy_pointer
0x00058C58	0x00000008	[  0] __ZNSt8_Rb_treeIiiSt9_IdentityIiESt4lessIiESaIiEE9_M_insertEPSt18_Rb_tree_node_baseS7_RKi$lazy_pointer
0x00058C60	0x00000008	[  0] __ZNSt8_Rb_treeIiiSt9_IdentityIiESt4lessIiESaIiEEC1ERKS3_RKS4_$lazy_pointer
0x00058C68	0x00000008	[  0] __ZNSt8_Rb_treeIiiSt9_IdentityIiESt4lessIiESaIiEEC1ERKS5_$lazy_pointer
0x00058C70	0x00000008	[  0] __ZNSt8_Rb_treeIiiSt9_IdentityIiESt4lessIiESaIiEED1Ev$lazy_pointer
0x00058C78	0x00000008	[  0] __ZNSt8_Rb_treeIiiSt9_IdentityIiESt4lessIiESaIiEEaSERKS5_$lazy_pointer
0x00058C80	0x00000008	[  0] __ZNSt8_Rb_treeIxSt4pairIKxSt3setIiSt4lessIiESaIiEEESt10_Select1stIS7_ES3_IxESaIS7_EE11_M_get_nodeEv$lazy_pointer
0x00058C88	0x00000008	[  0] __ZNSt8_Rb_treeIxSt4pairIKxSt3setIiSt4lessIiESaIiEEESt10_Select1stIS7_ES3_IxESaIS7_EE11_M_leftmostEv$lazy_pointer
0x00058C90	0x00000008	[  0] __ZNSt8_Rb_treeIxSt4pairIKxSt3setIiSt4lessIiESaIiEEESt10_Select1stIS7_ES3_IxESaIS7_EE11_M_put_nodeEPSt13_Rb_tree_nodeIS7_E$lazy_pointer
0x00058C98	0x00000008	[  0] __ZNSt8_Rb_treeIxSt4pairIKxSt3setIiSt4lessIiESaIiEEESt10_Select1stIS7_ES3_IxESaIS7_EE11lower_boundERS1_$lazy_pointer
0x00058CA0	0x00000008	[  0] __ZNSt8_Rb_treeIxSt4pairIKxSt3setIiSt4lessIiESaIiEEESt10_Select1stIS7_ES3_IxESaIS7_EE12_M_rightmostEv$lazy_pointer
0x00058CA8	0x00000008	[  0] __ZNSt8_Rb_treeIxSt4pairIKxSt3setIiSt4lessIiESaIiEEESt10_Select1stIS7_ES3_IxESaIS7_EE13_Rb_tree_implISA_Lb0EEC1ERKSaISt13_Rb_tree_nodeIS7_EERKSA_$lazy_pointer
0x00058CB0	0x00000008	[  0] __ZNSt8_Rb_treeIxSt4pairIKxSt3setIiSt4lessIiESaIiEEESt10_Select1stIS7_ES3_IxESaIS7_EE13_Rb_tree_implISA_Lb0EED1Ev$lazy_pointer
0x00058CB8	0x00000008	[  0] __ZNSt8_Rb_treeIxSt4pairIKxSt3setIiSt4lessIiESaIiEEESt10_Select1stIS7_ES3_IxESaIS7_EE14_M_create_nodeERKS7_$lazy_pointer
0x00058CC0	0x00000008	[  0] __ZNSt8_Rb_treeIxSt4pairIKxSt3setIiSt4lessIiESaIiEEESt10_Select1stIS7_ES3_IxESaIS7_EE15_M_destroy_nodeEPSt13_Rb_tree_nodeIS7_E$lazy_pointer
0x00058CC8	0x00000008	[  0] __ZNSt8_Rb_treeIxSt4pairIKxSt3setIiSt4lessIiESaIiEEESt10_Select1stIS7_ES3_IxESaIS7_EE16_M_insert_uniqueERKS7_$lazy_pointer
0x00058CD0	0x00000008	[  0] __ZNSt8_Rb_treeIxSt4pairIKxSt3setIiSt4lessIiESaIiEEESt10_Select1stIS7_ES3_IxESaIS7_EE16_M_insert_uniqueESt17_Rb_tree_iteratorIS7_ERKS7_$lazy_pointer
0x00058CD8	0x00000008	[  0] __ZNSt8_Rb_treeIxSt4pairIKxSt3setIiSt4lessIiESaIiEEESt10_Select1stIS7_ES3_IxESaIS7_EE3endEv$lazy_pointer
0x00058CE0	0x00000008	[  0] __ZNSt8_Rb_treeIxSt4pairIKxSt3setIiSt4lessIiESaIiEEESt10_Select1stIS7_ES3_IxESaIS7_EE4findERS1_$lazy_pointer
0x00058CE8	0x00000008	[  0] __ZNSt8_Rb_treeIxSt4pairIKxSt3setIiSt4lessIiESaIiEEESt10_Select1stIS7_ES3_IxESaIS7_EE5beginEv$lazy_pointer
0x00058CF0	0x00000008	[  0] __ZNSt8_Rb_treeIxSt4pairIKxSt3setIiSt4lessIiESaIiEEESt10_Select1stIS7_ES3_IxESaIS7_EE5eraseESt17_Rb_tree_iteratorIS7_E$lazy_pointer
0x00058CF8	0x00000008	[  0] __ZNSt8_Rb_treeIxSt4pairIKxSt3setIiSt4lessIiESaIiEEESt10_Select1stIS7_ES3_IxESaIS7_EE6_M_endEv$lazy_pointer
0x00058D00	0x00000008	[  0] __ZNSt8_Rb_treeIxSt4pairIKxSt3setIiSt4lessIiESaIiEEESt10_Select1stIS7_ES3_IxESaIS7_EE6_S_keyEPKSt13_Rb_tree_nodeIS7_E$lazy_pointer
0x00058D08	0x00000008	[  0] __ZNSt8_Rb_treeIxSt4pairIKxSt3setIiSt4lessIiESaIiEEESt10_Select1stIS7_ES3_IxESaIS7_EE6_S_keyEPKSt18_Rb_tree_node_base$lazy_pointer
0x00058D10	0x00000008	[  0] __ZNSt8_Rb_treeIxSt4pairIKxSt3setIiSt4lessIiESaIiEEESt10_Select1stIS7_ES3_IxESaIS7_EE7_S_leftEPSt18_Rb_tree_node_base$lazy_pointer
0x00058D18	0x00000008	[  0] __ZNSt8_Rb_treeIxSt4pairIKxSt3setIiSt4lessIiESaIiEEESt10_Select1stIS7_ES3_IxESaIS7_EE8_M_beginEv$lazy_pointer
0x00058D20	0x00000008	[  0] __ZNSt8_Rb_treeIxSt4pairIKxSt3setIiSt4lessIiESaIiEEESt10_Select1stIS7_ES3_IxESaIS7_EE8_M_eraseEPSt13_Rb_tree_nodeIS7_E$lazy_pointer
0x00058D28	0x00000008	[  0] __ZNSt8_Rb_treeIxSt4pairIKxSt3setIiSt4lessIiESaIiEEESt10_Select1stIS7_ES3_IxESaIS7_EE8_S_rightEPSt18_Rb_tree_node_base$lazy_pointer
0x00058D30	0x00000008	[  0] __ZNSt8_Rb_treeIxSt4pairIKxSt3setIiSt4lessIiESaIiEEESt10_Select1stIS7_ES3_IxESaIS7_EE8_S_valueEPKSt13_Rb_tree_nodeIS7_E$lazy_pointer
0x00058D38	0x00000008	[  0] __ZNSt8_Rb_treeIxSt4pairIKxSt3setIiSt4lessIiESaIiEEESt10_Select1stIS7_ES3_IxESaIS7_EE8_S_valueEPKSt18_Rb_tree_node_base$lazy_pointer
0x00058D40	0x00000008	[  0] __ZNSt8_Rb_treeIxSt4pairIKxSt3setIiSt4lessIiESaIiEEESt10_Select1stIS7_ES3_IxESaIS7_EE9_M_insertEPSt18_Rb_tree_node_baseSE_RKS7_$lazy_pointer
0x00058D48	0x00000008	[  0] __ZNSt8_Rb_treeIxSt4pairIKxSt3setIiSt4lessIiESaIiEEESt10_Select1stIS7_ES3_IxESaIS7_EEC1ERKSA_RKSB_$lazy_pointer
